
Optional file vector_offset_init.o not found
Archive member included to satisfy reference by file (symbol)

/opt/microchip/xc32/v4.21/bin/bin/../../lib/gcc/pic32mx/8.3.1/../../../../pic32mx/lib/fpu64/libpic32.a(memcpy.o)
                              build/nsensor/production/_ext/1360937237/main.o (memcpy)
/opt/microchip/xc32/v4.21/bin/bin/../../lib/gcc/pic32mx/8.3.1/../../../../pic32mx/lib/fpu64/libpic32.a(memset.o)
                              build/nsensor/production/_ext/1965004555/plib_canfd1.o (memset)
/opt/microchip/xc32/v4.21/bin/bin/../../lib/gcc/pic32mx/8.3.1/../../../../pic32mx/lib/fpu64/libpic32.a(strlen.o)
                              build/nsensor/production/_ext/1684788505/eadog.o (strlen)
/opt/microchip/xc32/v4.21/bin/bin/../../lib/gcc/pic32mx/8.3.1/../../../../pic32mx/lib/fpu64/libpic32.a(default-on-reset.o)
                              /tmp/ccBkuxsy.o (_on_reset)
/opt/microchip/xc32/v4.21/bin/bin/../../lib/gcc/pic32mx/8.3.1/../../../../pic32mx/lib/fpu64/libpic32.a(default-on-bootstrap.o)
                              /tmp/ccBkuxsy.o (_on_bootstrap)
/opt/microchip/xc32/v4.21/bin/bin/../../lib/gcc/pic32mx/8.3.1/../../../../pic32mx/lib/fpu64/libpic32.a(default-nmi-handler.o)
                              /tmp/ccBkuxsy.o (_nmi_handler)
/opt/microchip/xc32/v4.21/bin/bin/../../lib/gcc/pic32mx/8.3.1/../../../../pic32mx/lib/fpu64/libpic32.a(pic32_data_init_wrapper.o)
                              /tmp/ccBkuxsy.o (__pic32_data_init)
/opt/microchip/xc32/v4.21/bin/bin/../../lib/gcc/pic32mx/8.3.1/../../../../pic32mx/lib/fpu64/libpic32.a(pic32_data_init_0_1.o)
                              (__copy_needed)
/opt/microchip/xc32/v4.21/bin/bin/../../lib/gcc/pic32mx/8.3.1/../../../../pic32mx/lib/fpu64/libpic32.a(general-exception.o)
                              /tmp/ccBkuxsy.o (_general_exception_context)
/opt/microchip/xc32/v4.21/bin/bin/../../lib/gcc/pic32mx/8.3.1/../../../../pic32mx/lib/fpu64/libpic32.a(defaultinterrupt.o)
                              /tmp/ccs5yPaT.o (_DefaultInterrupt)
/opt/microchip/xc32/v4.21/bin/bin/../../lib/gcc/pic32mx/8.3.1/../../../../pic32mx/lib/fpu64/libc-musl.a(__sio_printf_s.o)
                              build/nsensor/production/_ext/1684788505/OledDriver.o (_printf_s)
/opt/microchip/xc32/v4.21/bin/bin/../../lib/gcc/pic32mx/8.3.1/../../../../pic32mx/lib/fpu64/libc-musl.a(__sio_snprintf_dfosux.o)
                              build/nsensor/production/_ext/1360937237/main.o (_snprintf_cdfFnopsuxX)
/opt/microchip/xc32/v4.21/bin/bin/../../lib/gcc/pic32mx/8.3.1/../../../../pic32mx/lib/fpu64/libc-musl.a(__sio_snprintf_dosux.o)
                              build/nsensor/production/_ext/1360937237/bma490l.o (_snprintf_cdnopsuxX)
/opt/microchip/xc32/v4.21/bin/bin/../../lib/gcc/pic32mx/8.3.1/../../../../pic32mx/lib/fpu64/libc-musl.a(__sio_snprintf_doux.o)
                              build/nsensor/production/_ext/1360937237/bma490l.o (_snprintf_cdnopuxX)
/opt/microchip/xc32/v4.21/bin/bin/../../lib/gcc/pic32mx/8.3.1/../../../../pic32mx/lib/fpu64/libc-musl.a(__sio_snprintf_s.o)
                              build/nsensor/production/_ext/1360937237/sca3300.o (_snprintf_s)
/opt/microchip/xc32/v4.21/bin/bin/../../lib/gcc/pic32mx/8.3.1/../../../../pic32mx/lib/fpu64/libc-musl.a(__fmt_d.o)
                              /opt/microchip/xc32/v4.21/bin/bin/../../lib/gcc/pic32mx/8.3.1/../../../../pic32mx/lib/fpu64/libc-musl.a(__sio_snprintf_dfosux.o) (__fmt_d_needed)
/opt/microchip/xc32/v4.21/bin/bin/../../lib/gcc/pic32mx/8.3.1/../../../../pic32mx/lib/fpu64/libc-musl.a(__fmt_fp.o)
                              /opt/microchip/xc32/v4.21/bin/bin/../../lib/gcc/pic32mx/8.3.1/../../../../pic32mx/lib/fpu64/libc-musl.a(__sio_snprintf_dfosux.o) (__fmt_f_needed)
/opt/microchip/xc32/v4.21/bin/bin/../../lib/gcc/pic32mx/8.3.1/../../../../pic32mx/lib/fpu64/libc-musl.a(__fmt_o.o)
                              /opt/microchip/xc32/v4.21/bin/bin/../../lib/gcc/pic32mx/8.3.1/../../../../pic32mx/lib/fpu64/libc-musl.a(__sio_snprintf_dfosux.o) (__fmt_o_needed)
/opt/microchip/xc32/v4.21/bin/bin/../../lib/gcc/pic32mx/8.3.1/../../../../pic32mx/lib/fpu64/libc-musl.a(__fmt_s.o)
                              /opt/microchip/xc32/v4.21/bin/bin/../../lib/gcc/pic32mx/8.3.1/../../../../pic32mx/lib/fpu64/libc-musl.a(__sio_printf_s.o) (__fmt_s_needed)
/opt/microchip/xc32/v4.21/bin/bin/../../lib/gcc/pic32mx/8.3.1/../../../../pic32mx/lib/fpu64/libc-musl.a(__fmt_u.o)
                              /opt/microchip/xc32/v4.21/bin/bin/../../lib/gcc/pic32mx/8.3.1/../../../../pic32mx/lib/fpu64/libc-musl.a(__fmt_d.o) (__cvt_u)
/opt/microchip/xc32/v4.21/bin/bin/../../lib/gcc/pic32mx/8.3.1/../../../../pic32mx/lib/fpu64/libc-musl.a(__fmt_x.o)
                              /opt/microchip/xc32/v4.21/bin/bin/../../lib/gcc/pic32mx/8.3.1/../../../../pic32mx/lib/fpu64/libc-musl.a(__sio_snprintf_dfosux.o) (__fmt_x_needed)
/opt/microchip/xc32/v4.21/bin/bin/../../lib/gcc/pic32mx/8.3.1/../../../../pic32mx/lib/fpu64/libc-musl.a(__pop_float.o)
                              /opt/microchip/xc32/v4.21/bin/bin/../../lib/gcc/pic32mx/8.3.1/../../../../pic32mx/lib/fpu64/libc-musl.a(__sio_snprintf_dfosux.o) (__pop_float_needed)
/opt/microchip/xc32/v4.21/bin/bin/../../lib/gcc/pic32mx/8.3.1/../../../../pic32mx/lib/fpu64/libc-musl.a(__pop_int.o)
                              /opt/microchip/xc32/v4.21/bin/bin/../../lib/gcc/pic32mx/8.3.1/../../../../pic32mx/lib/fpu64/libc-musl.a(__sio_snprintf_dfosux.o) (__pop_int_needed)
/opt/microchip/xc32/v4.21/bin/bin/../../lib/gcc/pic32mx/8.3.1/../../../../pic32mx/lib/fpu64/libc-musl.a(__pop_ptr.o)
                              /opt/microchip/xc32/v4.21/bin/bin/../../lib/gcc/pic32mx/8.3.1/../../../../pic32mx/lib/fpu64/libc-musl.a(__sio_snprintf_dfosux.o) (__pop_ptr_needed)
/opt/microchip/xc32/v4.21/bin/bin/../../lib/gcc/pic32mx/8.3.1/../../../../pic32mx/lib/fpu64/libc-musl.a(__printf_core.o)
                              /opt/microchip/xc32/v4.21/bin/bin/../../lib/gcc/pic32mx/8.3.1/../../../../pic32mx/lib/fpu64/libc-musl.a(__fmt_d.o) (__pad)
/opt/microchip/xc32/v4.21/bin/bin/../../lib/gcc/pic32mx/8.3.1/../../../../pic32mx/lib/fpu64/libc-musl.a(stdout.o)
                              /opt/microchip/xc32/v4.21/bin/bin/../../lib/gcc/pic32mx/8.3.1/../../../../pic32mx/lib/fpu64/libc-musl.a(__sio_printf_s.o) (_stdout)
/opt/microchip/xc32/v4.21/bin/bin/../../lib/gcc/pic32mx/8.3.1/../../../../pic32mx/lib/fpu64/libc-musl.a(vprintf.o)
                              build/nsensor/production/_ext/1360937237/canfd.o (vprintf)
/opt/microchip/xc32/v4.21/bin/bin/../../lib/gcc/pic32mx/8.3.1/../../../../pic32mx/lib/fpu64/libc-musl.a(atoi.o)
                              /opt/microchip/xc32/v4.21/bin/bin/../../lib/gcc/pic32mx/8.3.1/../../../../pic32mx/lib/fpu64/libc-musl.a(__printf_core.o) (atoi)
/opt/microchip/xc32/v4.21/bin/bin/../../lib/gcc/pic32mx/8.3.1/../../../../pic32mx/lib/fpu64/libc-musl.a(strcpy.o)
                              /opt/microchip/xc32/v4.21/bin/bin/../../lib/gcc/pic32mx/8.3.1/../../../../pic32mx/lib/fpu64/libc-musl.a(__fmt_fp.o) (strcpy)
/opt/microchip/xc32/v4.21/bin/bin/../../lib/gcc/pic32mx/8.3.1/../../../../pic32mx/lib/fpu64/libc-musl.a(strncmp.o)
                              build/nsensor/production/_ext/1360937237/cmd_scanner.o (strncmp)
/opt/microchip/xc32/v4.21/bin/bin/../../lib/gcc/pic32mx/8.3.1/../../../../pic32mx/lib/fpu64/libc-musl.a(tolower.o)
                              /opt/microchip/xc32/v4.21/bin/bin/../../lib/gcc/pic32mx/8.3.1/../../../../pic32mx/lib/fpu64/libc-musl.a(__fmt_fp.o) (tolower)
/opt/microchip/xc32/v4.21/bin/bin/../../lib/gcc/pic32mx/8.3.1/../../../../pic32mx/lib/fpu64/libc-musl.a(toupper.o)
                              /opt/microchip/xc32/v4.21/bin/bin/../../lib/gcc/pic32mx/8.3.1/../../../../pic32mx/lib/fpu64/libc-musl.a(__fmt_x.o) (toupper)
/opt/microchip/xc32/v4.21/bin/bin/../../lib/gcc/pic32mx/8.3.1/../../../../pic32mx/lib/fpu64/libc-musl.a(__int_vfprintf.o)
                              /opt/microchip/xc32/v4.21/bin/bin/../../lib/gcc/pic32mx/8.3.1/../../../../pic32mx/lib/fpu64/libc-musl.a(__sio_printf_s.o) (__vfprintf)
/opt/microchip/xc32/v4.21/bin/bin/../../lib/gcc/pic32mx/8.3.1/../../../../pic32mx/lib/fpu64/libc-musl.a(__int_vsnprintf.o)
                              /opt/microchip/xc32/v4.21/bin/bin/../../lib/gcc/pic32mx/8.3.1/../../../../pic32mx/lib/fpu64/libc-musl.a(__sio_snprintf_dfosux.o) (__vsnprintf)
/opt/microchip/xc32/v4.21/bin/bin/../../lib/gcc/pic32mx/8.3.1/../../../../pic32mx/lib/fpu64/libc-musl.a(__fopen.o)
                              /opt/microchip/xc32/v4.21/bin/bin/../../lib/gcc/pic32mx/8.3.1/../../../../pic32mx/lib/fpu64/libc-musl.a(stdout.o) (__stdio_seek)
/opt/microchip/xc32/v4.21/bin/bin/../../lib/gcc/pic32mx/8.3.1/../../../../pic32mx/lib/fpu64/libc-musl.a(__io_init_needed.o)
                              /opt/microchip/xc32/v4.21/bin/bin/../../lib/gcc/pic32mx/8.3.1/../../../../pic32mx/lib/fpu64/libc-musl.a(stdout.o) (__io_init_needed)
/opt/microchip/xc32/v4.21/bin/bin/../../lib/gcc/pic32mx/8.3.1/../../../../pic32mx/lib/fpu64/libc-musl.a(__out.o)
                              /opt/microchip/xc32/v4.21/bin/bin/../../lib/gcc/pic32mx/8.3.1/../../../../pic32mx/lib/fpu64/libc-musl.a(stdout.o) (__stdio_write_unbuffered)
/opt/microchip/xc32/v4.21/bin/bin/../../lib/gcc/pic32mx/8.3.1/../../../../pic32mx/lib/fpu64/libc-musl.a(__stdio_close.o)
                              /opt/microchip/xc32/v4.21/bin/bin/../../lib/gcc/pic32mx/8.3.1/../../../../pic32mx/lib/fpu64/libc-musl.a(stdout.o) (__stdio_close_rw)
/opt/microchip/xc32/v4.21/bin/bin/../../lib/gcc/pic32mx/8.3.1/../../../../pic32mx/lib/fpu64/libc-musl.a(vfprintf.o)
                              /opt/microchip/xc32/v4.21/bin/bin/../../lib/gcc/pic32mx/8.3.1/../../../../pic32mx/lib/fpu64/libc-musl.a(vprintf.o) (vfprintf)
/opt/microchip/xc32/v4.21/bin/bin/../../lib/gcc/pic32mx/8.3.1/../../../../pic32mx/lib/fpu64/libc-musl.a(stpcpy.o)
                              /opt/microchip/xc32/v4.21/bin/bin/../../lib/gcc/pic32mx/8.3.1/../../../../pic32mx/lib/fpu64/libc-musl.a(strcpy.o) (__stpcpy)
/opt/microchip/xc32/v4.21/bin/bin/../../lib/gcc/pic32mx/8.3.1/../../../../pic32mx/lib/fpu64/libc-musl.a(malloc.o)
                              /opt/microchip/xc32/v4.21/bin/bin/../../lib/gcc/pic32mx/8.3.1/../../../../pic32mx/lib/fpu64/libc-musl.a(__fopen.o) (malloc)
/opt/microchip/xc32/v4.21/bin/bin/../../lib/gcc/pic32mx/8.3.1/../../../../pic32mx/lib/fpu64/libc-musl.a(expand_heap.o)
                              /opt/microchip/xc32/v4.21/bin/bin/../../lib/gcc/pic32mx/8.3.1/../../../../pic32mx/lib/fpu64/libc-musl.a(malloc.o) (__expand_heap)
/opt/microchip/xc32/v4.21/bin/bin/../../lib/gcc/pic32mx/8.3.1/../../../../pic32mx/lib/fpu64/libc-musl.a(__init_stdio.o)
                              /opt/microchip/xc32/v4.21/bin/bin/../../lib/gcc/pic32mx/8.3.1/../../../../pic32mx/lib/fpu64/libc-musl.a(__io_init_needed.o) (__init_stdio_needed)
/opt/microchip/xc32/v4.21/bin/bin/../../lib/gcc/pic32mx/8.3.1/../../../../pic32mx/lib/fpu64/libc-musl.a(__io_file_needed.o)
                              /opt/microchip/xc32/v4.21/bin/bin/../../lib/gcc/pic32mx/8.3.1/../../../../pic32mx/lib/fpu64/libc-musl.a(__io_init_needed.o) (__io_file_needed)
/opt/microchip/xc32/v4.21/bin/bin/../../lib/gcc/pic32mx/8.3.1/../../../../pic32mx/lib/fpu64/libc-musl.a(__io_fmt_needed.o)
                              /opt/microchip/xc32/v4.21/bin/bin/../../lib/gcc/pic32mx/8.3.1/../../../../pic32mx/lib/fpu64/libc-musl.a(vfprintf.o) (__io_fmt_needed)
/opt/microchip/xc32/v4.21/bin/bin/../../lib/gcc/pic32mx/8.3.1/../../../../pic32mx/lib/fpu64/libc-musl.a(libc.o)
                              /opt/microchip/xc32/v4.21/bin/bin/../../lib/gcc/pic32mx/8.3.1/../../../../pic32mx/lib/fpu64/libc-musl.a(malloc.o) (__libc)
/opt/microchip/xc32/v4.21/bin/bin/../../lib/gcc/pic32mx/8.3.1/../../../../pic32mx/lib/fpu64/libc-musl.a(__fmt_a.o)
                              /opt/microchip/xc32/v4.21/bin/bin/../../lib/gcc/pic32mx/8.3.1/../../../../pic32mx/lib/fpu64/libc-musl.a(__io_fmt_needed.o) (__fmt_a_needed)
/opt/microchip/xc32/v4.21/bin/bin/../../lib/gcc/pic32mx/8.3.1/../../../../pic32mx/lib/fpu64/libm-musl.a(cos.o)
                              build/nsensor/production/_ext/1360937237/gfx.o (cos)
/opt/microchip/xc32/v4.21/bin/bin/../../lib/gcc/pic32mx/8.3.1/../../../../pic32mx/lib/fpu64/libm-musl.a(floor.o)
                              /opt/microchip/xc32/v4.21/bin/bin/../../lib/gcc/pic32mx/8.3.1/../../../../pic32mx/lib/fpu64/libc-musl.a(__fmt_fp.o) (floor)
/opt/microchip/xc32/v4.21/bin/bin/../../lib/gcc/pic32mx/8.3.1/../../../../pic32mx/lib/fpu64/libm-musl.a(fma.o)
                              /opt/microchip/xc32/v4.21/bin/bin/../../lib/gcc/pic32mx/8.3.1/../../../../pic32mx/lib/fpu64/libc-musl.a(__fmt_fp.o) (fma)
/opt/microchip/xc32/v4.21/bin/bin/../../lib/gcc/pic32mx/8.3.1/../../../../pic32mx/lib/fpu64/libm-musl.a(scalbn.o)
                              /opt/microchip/xc32/v4.21/bin/bin/../../lib/gcc/pic32mx/8.3.1/../../../../pic32mx/lib/fpu64/libm-musl.a(fma.o) (scalbn)
/opt/microchip/xc32/v4.21/bin/bin/../../lib/gcc/pic32mx/8.3.1/../../../../pic32mx/lib/fpu64/libm-musl.a(sin.o)
                              build/nsensor/production/_ext/1360937237/gfx.o (sin)
/opt/microchip/xc32/v4.21/bin/bin/../../lib/gcc/pic32mx/8.3.1/../../../../pic32mx/lib/fpu64/libm-musl.a(__cos.o)
                              /opt/microchip/xc32/v4.21/bin/bin/../../lib/gcc/pic32mx/8.3.1/../../../../pic32mx/lib/fpu64/libm-musl.a(cos.o) (__cos)
/opt/microchip/xc32/v4.21/bin/bin/../../lib/gcc/pic32mx/8.3.1/../../../../pic32mx/lib/fpu64/libm-musl.a(__rem_pio2.o)
                              /opt/microchip/xc32/v4.21/bin/bin/../../lib/gcc/pic32mx/8.3.1/../../../../pic32mx/lib/fpu64/libm-musl.a(cos.o) (__rem_pio2)
/opt/microchip/xc32/v4.21/bin/bin/../../lib/gcc/pic32mx/8.3.1/../../../../pic32mx/lib/fpu64/libm-musl.a(__rem_pio2_large.o)
                              /opt/microchip/xc32/v4.21/bin/bin/../../lib/gcc/pic32mx/8.3.1/../../../../pic32mx/lib/fpu64/libm-musl.a(__rem_pio2.o) (__rem_pio2_large)
/opt/microchip/xc32/v4.21/bin/bin/../../lib/gcc/pic32mx/8.3.1/../../../../pic32mx/lib/fpu64/libm-musl.a(__sin.o)
                              /opt/microchip/xc32/v4.21/bin/bin/../../lib/gcc/pic32mx/8.3.1/../../../../pic32mx/lib/fpu64/libm-musl.a(cos.o) (__sin)
/opt/microchip/xc32/v4.21/bin/bin/../../lib/gcc/pic32mx/8.3.1/fpu64/libgcc.a(_lshrdi3.o)
                              /opt/microchip/xc32/v4.21/bin/bin/../../lib/gcc/pic32mx/8.3.1/../../../../pic32mx/lib/fpu64/libc-musl.a(malloc.o) (__lshrdi3)
/opt/microchip/xc32/v4.21/bin/bin/../../lib/gcc/pic32mx/8.3.1/fpu64/libgcc.a(_ashldi3.o)
                              /opt/microchip/xc32/v4.21/bin/bin/../../lib/gcc/pic32mx/8.3.1/../../../../pic32mx/lib/fpu64/libc-musl.a(malloc.o) (__ashldi3)
/opt/microchip/xc32/v4.21/bin/bin/../../lib/gcc/pic32mx/8.3.1/fpu64/libgcc.a(_udivdi3.o)
                              /opt/microchip/xc32/v4.21/bin/bin/../../lib/gcc/pic32mx/8.3.1/../../../../pic32mx/lib/fpu64/libc-musl.a(__fmt_u.o) (__udivdi3)
/opt/microchip/xc32/v4.21/bin/bin/../../lib/gcc/pic32mx/8.3.1/fpu64/libgcc.a(_umoddi3.o)
                              /opt/microchip/xc32/v4.21/bin/bin/../../lib/gcc/pic32mx/8.3.1/../../../../pic32mx/lib/fpu64/libc-musl.a(__fmt_u.o) (__umoddi3)
/opt/microchip/xc32/v4.21/bin/bin/../../lib/gcc/pic32mx/8.3.1/../../../../pic32mx/lib/fpu64/libpic32.a(sbrk.o)
                              /opt/microchip/xc32/v4.21/bin/bin/../../lib/gcc/pic32mx/8.3.1/../../../../pic32mx/lib/fpu64/libc-musl.a(expand_heap.o) (_sbrk)
/opt/microchip/xc32/v4.21/bin/bin/../../lib/gcc/pic32mx/8.3.1/../../../../pic32mx/lib/fpu64/libpic32.a(lseek.o)
                              /opt/microchip/xc32/v4.21/bin/bin/../../lib/gcc/pic32mx/8.3.1/../../../../pic32mx/lib/fpu64/libc-musl.a(__stdio_close.o) (lseek)
/opt/microchip/xc32/v4.21/bin/bin/../../lib/gcc/pic32mx/8.3.1/../../../../pic32mx/lib/fpu64/libpic32.a(close.o)
                              /opt/microchip/xc32/v4.21/bin/bin/../../lib/gcc/pic32mx/8.3.1/../../../../pic32mx/lib/fpu64/libc-musl.a(__stdio_close.o) (close)
/opt/microchip/xc32/v4.21/bin/bin/../../lib/gcc/pic32mx/8.3.1/../../../../pic32mx/lib/fpu64/libpic32.a(errno.o)
                              /opt/microchip/xc32/v4.21/bin/bin/../../lib/gcc/pic32mx/8.3.1/../../../../pic32mx/lib/fpu64/libc-musl.a(__printf_core.o) (errno)

Microchip PIC32 Memory-Usage Report

kseg0 Program-Memory Usage
section                    address  length [bytes]      (dec)  Description
-------                 ----------  -------------------------  -----------
.text                   0x9d000000          0x168         360  App's exec code 
.MIPS.abiflags          0x9d000168           0x18          24   
.app_excpt              0x9d000180           0x10          16  General-Exception 
.rodata                 0x9d000190           0x70         112  Read-only const 
.vectors                0x9d000200           0xc0         192   
.text                   0x9d0002c0         0x3958       14680  App's exec code 
.text                   0x9d003c18         0x2e44       11844  App's exec code 
.text                   0x9d006a5c         0x28f8       10488  App's exec code 
.text                   0x9d009354         0x1fd0        8144  App's exec code 
.text                   0x9d00b324          0xc84        3204  App's exec code 
.dinit                  0x9d00bfa8          0xc00        3072   
.text                   0x9d00cba8         0x1534        5428  App's exec code 
.text.__rem_pio2_large  0x9d00e0dc          0x838        2104   
.text                   0x9d00e914         0x1010        4112  App's exec code 
.text                   0x9d00f924          0xec8        3784  App's exec code 
.text                   0x9d0107ec          0xe54        3668  App's exec code 
.text.__fmt_fp          0x9d011640          0x6d0        1744   
.text                   0x9d011d10          0xd44        3396  App's exec code 
.text.fma               0x9d012a54          0x678        1656   
.text.__fmt_a           0x9d0130cc          0x628        1576   
.text                   0x9d0136f4          0xb08        2824  App's exec code 
.text.__printf_core     0x9d0141fc          0x580        1408   
.text                   0x9d01477c          0x56c        1388  App's exec code 
.rodata                 0x9d014ce8          0x514        1300  Read-only const 
.text                   0x9d0151fc          0x89c        2204  App's exec code 
.text                   0x9d015a98          0x43c        1084  App's exec code 
.text.__rem_pio2        0x9d015ed4          0x430        1072   
.text                   0x9d016304          0x7b8        1976  App's exec code 
.rodata                 0x9d016ac0          0x3c8         968  Read-only const 
.text                   0x9d016e88          0x774        1908  App's exec code 
.rodata                 0x9d0175fc          0x300         768  Read-only const 
.text.malloc            0x9d0178fc          0x290         656   
.text                   0x9d017b8c          0x4f8        1272  App's exec code 
.text                   0x9d018084          0x4f0        1264  App's exec code 
.text                   0x9d018574          0x250         592  App's exec code 
.rodata                 0x9d0187c8          0x248         584  Read-only const 
.text                   0x9d018a10          0x218         536  App's exec code 
.text.__fmt_x           0x9d018c28          0x208         520   
.text.free              0x9d018e30          0x198         408   
.text.__pop_int         0x9d018fc8          0x188         392   
.text                   0x9d019150          0x2cc         716  App's exec code 
.text                   0x9d01941c          0x160         352  App's exec code 
.rodata                 0x9d019580          0x158         344  Read-only const 
.text._sbrk_init        0x9d0196d8          0x154         340   
.text.__fmt_d           0x9d01982c          0x150         336   
.text                   0x9d01997c          0x140         320  App's exec code 
.text.__cvt_u           0x9d019abc          0x13c         316   
.text.sin               0x9d019bf8          0x120         288   
.text                   0x9d019d18          0x11c         284  App's exec code 
.text.realloc           0x9d019e34          0x118         280   
.text.__pad             0x9d019f4c          0x100         256   
.text.cos               0x9d01a04c          0x100         256   
.text                   0x9d01a14c          0x1f4         500  App's exec code 
.text.__fmt_o           0x9d01a340           0xf4         244   
.text.__pop_ptr         0x9d01a434           0xe4         228   
.rodata                 0x9d01a518           0xe0         224  Read-only const 
.text.general_exception 0x9d01a5f8           0xdc         220   
.text.__stdio_close_rw  0x9d01a6d4           0xc0         192   
.text.__fmt_u           0x9d01a794           0xbc         188   
.text.floor             0x9d01a850           0xb4         180   
.text._sbrk             0x9d01a904           0xb0         176   
.text.unbin             0x9d01a9b4           0xac         172   
.text                   0x9d01aa60           0xa8         168  App's exec code 
.text.__fmt_s           0x9d01ab08           0xa4         164   
.rodata                 0x9d01abb0           0xa0         160  Read-only const 
.text.__stdio_close     0x9d01ac50           0xa0         160   
.text.__sin             0x9d01acf0           0x90         144   
.text.__out             0x9d01ad80           0x8c         140   
.text.normalize         0x9d01ae0c           0x8c         140   
.text.scalbn            0x9d01ae98           0x8c         140   
.text.__cos             0x9d01af24           0x88         136   
.rodata                 0x9d01afb0           0x80         128  Read-only const 
.text.dinit.startup     0x9d01b030           0x80         128   
.text.__vsnprintf       0x9d01b0b0           0x80         128   
.text.atoi              0x9d01b130           0x7c         124   
.rodata.cst8            0x9d01b1b0           0x78         120   
.text.alloc_rev         0x9d01b228           0x74         116   
.text.alloc_fwd         0x9d01b29c           0x70         112   
.text.a_clz_64          0x9d01b30c           0x6c         108   
.rodata                 0x9d01b378           0x64         100  Read-only const 
.text                   0x9d01b3dc           0x60          96  App's exec code 
.text.__fopen_std       0x9d01b43c           0x60          96   
.text.bin_index         0x9d01b49c           0x60          96   
.text.__sio_snprintf_df 0x9d01b4fc           0x5c          92   
.text.__string_out      0x9d01b558           0x5c          92   
.rodata                 0x9d01b5b4           0x5c          92  Read-only const 
.text.__fmt_state       0x9d01b610           0x58          88   
.text.adjust_size       0x9d01b668           0x58          88   
.text.trim              0x9d01b6c0           0x58          88   
.rodata                 0x9d01b718           0x54          84  Read-only const 
.text.main_entry        0x9d01b76c           0x54          84   
.rodata                 0x9d01b7c0           0x50          80  Read-only const 
.text.__malloc0         0x9d01b810           0x50          80   
.text.__sio_snprintf_do 0x9d01b860           0x4c          76   
.text.__sio_snprintf_do 0x9d01b8ac           0x4c          76   
.text.sbrk              0x9d01b8f8           0x4c          76   
.text.__pop_float       0x9d01b944           0x48          72   
.text.strncmp           0x9d01b98c           0x48          72   
.text                   0x9d01b9d4           0x44          68  App's exec code 
.rodata                 0x9d01ba18           0x40          64  Read-only const 
.rodata.cst8            0x9d01ba58           0x80         128   
.text.__wrap_printf     0x9d01bad8           0x3c          60   
.text.__vfprintf        0x9d01bb14           0x3c          60   
.text.vfprintf          0x9d01bb50           0x3c          60   
.text.__expand_heap     0x9d01bb8c           0x3c          60   
.text                   0x9d01bbc8           0x78         120  App's exec code 
.text.lock_bin          0x9d01bc40           0x34          52   
.text.vprintf           0x9d01bc74           0x30          48   
.rodata.cst8            0x9d01bca8           0x30          48   
.text.__init_stdio      0x9d01bcd8           0x2c          44   
.text._stub_sbd_memlayo 0x9d01bd04           0x2c          44   
.text.strcpy            0x9d01bd30           0x28          40   
.rodata.cst8            0x9d01bd58           0x28          40   
.text.__wrap_snprintf   0x9d01bd80           0x48          72   
.text.__wrap_snprintf   0x9d01bdc8           0x48          72   
.rodata                 0x9d01be10           0x20          32  Read-only const 
.text.dinit.startup     0x9d01be30           0x20          32   
.rodata.cst8            0x9d01be50           0x20          32   
.text.__init_stdout     0x9d01be70           0x20          32   
.text.__fwrite_min      0x9d01be90           0x20          32   
.text.stpcpy            0x9d01beb0           0x20          32   
.rodata.cst8            0x9d01bed0           0x20          32   
.text.__sio_printf_s    0x9d01bef0           0x1c          28   
.text.__sio_snprintf_s  0x9d01bf0c           0x1c          28   
.text.tolower           0x9d01bf28           0x1c          28   
.text.__tolower_l       0x9d01bf44           0x1c          28   
.text.toupper           0x9d01bf60           0x1c          28   
.text.__toupper_l       0x9d01bf7c           0x1c          28   
.text.__fopen           0x9d01bf98           0x1c          28   
.text                   0x9d01bfb4           0x18          24  App's exec code 
.rodata                 0x9d01bfcc           0x18          24  Read-only const 
.rodata.cst8            0x9d01bfe8           0x18          24   
.rodata                 0x9d01c000           0x10          16  Read-only const 
.rodata.str1.4          0x9d01c010           0x20          32   
.rodata.cst8            0x9d01c030           0x20          32   
.rodata.cst8            0x9d01c050           0x10          16   
.text._on_reset         0x9d01c060            0x8           8   
.text._on_bootstrap     0x9d01c068            0x8           8   
.text.__dummy_fmt3      0x9d01c070            0x8           8   
.text.__dummy_fmt4      0x9d01c078            0x8           8   
.text.__dummy_fmts      0x9d01c080            0x8           8   
.rodata.str1.4          0x9d01c088            0x8           8   
.text.__dummy           0x9d01c090           0x10          16   
.text.getpagesize       0x9d01c0a0            0x8           8   
.text.lseek             0x9d01c0a8            0x8           8   
.text.close             0x9d01c0b0            0x8           8   
      Total kseg0_program_mem used  :     0x1c098      114840  21.9% of 0x80000

kseg0 Boot-Memory Usage
section                    address  length [bytes]      (dec)  Description
-------                 ----------  -------------------------  -----------
         Total kseg0_boot_mem used  :           0           0  

kseg1 Boot-Memory Usage
section                    address  length [bytes]      (dec)  Description
-------                 ----------  -------------------------  -----------
.reset                  0xbfc00000          0x194         404  Reset handler 
.bev_excpt              0xbfc00380           0x10          16  BEV-Exception 
         Total kseg1_boot_mem used  :       0x1a4         420  36.5% of 0x480
        --------------------------------------------------------------------------
         Total Program Memory used  :     0x1c23c      115260  21.9% of 0x80480
        --------------------------------------------------------------------------


Data-Memory Usage
section                    address  length [bytes]      (dec)  Description
-------                 ----------  -------------------------  -----------
.sdata                  0x80000000           0xd8         216  Small init data 
.sbss                   0x800000d8          0x1cc         460  Small uninit data 
.data._stdout           0x800002a4            0x4           4   
.data                   0x800002a8          0x3f8        1016  Initialized data 
.data                   0x800006a0           0xb0         176  Initialized data 
.data                   0x80000750           0x60          96  Initialized data 
.bss                    0x800007b0         0x2300        8960  Uninitialized data 
.bss                    0x80003478          0x798        1944  Uninitialized data 
.bss                    0x80003c10          0x41c        1052  Uninitialized data 
.bss                    0x8000402c          0x200         512  Uninitialized data 
.bss                    0x8000422c          0x11c         284  Uninitialized data 
.bss                    0x80004348           0xd0         208  Uninitialized data 
.bss                    0x80004418           0x50          80  Uninitialized data 
.bss                    0x80004468           0x34          52  Uninitialized data 
.bss.errno              0x8000449c            0x4           4   
.bss.can_message_buffer 0xa0002ab0          0x9c8        2504   
.rgbOledBmp_page        0xa0009ff0            0x5           5   
.rgbOledBmp_blank       0xa0009ff8            0x4           4   
.rgbOledBmp0            0xa000a000          0xf00        3840   
.rgbOledBmp1            0xa000af00          0xf00        3840   
         Total kseg0/kseg1 data_mem used  :      0x62a9       25257  38.5% of 0x10000
        --------------------------------------------------------------------------
            Total Data Memory used  :      0x62a9       25257  38.5% of 0x10000
        --------------------------------------------------------------------------


Dynamic Data-Memory Reservation
section                    address  length [bytes]      (dec)  Description
-------                 ----------  -------------------------  -----------
heap                    0x800044a8          0x200         512  Reserved for heap 
stack                   0x800046c0         0xb938       47416  Reserved for stack 

        --------------------------------------------------------------------------

Discarded input sections

 .xc_stack_usage.hdr
                0x0000000000000000        0xe /opt/microchip/xc32/v4.21/bin/bin/../../lib/gcc/pic32mx/8.3.1/../../../../pic32mx/lib/fpu64/debug-exception-return.o
 .xc_stack_usage
                0x0000000000000000       0x1d /opt/microchip/xc32/v4.21/bin/bin/../../lib/gcc/pic32mx/8.3.1/../../../../pic32mx/lib/fpu64/debug-exception-return.o
 .reginfo       0x0000000000000000       0x18 build/nsensor/production/_ext/1684788505/ChrFont0.o
 .MIPS.abiflags
                0x0000000000000000       0x18 build/nsensor/production/_ext/1684788505/ChrFont0.o
 .reginfo       0x0000000000000000       0x18 build/nsensor/production/_ext/1684788505/dogm-graphic.o
 .MIPS.abiflags
                0x0000000000000000       0x18 build/nsensor/production/_ext/1684788505/dogm-graphic.o
 .reginfo       0x0000000000000000       0x18 build/nsensor/production/_ext/1684788505/eadog.o
 .MIPS.abiflags
                0x0000000000000000       0x18 build/nsensor/production/_ext/1684788505/eadog.o
 .reginfo       0x0000000000000000       0x18 build/nsensor/production/_ext/1684788505/FillPat.o
 .MIPS.abiflags
                0x0000000000000000       0x18 build/nsensor/production/_ext/1684788505/FillPat.o
 .reginfo       0x0000000000000000       0x18 build/nsensor/production/_ext/1684788505/foo.o
 .MIPS.abiflags
                0x0000000000000000       0x18 build/nsensor/production/_ext/1684788505/foo.o
 .reginfo       0x0000000000000000       0x18 build/nsensor/production/_ext/1684788505/lcd_drv.o
 .MIPS.abiflags
                0x0000000000000000       0x18 build/nsensor/production/_ext/1684788505/lcd_drv.o
 .reginfo       0x0000000000000000       0x18 build/nsensor/production/_ext/1684788505/OledChar.o
 .MIPS.abiflags
                0x0000000000000000       0x18 build/nsensor/production/_ext/1684788505/OledChar.o
 .reginfo       0x0000000000000000       0x18 build/nsensor/production/_ext/1684788505/OledDriver.o
 .MIPS.abiflags
                0x0000000000000000       0x18 build/nsensor/production/_ext/1684788505/OledDriver.o
 .reginfo       0x0000000000000000       0x18 build/nsensor/production/_ext/1684788505/OledGrph.o
 .MIPS.abiflags
                0x0000000000000000       0x18 build/nsensor/production/_ext/1684788505/OledGrph.o
 .reginfo       0x0000000000000000       0x18 build/nsensor/production/_ext/1966772718/plib_adchs.o
 .MIPS.abiflags
                0x0000000000000000       0x18 build/nsensor/production/_ext/1966772718/plib_adchs.o
 .reginfo       0x0000000000000000       0x18 build/nsensor/production/_ext/1965004555/plib_canfd1.o
 .MIPS.abiflags
                0x0000000000000000       0x18 build/nsensor/production/_ext/1965004555/plib_canfd1.o
 .reginfo       0x0000000000000000       0x18 build/nsensor/production/_ext/619183945/plib_clk.o
 .MIPS.abiflags
                0x0000000000000000       0x18 build/nsensor/production/_ext/619183945/plib_clk.o
 .reginfo       0x0000000000000000       0x18 build/nsensor/production/_ext/1664108525/plib_coretimer.o
 .MIPS.abiflags
                0x0000000000000000       0x18 build/nsensor/production/_ext/1664108525/plib_coretimer.o
 .reginfo       0x0000000000000000       0x18 build/nsensor/production/_ext/2014863652/plib_dmac.o
 .MIPS.abiflags
                0x0000000000000000       0x18 build/nsensor/production/_ext/2014863652/plib_dmac.o
 .reginfo       0x0000000000000000       0x18 build/nsensor/production/_ext/2014902340/plib_evic.o
 .MIPS.abiflags
                0x0000000000000000       0x18 build/nsensor/production/_ext/2014902340/plib_evic.o
 .reginfo       0x0000000000000000       0x18 build/nsensor/production/_ext/2014956168/plib_gpio.o
 .MIPS.abiflags
                0x0000000000000000       0x18 build/nsensor/production/_ext/2014956168/plib_gpio.o
 .reginfo       0x0000000000000000       0x18 build/nsensor/production/_ext/1955707305/plib_mcpwm.o
 .MIPS.abiflags
                0x0000000000000000       0x18 build/nsensor/production/_ext/1955707305/plib_mcpwm.o
 .reginfo       0x0000000000000000       0x18 build/nsensor/production/_ext/619197180/plib_qei2.o
 .MIPS.abiflags
                0x0000000000000000       0x18 build/nsensor/production/_ext/619197180/plib_qei2.o
 .reginfo       0x0000000000000000       0x18 build/nsensor/production/_ext/2015287515/plib_rtcc.o
 .MIPS.abiflags
                0x0000000000000000       0x18 build/nsensor/production/_ext/2015287515/plib_rtcc.o
 .reginfo       0x0000000000000000       0x18 build/nsensor/production/_ext/1877210129/plib_spi1_master.o
 .MIPS.abiflags
                0x0000000000000000       0x18 build/nsensor/production/_ext/1877210129/plib_spi1_master.o
 .reginfo       0x0000000000000000       0x18 build/nsensor/production/_ext/1877210129/plib_spi2_master.o
 .MIPS.abiflags
                0x0000000000000000       0x18 build/nsensor/production/_ext/1877210129/plib_spi2_master.o
 .reginfo       0x0000000000000000       0x18 build/nsensor/production/_ext/619200320/plib_tmr9.o
 .MIPS.abiflags
                0x0000000000000000       0x18 build/nsensor/production/_ext/619200320/plib_tmr9.o
 .reginfo       0x0000000000000000       0x18 build/nsensor/production/_ext/619200320/plib_tmr5.o
 .MIPS.abiflags
                0x0000000000000000       0x18 build/nsensor/production/_ext/619200320/plib_tmr5.o
 .reginfo       0x0000000000000000       0x18 build/nsensor/production/_ext/619200320/plib_tmr3.o
 .MIPS.abiflags
                0x0000000000000000       0x18 build/nsensor/production/_ext/619200320/plib_tmr3.o
 .reginfo       0x0000000000000000       0x18 build/nsensor/production/_ext/619200320/plib_tmr6.o
 .MIPS.abiflags
                0x0000000000000000       0x18 build/nsensor/production/_ext/619200320/plib_tmr6.o
 .reginfo       0x0000000000000000       0x18 build/nsensor/production/_ext/619200320/plib_tmr2.o
 .MIPS.abiflags
                0x0000000000000000       0x18 build/nsensor/production/_ext/619200320/plib_tmr2.o
 .reginfo       0x0000000000000000       0x18 build/nsensor/production/_ext/2015359111/plib_uart1.o
 .MIPS.abiflags
                0x0000000000000000       0x18 build/nsensor/production/_ext/2015359111/plib_uart1.o
 .reginfo       0x0000000000000000       0x18 build/nsensor/production/_ext/725740559/xc32_monitor.o
 .MIPS.abiflags
                0x0000000000000000       0x18 build/nsensor/production/_ext/725740559/xc32_monitor.o
 .reginfo       0x0000000000000000       0x18 build/nsensor/production/_ext/1856863253/exceptions.o
 .MIPS.abiflags
                0x0000000000000000       0x18 build/nsensor/production/_ext/1856863253/exceptions.o
 .reginfo       0x0000000000000000       0x18 build/nsensor/production/_ext/1856863253/interrupts.o
 .MIPS.abiflags
                0x0000000000000000       0x18 build/nsensor/production/_ext/1856863253/interrupts.o
 .reginfo       0x0000000000000000       0x18 build/nsensor/production/_ext/1856863253/initialization.o
 .MIPS.abiflags
                0x0000000000000000       0x18 build/nsensor/production/_ext/1856863253/initialization.o
 .reginfo       0x0000000000000000       0x18 build/nsensor/production/_ext/1360937237/bma490l.o
 .MIPS.abiflags
                0x0000000000000000       0x18 build/nsensor/production/_ext/1360937237/bma490l.o
 .reginfo       0x0000000000000000       0x18 build/nsensor/production/_ext/1360937237/timers.o
 .MIPS.abiflags
                0x0000000000000000       0x18 build/nsensor/production/_ext/1360937237/timers.o
 .reginfo       0x0000000000000000       0x18 build/nsensor/production/_ext/1360937237/sca3300.o
 .MIPS.abiflags
                0x0000000000000000       0x18 build/nsensor/production/_ext/1360937237/sca3300.o
 .reginfo       0x0000000000000000       0x18 build/nsensor/production/_ext/1360937237/gfx.o
 .MIPS.abiflags
                0x0000000000000000       0x18 build/nsensor/production/_ext/1360937237/gfx.o
 .reginfo       0x0000000000000000       0x18 build/nsensor/production/_ext/1360937237/imu.o
 .MIPS.abiflags
                0x0000000000000000       0x18 build/nsensor/production/_ext/1360937237/imu.o
 .reginfo       0x0000000000000000       0x18 build/nsensor/production/_ext/1360937237/pid.o
 .MIPS.abiflags
                0x0000000000000000       0x18 build/nsensor/production/_ext/1360937237/pid.o
 .reginfo       0x0000000000000000       0x18 build/nsensor/production/_ext/1360937237/do_fft.o
 .MIPS.abiflags
                0x0000000000000000       0x18 build/nsensor/production/_ext/1360937237/do_fft.o
 .reginfo       0x0000000000000000       0x18 build/nsensor/production/_ext/1360937237/fft.o
 .MIPS.abiflags
                0x0000000000000000       0x18 build/nsensor/production/_ext/1360937237/fft.o
 .reginfo       0x0000000000000000       0x18 build/nsensor/production/_ext/1360937237/main.o
 .MIPS.abiflags
                0x0000000000000000       0x18 build/nsensor/production/_ext/1360937237/main.o
 .reginfo       0x0000000000000000       0x18 build/nsensor/production/_ext/1360937237/canfd.o
 .MIPS.abiflags
                0x0000000000000000       0x18 build/nsensor/production/_ext/1360937237/canfd.o
 .reginfo       0x0000000000000000       0x18 build/nsensor/production/_ext/1360937237/host.o
 .MIPS.abiflags
                0x0000000000000000       0x18 build/nsensor/production/_ext/1360937237/host.o
 .reginfo       0x0000000000000000       0x18 build/nsensor/production/_ext/1360937237/cmd_scanner.o
 .MIPS.abiflags
                0x0000000000000000       0x18 build/nsensor/production/_ext/1360937237/cmd_scanner.o
 .reginfo       0x0000000000000000       0x18 /tmp/ccBkuxsy.o
 .MIPS.abiflags
                0x0000000000000000       0x18 /tmp/ccBkuxsy.o
 .reginfo       0x0000000000000000       0x18 /tmp/ccWIkHyp.o
 .MIPS.abiflags
                0x0000000000000000       0x18 /tmp/ccWIkHyp.o
 .reginfo       0x0000000000000000       0x18 /tmp/ccRzzlsZ.o
 .MIPS.abiflags
                0x0000000000000000       0x18 /tmp/ccRzzlsZ.o
 .reginfo       0x0000000000000000       0x18 /tmp/ccs5yPaT.o
 .MIPS.abiflags
                0x0000000000000000       0x18 /tmp/ccs5yPaT.o
 .discard       0x0000000000000000        0x4 /tmp/ccs5yPaT.o
 .reginfo       0x0000000000000000       0x18 /opt/microchip/xc32/v4.21/bin/bin/../../lib/gcc/pic32mx/8.3.1/../../../../pic32mx/lib/fpu64/pic32_software_reset.o
 .MIPS.abiflags
                0x0000000000000000       0x18 /opt/microchip/xc32/v4.21/bin/bin/../../lib/gcc/pic32mx/8.3.1/../../../../pic32mx/lib/fpu64/pic32_software_reset.o
 .xc_stack_usage.hdr
                0x0000000000000000        0xe /opt/microchip/xc32/v4.21/bin/bin/../../lib/gcc/pic32mx/8.3.1/../../../../pic32mx/lib/fpu64/pic32_software_reset.o
 .xc_stack_usage
                0x0000000000000000       0x24 /opt/microchip/xc32/v4.21/bin/bin/../../lib/gcc/pic32mx/8.3.1/../../../../pic32mx/lib/fpu64/pic32_software_reset.o
 .reginfo       0x0000000000000000       0x18 /opt/microchip/xc32/v4.21/bin/bin/../../lib/gcc/pic32mx/8.3.1/../../../../pic32mx/lib/fpu64/libpic32.a(memcpy.o)
 .MIPS.abiflags
                0x0000000000000000       0x18 /opt/microchip/xc32/v4.21/bin/bin/../../lib/gcc/pic32mx/8.3.1/../../../../pic32mx/lib/fpu64/libpic32.a(memcpy.o)
 .xc_stack_usage.hdr
                0x0000000000000000        0xe /opt/microchip/xc32/v4.21/bin/bin/../../lib/gcc/pic32mx/8.3.1/../../../../pic32mx/lib/fpu64/libpic32.a(memcpy.o)
 .xc_stack_usage
                0x0000000000000000       0x14 /opt/microchip/xc32/v4.21/bin/bin/../../lib/gcc/pic32mx/8.3.1/../../../../pic32mx/lib/fpu64/libpic32.a(memcpy.o)
 .reginfo       0x0000000000000000       0x18 /opt/microchip/xc32/v4.21/bin/bin/../../lib/gcc/pic32mx/8.3.1/../../../../pic32mx/lib/fpu64/libpic32.a(memset.o)
 .MIPS.abiflags
                0x0000000000000000       0x18 /opt/microchip/xc32/v4.21/bin/bin/../../lib/gcc/pic32mx/8.3.1/../../../../pic32mx/lib/fpu64/libpic32.a(memset.o)
 .xc_stack_usage.hdr
                0x0000000000000000        0xe /opt/microchip/xc32/v4.21/bin/bin/../../lib/gcc/pic32mx/8.3.1/../../../../pic32mx/lib/fpu64/libpic32.a(memset.o)
 .xc_stack_usage
                0x0000000000000000       0x14 /opt/microchip/xc32/v4.21/bin/bin/../../lib/gcc/pic32mx/8.3.1/../../../../pic32mx/lib/fpu64/libpic32.a(memset.o)
 .reginfo       0x0000000000000000       0x18 /opt/microchip/xc32/v4.21/bin/bin/../../lib/gcc/pic32mx/8.3.1/../../../../pic32mx/lib/fpu64/libpic32.a(strlen.o)
 .MIPS.abiflags
                0x0000000000000000       0x18 /opt/microchip/xc32/v4.21/bin/bin/../../lib/gcc/pic32mx/8.3.1/../../../../pic32mx/lib/fpu64/libpic32.a(strlen.o)
 .xc_stack_usage.hdr
                0x0000000000000000        0xe /opt/microchip/xc32/v4.21/bin/bin/../../lib/gcc/pic32mx/8.3.1/../../../../pic32mx/lib/fpu64/libpic32.a(strlen.o)
 .xc_stack_usage
                0x0000000000000000       0x14 /opt/microchip/xc32/v4.21/bin/bin/../../lib/gcc/pic32mx/8.3.1/../../../../pic32mx/lib/fpu64/libpic32.a(strlen.o)
 .reginfo       0x0000000000000000       0x18 /opt/microchip/xc32/v4.21/bin/bin/../../lib/gcc/pic32mx/8.3.1/../../../../pic32mx/lib/fpu64/libpic32.a(default-on-reset.o)
 .MIPS.abiflags
                0x0000000000000000       0x18 /opt/microchip/xc32/v4.21/bin/bin/../../lib/gcc/pic32mx/8.3.1/../../../../pic32mx/lib/fpu64/libpic32.a(default-on-reset.o)
 .xc_stack_usage
                0x0000000000000000       0x17 /opt/microchip/xc32/v4.21/bin/bin/../../lib/gcc/pic32mx/8.3.1/../../../../pic32mx/lib/fpu64/libpic32.a(default-on-reset.o)
 .xc_stack_usage.hdr
                0x0000000000000000        0xe /opt/microchip/xc32/v4.21/bin/bin/../../lib/gcc/pic32mx/8.3.1/../../../../pic32mx/lib/fpu64/libpic32.a(default-on-reset.o)
 .reginfo       0x0000000000000000       0x18 /opt/microchip/xc32/v4.21/bin/bin/../../lib/gcc/pic32mx/8.3.1/../../../../pic32mx/lib/fpu64/libpic32.a(default-on-bootstrap.o)
 .MIPS.abiflags
                0x0000000000000000       0x18 /opt/microchip/xc32/v4.21/bin/bin/../../lib/gcc/pic32mx/8.3.1/../../../../pic32mx/lib/fpu64/libpic32.a(default-on-bootstrap.o)
 .xc_stack_usage
                0x0000000000000000       0x1b /opt/microchip/xc32/v4.21/bin/bin/../../lib/gcc/pic32mx/8.3.1/../../../../pic32mx/lib/fpu64/libpic32.a(default-on-bootstrap.o)
 .xc_stack_usage.hdr
                0x0000000000000000        0xe /opt/microchip/xc32/v4.21/bin/bin/../../lib/gcc/pic32mx/8.3.1/../../../../pic32mx/lib/fpu64/libpic32.a(default-on-bootstrap.o)
 .reginfo       0x0000000000000000       0x18 /opt/microchip/xc32/v4.21/bin/bin/../../lib/gcc/pic32mx/8.3.1/../../../../pic32mx/lib/fpu64/libpic32.a(default-nmi-handler.o)
 .MIPS.abiflags
                0x0000000000000000       0x18 /opt/microchip/xc32/v4.21/bin/bin/../../lib/gcc/pic32mx/8.3.1/../../../../pic32mx/lib/fpu64/libpic32.a(default-nmi-handler.o)
 .xc_stack_usage.hdr
                0x0000000000000000        0xe /opt/microchip/xc32/v4.21/bin/bin/../../lib/gcc/pic32mx/8.3.1/../../../../pic32mx/lib/fpu64/libpic32.a(default-nmi-handler.o)
 .xc_stack_usage
                0x0000000000000000       0x1a /opt/microchip/xc32/v4.21/bin/bin/../../lib/gcc/pic32mx/8.3.1/../../../../pic32mx/lib/fpu64/libpic32.a(default-nmi-handler.o)
 .reginfo       0x0000000000000000       0x18 /opt/microchip/xc32/v4.21/bin/bin/../../lib/gcc/pic32mx/8.3.1/../../../../pic32mx/lib/fpu64/libpic32.a(pic32_data_init_wrapper.o)
 .MIPS.abiflags
                0x0000000000000000       0x18 /opt/microchip/xc32/v4.21/bin/bin/../../lib/gcc/pic32mx/8.3.1/../../../../pic32mx/lib/fpu64/libpic32.a(pic32_data_init_wrapper.o)
 .xc_stack_usage.hdr
                0x0000000000000000        0xe /opt/microchip/xc32/v4.21/bin/bin/../../lib/gcc/pic32mx/8.3.1/../../../../pic32mx/lib/fpu64/libpic32.a(pic32_data_init_wrapper.o)
 .xc_stack_usage
                0x0000000000000000       0x1f /opt/microchip/xc32/v4.21/bin/bin/../../lib/gcc/pic32mx/8.3.1/../../../../pic32mx/lib/fpu64/libpic32.a(pic32_data_init_wrapper.o)
 .reginfo       0x0000000000000000       0x18 /opt/microchip/xc32/v4.21/bin/bin/../../lib/gcc/pic32mx/8.3.1/../../../../pic32mx/lib/fpu64/libpic32.a(pic32_data_init_0_1.o)
 .MIPS.abiflags
                0x0000000000000000       0x18 /opt/microchip/xc32/v4.21/bin/bin/../../lib/gcc/pic32mx/8.3.1/../../../../pic32mx/lib/fpu64/libpic32.a(pic32_data_init_0_1.o)
 .xc_stack_usage.hdr
                0x0000000000000000        0xe /opt/microchip/xc32/v4.21/bin/bin/../../lib/gcc/pic32mx/8.3.1/../../../../pic32mx/lib/fpu64/libpic32.a(pic32_data_init_0_1.o)
 .xc_stack_usage
                0x0000000000000000       0x24 /opt/microchip/xc32/v4.21/bin/bin/../../lib/gcc/pic32mx/8.3.1/../../../../pic32mx/lib/fpu64/libpic32.a(pic32_data_init_0_1.o)
 .reginfo       0x0000000000000000       0x18 /opt/microchip/xc32/v4.21/bin/bin/../../lib/gcc/pic32mx/8.3.1/../../../../pic32mx/lib/fpu64/libpic32.a(general-exception.o)
 .MIPS.abiflags
                0x0000000000000000       0x18 /opt/microchip/xc32/v4.21/bin/bin/../../lib/gcc/pic32mx/8.3.1/../../../../pic32mx/lib/fpu64/libpic32.a(general-exception.o)
 .xc_stack_usage.hdr
                0x0000000000000000        0xe /opt/microchip/xc32/v4.21/bin/bin/../../lib/gcc/pic32mx/8.3.1/../../../../pic32mx/lib/fpu64/libpic32.a(general-exception.o)
 .xc_stack_usage
                0x0000000000000000       0x28 /opt/microchip/xc32/v4.21/bin/bin/../../lib/gcc/pic32mx/8.3.1/../../../../pic32mx/lib/fpu64/libpic32.a(general-exception.o)
 .reginfo       0x0000000000000000       0x18 /opt/microchip/xc32/v4.21/bin/bin/../../lib/gcc/pic32mx/8.3.1/../../../../pic32mx/lib/fpu64/libpic32.a(defaultinterrupt.o)
 .MIPS.abiflags
                0x0000000000000000       0x18 /opt/microchip/xc32/v4.21/bin/bin/../../lib/gcc/pic32mx/8.3.1/../../../../pic32mx/lib/fpu64/libpic32.a(defaultinterrupt.o)
 .xc_stack_usage
                0x0000000000000000       0x1f /opt/microchip/xc32/v4.21/bin/bin/../../lib/gcc/pic32mx/8.3.1/../../../../pic32mx/lib/fpu64/libpic32.a(defaultinterrupt.o)
 .xc_stack_usage.hdr
                0x0000000000000000        0xe /opt/microchip/xc32/v4.21/bin/bin/../../lib/gcc/pic32mx/8.3.1/../../../../pic32mx/lib/fpu64/libpic32.a(defaultinterrupt.o)
 .reginfo       0x0000000000000000       0x18 /opt/microchip/xc32/v4.21/bin/bin/../../lib/gcc/pic32mx/8.3.1/../../../../pic32mx/lib/fpu64/libc-musl.a(__sio_printf_s.o)
 .MIPS.abiflags
                0x0000000000000000       0x18 /opt/microchip/xc32/v4.21/bin/bin/../../lib/gcc/pic32mx/8.3.1/../../../../pic32mx/lib/fpu64/libc-musl.a(__sio_printf_s.o)
 .xc_stack_usage
                0x0000000000000000       0x37 /opt/microchip/xc32/v4.21/bin/bin/../../lib/gcc/pic32mx/8.3.1/../../../../pic32mx/lib/fpu64/libc-musl.a(__sio_printf_s.o)
 .xc_stack_usage.hdr
                0x0000000000000000        0xe /opt/microchip/xc32/v4.21/bin/bin/../../lib/gcc/pic32mx/8.3.1/../../../../pic32mx/lib/fpu64/libc-musl.a(__sio_printf_s.o)
 .note.GNU-stack
                0x0000000000000000        0x0 /opt/microchip/xc32/v4.21/bin/bin/../../lib/gcc/pic32mx/8.3.1/../../../../pic32mx/lib/fpu64/libc-musl.a(__sio_printf_s.o)
 .reginfo       0x0000000000000000       0x18 /opt/microchip/xc32/v4.21/bin/bin/../../lib/gcc/pic32mx/8.3.1/../../../../pic32mx/lib/fpu64/libc-musl.a(__sio_snprintf_dfosux.o)
 .MIPS.abiflags
                0x0000000000000000       0x18 /opt/microchip/xc32/v4.21/bin/bin/../../lib/gcc/pic32mx/8.3.1/../../../../pic32mx/lib/fpu64/libc-musl.a(__sio_snprintf_dfosux.o)
 .xc_stack_usage
                0x0000000000000000       0x40 /opt/microchip/xc32/v4.21/bin/bin/../../lib/gcc/pic32mx/8.3.1/../../../../pic32mx/lib/fpu64/libc-musl.a(__sio_snprintf_dfosux.o)
 .xc_stack_usage.hdr
                0x0000000000000000        0xe /opt/microchip/xc32/v4.21/bin/bin/../../lib/gcc/pic32mx/8.3.1/../../../../pic32mx/lib/fpu64/libc-musl.a(__sio_snprintf_dfosux.o)
 .note.GNU-stack
                0x0000000000000000        0x0 /opt/microchip/xc32/v4.21/bin/bin/../../lib/gcc/pic32mx/8.3.1/../../../../pic32mx/lib/fpu64/libc-musl.a(__sio_snprintf_dfosux.o)
 .reginfo       0x0000000000000000       0x18 /opt/microchip/xc32/v4.21/bin/bin/../../lib/gcc/pic32mx/8.3.1/../../../../pic32mx/lib/fpu64/libc-musl.a(__sio_snprintf_dosux.o)
 .MIPS.abiflags
                0x0000000000000000       0x18 /opt/microchip/xc32/v4.21/bin/bin/../../lib/gcc/pic32mx/8.3.1/../../../../pic32mx/lib/fpu64/libc-musl.a(__sio_snprintf_dosux.o)
 .xc_stack_usage
                0x0000000000000000       0x3f /opt/microchip/xc32/v4.21/bin/bin/../../lib/gcc/pic32mx/8.3.1/../../../../pic32mx/lib/fpu64/libc-musl.a(__sio_snprintf_dosux.o)
 .xc_stack_usage.hdr
                0x0000000000000000        0xe /opt/microchip/xc32/v4.21/bin/bin/../../lib/gcc/pic32mx/8.3.1/../../../../pic32mx/lib/fpu64/libc-musl.a(__sio_snprintf_dosux.o)
 .note.GNU-stack
                0x0000000000000000        0x0 /opt/microchip/xc32/v4.21/bin/bin/../../lib/gcc/pic32mx/8.3.1/../../../../pic32mx/lib/fpu64/libc-musl.a(__sio_snprintf_dosux.o)
 .reginfo       0x0000000000000000       0x18 /opt/microchip/xc32/v4.21/bin/bin/../../lib/gcc/pic32mx/8.3.1/../../../../pic32mx/lib/fpu64/libc-musl.a(__sio_snprintf_doux.o)
 .MIPS.abiflags
                0x0000000000000000       0x18 /opt/microchip/xc32/v4.21/bin/bin/../../lib/gcc/pic32mx/8.3.1/../../../../pic32mx/lib/fpu64/libc-musl.a(__sio_snprintf_doux.o)
 .xc_stack_usage
                0x0000000000000000       0x3e /opt/microchip/xc32/v4.21/bin/bin/../../lib/gcc/pic32mx/8.3.1/../../../../pic32mx/lib/fpu64/libc-musl.a(__sio_snprintf_doux.o)
 .xc_stack_usage.hdr
                0x0000000000000000        0xe /opt/microchip/xc32/v4.21/bin/bin/../../lib/gcc/pic32mx/8.3.1/../../../../pic32mx/lib/fpu64/libc-musl.a(__sio_snprintf_doux.o)
 .note.GNU-stack
                0x0000000000000000        0x0 /opt/microchip/xc32/v4.21/bin/bin/../../lib/gcc/pic32mx/8.3.1/../../../../pic32mx/lib/fpu64/libc-musl.a(__sio_snprintf_doux.o)
 .reginfo       0x0000000000000000       0x18 /opt/microchip/xc32/v4.21/bin/bin/../../lib/gcc/pic32mx/8.3.1/../../../../pic32mx/lib/fpu64/libc-musl.a(__sio_snprintf_s.o)
 .MIPS.abiflags
                0x0000000000000000       0x18 /opt/microchip/xc32/v4.21/bin/bin/../../lib/gcc/pic32mx/8.3.1/../../../../pic32mx/lib/fpu64/libc-musl.a(__sio_snprintf_s.o)
 .xc_stack_usage
                0x0000000000000000       0x3b /opt/microchip/xc32/v4.21/bin/bin/../../lib/gcc/pic32mx/8.3.1/../../../../pic32mx/lib/fpu64/libc-musl.a(__sio_snprintf_s.o)
 .xc_stack_usage.hdr
                0x0000000000000000        0xe /opt/microchip/xc32/v4.21/bin/bin/../../lib/gcc/pic32mx/8.3.1/../../../../pic32mx/lib/fpu64/libc-musl.a(__sio_snprintf_s.o)
 .note.GNU-stack
                0x0000000000000000        0x0 /opt/microchip/xc32/v4.21/bin/bin/../../lib/gcc/pic32mx/8.3.1/../../../../pic32mx/lib/fpu64/libc-musl.a(__sio_snprintf_s.o)
 .reginfo       0x0000000000000000       0x18 /opt/microchip/xc32/v4.21/bin/bin/../../lib/gcc/pic32mx/8.3.1/../../../../pic32mx/lib/fpu64/libc-musl.a(__fmt_d.o)
 .MIPS.abiflags
                0x0000000000000000       0x18 /opt/microchip/xc32/v4.21/bin/bin/../../lib/gcc/pic32mx/8.3.1/../../../../pic32mx/lib/fpu64/libc-musl.a(__fmt_d.o)
 .xc_stack_usage
                0x0000000000000000       0x15 /opt/microchip/xc32/v4.21/bin/bin/../../lib/gcc/pic32mx/8.3.1/../../../../pic32mx/lib/fpu64/libc-musl.a(__fmt_d.o)
 .xc_stack_usage.hdr
                0x0000000000000000        0xe /opt/microchip/xc32/v4.21/bin/bin/../../lib/gcc/pic32mx/8.3.1/../../../../pic32mx/lib/fpu64/libc-musl.a(__fmt_d.o)
 .note.GNU-stack
                0x0000000000000000        0x0 /opt/microchip/xc32/v4.21/bin/bin/../../lib/gcc/pic32mx/8.3.1/../../../../pic32mx/lib/fpu64/libc-musl.a(__fmt_d.o)
 .reginfo       0x0000000000000000       0x18 /opt/microchip/xc32/v4.21/bin/bin/../../lib/gcc/pic32mx/8.3.1/../../../../pic32mx/lib/fpu64/libc-musl.a(__fmt_fp.o)
 .MIPS.abiflags
                0x0000000000000000       0x18 /opt/microchip/xc32/v4.21/bin/bin/../../lib/gcc/pic32mx/8.3.1/../../../../pic32mx/lib/fpu64/libc-musl.a(__fmt_fp.o)
 .xc_stack_usage
                0x0000000000000000       0x16 /opt/microchip/xc32/v4.21/bin/bin/../../lib/gcc/pic32mx/8.3.1/../../../../pic32mx/lib/fpu64/libc-musl.a(__fmt_fp.o)
 .xc_stack_usage.hdr
                0x0000000000000000        0xe /opt/microchip/xc32/v4.21/bin/bin/../../lib/gcc/pic32mx/8.3.1/../../../../pic32mx/lib/fpu64/libc-musl.a(__fmt_fp.o)
 .note.GNU-stack
                0x0000000000000000        0x0 /opt/microchip/xc32/v4.21/bin/bin/../../lib/gcc/pic32mx/8.3.1/../../../../pic32mx/lib/fpu64/libc-musl.a(__fmt_fp.o)
 .reginfo       0x0000000000000000       0x18 /opt/microchip/xc32/v4.21/bin/bin/../../lib/gcc/pic32mx/8.3.1/../../../../pic32mx/lib/fpu64/libc-musl.a(__fmt_o.o)
 .MIPS.abiflags
                0x0000000000000000       0x18 /opt/microchip/xc32/v4.21/bin/bin/../../lib/gcc/pic32mx/8.3.1/../../../../pic32mx/lib/fpu64/libc-musl.a(__fmt_o.o)
 .xc_stack_usage
                0x0000000000000000       0x15 /opt/microchip/xc32/v4.21/bin/bin/../../lib/gcc/pic32mx/8.3.1/../../../../pic32mx/lib/fpu64/libc-musl.a(__fmt_o.o)
 .xc_stack_usage.hdr
                0x0000000000000000        0xe /opt/microchip/xc32/v4.21/bin/bin/../../lib/gcc/pic32mx/8.3.1/../../../../pic32mx/lib/fpu64/libc-musl.a(__fmt_o.o)
 .note.GNU-stack
                0x0000000000000000        0x0 /opt/microchip/xc32/v4.21/bin/bin/../../lib/gcc/pic32mx/8.3.1/../../../../pic32mx/lib/fpu64/libc-musl.a(__fmt_o.o)
 .reginfo       0x0000000000000000       0x18 /opt/microchip/xc32/v4.21/bin/bin/../../lib/gcc/pic32mx/8.3.1/../../../../pic32mx/lib/fpu64/libc-musl.a(__fmt_s.o)
 .MIPS.abiflags
                0x0000000000000000       0x18 /opt/microchip/xc32/v4.21/bin/bin/../../lib/gcc/pic32mx/8.3.1/../../../../pic32mx/lib/fpu64/libc-musl.a(__fmt_s.o)
 .xc_stack_usage
                0x0000000000000000       0x15 /opt/microchip/xc32/v4.21/bin/bin/../../lib/gcc/pic32mx/8.3.1/../../../../pic32mx/lib/fpu64/libc-musl.a(__fmt_s.o)
 .xc_stack_usage.hdr
                0x0000000000000000        0xe /opt/microchip/xc32/v4.21/bin/bin/../../lib/gcc/pic32mx/8.3.1/../../../../pic32mx/lib/fpu64/libc-musl.a(__fmt_s.o)
 .note.GNU-stack
                0x0000000000000000        0x0 /opt/microchip/xc32/v4.21/bin/bin/../../lib/gcc/pic32mx/8.3.1/../../../../pic32mx/lib/fpu64/libc-musl.a(__fmt_s.o)
 .reginfo       0x0000000000000000       0x18 /opt/microchip/xc32/v4.21/bin/bin/../../lib/gcc/pic32mx/8.3.1/../../../../pic32mx/lib/fpu64/libc-musl.a(__fmt_u.o)
 .MIPS.abiflags
                0x0000000000000000       0x18 /opt/microchip/xc32/v4.21/bin/bin/../../lib/gcc/pic32mx/8.3.1/../../../../pic32mx/lib/fpu64/libc-musl.a(__fmt_u.o)
 .xc_stack_usage
                0x0000000000000000       0x2a /opt/microchip/xc32/v4.21/bin/bin/../../lib/gcc/pic32mx/8.3.1/../../../../pic32mx/lib/fpu64/libc-musl.a(__fmt_u.o)
 .xc_stack_usage.hdr
                0x0000000000000000        0xe /opt/microchip/xc32/v4.21/bin/bin/../../lib/gcc/pic32mx/8.3.1/../../../../pic32mx/lib/fpu64/libc-musl.a(__fmt_u.o)
 .note.GNU-stack
                0x0000000000000000        0x0 /opt/microchip/xc32/v4.21/bin/bin/../../lib/gcc/pic32mx/8.3.1/../../../../pic32mx/lib/fpu64/libc-musl.a(__fmt_u.o)
 .reginfo       0x0000000000000000       0x18 /opt/microchip/xc32/v4.21/bin/bin/../../lib/gcc/pic32mx/8.3.1/../../../../pic32mx/lib/fpu64/libc-musl.a(__fmt_x.o)
 .MIPS.abiflags
                0x0000000000000000       0x18 /opt/microchip/xc32/v4.21/bin/bin/../../lib/gcc/pic32mx/8.3.1/../../../../pic32mx/lib/fpu64/libc-musl.a(__fmt_x.o)
 .xc_stack_usage
                0x0000000000000000       0x15 /opt/microchip/xc32/v4.21/bin/bin/../../lib/gcc/pic32mx/8.3.1/../../../../pic32mx/lib/fpu64/libc-musl.a(__fmt_x.o)
 .xc_stack_usage.hdr
                0x0000000000000000        0xe /opt/microchip/xc32/v4.21/bin/bin/../../lib/gcc/pic32mx/8.3.1/../../../../pic32mx/lib/fpu64/libc-musl.a(__fmt_x.o)
 .note.GNU-stack
                0x0000000000000000        0x0 /opt/microchip/xc32/v4.21/bin/bin/../../lib/gcc/pic32mx/8.3.1/../../../../pic32mx/lib/fpu64/libc-musl.a(__fmt_x.o)
 .reginfo       0x0000000000000000       0x18 /opt/microchip/xc32/v4.21/bin/bin/../../lib/gcc/pic32mx/8.3.1/../../../../pic32mx/lib/fpu64/libc-musl.a(__pop_float.o)
 .MIPS.abiflags
                0x0000000000000000       0x18 /opt/microchip/xc32/v4.21/bin/bin/../../lib/gcc/pic32mx/8.3.1/../../../../pic32mx/lib/fpu64/libc-musl.a(__pop_float.o)
 .xc_stack_usage
                0x0000000000000000       0x19 /opt/microchip/xc32/v4.21/bin/bin/../../lib/gcc/pic32mx/8.3.1/../../../../pic32mx/lib/fpu64/libc-musl.a(__pop_float.o)
 .xc_stack_usage.hdr
                0x0000000000000000        0xe /opt/microchip/xc32/v4.21/bin/bin/../../lib/gcc/pic32mx/8.3.1/../../../../pic32mx/lib/fpu64/libc-musl.a(__pop_float.o)
 .note.GNU-stack
                0x0000000000000000        0x0 /opt/microchip/xc32/v4.21/bin/bin/../../lib/gcc/pic32mx/8.3.1/../../../../pic32mx/lib/fpu64/libc-musl.a(__pop_float.o)
 .reginfo       0x0000000000000000       0x18 /opt/microchip/xc32/v4.21/bin/bin/../../lib/gcc/pic32mx/8.3.1/../../../../pic32mx/lib/fpu64/libc-musl.a(__pop_int.o)
 .MIPS.abiflags
                0x0000000000000000       0x18 /opt/microchip/xc32/v4.21/bin/bin/../../lib/gcc/pic32mx/8.3.1/../../../../pic32mx/lib/fpu64/libc-musl.a(__pop_int.o)
 .xc_stack_usage
                0x0000000000000000       0x17 /opt/microchip/xc32/v4.21/bin/bin/../../lib/gcc/pic32mx/8.3.1/../../../../pic32mx/lib/fpu64/libc-musl.a(__pop_int.o)
 .xc_stack_usage.hdr
                0x0000000000000000        0xe /opt/microchip/xc32/v4.21/bin/bin/../../lib/gcc/pic32mx/8.3.1/../../../../pic32mx/lib/fpu64/libc-musl.a(__pop_int.o)
 .note.GNU-stack
                0x0000000000000000        0x0 /opt/microchip/xc32/v4.21/bin/bin/../../lib/gcc/pic32mx/8.3.1/../../../../pic32mx/lib/fpu64/libc-musl.a(__pop_int.o)
 .reginfo       0x0000000000000000       0x18 /opt/microchip/xc32/v4.21/bin/bin/../../lib/gcc/pic32mx/8.3.1/../../../../pic32mx/lib/fpu64/libc-musl.a(__pop_ptr.o)
 .MIPS.abiflags
                0x0000000000000000       0x18 /opt/microchip/xc32/v4.21/bin/bin/../../lib/gcc/pic32mx/8.3.1/../../../../pic32mx/lib/fpu64/libc-musl.a(__pop_ptr.o)
 .xc_stack_usage
                0x0000000000000000       0x17 /opt/microchip/xc32/v4.21/bin/bin/../../lib/gcc/pic32mx/8.3.1/../../../../pic32mx/lib/fpu64/libc-musl.a(__pop_ptr.o)
 .xc_stack_usage.hdr
                0x0000000000000000        0xe /opt/microchip/xc32/v4.21/bin/bin/../../lib/gcc/pic32mx/8.3.1/../../../../pic32mx/lib/fpu64/libc-musl.a(__pop_ptr.o)
 .note.GNU-stack
                0x0000000000000000        0x0 /opt/microchip/xc32/v4.21/bin/bin/../../lib/gcc/pic32mx/8.3.1/../../../../pic32mx/lib/fpu64/libc-musl.a(__pop_ptr.o)
 .reginfo       0x0000000000000000       0x18 /opt/microchip/xc32/v4.21/bin/bin/../../lib/gcc/pic32mx/8.3.1/../../../../pic32mx/lib/fpu64/libc-musl.a(__printf_core.o)
 .MIPS.abiflags
                0x0000000000000000       0x18 /opt/microchip/xc32/v4.21/bin/bin/../../lib/gcc/pic32mx/8.3.1/../../../../pic32mx/lib/fpu64/libc-musl.a(__printf_core.o)
 .xc_stack_usage
                0x0000000000000000       0xaf /opt/microchip/xc32/v4.21/bin/bin/../../lib/gcc/pic32mx/8.3.1/../../../../pic32mx/lib/fpu64/libc-musl.a(__printf_core.o)
 .xc_stack_usage.hdr
                0x0000000000000000        0xe /opt/microchip/xc32/v4.21/bin/bin/../../lib/gcc/pic32mx/8.3.1/../../../../pic32mx/lib/fpu64/libc-musl.a(__printf_core.o)
 .note.GNU-stack
                0x0000000000000000        0x0 /opt/microchip/xc32/v4.21/bin/bin/../../lib/gcc/pic32mx/8.3.1/../../../../pic32mx/lib/fpu64/libc-musl.a(__printf_core.o)
 .reginfo       0x0000000000000000       0x18 /opt/microchip/xc32/v4.21/bin/bin/../../lib/gcc/pic32mx/8.3.1/../../../../pic32mx/lib/fpu64/libc-musl.a(stdout.o)
 .MIPS.abiflags
                0x0000000000000000       0x18 /opt/microchip/xc32/v4.21/bin/bin/../../lib/gcc/pic32mx/8.3.1/../../../../pic32mx/lib/fpu64/libc-musl.a(stdout.o)
 .xc_stack_usage
                0x0000000000000000       0x3c /opt/microchip/xc32/v4.21/bin/bin/../../lib/gcc/pic32mx/8.3.1/../../../../pic32mx/lib/fpu64/libc-musl.a(stdout.o)
 .xc_stack_usage.hdr
                0x0000000000000000        0xe /opt/microchip/xc32/v4.21/bin/bin/../../lib/gcc/pic32mx/8.3.1/../../../../pic32mx/lib/fpu64/libc-musl.a(stdout.o)
 .note.GNU-stack
                0x0000000000000000        0x0 /opt/microchip/xc32/v4.21/bin/bin/../../lib/gcc/pic32mx/8.3.1/../../../../pic32mx/lib/fpu64/libc-musl.a(stdout.o)
 .reginfo       0x0000000000000000       0x18 /opt/microchip/xc32/v4.21/bin/bin/../../lib/gcc/pic32mx/8.3.1/../../../../pic32mx/lib/fpu64/libc-musl.a(vprintf.o)
 .MIPS.abiflags
                0x0000000000000000       0x18 /opt/microchip/xc32/v4.21/bin/bin/../../lib/gcc/pic32mx/8.3.1/../../../../pic32mx/lib/fpu64/libc-musl.a(vprintf.o)
 .xc_stack_usage
                0x0000000000000000       0x15 /opt/microchip/xc32/v4.21/bin/bin/../../lib/gcc/pic32mx/8.3.1/../../../../pic32mx/lib/fpu64/libc-musl.a(vprintf.o)
 .xc_stack_usage.hdr
                0x0000000000000000        0xe /opt/microchip/xc32/v4.21/bin/bin/../../lib/gcc/pic32mx/8.3.1/../../../../pic32mx/lib/fpu64/libc-musl.a(vprintf.o)
 .note.GNU-stack
                0x0000000000000000        0x0 /opt/microchip/xc32/v4.21/bin/bin/../../lib/gcc/pic32mx/8.3.1/../../../../pic32mx/lib/fpu64/libc-musl.a(vprintf.o)
 .reginfo       0x0000000000000000       0x18 /opt/microchip/xc32/v4.21/bin/bin/../../lib/gcc/pic32mx/8.3.1/../../../../pic32mx/lib/fpu64/libc-musl.a(atoi.o)
 .MIPS.abiflags
                0x0000000000000000       0x18 /opt/microchip/xc32/v4.21/bin/bin/../../lib/gcc/pic32mx/8.3.1/../../../../pic32mx/lib/fpu64/libc-musl.a(atoi.o)
 .xc_stack_usage
                0x0000000000000000       0x12 /opt/microchip/xc32/v4.21/bin/bin/../../lib/gcc/pic32mx/8.3.1/../../../../pic32mx/lib/fpu64/libc-musl.a(atoi.o)
 .xc_stack_usage.hdr
                0x0000000000000000        0xe /opt/microchip/xc32/v4.21/bin/bin/../../lib/gcc/pic32mx/8.3.1/../../../../pic32mx/lib/fpu64/libc-musl.a(atoi.o)
 .note.GNU-stack
                0x0000000000000000        0x0 /opt/microchip/xc32/v4.21/bin/bin/../../lib/gcc/pic32mx/8.3.1/../../../../pic32mx/lib/fpu64/libc-musl.a(atoi.o)
 .reginfo       0x0000000000000000       0x18 /opt/microchip/xc32/v4.21/bin/bin/../../lib/gcc/pic32mx/8.3.1/../../../../pic32mx/lib/fpu64/libc-musl.a(strcpy.o)
 .MIPS.abiflags
                0x0000000000000000       0x18 /opt/microchip/xc32/v4.21/bin/bin/../../lib/gcc/pic32mx/8.3.1/../../../../pic32mx/lib/fpu64/libc-musl.a(strcpy.o)
 .xc_stack_usage
                0x0000000000000000       0x14 /opt/microchip/xc32/v4.21/bin/bin/../../lib/gcc/pic32mx/8.3.1/../../../../pic32mx/lib/fpu64/libc-musl.a(strcpy.o)
 .xc_stack_usage.hdr
                0x0000000000000000        0xe /opt/microchip/xc32/v4.21/bin/bin/../../lib/gcc/pic32mx/8.3.1/../../../../pic32mx/lib/fpu64/libc-musl.a(strcpy.o)
 .note.GNU-stack
                0x0000000000000000        0x0 /opt/microchip/xc32/v4.21/bin/bin/../../lib/gcc/pic32mx/8.3.1/../../../../pic32mx/lib/fpu64/libc-musl.a(strcpy.o)
 .reginfo       0x0000000000000000       0x18 /opt/microchip/xc32/v4.21/bin/bin/../../lib/gcc/pic32mx/8.3.1/../../../../pic32mx/lib/fpu64/libc-musl.a(strncmp.o)
 .MIPS.abiflags
                0x0000000000000000       0x18 /opt/microchip/xc32/v4.21/bin/bin/../../lib/gcc/pic32mx/8.3.1/../../../../pic32mx/lib/fpu64/libc-musl.a(strncmp.o)
 .xc_stack_usage
                0x0000000000000000       0x15 /opt/microchip/xc32/v4.21/bin/bin/../../lib/gcc/pic32mx/8.3.1/../../../../pic32mx/lib/fpu64/libc-musl.a(strncmp.o)
 .xc_stack_usage.hdr
                0x0000000000000000        0xe /opt/microchip/xc32/v4.21/bin/bin/../../lib/gcc/pic32mx/8.3.1/../../../../pic32mx/lib/fpu64/libc-musl.a(strncmp.o)
 .note.GNU-stack
                0x0000000000000000        0x0 /opt/microchip/xc32/v4.21/bin/bin/../../lib/gcc/pic32mx/8.3.1/../../../../pic32mx/lib/fpu64/libc-musl.a(strncmp.o)
 .reginfo       0x0000000000000000       0x18 /opt/microchip/xc32/v4.21/bin/bin/../../lib/gcc/pic32mx/8.3.1/../../../../pic32mx/lib/fpu64/libc-musl.a(tolower.o)
 .MIPS.abiflags
                0x0000000000000000       0x18 /opt/microchip/xc32/v4.21/bin/bin/../../lib/gcc/pic32mx/8.3.1/../../../../pic32mx/lib/fpu64/libc-musl.a(tolower.o)
 .xc_stack_usage
                0x0000000000000000       0x2e /opt/microchip/xc32/v4.21/bin/bin/../../lib/gcc/pic32mx/8.3.1/../../../../pic32mx/lib/fpu64/libc-musl.a(tolower.o)
 .xc_stack_usage.hdr
                0x0000000000000000        0xe /opt/microchip/xc32/v4.21/bin/bin/../../lib/gcc/pic32mx/8.3.1/../../../../pic32mx/lib/fpu64/libc-musl.a(tolower.o)
 .note.GNU-stack
                0x0000000000000000        0x0 /opt/microchip/xc32/v4.21/bin/bin/../../lib/gcc/pic32mx/8.3.1/../../../../pic32mx/lib/fpu64/libc-musl.a(tolower.o)
 .reginfo       0x0000000000000000       0x18 /opt/microchip/xc32/v4.21/bin/bin/../../lib/gcc/pic32mx/8.3.1/../../../../pic32mx/lib/fpu64/libc-musl.a(toupper.o)
 .MIPS.abiflags
                0x0000000000000000       0x18 /opt/microchip/xc32/v4.21/bin/bin/../../lib/gcc/pic32mx/8.3.1/../../../../pic32mx/lib/fpu64/libc-musl.a(toupper.o)
 .xc_stack_usage
                0x0000000000000000       0x2e /opt/microchip/xc32/v4.21/bin/bin/../../lib/gcc/pic32mx/8.3.1/../../../../pic32mx/lib/fpu64/libc-musl.a(toupper.o)
 .xc_stack_usage.hdr
                0x0000000000000000        0xe /opt/microchip/xc32/v4.21/bin/bin/../../lib/gcc/pic32mx/8.3.1/../../../../pic32mx/lib/fpu64/libc-musl.a(toupper.o)
 .note.GNU-stack
                0x0000000000000000        0x0 /opt/microchip/xc32/v4.21/bin/bin/../../lib/gcc/pic32mx/8.3.1/../../../../pic32mx/lib/fpu64/libc-musl.a(toupper.o)
 .reginfo       0x0000000000000000       0x18 /opt/microchip/xc32/v4.21/bin/bin/../../lib/gcc/pic32mx/8.3.1/../../../../pic32mx/lib/fpu64/libc-musl.a(__int_vfprintf.o)
 .MIPS.abiflags
                0x0000000000000000       0x18 /opt/microchip/xc32/v4.21/bin/bin/../../lib/gcc/pic32mx/8.3.1/../../../../pic32mx/lib/fpu64/libc-musl.a(__int_vfprintf.o)
 .xc_stack_usage
                0x0000000000000000       0x18 /opt/microchip/xc32/v4.21/bin/bin/../../lib/gcc/pic32mx/8.3.1/../../../../pic32mx/lib/fpu64/libc-musl.a(__int_vfprintf.o)
 .xc_stack_usage.hdr
                0x0000000000000000        0xe /opt/microchip/xc32/v4.21/bin/bin/../../lib/gcc/pic32mx/8.3.1/../../../../pic32mx/lib/fpu64/libc-musl.a(__int_vfprintf.o)
 .note.GNU-stack
                0x0000000000000000        0x0 /opt/microchip/xc32/v4.21/bin/bin/../../lib/gcc/pic32mx/8.3.1/../../../../pic32mx/lib/fpu64/libc-musl.a(__int_vfprintf.o)
 .reginfo       0x0000000000000000       0x18 /opt/microchip/xc32/v4.21/bin/bin/../../lib/gcc/pic32mx/8.3.1/../../../../pic32mx/lib/fpu64/libc-musl.a(__int_vsnprintf.o)
 .MIPS.abiflags
                0x0000000000000000       0x18 /opt/microchip/xc32/v4.21/bin/bin/../../lib/gcc/pic32mx/8.3.1/../../../../pic32mx/lib/fpu64/libc-musl.a(__int_vsnprintf.o)
 .xc_stack_usage
                0x0000000000000000       0x19 /opt/microchip/xc32/v4.21/bin/bin/../../lib/gcc/pic32mx/8.3.1/../../../../pic32mx/lib/fpu64/libc-musl.a(__int_vsnprintf.o)
 .xc_stack_usage.hdr
                0x0000000000000000        0xe /opt/microchip/xc32/v4.21/bin/bin/../../lib/gcc/pic32mx/8.3.1/../../../../pic32mx/lib/fpu64/libc-musl.a(__int_vsnprintf.o)
 .note.GNU-stack
                0x0000000000000000        0x0 /opt/microchip/xc32/v4.21/bin/bin/../../lib/gcc/pic32mx/8.3.1/../../../../pic32mx/lib/fpu64/libc-musl.a(__int_vsnprintf.o)
 .reginfo       0x0000000000000000       0x18 /opt/microchip/xc32/v4.21/bin/bin/../../lib/gcc/pic32mx/8.3.1/../../../../pic32mx/lib/fpu64/libc-musl.a(__fopen.o)
 .MIPS.abiflags
                0x0000000000000000       0x18 /opt/microchip/xc32/v4.21/bin/bin/../../lib/gcc/pic32mx/8.3.1/../../../../pic32mx/lib/fpu64/libc-musl.a(__fopen.o)
 .xc_stack_usage
                0x0000000000000000       0x43 /opt/microchip/xc32/v4.21/bin/bin/../../lib/gcc/pic32mx/8.3.1/../../../../pic32mx/lib/fpu64/libc-musl.a(__fopen.o)
 .xc_stack_usage.hdr
                0x0000000000000000        0xe /opt/microchip/xc32/v4.21/bin/bin/../../lib/gcc/pic32mx/8.3.1/../../../../pic32mx/lib/fpu64/libc-musl.a(__fopen.o)
 .note.GNU-stack
                0x0000000000000000        0x0 /opt/microchip/xc32/v4.21/bin/bin/../../lib/gcc/pic32mx/8.3.1/../../../../pic32mx/lib/fpu64/libc-musl.a(__fopen.o)
 .reginfo       0x0000000000000000       0x18 /opt/microchip/xc32/v4.21/bin/bin/../../lib/gcc/pic32mx/8.3.1/../../../../pic32mx/lib/fpu64/libc-musl.a(__io_init_needed.o)
 .MIPS.abiflags
                0x0000000000000000       0x18 /opt/microchip/xc32/v4.21/bin/bin/../../lib/gcc/pic32mx/8.3.1/../../../../pic32mx/lib/fpu64/libc-musl.a(__io_init_needed.o)
 .xc_stack_usage
                0x0000000000000000       0x40 /opt/microchip/xc32/v4.21/bin/bin/../../lib/gcc/pic32mx/8.3.1/../../../../pic32mx/lib/fpu64/libc-musl.a(__io_init_needed.o)
 .xc_stack_usage.hdr
                0x0000000000000000        0xe /opt/microchip/xc32/v4.21/bin/bin/../../lib/gcc/pic32mx/8.3.1/../../../../pic32mx/lib/fpu64/libc-musl.a(__io_init_needed.o)
 .note.GNU-stack
                0x0000000000000000        0x0 /opt/microchip/xc32/v4.21/bin/bin/../../lib/gcc/pic32mx/8.3.1/../../../../pic32mx/lib/fpu64/libc-musl.a(__io_init_needed.o)
 .reginfo       0x0000000000000000       0x18 /opt/microchip/xc32/v4.21/bin/bin/../../lib/gcc/pic32mx/8.3.1/../../../../pic32mx/lib/fpu64/libc-musl.a(__out.o)
 .MIPS.abiflags
                0x0000000000000000       0x18 /opt/microchip/xc32/v4.21/bin/bin/../../lib/gcc/pic32mx/8.3.1/../../../../pic32mx/lib/fpu64/libc-musl.a(__out.o)
 .xc_stack_usage
                0x0000000000000000       0x2d /opt/microchip/xc32/v4.21/bin/bin/../../lib/gcc/pic32mx/8.3.1/../../../../pic32mx/lib/fpu64/libc-musl.a(__out.o)
 .xc_stack_usage.hdr
                0x0000000000000000        0xe /opt/microchip/xc32/v4.21/bin/bin/../../lib/gcc/pic32mx/8.3.1/../../../../pic32mx/lib/fpu64/libc-musl.a(__out.o)
 .note.GNU-stack
                0x0000000000000000        0x0 /opt/microchip/xc32/v4.21/bin/bin/../../lib/gcc/pic32mx/8.3.1/../../../../pic32mx/lib/fpu64/libc-musl.a(__out.o)
 .reginfo       0x0000000000000000       0x18 /opt/microchip/xc32/v4.21/bin/bin/../../lib/gcc/pic32mx/8.3.1/../../../../pic32mx/lib/fpu64/libc-musl.a(__stdio_close.o)
 .MIPS.abiflags
                0x0000000000000000       0x18 /opt/microchip/xc32/v4.21/bin/bin/../../lib/gcc/pic32mx/8.3.1/../../../../pic32mx/lib/fpu64/libc-musl.a(__stdio_close.o)
 .xc_stack_usage
                0x0000000000000000       0x39 /opt/microchip/xc32/v4.21/bin/bin/../../lib/gcc/pic32mx/8.3.1/../../../../pic32mx/lib/fpu64/libc-musl.a(__stdio_close.o)
 .xc_stack_usage.hdr
                0x0000000000000000        0xe /opt/microchip/xc32/v4.21/bin/bin/../../lib/gcc/pic32mx/8.3.1/../../../../pic32mx/lib/fpu64/libc-musl.a(__stdio_close.o)
 .note.GNU-stack
                0x0000000000000000        0x0 /opt/microchip/xc32/v4.21/bin/bin/../../lib/gcc/pic32mx/8.3.1/../../../../pic32mx/lib/fpu64/libc-musl.a(__stdio_close.o)
 .reginfo       0x0000000000000000       0x18 /opt/microchip/xc32/v4.21/bin/bin/../../lib/gcc/pic32mx/8.3.1/../../../../pic32mx/lib/fpu64/libc-musl.a(vfprintf.o)
 .MIPS.abiflags
                0x0000000000000000       0x18 /opt/microchip/xc32/v4.21/bin/bin/../../lib/gcc/pic32mx/8.3.1/../../../../pic32mx/lib/fpu64/libc-musl.a(vfprintf.o)
 .xc_stack_usage
                0x0000000000000000       0x38 /opt/microchip/xc32/v4.21/bin/bin/../../lib/gcc/pic32mx/8.3.1/../../../../pic32mx/lib/fpu64/libc-musl.a(vfprintf.o)
 .xc_stack_usage.hdr
                0x0000000000000000        0xe /opt/microchip/xc32/v4.21/bin/bin/../../lib/gcc/pic32mx/8.3.1/../../../../pic32mx/lib/fpu64/libc-musl.a(vfprintf.o)
 .note.GNU-stack
                0x0000000000000000        0x0 /opt/microchip/xc32/v4.21/bin/bin/../../lib/gcc/pic32mx/8.3.1/../../../../pic32mx/lib/fpu64/libc-musl.a(vfprintf.o)
 .reginfo       0x0000000000000000       0x18 /opt/microchip/xc32/v4.21/bin/bin/../../lib/gcc/pic32mx/8.3.1/../../../../pic32mx/lib/fpu64/libc-musl.a(stpcpy.o)
 .MIPS.abiflags
                0x0000000000000000       0x18 /opt/microchip/xc32/v4.21/bin/bin/../../lib/gcc/pic32mx/8.3.1/../../../../pic32mx/lib/fpu64/libc-musl.a(stpcpy.o)
 .xc_stack_usage
                0x0000000000000000       0x14 /opt/microchip/xc32/v4.21/bin/bin/../../lib/gcc/pic32mx/8.3.1/../../../../pic32mx/lib/fpu64/libc-musl.a(stpcpy.o)
 .xc_stack_usage.hdr
                0x0000000000000000        0xe /opt/microchip/xc32/v4.21/bin/bin/../../lib/gcc/pic32mx/8.3.1/../../../../pic32mx/lib/fpu64/libc-musl.a(stpcpy.o)
 .note.GNU-stack
                0x0000000000000000        0x0 /opt/microchip/xc32/v4.21/bin/bin/../../lib/gcc/pic32mx/8.3.1/../../../../pic32mx/lib/fpu64/libc-musl.a(stpcpy.o)
 .reginfo       0x0000000000000000       0x18 /opt/microchip/xc32/v4.21/bin/bin/../../lib/gcc/pic32mx/8.3.1/../../../../pic32mx/lib/fpu64/libc-musl.a(malloc.o)
 .MIPS.abiflags
                0x0000000000000000       0x18 /opt/microchip/xc32/v4.21/bin/bin/../../lib/gcc/pic32mx/8.3.1/../../../../pic32mx/lib/fpu64/libc-musl.a(malloc.o)
 .xc_stack_usage
                0x0000000000000000       0xeb /opt/microchip/xc32/v4.21/bin/bin/../../lib/gcc/pic32mx/8.3.1/../../../../pic32mx/lib/fpu64/libc-musl.a(malloc.o)
 .xc_stack_usage.hdr
                0x0000000000000000        0xe /opt/microchip/xc32/v4.21/bin/bin/../../lib/gcc/pic32mx/8.3.1/../../../../pic32mx/lib/fpu64/libc-musl.a(malloc.o)
 .note.GNU-stack
                0x0000000000000000        0x0 /opt/microchip/xc32/v4.21/bin/bin/../../lib/gcc/pic32mx/8.3.1/../../../../pic32mx/lib/fpu64/libc-musl.a(malloc.o)
 .reginfo       0x0000000000000000       0x18 /opt/microchip/xc32/v4.21/bin/bin/../../lib/gcc/pic32mx/8.3.1/../../../../pic32mx/lib/fpu64/libc-musl.a(expand_heap.o)
 .MIPS.abiflags
                0x0000000000000000       0x18 /opt/microchip/xc32/v4.21/bin/bin/../../lib/gcc/pic32mx/8.3.1/../../../../pic32mx/lib/fpu64/libc-musl.a(expand_heap.o)
 .xc_stack_usage
                0x0000000000000000       0x1b /opt/microchip/xc32/v4.21/bin/bin/../../lib/gcc/pic32mx/8.3.1/../../../../pic32mx/lib/fpu64/libc-musl.a(expand_heap.o)
 .xc_stack_usage.hdr
                0x0000000000000000        0xe /opt/microchip/xc32/v4.21/bin/bin/../../lib/gcc/pic32mx/8.3.1/../../../../pic32mx/lib/fpu64/libc-musl.a(expand_heap.o)
 .note.GNU-stack
                0x0000000000000000        0x0 /opt/microchip/xc32/v4.21/bin/bin/../../lib/gcc/pic32mx/8.3.1/../../../../pic32mx/lib/fpu64/libc-musl.a(expand_heap.o)
 .reginfo       0x0000000000000000       0x18 /opt/microchip/xc32/v4.21/bin/bin/../../lib/gcc/pic32mx/8.3.1/../../../../pic32mx/lib/fpu64/libc-musl.a(__init_stdio.o)
 .MIPS.abiflags
                0x0000000000000000       0x18 /opt/microchip/xc32/v4.21/bin/bin/../../lib/gcc/pic32mx/8.3.1/../../../../pic32mx/lib/fpu64/libc-musl.a(__init_stdio.o)
 .xc_stack_usage
                0x0000000000000000       0x2f /opt/microchip/xc32/v4.21/bin/bin/../../lib/gcc/pic32mx/8.3.1/../../../../pic32mx/lib/fpu64/libc-musl.a(__init_stdio.o)
 .xc_stack_usage.hdr
                0x0000000000000000        0xe /opt/microchip/xc32/v4.21/bin/bin/../../lib/gcc/pic32mx/8.3.1/../../../../pic32mx/lib/fpu64/libc-musl.a(__init_stdio.o)
 .note.GNU-stack
                0x0000000000000000        0x0 /opt/microchip/xc32/v4.21/bin/bin/../../lib/gcc/pic32mx/8.3.1/../../../../pic32mx/lib/fpu64/libc-musl.a(__init_stdio.o)
 .reginfo       0x0000000000000000       0x18 /opt/microchip/xc32/v4.21/bin/bin/../../lib/gcc/pic32mx/8.3.1/../../../../pic32mx/lib/fpu64/libc-musl.a(__io_file_needed.o)
 .MIPS.abiflags
                0x0000000000000000       0x18 /opt/microchip/xc32/v4.21/bin/bin/../../lib/gcc/pic32mx/8.3.1/../../../../pic32mx/lib/fpu64/libc-musl.a(__io_file_needed.o)
 .xc_stack_usage
                0x0000000000000000       0x1e /opt/microchip/xc32/v4.21/bin/bin/../../lib/gcc/pic32mx/8.3.1/../../../../pic32mx/lib/fpu64/libc-musl.a(__io_file_needed.o)
 .xc_stack_usage.hdr
                0x0000000000000000        0xe /opt/microchip/xc32/v4.21/bin/bin/../../lib/gcc/pic32mx/8.3.1/../../../../pic32mx/lib/fpu64/libc-musl.a(__io_file_needed.o)
 .note.GNU-stack
                0x0000000000000000        0x0 /opt/microchip/xc32/v4.21/bin/bin/../../lib/gcc/pic32mx/8.3.1/../../../../pic32mx/lib/fpu64/libc-musl.a(__io_file_needed.o)
 .reginfo       0x0000000000000000       0x18 /opt/microchip/xc32/v4.21/bin/bin/../../lib/gcc/pic32mx/8.3.1/../../../../pic32mx/lib/fpu64/libc-musl.a(__io_fmt_needed.o)
 .MIPS.abiflags
                0x0000000000000000       0x18 /opt/microchip/xc32/v4.21/bin/bin/../../lib/gcc/pic32mx/8.3.1/../../../../pic32mx/lib/fpu64/libc-musl.a(__io_fmt_needed.o)
 .xc_stack_usage
                0x0000000000000000       0x1d /opt/microchip/xc32/v4.21/bin/bin/../../lib/gcc/pic32mx/8.3.1/../../../../pic32mx/lib/fpu64/libc-musl.a(__io_fmt_needed.o)
 .xc_stack_usage.hdr
                0x0000000000000000        0xe /opt/microchip/xc32/v4.21/bin/bin/../../lib/gcc/pic32mx/8.3.1/../../../../pic32mx/lib/fpu64/libc-musl.a(__io_fmt_needed.o)
 .note.GNU-stack
                0x0000000000000000        0x0 /opt/microchip/xc32/v4.21/bin/bin/../../lib/gcc/pic32mx/8.3.1/../../../../pic32mx/lib/fpu64/libc-musl.a(__io_fmt_needed.o)
 .reginfo       0x0000000000000000       0x18 /opt/microchip/xc32/v4.21/bin/bin/../../lib/gcc/pic32mx/8.3.1/../../../../pic32mx/lib/fpu64/libc-musl.a(libc.o)
 .MIPS.abiflags
                0x0000000000000000       0x18 /opt/microchip/xc32/v4.21/bin/bin/../../lib/gcc/pic32mx/8.3.1/../../../../pic32mx/lib/fpu64/libc-musl.a(libc.o)
 .xc_stack_usage.hdr
                0x0000000000000000        0xe /opt/microchip/xc32/v4.21/bin/bin/../../lib/gcc/pic32mx/8.3.1/../../../../pic32mx/lib/fpu64/libc-musl.a(libc.o)
 .note.GNU-stack
                0x0000000000000000        0x0 /opt/microchip/xc32/v4.21/bin/bin/../../lib/gcc/pic32mx/8.3.1/../../../../pic32mx/lib/fpu64/libc-musl.a(libc.o)
 .reginfo       0x0000000000000000       0x18 /opt/microchip/xc32/v4.21/bin/bin/../../lib/gcc/pic32mx/8.3.1/../../../../pic32mx/lib/fpu64/libc-musl.a(__fmt_a.o)
 .MIPS.abiflags
                0x0000000000000000       0x18 /opt/microchip/xc32/v4.21/bin/bin/../../lib/gcc/pic32mx/8.3.1/../../../../pic32mx/lib/fpu64/libc-musl.a(__fmt_a.o)
 .xc_stack_usage
                0x0000000000000000       0x15 /opt/microchip/xc32/v4.21/bin/bin/../../lib/gcc/pic32mx/8.3.1/../../../../pic32mx/lib/fpu64/libc-musl.a(__fmt_a.o)
 .xc_stack_usage.hdr
                0x0000000000000000        0xe /opt/microchip/xc32/v4.21/bin/bin/../../lib/gcc/pic32mx/8.3.1/../../../../pic32mx/lib/fpu64/libc-musl.a(__fmt_a.o)
 .note.GNU-stack
                0x0000000000000000        0x0 /opt/microchip/xc32/v4.21/bin/bin/../../lib/gcc/pic32mx/8.3.1/../../../../pic32mx/lib/fpu64/libc-musl.a(__fmt_a.o)
 .reginfo       0x0000000000000000       0x18 /opt/microchip/xc32/v4.21/bin/bin/../../lib/gcc/pic32mx/8.3.1/../../../../pic32mx/lib/fpu64/libm-musl.a(cos.o)
 .MIPS.abiflags
                0x0000000000000000       0x18 /opt/microchip/xc32/v4.21/bin/bin/../../lib/gcc/pic32mx/8.3.1/../../../../pic32mx/lib/fpu64/libm-musl.a(cos.o)
 .xc_stack_usage
                0x0000000000000000       0x11 /opt/microchip/xc32/v4.21/bin/bin/../../lib/gcc/pic32mx/8.3.1/../../../../pic32mx/lib/fpu64/libm-musl.a(cos.o)
 .xc_stack_usage.hdr
                0x0000000000000000        0xe /opt/microchip/xc32/v4.21/bin/bin/../../lib/gcc/pic32mx/8.3.1/../../../../pic32mx/lib/fpu64/libm-musl.a(cos.o)
 .note.GNU-stack
                0x0000000000000000        0x0 /opt/microchip/xc32/v4.21/bin/bin/../../lib/gcc/pic32mx/8.3.1/../../../../pic32mx/lib/fpu64/libm-musl.a(cos.o)
 .reginfo       0x0000000000000000       0x18 /opt/microchip/xc32/v4.21/bin/bin/../../lib/gcc/pic32mx/8.3.1/../../../../pic32mx/lib/fpu64/libm-musl.a(floor.o)
 .MIPS.abiflags
                0x0000000000000000       0x18 /opt/microchip/xc32/v4.21/bin/bin/../../lib/gcc/pic32mx/8.3.1/../../../../pic32mx/lib/fpu64/libm-musl.a(floor.o)
 .xc_stack_usage
                0x0000000000000000       0x13 /opt/microchip/xc32/v4.21/bin/bin/../../lib/gcc/pic32mx/8.3.1/../../../../pic32mx/lib/fpu64/libm-musl.a(floor.o)
 .xc_stack_usage.hdr
                0x0000000000000000        0xe /opt/microchip/xc32/v4.21/bin/bin/../../lib/gcc/pic32mx/8.3.1/../../../../pic32mx/lib/fpu64/libm-musl.a(floor.o)
 .note.GNU-stack
                0x0000000000000000        0x0 /opt/microchip/xc32/v4.21/bin/bin/../../lib/gcc/pic32mx/8.3.1/../../../../pic32mx/lib/fpu64/libm-musl.a(floor.o)
 .reginfo       0x0000000000000000       0x18 /opt/microchip/xc32/v4.21/bin/bin/../../lib/gcc/pic32mx/8.3.1/../../../../pic32mx/lib/fpu64/libm-musl.a(fma.o)
 .MIPS.abiflags
                0x0000000000000000       0x18 /opt/microchip/xc32/v4.21/bin/bin/../../lib/gcc/pic32mx/8.3.1/../../../../pic32mx/lib/fpu64/libm-musl.a(fma.o)
 .xc_stack_usage
                0x0000000000000000       0x3e /opt/microchip/xc32/v4.21/bin/bin/../../lib/gcc/pic32mx/8.3.1/../../../../pic32mx/lib/fpu64/libm-musl.a(fma.o)
 .xc_stack_usage.hdr
                0x0000000000000000        0xe /opt/microchip/xc32/v4.21/bin/bin/../../lib/gcc/pic32mx/8.3.1/../../../../pic32mx/lib/fpu64/libm-musl.a(fma.o)
 .note.GNU-stack
                0x0000000000000000        0x0 /opt/microchip/xc32/v4.21/bin/bin/../../lib/gcc/pic32mx/8.3.1/../../../../pic32mx/lib/fpu64/libm-musl.a(fma.o)
 .reginfo       0x0000000000000000       0x18 /opt/microchip/xc32/v4.21/bin/bin/../../lib/gcc/pic32mx/8.3.1/../../../../pic32mx/lib/fpu64/libm-musl.a(scalbn.o)
 .MIPS.abiflags
                0x0000000000000000       0x18 /opt/microchip/xc32/v4.21/bin/bin/../../lib/gcc/pic32mx/8.3.1/../../../../pic32mx/lib/fpu64/libm-musl.a(scalbn.o)
 .xc_stack_usage
                0x0000000000000000       0x14 /opt/microchip/xc32/v4.21/bin/bin/../../lib/gcc/pic32mx/8.3.1/../../../../pic32mx/lib/fpu64/libm-musl.a(scalbn.o)
 .xc_stack_usage.hdr
                0x0000000000000000        0xe /opt/microchip/xc32/v4.21/bin/bin/../../lib/gcc/pic32mx/8.3.1/../../../../pic32mx/lib/fpu64/libm-musl.a(scalbn.o)
 .note.GNU-stack
                0x0000000000000000        0x0 /opt/microchip/xc32/v4.21/bin/bin/../../lib/gcc/pic32mx/8.3.1/../../../../pic32mx/lib/fpu64/libm-musl.a(scalbn.o)
 .reginfo       0x0000000000000000       0x18 /opt/microchip/xc32/v4.21/bin/bin/../../lib/gcc/pic32mx/8.3.1/../../../../pic32mx/lib/fpu64/libm-musl.a(sin.o)
 .MIPS.abiflags
                0x0000000000000000       0x18 /opt/microchip/xc32/v4.21/bin/bin/../../lib/gcc/pic32mx/8.3.1/../../../../pic32mx/lib/fpu64/libm-musl.a(sin.o)
 .xc_stack_usage
                0x0000000000000000       0x11 /opt/microchip/xc32/v4.21/bin/bin/../../lib/gcc/pic32mx/8.3.1/../../../../pic32mx/lib/fpu64/libm-musl.a(sin.o)
 .xc_stack_usage.hdr
                0x0000000000000000        0xe /opt/microchip/xc32/v4.21/bin/bin/../../lib/gcc/pic32mx/8.3.1/../../../../pic32mx/lib/fpu64/libm-musl.a(sin.o)
 .note.GNU-stack
                0x0000000000000000        0x0 /opt/microchip/xc32/v4.21/bin/bin/../../lib/gcc/pic32mx/8.3.1/../../../../pic32mx/lib/fpu64/libm-musl.a(sin.o)
 .reginfo       0x0000000000000000       0x18 /opt/microchip/xc32/v4.21/bin/bin/../../lib/gcc/pic32mx/8.3.1/../../../../pic32mx/lib/fpu64/libm-musl.a(__cos.o)
 .MIPS.abiflags
                0x0000000000000000       0x18 /opt/microchip/xc32/v4.21/bin/bin/../../lib/gcc/pic32mx/8.3.1/../../../../pic32mx/lib/fpu64/libm-musl.a(__cos.o)
 .xc_stack_usage
                0x0000000000000000       0x13 /opt/microchip/xc32/v4.21/bin/bin/../../lib/gcc/pic32mx/8.3.1/../../../../pic32mx/lib/fpu64/libm-musl.a(__cos.o)
 .xc_stack_usage.hdr
                0x0000000000000000        0xe /opt/microchip/xc32/v4.21/bin/bin/../../lib/gcc/pic32mx/8.3.1/../../../../pic32mx/lib/fpu64/libm-musl.a(__cos.o)
 .note.GNU-stack
                0x0000000000000000        0x0 /opt/microchip/xc32/v4.21/bin/bin/../../lib/gcc/pic32mx/8.3.1/../../../../pic32mx/lib/fpu64/libm-musl.a(__cos.o)
 .reginfo       0x0000000000000000       0x18 /opt/microchip/xc32/v4.21/bin/bin/../../lib/gcc/pic32mx/8.3.1/../../../../pic32mx/lib/fpu64/libm-musl.a(__rem_pio2.o)
 .MIPS.abiflags
                0x0000000000000000       0x18 /opt/microchip/xc32/v4.21/bin/bin/../../lib/gcc/pic32mx/8.3.1/../../../../pic32mx/lib/fpu64/libm-musl.a(__rem_pio2.o)
 .xc_stack_usage
                0x0000000000000000       0x18 /opt/microchip/xc32/v4.21/bin/bin/../../lib/gcc/pic32mx/8.3.1/../../../../pic32mx/lib/fpu64/libm-musl.a(__rem_pio2.o)
 .xc_stack_usage.hdr
                0x0000000000000000        0xe /opt/microchip/xc32/v4.21/bin/bin/../../lib/gcc/pic32mx/8.3.1/../../../../pic32mx/lib/fpu64/libm-musl.a(__rem_pio2.o)
 .note.GNU-stack
                0x0000000000000000        0x0 /opt/microchip/xc32/v4.21/bin/bin/../../lib/gcc/pic32mx/8.3.1/../../../../pic32mx/lib/fpu64/libm-musl.a(__rem_pio2.o)
 .reginfo       0x0000000000000000       0x18 /opt/microchip/xc32/v4.21/bin/bin/../../lib/gcc/pic32mx/8.3.1/../../../../pic32mx/lib/fpu64/libm-musl.a(__rem_pio2_large.o)
 .MIPS.abiflags
                0x0000000000000000       0x18 /opt/microchip/xc32/v4.21/bin/bin/../../lib/gcc/pic32mx/8.3.1/../../../../pic32mx/lib/fpu64/libm-musl.a(__rem_pio2_large.o)
 .xc_stack_usage
                0x0000000000000000       0x1e /opt/microchip/xc32/v4.21/bin/bin/../../lib/gcc/pic32mx/8.3.1/../../../../pic32mx/lib/fpu64/libm-musl.a(__rem_pio2_large.o)
 .xc_stack_usage.hdr
                0x0000000000000000        0xe /opt/microchip/xc32/v4.21/bin/bin/../../lib/gcc/pic32mx/8.3.1/../../../../pic32mx/lib/fpu64/libm-musl.a(__rem_pio2_large.o)
 .note.GNU-stack
                0x0000000000000000        0x0 /opt/microchip/xc32/v4.21/bin/bin/../../lib/gcc/pic32mx/8.3.1/../../../../pic32mx/lib/fpu64/libm-musl.a(__rem_pio2_large.o)
 .reginfo       0x0000000000000000       0x18 /opt/microchip/xc32/v4.21/bin/bin/../../lib/gcc/pic32mx/8.3.1/../../../../pic32mx/lib/fpu64/libm-musl.a(__sin.o)
 .MIPS.abiflags
                0x0000000000000000       0x18 /opt/microchip/xc32/v4.21/bin/bin/../../lib/gcc/pic32mx/8.3.1/../../../../pic32mx/lib/fpu64/libm-musl.a(__sin.o)
 .xc_stack_usage
                0x0000000000000000       0x13 /opt/microchip/xc32/v4.21/bin/bin/../../lib/gcc/pic32mx/8.3.1/../../../../pic32mx/lib/fpu64/libm-musl.a(__sin.o)
 .xc_stack_usage.hdr
                0x0000000000000000        0xe /opt/microchip/xc32/v4.21/bin/bin/../../lib/gcc/pic32mx/8.3.1/../../../../pic32mx/lib/fpu64/libm-musl.a(__sin.o)
 .note.GNU-stack
                0x0000000000000000        0x0 /opt/microchip/xc32/v4.21/bin/bin/../../lib/gcc/pic32mx/8.3.1/../../../../pic32mx/lib/fpu64/libm-musl.a(__sin.o)
 .reginfo       0x0000000000000000       0x18 /opt/microchip/xc32/v4.21/bin/bin/../../lib/gcc/pic32mx/8.3.1/fpu64/libgcc.a(_lshrdi3.o)
 .MIPS.abiflags
                0x0000000000000000       0x18 /opt/microchip/xc32/v4.21/bin/bin/../../lib/gcc/pic32mx/8.3.1/fpu64/libgcc.a(_lshrdi3.o)
 .xc_stack_usage
                0x0000000000000000       0x17 /opt/microchip/xc32/v4.21/bin/bin/../../lib/gcc/pic32mx/8.3.1/fpu64/libgcc.a(_lshrdi3.o)
 .xc_stack_usage.hdr
                0x0000000000000000        0xe /opt/microchip/xc32/v4.21/bin/bin/../../lib/gcc/pic32mx/8.3.1/fpu64/libgcc.a(_lshrdi3.o)
 .reginfo       0x0000000000000000       0x18 /opt/microchip/xc32/v4.21/bin/bin/../../lib/gcc/pic32mx/8.3.1/fpu64/libgcc.a(_ashldi3.o)
 .MIPS.abiflags
                0x0000000000000000       0x18 /opt/microchip/xc32/v4.21/bin/bin/../../lib/gcc/pic32mx/8.3.1/fpu64/libgcc.a(_ashldi3.o)
 .xc_stack_usage
                0x0000000000000000       0x17 /opt/microchip/xc32/v4.21/bin/bin/../../lib/gcc/pic32mx/8.3.1/fpu64/libgcc.a(_ashldi3.o)
 .xc_stack_usage.hdr
                0x0000000000000000        0xe /opt/microchip/xc32/v4.21/bin/bin/../../lib/gcc/pic32mx/8.3.1/fpu64/libgcc.a(_ashldi3.o)
 .reginfo       0x0000000000000000       0x18 /opt/microchip/xc32/v4.21/bin/bin/../../lib/gcc/pic32mx/8.3.1/fpu64/libgcc.a(_udivdi3.o)
 .MIPS.abiflags
                0x0000000000000000       0x18 /opt/microchip/xc32/v4.21/bin/bin/../../lib/gcc/pic32mx/8.3.1/fpu64/libgcc.a(_udivdi3.o)
 .xc_stack_usage
                0x0000000000000000       0x17 /opt/microchip/xc32/v4.21/bin/bin/../../lib/gcc/pic32mx/8.3.1/fpu64/libgcc.a(_udivdi3.o)
 .xc_stack_usage.hdr
                0x0000000000000000        0xe /opt/microchip/xc32/v4.21/bin/bin/../../lib/gcc/pic32mx/8.3.1/fpu64/libgcc.a(_udivdi3.o)
 .reginfo       0x0000000000000000       0x18 /opt/microchip/xc32/v4.21/bin/bin/../../lib/gcc/pic32mx/8.3.1/fpu64/libgcc.a(_umoddi3.o)
 .MIPS.abiflags
                0x0000000000000000       0x18 /opt/microchip/xc32/v4.21/bin/bin/../../lib/gcc/pic32mx/8.3.1/fpu64/libgcc.a(_umoddi3.o)
 .xc_stack_usage
                0x0000000000000000       0x17 /opt/microchip/xc32/v4.21/bin/bin/../../lib/gcc/pic32mx/8.3.1/fpu64/libgcc.a(_umoddi3.o)
 .xc_stack_usage.hdr
                0x0000000000000000        0xe /opt/microchip/xc32/v4.21/bin/bin/../../lib/gcc/pic32mx/8.3.1/fpu64/libgcc.a(_umoddi3.o)
 .reginfo       0x0000000000000000       0x18 /opt/microchip/xc32/v4.21/bin/bin/../../lib/gcc/pic32mx/8.3.1/../../../../pic32mx/lib/fpu64/libpic32.a(sbrk.o)
 .MIPS.abiflags
                0x0000000000000000       0x18 /opt/microchip/xc32/v4.21/bin/bin/../../lib/gcc/pic32mx/8.3.1/../../../../pic32mx/lib/fpu64/libpic32.a(sbrk.o)
 .xc_stack_usage
                0x0000000000000000       0x77 /opt/microchip/xc32/v4.21/bin/bin/../../lib/gcc/pic32mx/8.3.1/../../../../pic32mx/lib/fpu64/libpic32.a(sbrk.o)
 .xc_stack_usage.hdr
                0x0000000000000000        0xe /opt/microchip/xc32/v4.21/bin/bin/../../lib/gcc/pic32mx/8.3.1/../../../../pic32mx/lib/fpu64/libpic32.a(sbrk.o)
 .reginfo       0x0000000000000000       0x18 /opt/microchip/xc32/v4.21/bin/bin/../../lib/gcc/pic32mx/8.3.1/../../../../pic32mx/lib/fpu64/libpic32.a(lseek.o)
 .MIPS.abiflags
                0x0000000000000000       0x18 /opt/microchip/xc32/v4.21/bin/bin/../../lib/gcc/pic32mx/8.3.1/../../../../pic32mx/lib/fpu64/libpic32.a(lseek.o)
 .xc_stack_usage
                0x0000000000000000       0x13 /opt/microchip/xc32/v4.21/bin/bin/../../lib/gcc/pic32mx/8.3.1/../../../../pic32mx/lib/fpu64/libpic32.a(lseek.o)
 .xc_stack_usage.hdr
                0x0000000000000000        0xe /opt/microchip/xc32/v4.21/bin/bin/../../lib/gcc/pic32mx/8.3.1/../../../../pic32mx/lib/fpu64/libpic32.a(lseek.o)
 .reginfo       0x0000000000000000       0x18 /opt/microchip/xc32/v4.21/bin/bin/../../lib/gcc/pic32mx/8.3.1/../../../../pic32mx/lib/fpu64/libpic32.a(close.o)
 .MIPS.abiflags
                0x0000000000000000       0x18 /opt/microchip/xc32/v4.21/bin/bin/../../lib/gcc/pic32mx/8.3.1/../../../../pic32mx/lib/fpu64/libpic32.a(close.o)
 .xc_stack_usage
                0x0000000000000000       0x13 /opt/microchip/xc32/v4.21/bin/bin/../../lib/gcc/pic32mx/8.3.1/../../../../pic32mx/lib/fpu64/libpic32.a(close.o)
 .xc_stack_usage.hdr
                0x0000000000000000        0xe /opt/microchip/xc32/v4.21/bin/bin/../../lib/gcc/pic32mx/8.3.1/../../../../pic32mx/lib/fpu64/libpic32.a(close.o)
 .reginfo       0x0000000000000000       0x18 /opt/microchip/xc32/v4.21/bin/bin/../../lib/gcc/pic32mx/8.3.1/../../../../pic32mx/lib/fpu64/libpic32.a(errno.o)
 .MIPS.abiflags
                0x0000000000000000       0x18 /opt/microchip/xc32/v4.21/bin/bin/../../lib/gcc/pic32mx/8.3.1/../../../../pic32mx/lib/fpu64/libpic32.a(errno.o)
 .xc_stack_usage.hdr
                0x0000000000000000        0xe /opt/microchip/xc32/v4.21/bin/bin/../../lib/gcc/pic32mx/8.3.1/../../../../pic32mx/lib/fpu64/libpic32.a(errno.o)

Memory Configuration

Name             Origin             Length             Attributes
kseg0_program_mem 0x000000009d000000 0x0000000000080000 xr
kseg0_boot_mem   0x000000009fc04490 0x0000000000000000
debug_exec_mem   0x000000009fc04490 0x0000000000000b70
kseg1_boot_mem   0x00000000bfc00000 0x0000000000000480
kseg1_boot_mem_4B0 0x00000000bfc004b0 0x0000000000003a80
config_BFC03F40  0x00000000bfc03f40 0x0000000000000004
config_BFC03F44  0x00000000bfc03f44 0x0000000000000004
config_BFC03F48  0x00000000bfc03f48 0x0000000000000004
config_BFC03F4C  0x00000000bfc03f4c 0x0000000000000004
config_BFC03F5C  0x00000000bfc03f5c 0x0000000000000004
config_BFC03F6C  0x00000000bfc03f6c 0x0000000000000004
config_BFC03F70  0x00000000bfc03f70 0x0000000000000004
config_BFC03FC0  0x00000000bfc03fc0 0x0000000000000004
config_BFC03FC4  0x00000000bfc03fc4 0x0000000000000004
config_BFC03FC8  0x00000000bfc03fc8 0x0000000000000004
config_BFC03FCC  0x00000000bfc03fcc 0x0000000000000004
config_BFC03FDC  0x00000000bfc03fdc 0x0000000000000004
config_BFC03FEC  0x00000000bfc03fec 0x0000000000000004
config_BFC03FF0  0x00000000bfc03ff0 0x0000000000000004
lowerbootaliaslastpage 0x00000000bfc04000 0x0000000000001000
boot1            0x00000000bfc40000 0x0000000000003f30
config_BFC43F40  0x00000000bfc43f40 0x0000000000000004
config_BFC43F44  0x00000000bfc43f44 0x0000000000000004
config_BFC43F48  0x00000000bfc43f48 0x0000000000000004
config_BFC43F4C  0x00000000bfc43f4c 0x0000000000000004
config_BFC43F5C  0x00000000bfc43f5c 0x0000000000000004
config_BFC43F6C  0x00000000bfc43f6c 0x0000000000000004
config_BFC43F70  0x00000000bfc43f70 0x0000000000000004
config_BFC43FC0  0x00000000bfc43fc0 0x0000000000000004
config_BFC43FC4  0x00000000bfc43fc4 0x0000000000000004
config_BFC43FC8  0x00000000bfc43fc8 0x0000000000000004
config_BFC43FCC  0x00000000bfc43fcc 0x0000000000000004
config_BFC43FDC  0x00000000bfc43fdc 0x0000000000000004
config_BFC43FEC  0x00000000bfc43fec 0x0000000000000004
config_BFC43FF0  0x00000000bfc43ff0 0x0000000000000004
boot1lastpage    0x00000000bfc44000 0x0000000000001000
config_BFC45000  0x00000000bfc45000 0x0000000000000004
config_BFC45004  0x00000000bfc45004 0x0000000000000004
config_BFC45008  0x00000000bfc45008 0x0000000000000004
config_BFC4500C  0x00000000bfc4500c 0x0000000000000004
config_BFC45010  0x00000000bfc45010 0x0000000000000004
config_BFC45014  0x00000000bfc45014 0x0000000000000004
config_BFC45018  0x00000000bfc45018 0x0000000000000004
config_BFC45020  0x00000000bfc45020 0x0000000000000004
config_BFC45024  0x00000000bfc45024 0x0000000000000004
config_BFC45028  0x00000000bfc45028 0x0000000000000004
config_BFC4502C  0x00000000bfc4502c 0x0000000000000004
kseg0_data_mem   0x0000000080000000 0x0000000000010000 w !x
sfrs             0x00000000bf800000 0x0000000000100000
configsfrs_BFC03F30 0x00000000bfc03f30 0x000000000000001c
configsfrs_BFC03FB0 0x00000000bfc03fb0 0x000000000000001c
configsfrs_BFC43F30 0x00000000bfc43f30 0x000000000000001c
configsfrs_BFC43FB0 0x00000000bfc43fb0 0x000000000000001c
configsfrs_BFC45000 0x00000000bfc45000 0x000000000000001c
configsfrs_BFC45020 0x00000000bfc45020 0x0000000000000010
*default*        0x0000000000000000 0xffffffffffffffff

Linker script and memory map

LOAD /opt/microchip/xc32/v4.21/bin/bin/../../lib/gcc/pic32mx/8.3.1/../../../../pic32mx/lib/fpu64/debug-exception-return.o
LOAD build/nsensor/production/_ext/1684788505/ChrFont0.o
LOAD build/nsensor/production/_ext/1684788505/dogm-graphic.o
LOAD build/nsensor/production/_ext/1684788505/eadog.o
LOAD build/nsensor/production/_ext/1684788505/FillPat.o
LOAD build/nsensor/production/_ext/1684788505/foo.o
LOAD build/nsensor/production/_ext/1684788505/lcd_drv.o
LOAD build/nsensor/production/_ext/1684788505/OledChar.o
LOAD build/nsensor/production/_ext/1684788505/OledDriver.o
LOAD build/nsensor/production/_ext/1684788505/OledGrph.o
LOAD build/nsensor/production/_ext/1966772718/plib_adchs.o
LOAD build/nsensor/production/_ext/1965004555/plib_canfd1.o
LOAD build/nsensor/production/_ext/619183945/plib_clk.o
LOAD build/nsensor/production/_ext/1664108525/plib_coretimer.o
LOAD build/nsensor/production/_ext/2014863652/plib_dmac.o
LOAD build/nsensor/production/_ext/2014902340/plib_evic.o
LOAD build/nsensor/production/_ext/2014956168/plib_gpio.o
LOAD build/nsensor/production/_ext/1955707305/plib_mcpwm.o
LOAD build/nsensor/production/_ext/619197180/plib_qei2.o
LOAD build/nsensor/production/_ext/2015287515/plib_rtcc.o
LOAD build/nsensor/production/_ext/1877210129/plib_spi1_master.o
LOAD build/nsensor/production/_ext/1877210129/plib_spi2_master.o
LOAD build/nsensor/production/_ext/619200320/plib_tmr9.o
LOAD build/nsensor/production/_ext/619200320/plib_tmr5.o
LOAD build/nsensor/production/_ext/619200320/plib_tmr3.o
LOAD build/nsensor/production/_ext/619200320/plib_tmr6.o
LOAD build/nsensor/production/_ext/619200320/plib_tmr2.o
LOAD build/nsensor/production/_ext/2015359111/plib_uart1.o
LOAD build/nsensor/production/_ext/725740559/xc32_monitor.o
LOAD build/nsensor/production/_ext/1856863253/exceptions.o
LOAD build/nsensor/production/_ext/1856863253/interrupts.o
LOAD build/nsensor/production/_ext/1856863253/initialization.o
LOAD build/nsensor/production/_ext/1360937237/bma490l.o
LOAD build/nsensor/production/_ext/1360937237/timers.o
LOAD build/nsensor/production/_ext/1360937237/sca3300.o
LOAD build/nsensor/production/_ext/1360937237/gfx.o
LOAD build/nsensor/production/_ext/1360937237/imu.o
LOAD build/nsensor/production/_ext/1360937237/pid.o
LOAD build/nsensor/production/_ext/1360937237/do_fft.o
LOAD build/nsensor/production/_ext/1360937237/fft.o
LOAD build/nsensor/production/_ext/1360937237/main.o
LOAD build/nsensor/production/_ext/1360937237/canfd.o
LOAD build/nsensor/production/_ext/1360937237/host.o
LOAD build/nsensor/production/_ext/1360937237/cmd_scanner.o
                0x0000000000000001                __MPLAB_BUILD = 0x1
                0x0000000000000400                PROVIDE (_min_stack_size = 0x400)
START GROUP
LOAD vector_offset_init.o
END GROUP
                0x0000000000000001                PROVIDE (_vector_spacing = 0x1)
                0x000000009d000000                PROVIDE (_ebase_address = 0x9d000000)
                0x00000000bfc00000                _RESET_ADDR = 0xbfc00000
                0x00000000bfc00380                _BEV_EXCPT_ADDR = 0xbfc00380
                0x00000000bfc00480                _DBG_EXCPT_ADDR = 0xbfc00480
                0x000000009d000000                _SIMPLE_TLB_REFILL_EXCPT_ADDR = (_ebase_address + 0x0)
                0x000000009d000180                _GEN_EXCPT_ADDR = (_ebase_address + 0x180)

.config_BFC03F40
 *(.config_BFC03F40)

.config_BFC03F44
 *(.config_BFC03F44)

.config_BFC03F48
 *(.config_BFC03F48)

.config_BFC03F4C
 *(.config_BFC03F4C)

.config_BFC03F5C
 *(.config_BFC03F5C)

.config_BFC03F6C
 *(.config_BFC03F6C)

.config_BFC03F70
 *(.config_BFC03F70)

.config_BFC03FC0
                0x00000000bfc03fc0        0x4
 *(.config_BFC03FC0)
 .config_BFC03FC0
                0x00000000bfc03fc0        0x4 build/nsensor/production/_ext/1856863253/initialization.o
                0x00000000bfc03fc0                __config_BFC03FC0

.config_BFC03FC4
                0x00000000bfc03fc4        0x4
 *(.config_BFC03FC4)
 .config_BFC03FC4
                0x00000000bfc03fc4        0x4 build/nsensor/production/_ext/1856863253/initialization.o
                0x00000000bfc03fc4                __config_BFC03FC4

.config_BFC03FC8
                0x00000000bfc03fc8        0x4
 *(.config_BFC03FC8)
 .config_BFC03FC8
                0x00000000bfc03fc8        0x4 build/nsensor/production/_ext/1856863253/initialization.o
                0x00000000bfc03fc8                __config_BFC03FC8

.config_BFC03FCC
                0x00000000bfc03fcc        0x4
 *(.config_BFC03FCC)
 .config_BFC03FCC
                0x00000000bfc03fcc        0x4 build/nsensor/production/_ext/1856863253/initialization.o
                0x00000000bfc03fcc                __config_BFC03FCC

.config_BFC03FDC
 *(.config_BFC03FDC)

.config_BFC03FEC
 *(.config_BFC03FEC)

.config_BFC03FF0
                0x00000000bfc03ff0        0x4
 *(.config_BFC03FF0)
 .config_BFC03FF0
                0x00000000bfc03ff0        0x4 build/nsensor/production/_ext/1856863253/initialization.o
                0x00000000bfc03ff0                __config_BFC03FF0

.config_BFC43F40
 *(.config_BFC43F40)

.config_BFC43F44
 *(.config_BFC43F44)

.config_BFC43F48
 *(.config_BFC43F48)

.config_BFC43F4C
 *(.config_BFC43F4C)

.config_BFC43F5C
 *(.config_BFC43F5C)

.config_BFC43F6C
 *(.config_BFC43F6C)

.config_BFC43F70
 *(.config_BFC43F70)

.config_BFC43FC0
 *(.config_BFC43FC0)

.config_BFC43FC4
 *(.config_BFC43FC4)

.config_BFC43FC8
 *(.config_BFC43FC8)

.config_BFC43FCC
 *(.config_BFC43FCC)

.config_BFC43FDC
 *(.config_BFC43FDC)

.config_BFC43FEC
 *(.config_BFC43FEC)

.config_BFC43FF0
 *(.config_BFC43FF0)

.config_BFC45000
 *(.config_BFC45000)

.config_BFC45004
 *(.config_BFC45004)

.config_BFC45008
 *(.config_BFC45008)

.config_BFC4500C
 *(.config_BFC4500C)

.config_BFC45010
 *(.config_BFC45010)

.config_BFC45014
 *(.config_BFC45014)

.config_BFC45018
 *(.config_BFC45018)

.config_BFC45020
 *(.config_BFC45020)

.config_BFC45024
 *(.config_BFC45024)

.config_BFC45028
 *(.config_BFC45028)

.config_BFC4502C
 *(.config_BFC4502C)

.reset          0x00000000bfc00000      0x194
 *(.reset)
 .reset         0x00000000bfc00000       0x18 /tmp/ccBkuxsy.o
                0x00000000bfc00000                _reset
 *(.reset.startup)
 .reset.startup
                0x00000000bfc00018      0x17c /tmp/ccBkuxsy.o
                0x00000000bfc00018                _startup

.bev_excpt      0x00000000bfc00380       0x10
 *(.bev_handler)
 .bev_handler   0x00000000bfc00380       0x10 /tmp/ccBkuxsy.o

.app_excpt      0x000000009d000180       0x10
 *(.gen_handler)
 .gen_handler   0x000000009d000180       0x10 /tmp/ccBkuxsy.o

.vectors        0x000000009d000200       0xc0
                0x000000009d000200                . = ALIGN (0x4)
                0x0000000000000200                __vector_offset_0 = DEFINED (__vector_dispatch_0)?(. - _ebase_address):__vector_offset_default
 *(.vector_0)
 .vector_0      0x000000009d000200        0x8 build/nsensor/production/_ext/1856863253/interrupts.o
                0x000000009d000200                __vector_dispatch_0
                0x000000009d000208                . = ALIGN (0x4)
                0x0000000000000278                __vector_offset_1 = DEFINED (__vector_dispatch_1)?(. - _ebase_address):__vector_offset_default
 *(.vector_1)
                0x000000009d000208                . = ALIGN (0x4)
                0x0000000000000278                __vector_offset_2 = DEFINED (__vector_dispatch_2)?(. - _ebase_address):__vector_offset_default
 *(.vector_2)
                0x000000009d000208                . = ALIGN (0x4)
                0x0000000000000278                __vector_offset_3 = DEFINED (__vector_dispatch_3)?(. - _ebase_address):__vector_offset_default
 *(.vector_3)
                0x000000009d000208                . = ALIGN (0x4)
                0x0000000000000278                __vector_offset_4 = DEFINED (__vector_dispatch_4)?(. - _ebase_address):__vector_offset_default
 *(.vector_4)
                0x000000009d000208                . = ALIGN (0x4)
                0x0000000000000278                __vector_offset_5 = DEFINED (__vector_dispatch_5)?(. - _ebase_address):__vector_offset_default
 *(.vector_5)
                0x000000009d000208                . = ALIGN (0x4)
                0x0000000000000278                __vector_offset_6 = DEFINED (__vector_dispatch_6)?(. - _ebase_address):__vector_offset_default
 *(.vector_6)
                0x000000009d000208                . = ALIGN (0x4)
                0x0000000000000278                __vector_offset_7 = DEFINED (__vector_dispatch_7)?(. - _ebase_address):__vector_offset_default
 *(.vector_7)
                0x000000009d000208                . = ALIGN (0x4)
                0x0000000000000278                __vector_offset_8 = DEFINED (__vector_dispatch_8)?(. - _ebase_address):__vector_offset_default
 *(.vector_8)
                0x000000009d000208                . = ALIGN (0x4)
                0x0000000000000278                __vector_offset_9 = DEFINED (__vector_dispatch_9)?(. - _ebase_address):__vector_offset_default
 *(.vector_9)
                0x000000009d000208                . = ALIGN (0x4)
                0x0000000000000278                __vector_offset_10 = DEFINED (__vector_dispatch_10)?(. - _ebase_address):__vector_offset_default
 *(.vector_10)
                0x000000009d000208                . = ALIGN (0x4)
                0x0000000000000278                __vector_offset_11 = DEFINED (__vector_dispatch_11)?(. - _ebase_address):__vector_offset_default
 *(.vector_11)
                0x000000009d000208                . = ALIGN (0x4)
                0x0000000000000278                __vector_offset_12 = DEFINED (__vector_dispatch_12)?(. - _ebase_address):__vector_offset_default
 *(.vector_12)
                0x000000009d000208                . = ALIGN (0x4)
                0x0000000000000208                __vector_offset_13 = DEFINED (__vector_dispatch_13)?(. - _ebase_address):__vector_offset_default
 *(.vector_13)
 .vector_13     0x000000009d000208        0x8 build/nsensor/production/_ext/1856863253/interrupts.o
                0x000000009d000208                __vector_dispatch_13
                0x000000009d000210                . = ALIGN (0x4)
                0x0000000000000278                __vector_offset_14 = DEFINED (__vector_dispatch_14)?(. - _ebase_address):__vector_offset_default
 *(.vector_14)
                0x000000009d000210                . = ALIGN (0x4)
                0x0000000000000278                __vector_offset_15 = DEFINED (__vector_dispatch_15)?(. - _ebase_address):__vector_offset_default
 *(.vector_15)
                0x000000009d000210                . = ALIGN (0x4)
                0x0000000000000278                __vector_offset_16 = DEFINED (__vector_dispatch_16)?(. - _ebase_address):__vector_offset_default
 *(.vector_16)
                0x000000009d000210                . = ALIGN (0x4)
                0x0000000000000278                __vector_offset_17 = DEFINED (__vector_dispatch_17)?(. - _ebase_address):__vector_offset_default
 *(.vector_17)
                0x000000009d000210                . = ALIGN (0x4)
                0x0000000000000278                __vector_offset_18 = DEFINED (__vector_dispatch_18)?(. - _ebase_address):__vector_offset_default
 *(.vector_18)
                0x000000009d000210                . = ALIGN (0x4)
                0x0000000000000278                __vector_offset_19 = DEFINED (__vector_dispatch_19)?(. - _ebase_address):__vector_offset_default
 *(.vector_19)
                0x000000009d000210                . = ALIGN (0x4)
                0x0000000000000278                __vector_offset_20 = DEFINED (__vector_dispatch_20)?(. - _ebase_address):__vector_offset_default
 *(.vector_20)
                0x000000009d000210                . = ALIGN (0x4)
                0x0000000000000278                __vector_offset_21 = DEFINED (__vector_dispatch_21)?(. - _ebase_address):__vector_offset_default
 *(.vector_21)
                0x000000009d000210                . = ALIGN (0x4)
                0x0000000000000278                __vector_offset_22 = DEFINED (__vector_dispatch_22)?(. - _ebase_address):__vector_offset_default
 *(.vector_22)
                0x000000009d000210                . = ALIGN (0x4)
                0x0000000000000278                __vector_offset_23 = DEFINED (__vector_dispatch_23)?(. - _ebase_address):__vector_offset_default
 *(.vector_23)
                0x000000009d000210                . = ALIGN (0x4)
                0x0000000000000210                __vector_offset_24 = DEFINED (__vector_dispatch_24)?(. - _ebase_address):__vector_offset_default
 *(.vector_24)
 .vector_24     0x000000009d000210        0x8 build/nsensor/production/_ext/1856863253/interrupts.o
                0x000000009d000210                __vector_dispatch_24
                0x000000009d000218                . = ALIGN (0x4)
                0x0000000000000278                __vector_offset_25 = DEFINED (__vector_dispatch_25)?(. - _ebase_address):__vector_offset_default
 *(.vector_25)
                0x000000009d000218                . = ALIGN (0x4)
                0x0000000000000278                __vector_offset_26 = DEFINED (__vector_dispatch_26)?(. - _ebase_address):__vector_offset_default
 *(.vector_26)
                0x000000009d000218                . = ALIGN (0x4)
                0x0000000000000278                __vector_offset_27 = DEFINED (__vector_dispatch_27)?(. - _ebase_address):__vector_offset_default
 *(.vector_27)
                0x000000009d000218                . = ALIGN (0x4)
                0x0000000000000278                __vector_offset_28 = DEFINED (__vector_dispatch_28)?(. - _ebase_address):__vector_offset_default
 *(.vector_28)
                0x000000009d000218                . = ALIGN (0x4)
                0x0000000000000278                __vector_offset_29 = DEFINED (__vector_dispatch_29)?(. - _ebase_address):__vector_offset_default
 *(.vector_29)
                0x000000009d000218                . = ALIGN (0x4)
                0x0000000000000218                __vector_offset_30 = DEFINED (__vector_dispatch_30)?(. - _ebase_address):__vector_offset_default
 *(.vector_30)
 .vector_30     0x000000009d000218        0x8 build/nsensor/production/_ext/1856863253/interrupts.o
                0x000000009d000218                __vector_dispatch_30
                0x000000009d000220                . = ALIGN (0x4)
                0x0000000000000278                __vector_offset_31 = DEFINED (__vector_dispatch_31)?(. - _ebase_address):__vector_offset_default
 *(.vector_31)
                0x000000009d000220                . = ALIGN (0x4)
                0x0000000000000278                __vector_offset_32 = DEFINED (__vector_dispatch_32)?(. - _ebase_address):__vector_offset_default
 *(.vector_32)
                0x000000009d000220                . = ALIGN (0x4)
                0x0000000000000278                __vector_offset_33 = DEFINED (__vector_dispatch_33)?(. - _ebase_address):__vector_offset_default
 *(.vector_33)
                0x000000009d000220                . = ALIGN (0x4)
                0x0000000000000278                __vector_offset_34 = DEFINED (__vector_dispatch_34)?(. - _ebase_address):__vector_offset_default
 *(.vector_34)
                0x000000009d000220                . = ALIGN (0x4)
                0x0000000000000278                __vector_offset_35 = DEFINED (__vector_dispatch_35)?(. - _ebase_address):__vector_offset_default
 *(.vector_35)
                0x000000009d000220                . = ALIGN (0x4)
                0x0000000000000220                __vector_offset_36 = DEFINED (__vector_dispatch_36)?(. - _ebase_address):__vector_offset_default
 *(.vector_36)
 .vector_36     0x000000009d000220        0x8 build/nsensor/production/_ext/1856863253/interrupts.o
                0x000000009d000220                __vector_dispatch_36
                0x000000009d000228                . = ALIGN (0x4)
                0x0000000000000228                __vector_offset_37 = DEFINED (__vector_dispatch_37)?(. - _ebase_address):__vector_offset_default
 *(.vector_37)
 .vector_37     0x000000009d000228        0x8 build/nsensor/production/_ext/1856863253/interrupts.o
                0x000000009d000228                __vector_dispatch_37
                0x000000009d000230                . = ALIGN (0x4)
                0x0000000000000278                __vector_offset_38 = DEFINED (__vector_dispatch_38)?(. - _ebase_address):__vector_offset_default
 *(.vector_38)
                0x000000009d000230                . = ALIGN (0x4)
                0x0000000000000278                __vector_offset_39 = DEFINED (__vector_dispatch_39)?(. - _ebase_address):__vector_offset_default
 *(.vector_39)
                0x000000009d000230                . = ALIGN (0x4)
                0x0000000000000278                __vector_offset_40 = DEFINED (__vector_dispatch_40)?(. - _ebase_address):__vector_offset_default
 *(.vector_40)
                0x000000009d000230                . = ALIGN (0x4)
                0x0000000000000278                __vector_offset_41 = DEFINED (__vector_dispatch_41)?(. - _ebase_address):__vector_offset_default
 *(.vector_41)
                0x000000009d000230                . = ALIGN (0x4)
                0x0000000000000278                __vector_offset_42 = DEFINED (__vector_dispatch_42)?(. - _ebase_address):__vector_offset_default
 *(.vector_42)
                0x000000009d000230                . = ALIGN (0x4)
                0x0000000000000278                __vector_offset_43 = DEFINED (__vector_dispatch_43)?(. - _ebase_address):__vector_offset_default
 *(.vector_43)
                0x000000009d000230                . = ALIGN (0x4)
                0x0000000000000278                __vector_offset_44 = DEFINED (__vector_dispatch_44)?(. - _ebase_address):__vector_offset_default
 *(.vector_44)
                0x000000009d000230                . = ALIGN (0x4)
                0x0000000000000278                __vector_offset_45 = DEFINED (__vector_dispatch_45)?(. - _ebase_address):__vector_offset_default
 *(.vector_45)
                0x000000009d000230                . = ALIGN (0x4)
                0x0000000000000278                __vector_offset_46 = DEFINED (__vector_dispatch_46)?(. - _ebase_address):__vector_offset_default
 *(.vector_46)
                0x000000009d000230                . = ALIGN (0x4)
                0x0000000000000278                __vector_offset_47 = DEFINED (__vector_dispatch_47)?(. - _ebase_address):__vector_offset_default
 *(.vector_47)
                0x000000009d000230                . = ALIGN (0x4)
                0x0000000000000278                __vector_offset_48 = DEFINED (__vector_dispatch_48)?(. - _ebase_address):__vector_offset_default
 *(.vector_48)
                0x000000009d000230                . = ALIGN (0x4)
                0x0000000000000278                __vector_offset_49 = DEFINED (__vector_dispatch_49)?(. - _ebase_address):__vector_offset_default
 *(.vector_49)
                0x000000009d000230                . = ALIGN (0x4)
                0x0000000000000278                __vector_offset_50 = DEFINED (__vector_dispatch_50)?(. - _ebase_address):__vector_offset_default
 *(.vector_50)
                0x000000009d000230                . = ALIGN (0x4)
                0x0000000000000278                __vector_offset_51 = DEFINED (__vector_dispatch_51)?(. - _ebase_address):__vector_offset_default
 *(.vector_51)
                0x000000009d000230                . = ALIGN (0x4)
                0x0000000000000278                __vector_offset_52 = DEFINED (__vector_dispatch_52)?(. - _ebase_address):__vector_offset_default
 *(.vector_52)
                0x000000009d000230                . = ALIGN (0x4)
                0x0000000000000278                __vector_offset_53 = DEFINED (__vector_dispatch_53)?(. - _ebase_address):__vector_offset_default
 *(.vector_53)
                0x000000009d000230                . = ALIGN (0x4)
                0x0000000000000230                __vector_offset_54 = DEFINED (__vector_dispatch_54)?(. - _ebase_address):__vector_offset_default
 *(.vector_54)
 .vector_54     0x000000009d000230        0x8 build/nsensor/production/_ext/1856863253/interrupts.o
                0x000000009d000230                __vector_dispatch_54
                0x000000009d000238                . = ALIGN (0x4)
                0x0000000000000238                __vector_offset_55 = DEFINED (__vector_dispatch_55)?(. - _ebase_address):__vector_offset_default
 *(.vector_55)
 .vector_55     0x000000009d000238        0x8 build/nsensor/production/_ext/1856863253/interrupts.o
                0x000000009d000238                __vector_dispatch_55
                0x000000009d000240                . = ALIGN (0x4)
                0x0000000000000278                __vector_offset_56 = DEFINED (__vector_dispatch_56)?(. - _ebase_address):__vector_offset_default
 *(.vector_56)
                0x000000009d000240                . = ALIGN (0x4)
                0x0000000000000278                __vector_offset_57 = DEFINED (__vector_dispatch_57)?(. - _ebase_address):__vector_offset_default
 *(.vector_57)
                0x000000009d000240                . = ALIGN (0x4)
                0x0000000000000278                __vector_offset_58 = DEFINED (__vector_dispatch_58)?(. - _ebase_address):__vector_offset_default
 *(.vector_58)
                0x000000009d000240                . = ALIGN (0x4)
                0x0000000000000278                __vector_offset_59 = DEFINED (__vector_dispatch_59)?(. - _ebase_address):__vector_offset_default
 *(.vector_59)
                0x000000009d000240                . = ALIGN (0x4)
                0x0000000000000278                __vector_offset_60 = DEFINED (__vector_dispatch_60)?(. - _ebase_address):__vector_offset_default
 *(.vector_60)
                0x000000009d000240                . = ALIGN (0x4)
                0x0000000000000278                __vector_offset_61 = DEFINED (__vector_dispatch_61)?(. - _ebase_address):__vector_offset_default
 *(.vector_61)
                0x000000009d000240                . = ALIGN (0x4)
                0x0000000000000278                __vector_offset_62 = DEFINED (__vector_dispatch_62)?(. - _ebase_address):__vector_offset_default
 *(.vector_62)
                0x000000009d000240                . = ALIGN (0x4)
                0x0000000000000278                __vector_offset_63 = DEFINED (__vector_dispatch_63)?(. - _ebase_address):__vector_offset_default
 *(.vector_63)
                0x000000009d000240                . = ALIGN (0x4)
                0x0000000000000278                __vector_offset_64 = DEFINED (__vector_dispatch_64)?(. - _ebase_address):__vector_offset_default
 *(.vector_64)
                0x000000009d000240                . = ALIGN (0x4)
                0x0000000000000278                __vector_offset_65 = DEFINED (__vector_dispatch_65)?(. - _ebase_address):__vector_offset_default
 *(.vector_65)
                0x000000009d000240                . = ALIGN (0x4)
                0x0000000000000278                __vector_offset_66 = DEFINED (__vector_dispatch_66)?(. - _ebase_address):__vector_offset_default
 *(.vector_66)
                0x000000009d000240                . = ALIGN (0x4)
                0x0000000000000278                __vector_offset_67 = DEFINED (__vector_dispatch_67)?(. - _ebase_address):__vector_offset_default
 *(.vector_67)
                0x000000009d000240                . = ALIGN (0x4)
                0x0000000000000278                __vector_offset_68 = DEFINED (__vector_dispatch_68)?(. - _ebase_address):__vector_offset_default
 *(.vector_68)
                0x000000009d000240                . = ALIGN (0x4)
                0x0000000000000278                __vector_offset_69 = DEFINED (__vector_dispatch_69)?(. - _ebase_address):__vector_offset_default
 *(.vector_69)
                0x000000009d000240                . = ALIGN (0x4)
                0x0000000000000278                __vector_offset_70 = DEFINED (__vector_dispatch_70)?(. - _ebase_address):__vector_offset_default
 *(.vector_70)
                0x000000009d000240                . = ALIGN (0x4)
                0x0000000000000278                __vector_offset_71 = DEFINED (__vector_dispatch_71)?(. - _ebase_address):__vector_offset_default
 *(.vector_71)
                0x000000009d000240                . = ALIGN (0x4)
                0x0000000000000240                __vector_offset_72 = DEFINED (__vector_dispatch_72)?(. - _ebase_address):__vector_offset_default
 *(.vector_72)
 .vector_72     0x000000009d000240        0x8 build/nsensor/production/_ext/1856863253/interrupts.o
                0x000000009d000240                __vector_dispatch_72
                0x000000009d000248                . = ALIGN (0x4)
                0x0000000000000248                __vector_offset_73 = DEFINED (__vector_dispatch_73)?(. - _ebase_address):__vector_offset_default
 *(.vector_73)
 .vector_73     0x000000009d000248        0x8 build/nsensor/production/_ext/1856863253/interrupts.o
                0x000000009d000248                __vector_dispatch_73
                0x000000009d000250                . = ALIGN (0x4)
                0x0000000000000250                __vector_offset_74 = DEFINED (__vector_dispatch_74)?(. - _ebase_address):__vector_offset_default
 *(.vector_74)
 .vector_74     0x000000009d000250        0x8 build/nsensor/production/_ext/1856863253/interrupts.o
                0x000000009d000250                __vector_dispatch_74
                0x000000009d000258                . = ALIGN (0x4)
                0x0000000000000278                __vector_offset_75 = DEFINED (__vector_dispatch_75)?(. - _ebase_address):__vector_offset_default
 *(.vector_75)
                0x000000009d000258                . = ALIGN (0x4)
                0x0000000000000258                __vector_offset_76 = DEFINED (__vector_dispatch_76)?(. - _ebase_address):__vector_offset_default
 *(.vector_76)
 .vector_76     0x000000009d000258        0x8 build/nsensor/production/_ext/1856863253/interrupts.o
                0x000000009d000258                __vector_dispatch_76
                0x000000009d000260                . = ALIGN (0x4)
                0x0000000000000278                __vector_offset_77 = DEFINED (__vector_dispatch_77)?(. - _ebase_address):__vector_offset_default
 *(.vector_77)
                0x000000009d000260                . = ALIGN (0x4)
                0x0000000000000278                __vector_offset_78 = DEFINED (__vector_dispatch_78)?(. - _ebase_address):__vector_offset_default
 *(.vector_78)
                0x000000009d000260                . = ALIGN (0x4)
                0x0000000000000278                __vector_offset_79 = DEFINED (__vector_dispatch_79)?(. - _ebase_address):__vector_offset_default
 *(.vector_79)
                0x000000009d000260                . = ALIGN (0x4)
                0x0000000000000278                __vector_offset_80 = DEFINED (__vector_dispatch_80)?(. - _ebase_address):__vector_offset_default
 *(.vector_80)
                0x000000009d000260                . = ALIGN (0x4)
                0x0000000000000278                __vector_offset_81 = DEFINED (__vector_dispatch_81)?(. - _ebase_address):__vector_offset_default
 *(.vector_81)
                0x000000009d000260                . = ALIGN (0x4)
                0x0000000000000278                __vector_offset_82 = DEFINED (__vector_dispatch_82)?(. - _ebase_address):__vector_offset_default
 *(.vector_82)
                0x000000009d000260                . = ALIGN (0x4)
                0x0000000000000278                __vector_offset_83 = DEFINED (__vector_dispatch_83)?(. - _ebase_address):__vector_offset_default
 *(.vector_83)
                0x000000009d000260                . = ALIGN (0x4)
                0x0000000000000278                __vector_offset_84 = DEFINED (__vector_dispatch_84)?(. - _ebase_address):__vector_offset_default
 *(.vector_84)
                0x000000009d000260                . = ALIGN (0x4)
                0x0000000000000278                __vector_offset_85 = DEFINED (__vector_dispatch_85)?(. - _ebase_address):__vector_offset_default
 *(.vector_85)
                0x000000009d000260                . = ALIGN (0x4)
                0x0000000000000278                __vector_offset_86 = DEFINED (__vector_dispatch_86)?(. - _ebase_address):__vector_offset_default
 *(.vector_86)
                0x000000009d000260                . = ALIGN (0x4)
                0x0000000000000278                __vector_offset_87 = DEFINED (__vector_dispatch_87)?(. - _ebase_address):__vector_offset_default
 *(.vector_87)
                0x000000009d000260                . = ALIGN (0x4)
                0x0000000000000278                __vector_offset_88 = DEFINED (__vector_dispatch_88)?(. - _ebase_address):__vector_offset_default
 *(.vector_88)
                0x000000009d000260                . = ALIGN (0x4)
                0x0000000000000278                __vector_offset_89 = DEFINED (__vector_dispatch_89)?(. - _ebase_address):__vector_offset_default
 *(.vector_89)
                0x000000009d000260                . = ALIGN (0x4)
                0x0000000000000278                __vector_offset_90 = DEFINED (__vector_dispatch_90)?(. - _ebase_address):__vector_offset_default
 *(.vector_90)
                0x000000009d000260                . = ALIGN (0x4)
                0x0000000000000278                __vector_offset_91 = DEFINED (__vector_dispatch_91)?(. - _ebase_address):__vector_offset_default
 *(.vector_91)
                0x000000009d000260                . = ALIGN (0x4)
                0x0000000000000278                __vector_offset_92 = DEFINED (__vector_dispatch_92)?(. - _ebase_address):__vector_offset_default
 *(.vector_92)
                0x000000009d000260                . = ALIGN (0x4)
                0x0000000000000278                __vector_offset_93 = DEFINED (__vector_dispatch_93)?(. - _ebase_address):__vector_offset_default
 *(.vector_93)
                0x000000009d000260                . = ALIGN (0x4)
                0x0000000000000278                __vector_offset_94 = DEFINED (__vector_dispatch_94)?(. - _ebase_address):__vector_offset_default
 *(.vector_94)
                0x000000009d000260                . = ALIGN (0x4)
                0x0000000000000278                __vector_offset_95 = DEFINED (__vector_dispatch_95)?(. - _ebase_address):__vector_offset_default
 *(.vector_95)
                0x000000009d000260                . = ALIGN (0x4)
                0x0000000000000278                __vector_offset_96 = DEFINED (__vector_dispatch_96)?(. - _ebase_address):__vector_offset_default
 *(.vector_96)
                0x000000009d000260                . = ALIGN (0x4)
                0x0000000000000278                __vector_offset_97 = DEFINED (__vector_dispatch_97)?(. - _ebase_address):__vector_offset_default
 *(.vector_97)
                0x000000009d000260                . = ALIGN (0x4)
                0x0000000000000278                __vector_offset_98 = DEFINED (__vector_dispatch_98)?(. - _ebase_address):__vector_offset_default
 *(.vector_98)
                0x000000009d000260                . = ALIGN (0x4)
                0x0000000000000278                __vector_offset_99 = DEFINED (__vector_dispatch_99)?(. - _ebase_address):__vector_offset_default
 *(.vector_99)
                0x000000009d000260                . = ALIGN (0x4)
                0x0000000000000278                __vector_offset_100 = DEFINED (__vector_dispatch_100)?(. - _ebase_address):__vector_offset_default
 *(.vector_100)
                0x000000009d000260                . = ALIGN (0x4)
                0x0000000000000278                __vector_offset_101 = DEFINED (__vector_dispatch_101)?(. - _ebase_address):__vector_offset_default
 *(.vector_101)
                0x000000009d000260                . = ALIGN (0x4)
                0x0000000000000278                __vector_offset_102 = DEFINED (__vector_dispatch_102)?(. - _ebase_address):__vector_offset_default
 *(.vector_102)
                0x000000009d000260                . = ALIGN (0x4)
                0x0000000000000278                __vector_offset_103 = DEFINED (__vector_dispatch_103)?(. - _ebase_address):__vector_offset_default
 *(.vector_103)
                0x000000009d000260                . = ALIGN (0x4)
                0x0000000000000278                __vector_offset_104 = DEFINED (__vector_dispatch_104)?(. - _ebase_address):__vector_offset_default
 *(.vector_104)
                0x000000009d000260                . = ALIGN (0x4)
                0x0000000000000278                __vector_offset_105 = DEFINED (__vector_dispatch_105)?(. - _ebase_address):__vector_offset_default
 *(.vector_105)
                0x000000009d000260                . = ALIGN (0x4)
                0x0000000000000278                __vector_offset_106 = DEFINED (__vector_dispatch_106)?(. - _ebase_address):__vector_offset_default
 *(.vector_106)
                0x000000009d000260                . = ALIGN (0x4)
                0x0000000000000278                __vector_offset_107 = DEFINED (__vector_dispatch_107)?(. - _ebase_address):__vector_offset_default
 *(.vector_107)
                0x000000009d000260                . = ALIGN (0x4)
                0x0000000000000278                __vector_offset_108 = DEFINED (__vector_dispatch_108)?(. - _ebase_address):__vector_offset_default
 *(.vector_108)
                0x000000009d000260                . = ALIGN (0x4)
                0x0000000000000278                __vector_offset_109 = DEFINED (__vector_dispatch_109)?(. - _ebase_address):__vector_offset_default
 *(.vector_109)
                0x000000009d000260                . = ALIGN (0x4)
                0x0000000000000278                __vector_offset_110 = DEFINED (__vector_dispatch_110)?(. - _ebase_address):__vector_offset_default
 *(.vector_110)
                0x000000009d000260                . = ALIGN (0x4)
                0x0000000000000278                __vector_offset_111 = DEFINED (__vector_dispatch_111)?(. - _ebase_address):__vector_offset_default
 *(.vector_111)
                0x000000009d000260                . = ALIGN (0x4)
                0x0000000000000278                __vector_offset_112 = DEFINED (__vector_dispatch_112)?(. - _ebase_address):__vector_offset_default
 *(.vector_112)
                0x000000009d000260                . = ALIGN (0x4)
                0x0000000000000278                __vector_offset_113 = DEFINED (__vector_dispatch_113)?(. - _ebase_address):__vector_offset_default
 *(.vector_113)
                0x000000009d000260                . = ALIGN (0x4)
                0x0000000000000278                __vector_offset_114 = DEFINED (__vector_dispatch_114)?(. - _ebase_address):__vector_offset_default
 *(.vector_114)
                0x000000009d000260                . = ALIGN (0x4)
                0x0000000000000278                __vector_offset_115 = DEFINED (__vector_dispatch_115)?(. - _ebase_address):__vector_offset_default
 *(.vector_115)
                0x000000009d000260                . = ALIGN (0x4)
                0x0000000000000278                __vector_offset_116 = DEFINED (__vector_dispatch_116)?(. - _ebase_address):__vector_offset_default
 *(.vector_116)
                0x000000009d000260                . = ALIGN (0x4)
                0x0000000000000278                __vector_offset_117 = DEFINED (__vector_dispatch_117)?(. - _ebase_address):__vector_offset_default
 *(.vector_117)
                0x000000009d000260                . = ALIGN (0x4)
                0x0000000000000278                __vector_offset_118 = DEFINED (__vector_dispatch_118)?(. - _ebase_address):__vector_offset_default
 *(.vector_118)
                0x000000009d000260                . = ALIGN (0x4)
                0x0000000000000278                __vector_offset_119 = DEFINED (__vector_dispatch_119)?(. - _ebase_address):__vector_offset_default
 *(.vector_119)
                0x000000009d000260                . = ALIGN (0x4)
                0x0000000000000278                __vector_offset_120 = DEFINED (__vector_dispatch_120)?(. - _ebase_address):__vector_offset_default
 *(.vector_120)
                0x000000009d000260                . = ALIGN (0x4)
                0x0000000000000278                __vector_offset_121 = DEFINED (__vector_dispatch_121)?(. - _ebase_address):__vector_offset_default
 *(.vector_121)
                0x000000009d000260                . = ALIGN (0x4)
                0x0000000000000278                __vector_offset_122 = DEFINED (__vector_dispatch_122)?(. - _ebase_address):__vector_offset_default
 *(.vector_122)
                0x000000009d000260                . = ALIGN (0x4)
                0x0000000000000278                __vector_offset_123 = DEFINED (__vector_dispatch_123)?(. - _ebase_address):__vector_offset_default
 *(.vector_123)
                0x000000009d000260                . = ALIGN (0x4)
                0x0000000000000278                __vector_offset_124 = DEFINED (__vector_dispatch_124)?(. - _ebase_address):__vector_offset_default
 *(.vector_124)
                0x000000009d000260                . = ALIGN (0x4)
                0x0000000000000278                __vector_offset_125 = DEFINED (__vector_dispatch_125)?(. - _ebase_address):__vector_offset_default
 *(.vector_125)
                0x000000009d000260                . = ALIGN (0x4)
                0x0000000000000278                __vector_offset_126 = DEFINED (__vector_dispatch_126)?(. - _ebase_address):__vector_offset_default
 *(.vector_126)
                0x000000009d000260                . = ALIGN (0x4)
                0x0000000000000278                __vector_offset_127 = DEFINED (__vector_dispatch_127)?(. - _ebase_address):__vector_offset_default
 *(.vector_127)
                0x000000009d000260                . = ALIGN (0x4)
                0x0000000000000278                __vector_offset_128 = DEFINED (__vector_dispatch_128)?(. - _ebase_address):__vector_offset_default
 *(.vector_128)
                0x000000009d000260                . = ALIGN (0x4)
                0x0000000000000278                __vector_offset_129 = DEFINED (__vector_dispatch_129)?(. - _ebase_address):__vector_offset_default
 *(.vector_129)
                0x000000009d000260                . = ALIGN (0x4)
                0x0000000000000278                __vector_offset_130 = DEFINED (__vector_dispatch_130)?(. - _ebase_address):__vector_offset_default
 *(.vector_130)
                0x000000009d000260                . = ALIGN (0x4)
                0x0000000000000278                __vector_offset_131 = DEFINED (__vector_dispatch_131)?(. - _ebase_address):__vector_offset_default
 *(.vector_131)
                0x000000009d000260                . = ALIGN (0x4)
                0x0000000000000278                __vector_offset_132 = DEFINED (__vector_dispatch_132)?(. - _ebase_address):__vector_offset_default
 *(.vector_132)
                0x000000009d000260                . = ALIGN (0x4)
                0x0000000000000278                __vector_offset_133 = DEFINED (__vector_dispatch_133)?(. - _ebase_address):__vector_offset_default
 *(.vector_133)
                0x000000009d000260                . = ALIGN (0x4)
                0x0000000000000278                __vector_offset_134 = DEFINED (__vector_dispatch_134)?(. - _ebase_address):__vector_offset_default
 *(.vector_134)
                0x000000009d000260                . = ALIGN (0x4)
                0x0000000000000278                __vector_offset_135 = DEFINED (__vector_dispatch_135)?(. - _ebase_address):__vector_offset_default
 *(.vector_135)
                0x000000009d000260                . = ALIGN (0x4)
                0x0000000000000278                __vector_offset_136 = DEFINED (__vector_dispatch_136)?(. - _ebase_address):__vector_offset_default
 *(.vector_136)
                0x000000009d000260                . = ALIGN (0x4)
                0x0000000000000278                __vector_offset_137 = DEFINED (__vector_dispatch_137)?(. - _ebase_address):__vector_offset_default
 *(.vector_137)
                0x000000009d000260                . = ALIGN (0x4)
                0x0000000000000278                __vector_offset_138 = DEFINED (__vector_dispatch_138)?(. - _ebase_address):__vector_offset_default
 *(.vector_138)
                0x000000009d000260                . = ALIGN (0x4)
                0x0000000000000278                __vector_offset_139 = DEFINED (__vector_dispatch_139)?(. - _ebase_address):__vector_offset_default
 *(.vector_139)
                0x000000009d000260                . = ALIGN (0x4)
                0x0000000000000278                __vector_offset_140 = DEFINED (__vector_dispatch_140)?(. - _ebase_address):__vector_offset_default
 *(.vector_140)
                0x000000009d000260                . = ALIGN (0x4)
                0x0000000000000278                __vector_offset_141 = DEFINED (__vector_dispatch_141)?(. - _ebase_address):__vector_offset_default
 *(.vector_141)
                0x000000009d000260                . = ALIGN (0x4)
                0x0000000000000278                __vector_offset_142 = DEFINED (__vector_dispatch_142)?(. - _ebase_address):__vector_offset_default
 *(.vector_142)
                0x000000009d000260                . = ALIGN (0x4)
                0x0000000000000278                __vector_offset_143 = DEFINED (__vector_dispatch_143)?(. - _ebase_address):__vector_offset_default
 *(.vector_143)
                0x000000009d000260                . = ALIGN (0x4)
                0x0000000000000278                __vector_offset_144 = DEFINED (__vector_dispatch_144)?(. - _ebase_address):__vector_offset_default
 *(.vector_144)
                0x000000009d000260                . = ALIGN (0x4)
                0x0000000000000278                __vector_offset_145 = DEFINED (__vector_dispatch_145)?(. - _ebase_address):__vector_offset_default
 *(.vector_145)
                0x000000009d000260                . = ALIGN (0x4)
                0x0000000000000278                __vector_offset_146 = DEFINED (__vector_dispatch_146)?(. - _ebase_address):__vector_offset_default
 *(.vector_146)
                0x000000009d000260                . = ALIGN (0x4)
                0x0000000000000278                __vector_offset_147 = DEFINED (__vector_dispatch_147)?(. - _ebase_address):__vector_offset_default
 *(.vector_147)
                0x000000009d000260                . = ALIGN (0x4)
                0x0000000000000278                __vector_offset_148 = DEFINED (__vector_dispatch_148)?(. - _ebase_address):__vector_offset_default
 *(.vector_148)
                0x000000009d000260                . = ALIGN (0x4)
                0x0000000000000278                __vector_offset_149 = DEFINED (__vector_dispatch_149)?(. - _ebase_address):__vector_offset_default
 *(.vector_149)
                0x000000009d000260                . = ALIGN (0x4)
                0x0000000000000278                __vector_offset_150 = DEFINED (__vector_dispatch_150)?(. - _ebase_address):__vector_offset_default
 *(.vector_150)
                0x000000009d000260                . = ALIGN (0x4)
                0x0000000000000278                __vector_offset_151 = DEFINED (__vector_dispatch_151)?(. - _ebase_address):__vector_offset_default
 *(.vector_151)
                0x000000009d000260                . = ALIGN (0x4)
                0x0000000000000278                __vector_offset_152 = DEFINED (__vector_dispatch_152)?(. - _ebase_address):__vector_offset_default
 *(.vector_152)
                0x000000009d000260                . = ALIGN (0x4)
                0x0000000000000278                __vector_offset_153 = DEFINED (__vector_dispatch_153)?(. - _ebase_address):__vector_offset_default
 *(.vector_153)
                0x000000009d000260                . = ALIGN (0x4)
                0x0000000000000278                __vector_offset_154 = DEFINED (__vector_dispatch_154)?(. - _ebase_address):__vector_offset_default
 *(.vector_154)
                0x000000009d000260                . = ALIGN (0x4)
                0x0000000000000278                __vector_offset_155 = DEFINED (__vector_dispatch_155)?(. - _ebase_address):__vector_offset_default
 *(.vector_155)
                0x000000009d000260                . = ALIGN (0x4)
                0x0000000000000278                __vector_offset_156 = DEFINED (__vector_dispatch_156)?(. - _ebase_address):__vector_offset_default
 *(.vector_156)
                0x000000009d000260                . = ALIGN (0x4)
                0x0000000000000278                __vector_offset_157 = DEFINED (__vector_dispatch_157)?(. - _ebase_address):__vector_offset_default
 *(.vector_157)
                0x000000009d000260                . = ALIGN (0x4)
                0x0000000000000278                __vector_offset_158 = DEFINED (__vector_dispatch_158)?(. - _ebase_address):__vector_offset_default
 *(.vector_158)
                0x000000009d000260                . = ALIGN (0x4)
                0x0000000000000278                __vector_offset_159 = DEFINED (__vector_dispatch_159)?(. - _ebase_address):__vector_offset_default
 *(.vector_159)
                0x000000009d000260                . = ALIGN (0x4)
                0x0000000000000278                __vector_offset_160 = DEFINED (__vector_dispatch_160)?(. - _ebase_address):__vector_offset_default
 *(.vector_160)
                0x000000009d000260                . = ALIGN (0x4)
                0x0000000000000278                __vector_offset_161 = DEFINED (__vector_dispatch_161)?(. - _ebase_address):__vector_offset_default
 *(.vector_161)
                0x000000009d000260                . = ALIGN (0x4)
                0x0000000000000278                __vector_offset_162 = DEFINED (__vector_dispatch_162)?(. - _ebase_address):__vector_offset_default
 *(.vector_162)
                0x000000009d000260                . = ALIGN (0x4)
                0x0000000000000278                __vector_offset_163 = DEFINED (__vector_dispatch_163)?(. - _ebase_address):__vector_offset_default
 *(.vector_163)
                0x000000009d000260                . = ALIGN (0x4)
                0x0000000000000278                __vector_offset_164 = DEFINED (__vector_dispatch_164)?(. - _ebase_address):__vector_offset_default
 *(.vector_164)
                0x000000009d000260                . = ALIGN (0x4)
                0x0000000000000278                __vector_offset_165 = DEFINED (__vector_dispatch_165)?(. - _ebase_address):__vector_offset_default
 *(.vector_165)
                0x000000009d000260                . = ALIGN (0x4)
                0x0000000000000278                __vector_offset_166 = DEFINED (__vector_dispatch_166)?(. - _ebase_address):__vector_offset_default
 *(.vector_166)
                0x000000009d000260                . = ALIGN (0x4)
                0x0000000000000260                __vector_offset_167 = DEFINED (__vector_dispatch_167)?(. - _ebase_address):__vector_offset_default
 *(.vector_167)
 .vector_167    0x000000009d000260        0x8 build/nsensor/production/_ext/1856863253/interrupts.o
                0x000000009d000260                __vector_dispatch_167
                0x000000009d000268                . = ALIGN (0x4)
                0x0000000000000278                __vector_offset_168 = DEFINED (__vector_dispatch_168)?(. - _ebase_address):__vector_offset_default
 *(.vector_168)
                0x000000009d000268                . = ALIGN (0x4)
                0x0000000000000278                __vector_offset_169 = DEFINED (__vector_dispatch_169)?(. - _ebase_address):__vector_offset_default
 *(.vector_169)
                0x000000009d000268                . = ALIGN (0x4)
                0x0000000000000268                __vector_offset_170 = DEFINED (__vector_dispatch_170)?(. - _ebase_address):__vector_offset_default
 *(.vector_170)
 .vector_170    0x000000009d000268        0x8 build/nsensor/production/_ext/1856863253/interrupts.o
                0x000000009d000268                __vector_dispatch_170
                0x000000009d000270                . = ALIGN (0x4)
                0x0000000000000278                __vector_offset_171 = DEFINED (__vector_dispatch_171)?(. - _ebase_address):__vector_offset_default
 *(.vector_171)
                0x000000009d000270                . = ALIGN (0x4)
                0x0000000000000278                __vector_offset_172 = DEFINED (__vector_dispatch_172)?(. - _ebase_address):__vector_offset_default
 *(.vector_172)
                0x000000009d000270                . = ALIGN (0x4)
                0x0000000000000278                __vector_offset_173 = DEFINED (__vector_dispatch_173)?(. - _ebase_address):__vector_offset_default
 *(.vector_173)
                0x000000009d000270                . = ALIGN (0x4)
                0x0000000000000278                __vector_offset_174 = DEFINED (__vector_dispatch_174)?(. - _ebase_address):__vector_offset_default
 *(.vector_174)
                0x000000009d000270                . = ALIGN (0x4)
                0x0000000000000278                __vector_offset_175 = DEFINED (__vector_dispatch_175)?(. - _ebase_address):__vector_offset_default
 *(.vector_175)
                0x000000009d000270                . = ALIGN (0x4)
                0x0000000000000278                __vector_offset_176 = DEFINED (__vector_dispatch_176)?(. - _ebase_address):__vector_offset_default
 *(.vector_176)
                0x000000009d000270                . = ALIGN (0x4)
                0x0000000000000278                __vector_offset_177 = DEFINED (__vector_dispatch_177)?(. - _ebase_address):__vector_offset_default
 *(.vector_177)
                0x000000009d000270                . = ALIGN (0x4)
                0x0000000000000278                __vector_offset_178 = DEFINED (__vector_dispatch_178)?(. - _ebase_address):__vector_offset_default
 *(.vector_178)
                0x000000009d000270                . = ALIGN (0x4)
                0x0000000000000278                __vector_offset_179 = DEFINED (__vector_dispatch_179)?(. - _ebase_address):__vector_offset_default
 *(.vector_179)
                0x000000009d000270                . = ALIGN (0x4)
                0x0000000000000278                __vector_offset_180 = DEFINED (__vector_dispatch_180)?(. - _ebase_address):__vector_offset_default
 *(.vector_180)
                0x000000009d000270                . = ALIGN (0x4)
                0x0000000000000278                __vector_offset_181 = DEFINED (__vector_dispatch_181)?(. - _ebase_address):__vector_offset_default
 *(.vector_181)
                0x000000009d000270                . = ALIGN (0x4)
                0x0000000000000278                __vector_offset_182 = DEFINED (__vector_dispatch_182)?(. - _ebase_address):__vector_offset_default
 *(.vector_182)
                0x000000009d000270                . = ALIGN (0x4)
                0x0000000000000278                __vector_offset_183 = DEFINED (__vector_dispatch_183)?(. - _ebase_address):__vector_offset_default
 *(.vector_183)
                0x000000009d000270                . = ALIGN (0x4)
                0x0000000000000278                __vector_offset_184 = DEFINED (__vector_dispatch_184)?(. - _ebase_address):__vector_offset_default
 *(.vector_184)
                0x000000009d000270                . = ALIGN (0x4)
                0x0000000000000270                __vector_offset_185 = DEFINED (__vector_dispatch_185)?(. - _ebase_address):__vector_offset_default
 *(.vector_185)
 .vector_185    0x000000009d000270        0x8 build/nsensor/production/_ext/1856863253/interrupts.o
                0x000000009d000270                __vector_dispatch_185
                0x000000009d000278                . = ALIGN (0x4)
                0x0000000000000278                __vector_offset_186 = DEFINED (__vector_dispatch_186)?(. - _ebase_address):__vector_offset_default
 *(.vector_186)
                0x000000009d000278                . = ALIGN (0x4)
                0x0000000000000278                __vector_offset_187 = DEFINED (__vector_dispatch_187)?(. - _ebase_address):__vector_offset_default
 *(.vector_187)
                0x000000009d000278                . = ALIGN (0x4)
                0x0000000000000278                __vector_offset_188 = DEFINED (__vector_dispatch_188)?(. - _ebase_address):__vector_offset_default
 *(.vector_188)
                0x000000009d000278                . = ALIGN (0x4)
                0x0000000000000278                __vector_offset_189 = DEFINED (__vector_dispatch_189)?(. - _ebase_address):__vector_offset_default
 *(.vector_189)
                0x000000009d000278                . = ALIGN (0x4)
                0x0000000000000278                __vector_offset_190 = DEFINED (__vector_dispatch_190)?(. - _ebase_address):__vector_offset_default
 *(.vector_190)
                0x000000009d000278                . = ALIGN (0x4)
                0x0000000000000278                __vector_offset_191 = DEFINED (__vector_dispatch_191)?(. - _ebase_address):__vector_offset_default
 *(.vector_191)
                0x000000009d000278                . = ALIGN (0x4)
                0x0000000000000278                __vector_offset_192 = DEFINED (__vector_dispatch_192)?(. - _ebase_address):__vector_offset_default
 *(.vector_192)
                0x000000009d000278                . = ALIGN (0x4)
                0x0000000000000278                __vector_offset_193 = DEFINED (__vector_dispatch_193)?(. - _ebase_address):__vector_offset_default
 *(.vector_193)
                0x000000009d000278                . = ALIGN (0x4)
                0x0000000000000278                __vector_offset_194 = DEFINED (__vector_dispatch_194)?(. - _ebase_address):__vector_offset_default
 *(.vector_194)
                0x000000009d000278                . = ALIGN (0x4)
                0x0000000000000278                __vector_offset_195 = DEFINED (__vector_dispatch_195)?(. - _ebase_address):__vector_offset_default
 *(.vector_195)
                0x000000009d000278                . = ALIGN (0x4)
                0x0000000000000278                __vector_offset_196 = DEFINED (__vector_dispatch_196)?(. - _ebase_address):__vector_offset_default
 *(.vector_196)
                0x000000009d000278                . = ALIGN (0x4)
                0x0000000000000278                __vector_offset_197 = DEFINED (__vector_dispatch_197)?(. - _ebase_address):__vector_offset_default
 *(.vector_197)
                0x000000009d000278                . = ALIGN (0x4)
                0x0000000000000278                __vector_offset_198 = DEFINED (__vector_dispatch_198)?(. - _ebase_address):__vector_offset_default
 *(.vector_198)
                0x000000009d000278                . = ALIGN (0x4)
                0x0000000000000278                __vector_offset_199 = DEFINED (__vector_dispatch_199)?(. - _ebase_address):__vector_offset_default
 *(.vector_199)
                0x000000009d000278                . = ALIGN (0x4)
                0x0000000000000278                __vector_offset_200 = DEFINED (__vector_dispatch_200)?(. - _ebase_address):__vector_offset_default
 *(.vector_200)
                0x000000009d000278                . = ALIGN (0x4)
                0x0000000000000278                __vector_offset_201 = DEFINED (__vector_dispatch_201)?(. - _ebase_address):__vector_offset_default
 *(.vector_201)
                0x000000009d000278                . = ALIGN (0x4)
                0x0000000000000278                __vector_offset_202 = DEFINED (__vector_dispatch_202)?(. - _ebase_address):__vector_offset_default
 *(.vector_202)
                0x000000009d000278                . = ALIGN (0x4)
                0x0000000000000278                __vector_offset_203 = DEFINED (__vector_dispatch_203)?(. - _ebase_address):__vector_offset_default
 *(.vector_203)
                0x000000009d000278                . = ALIGN (0x4)
                0x0000000000000278                __vector_offset_204 = DEFINED (__vector_dispatch_204)?(. - _ebase_address):__vector_offset_default
 *(.vector_204)
                0x000000009d000278                . = ALIGN (0x4)
                0x0000000000000278                __vector_offset_205 = DEFINED (__vector_dispatch_205)?(. - _ebase_address):__vector_offset_default
 *(.vector_205)
                0x000000009d000278                . = ALIGN (0x4)
                0x0000000000000278                __vector_offset_206 = DEFINED (__vector_dispatch_206)?(. - _ebase_address):__vector_offset_default
 *(.vector_206)
                0x000000009d000278                . = ALIGN (0x4)
                0x0000000000000278                __vector_offset_207 = DEFINED (__vector_dispatch_207)?(. - _ebase_address):__vector_offset_default
 *(.vector_207)
                0x000000009d000278                . = ALIGN (0x4)
                0x0000000000000278                __vector_offset_208 = DEFINED (__vector_dispatch_208)?(. - _ebase_address):__vector_offset_default
 *(.vector_208)
                0x000000009d000278                . = ALIGN (0x4)
                0x0000000000000278                __vector_offset_209 = DEFINED (__vector_dispatch_209)?(. - _ebase_address):__vector_offset_default
 *(.vector_209)
                0x000000009d000278                . = ALIGN (0x4)
                0x0000000000000278                __vector_offset_210 = DEFINED (__vector_dispatch_210)?(. - _ebase_address):__vector_offset_default
 *(.vector_210)
                0x000000009d000278                . = ALIGN (0x4)
                0x0000000000000278                __vector_offset_211 = DEFINED (__vector_dispatch_211)?(. - _ebase_address):__vector_offset_default
 *(.vector_211)
                0x000000009d000278                . = ALIGN (0x4)
                0x0000000000000278                __vector_offset_212 = DEFINED (__vector_dispatch_212)?(. - _ebase_address):__vector_offset_default
 *(.vector_212)
                0x000000009d000278                . = ALIGN (0x4)
                0x0000000000000278                __vector_offset_213 = DEFINED (__vector_dispatch_213)?(. - _ebase_address):__vector_offset_default
 *(.vector_213)
                0x000000009d000278                . = ALIGN (0x4)
                0x0000000000000278                __vector_offset_214 = DEFINED (__vector_dispatch_214)?(. - _ebase_address):__vector_offset_default
 *(.vector_214)
                0x000000009d000278                . = ALIGN (0x4)
                0x0000000000000278                __vector_offset_215 = DEFINED (__vector_dispatch_215)?(. - _ebase_address):__vector_offset_default
 *(.vector_215)
                0x000000009d000278                . = ALIGN (0x4)
                0x0000000000000278                __vector_offset_216 = DEFINED (__vector_dispatch_216)?(. - _ebase_address):__vector_offset_default
 *(.vector_216)
                0x000000009d000278                . = ALIGN (0x4)
                0x0000000000000278                __vector_offset_217 = DEFINED (__vector_dispatch_217)?(. - _ebase_address):__vector_offset_default
 *(.vector_217)
                0x000000009d000278                . = ALIGN (0x4)
                0x0000000000000278                __vector_offset_218 = DEFINED (__vector_dispatch_218)?(. - _ebase_address):__vector_offset_default
 *(.vector_218)
                0x000000009d000278                . = ALIGN (0x4)
                0x0000000000000278                __vector_offset_219 = DEFINED (__vector_dispatch_219)?(. - _ebase_address):__vector_offset_default
 *(.vector_219)
                0x000000009d000278                . = ALIGN (0x4)
                0x0000000000000278                __vector_offset_220 = DEFINED (__vector_dispatch_220)?(. - _ebase_address):__vector_offset_default
 *(.vector_220)
                0x000000009d000278                . = ALIGN (0x4)
                0x0000000000000278                __vector_offset_221 = DEFINED (__vector_dispatch_221)?(. - _ebase_address):__vector_offset_default
 *(.vector_221)
                0x000000009d000278                . = ALIGN (0x4)
                0x0000000000000278                __vector_offset_222 = DEFINED (__vector_dispatch_222)?(. - _ebase_address):__vector_offset_default
 *(.vector_222)
                0x000000009d000278                . = ALIGN (0x4)
                0x0000000000000278                __vector_offset_223 = DEFINED (__vector_dispatch_223)?(. - _ebase_address):__vector_offset_default
 *(.vector_223)
                0x000000009d000278                . = ALIGN (0x4)
                0x0000000000000278                __vector_offset_224 = DEFINED (__vector_dispatch_224)?(. - _ebase_address):__vector_offset_default
 *(.vector_224)
                0x000000009d000278                . = ALIGN (0x4)
                0x0000000000000278                __vector_offset_225 = DEFINED (__vector_dispatch_225)?(. - _ebase_address):__vector_offset_default
 *(.vector_225)
                0x000000009d000278                . = ALIGN (0x4)
                0x0000000000000278                __vector_offset_226 = DEFINED (__vector_dispatch_226)?(. - _ebase_address):__vector_offset_default
 *(.vector_226)
                0x000000009d000278                . = ALIGN (0x4)
                0x0000000000000278                __vector_offset_227 = DEFINED (__vector_dispatch_227)?(. - _ebase_address):__vector_offset_default
 *(.vector_227)
                0x000000009d000278                . = ALIGN (0x4)
                0x0000000000000278                __vector_offset_228 = DEFINED (__vector_dispatch_228)?(. - _ebase_address):__vector_offset_default
 *(.vector_228)
                0x000000009d000278                . = ALIGN (0x4)
                0x0000000000000278                __vector_offset_229 = DEFINED (__vector_dispatch_229)?(. - _ebase_address):__vector_offset_default
 *(.vector_229)
                0x000000009d000278                . = ALIGN (0x4)
                0x0000000000000278                __vector_offset_230 = DEFINED (__vector_dispatch_230)?(. - _ebase_address):__vector_offset_default
 *(.vector_230)
                0x000000009d000278                . = ALIGN (0x4)
                0x0000000000000278                __vector_offset_231 = DEFINED (__vector_dispatch_231)?(. - _ebase_address):__vector_offset_default
 *(.vector_231)
                0x000000009d000278                . = ALIGN (0x4)
                0x0000000000000278                __vector_offset_232 = DEFINED (__vector_dispatch_232)?(. - _ebase_address):__vector_offset_default
 *(.vector_232)
                0x000000009d000278                . = ALIGN (0x4)
                0x0000000000000278                __vector_offset_233 = DEFINED (__vector_dispatch_233)?(. - _ebase_address):__vector_offset_default
 *(.vector_233)
                0x000000009d000278                . = ALIGN (0x4)
                0x0000000000000278                __vector_offset_234 = DEFINED (__vector_dispatch_234)?(. - _ebase_address):__vector_offset_default
 *(.vector_234)
                0x000000009d000278                . = ALIGN (0x4)
                0x0000000000000278                __vector_offset_235 = DEFINED (__vector_dispatch_235)?(. - _ebase_address):__vector_offset_default
 *(.vector_235)
                0x000000009d000278                . = ALIGN (0x4)
                0x0000000000000278                __vector_offset_236 = DEFINED (__vector_dispatch_236)?(. - _ebase_address):__vector_offset_default
 *(.vector_236)
                0x000000009d000278                . = ALIGN (0x4)
                0x0000000000000278                __vector_offset_237 = DEFINED (__vector_dispatch_237)?(. - _ebase_address):__vector_offset_default
 *(.vector_237)
                0x000000009d000278                . = ALIGN (0x4)
                0x0000000000000278                __vector_offset_238 = DEFINED (__vector_dispatch_238)?(. - _ebase_address):__vector_offset_default
 *(.vector_238)
                0x000000009d000278                . = ALIGN (0x4)
                0x0000000000000278                __vector_offset_239 = DEFINED (__vector_dispatch_239)?(. - _ebase_address):__vector_offset_default
 *(.vector_239)
                0x000000009d000278                . = ALIGN (0x4)
                0x0000000000000278                __vector_offset_240 = DEFINED (__vector_dispatch_240)?(. - _ebase_address):__vector_offset_default
 *(.vector_240)
                0x000000009d000278                . = ALIGN (0x4)
                0x0000000000000278                __vector_offset_241 = DEFINED (__vector_dispatch_241)?(. - _ebase_address):__vector_offset_default
 *(.vector_241)
                0x000000009d000278                . = ALIGN (0x4)
                0x0000000000000278                __vector_offset_242 = DEFINED (__vector_dispatch_242)?(. - _ebase_address):__vector_offset_default
 *(.vector_242)
                0x000000009d000278                . = ALIGN (0x4)
                0x0000000000000278                __vector_offset_243 = DEFINED (__vector_dispatch_243)?(. - _ebase_address):__vector_offset_default
 *(.vector_243)
                0x000000009d000278                . = ALIGN (0x4)
                0x0000000000000278                __vector_offset_244 = DEFINED (__vector_dispatch_244)?(. - _ebase_address):__vector_offset_default
 *(.vector_244)
                0x000000009d000278                . = ALIGN (0x4)
                0x0000000000000278                __vector_offset_245 = DEFINED (__vector_dispatch_245)?(. - _ebase_address):__vector_offset_default
 *(.vector_245)
                0x000000009d000278                . = ALIGN (0x4)
                0x0000000000000278                __vector_offset_246 = DEFINED (__vector_dispatch_246)?(. - _ebase_address):__vector_offset_default
 *(.vector_246)
                0x000000009d000278                . = ALIGN (0x4)
                0x0000000000000278                __vector_offset_247 = DEFINED (__vector_dispatch_247)?(. - _ebase_address):__vector_offset_default
 *(.vector_247)
                0x000000009d000278                . = ALIGN (0x4)
                0x0000000000000278                __vector_offset_248 = DEFINED (__vector_dispatch_248)?(. - _ebase_address):__vector_offset_default
 *(.vector_248)
                0x000000009d000278                . = ALIGN (0x4)
                0x0000000000000278                __vector_offset_249 = DEFINED (__vector_dispatch_249)?(. - _ebase_address):__vector_offset_default
 *(.vector_249)
                0x000000009d000278                . = ALIGN (0x4)
                0x0000000000000278                __vector_offset_250 = DEFINED (__vector_dispatch_250)?(. - _ebase_address):__vector_offset_default
 *(.vector_250)
                0x000000009d000278                . = ALIGN (0x4)
                0x0000000000000278                __vector_offset_251 = DEFINED (__vector_dispatch_251)?(. - _ebase_address):__vector_offset_default
 *(.vector_251)
                0x000000009d000278                . = ALIGN (0x4)
                0x0000000000000278                __vector_offset_252 = DEFINED (__vector_dispatch_252)?(. - _ebase_address):__vector_offset_default
 *(.vector_252)
                0x000000009d000278                . = ALIGN (0x4)
                0x0000000000000278                __vector_offset_253 = DEFINED (__vector_dispatch_253)?(. - _ebase_address):__vector_offset_default
 *(.vector_253)
                0x000000009d000278                . = ALIGN (0x4)
                0x0000000000000278                __vector_offset_254 = DEFINED (__vector_dispatch_254)?(. - _ebase_address):__vector_offset_default
 *(.vector_254)
                0x000000009d000278                . = ALIGN (0x4)
                0x0000000000000278                __vector_offset_255 = DEFINED (__vector_dispatch_255)?(. - _ebase_address):__vector_offset_default
 *(.vector_255)
                0x000000009d000278                . = ALIGN (0x4)
                0x0000000000000278                __vector_offset_default = (. - _ebase_address)
 *(.vector_default)
 .vector_default
                0x000000009d000278       0x48 /opt/microchip/xc32/v4.21/bin/bin/../../lib/gcc/pic32mx/8.3.1/../../../../pic32mx/lib/fpu64/libpic32.a(defaultinterrupt.o)
                0x000000009d000278                _DefaultInterrupt

.startup
 *(.startup)

.text           0x000000009d0002c0        0x0
 *(.stub .gnu.linkonce.t.*)
 *(.text.*personality*)
 *(.mips16.fn.*)
 *(.mips16.call.*)
 *(.gnu.warning)
                0x000000009d0002c0                . = ALIGN (0x4)

.init           0x000000009d0002c0        0x0
 *crti.o(.init)
 *crtbegin.o(.init)
 *(EXCLUDE_FILE(*crtn.o *crtend?.o *crtend.o) .init)
 *crtend.o(.init)
 *crtn.o(.init)
                0x000000009d0002c0                . = ALIGN (0x4)

.fini           0x000000009d0002c0        0x0
 *(.fini)
                0x000000009d0002c0                . = ALIGN (0x4)

.preinit_array  0x000000009d0002c0        0x0
                [!provide]                        PROVIDE (__preinit_array_start = .)
 *(.preinit_array)
                [!provide]                        PROVIDE (__preinit_array_end = .)
                0x000000009d0002c0                . = ALIGN (0x4)

.init_array     0x000000009d0002c0        0x0
                [!provide]                        PROVIDE (__init_array_start = .)
 *(SORT_BY_NAME(.init_array.*))
 *(.init_array)
                [!provide]                        PROVIDE (__init_array_end = .)
                0x000000009d0002c0                . = ALIGN (0x4)

.fini_array     0x000000009d0002c0        0x0
                [!provide]                        PROVIDE (__fini_array_start = .)
 *(SORT_BY_NAME(.fini_array.*))
 *(.fini_array)
                [!provide]                        PROVIDE (__fini_array_end = .)
                0x000000009d0002c0                . = ALIGN (0x4)

.ctors          0x000000009d0002c0        0x0
 *crtbegin.o(.ctors)
 *crtbegin?.o(.ctors)
 *(EXCLUDE_FILE(*crtend?.o *crtend.o) .ctors)
 *(SORT_BY_NAME(.ctors.*))
 *(.ctors)
                0x000000009d0002c0                . = ALIGN (0x4)

.dtors          0x000000009d0002c0        0x0
 *crtbegin.o(.dtors)
 *crtbegin?.o(.dtors)
 *(EXCLUDE_FILE(*crtend?.o *crtend.o) .dtors)
 *(SORT_BY_NAME(.dtors.*))
 *(.dtors)
                0x000000009d0002c0                . = ALIGN (0x4)

.rodata         0x000000009d0002c0        0x0
 *(.gnu.linkonce.r.*)
 *(.rodata1)
                0x000000009d0002c0                . = ALIGN (0x4)

.sdata2         0x000000009d0002c0        0x0
 *(.sdata2 .sdata2.* .gnu.linkonce.s2.*)
                0x000000009d0002c0                . = ALIGN (0x4)

.sbss2          0x000000009d0002c0        0x0
 *(.sbss2 .sbss2.* .gnu.linkonce.sb2.*)
                0x000000009d0002c0                . = ALIGN (0x4)

.eh_frame_hdr
 *(.eh_frame_hdr)
                0x000000009d0002c0                . = ALIGN (0x4)

.eh_frame
 *(.eh_frame)
                0x000000009d0002c0                . = ALIGN (0x4)

.gcc_except_table
 *(.gcc_except_table .gcc_except_table.*)
                0x000000009d0002c0                . = ALIGN (0x4)

.dbg_data       0x0000000080000000        0x0
                0x0000000080000000                . = (. + DEFINED (_DEBUGGER)?0x200:0x0)
                0x0000000080000000                . = (. + DEFINED (_DEBUGGER)?0x80:0x0)
                0x0000000080000000                . = (. + DEFINED (_DEBUGGER)?0x100:0x0)

.jcr            0x0000000080000000        0x0
 *(.jcr)
                0x0000000080000000                . = ALIGN (0x4)

.eh_frame
 *(.eh_frame)
                0x0000000080000000                . = ALIGN (0x4)

.gcc_except_table
 *(.gcc_except_table .gcc_except_table.*)
                0x0000000080000000                . = ALIGN (0x4)

.persist        0x0000000080000000        0x0
                0x0000000080000000                _persist_begin = .
 *(.persist .persist.*)
                0x0000000080000000                . = ALIGN (0x4)
                0x0000000080000000                _persist_end = .

.data           0x0000000080000000        0x0
 *(.gnu.linkonce.d.*)
 *(.data1)
                0x0000000080000000                . = ALIGN (0x4)
                0x0000000080000000                . = .
                0x0000000080007ff0                _gp = (ALIGN (0x10) + 0x7ff0)

.got            0x0000000080000000        0x0
 *(.got.plt)
 *(.got)
                0x0000000080000000                . = ALIGN (0x4)

.sdata          0x0000000080000000       0xd8
                0x0000000080000000                _sdata_begin = .
 *(.sdata .sdata.* .gnu.linkonce.s.*)
 .sdata         0x0000000080000000        0xc build/nsensor/production/_ext/1684788505/OledDriver.o
 .sdata         0x000000008000000c       0x15 build/nsensor/production/_ext/1360937237/bma490l.o
                0x0000000080000014                R_ST_CMD
 *fill*         0x0000000080000021        0x3 
 .sdata         0x0000000080000024        0x8 build/nsensor/production/_ext/1360937237/sca3300.o
 *fill*         0x000000008000002c        0x4 
 .sdata         0x0000000080000030       0x50 build/nsensor/production/_ext/1360937237/gfx.o
                0x0000000080000030                q0
 .sdata         0x0000000080000080        0x8 build/nsensor/production/_ext/1360937237/do_fft.o
 .sdata         0x0000000080000088       0x10 build/nsensor/production/_ext/1360937237/fft.o
                0x0000000080000090                fft_gain
 .sdata         0x0000000080000098       0x10 build/nsensor/production/_ext/1360937237/main.o
                0x00000000800000a0                board_serial_id
                0x00000000800000a4                cpu_serial_id
 .sdata         0x00000000800000a8        0x4 build/nsensor/production/_ext/1360937237/canfd.o
 *fill*         0x00000000800000ac        0x4 
 .sdata         0x00000000800000b0       0x28 build/nsensor/production/_ext/1360937237/host.o
                0x00000000800000b4                build_date
                0x00000000800000b8                build_time
                0x00000000800000c0                host_cpu_serial_id
                0x00000000800000c8                spid
                0x00000000800000d8                . = ALIGN (0x4)
                0x00000000800000d8                _sdata_end = .

.lit8
 *(.lit8)

.lit4
 *(.lit4)
                0x00000000800000d8                . = ALIGN (0x4)
                0x00000000800000d8                _data_end = .
                0x00000000800000d8                _bss_begin = .

.sbss           0x00000000800000d8      0x1cc
                0x00000000800000d8                _sbss_begin = .
 *(.dynsbss)
 *(.sbss .sbss.* .gnu.linkonce.sb.*)
 .sbss          0x00000000800000d8        0x2 build/nsensor/production/_ext/1684788505/dogm-graphic.o
                0x00000000800000d8                lcd_current_page
                0x00000000800000d9                lcd_current_column
 *fill*         0x00000000800000da        0x2 
 .sbss          0x00000000800000dc        0x8 build/nsensor/production/_ext/1684788505/eadog.o
 .sbss          0x00000000800000e4        0x4 build/nsensor/production/_ext/1684788505/lcd_drv.o
 .sbss          0x00000000800000e8       0x14 build/nsensor/production/_ext/1684788505/OledChar.o
                0x00000000800000e8                xchOledCur
                0x00000000800000ec                ychOledCur
                0x00000000800000f0                xchOledMax
                0x00000000800000f4                ychOledMax
                0x00000000800000f8                pbOledFontExt
 .sbss          0x00000000800000fc       0x38 build/nsensor/production/_ext/1684788505/OledDriver.o
                0x00000000800000fc                disp_frame
                0x0000000080000100                xcoOledCur
                0x0000000080000104                ycoOledCur
                0x0000000080000108                pbOledCur
                0x000000008000010c                bnOledCur
                0x0000000080000110                clrOledCur
                0x0000000080000114                pbOledPatCur
                0x0000000080000118                fOledCharUpdate
                0x000000008000011c                dxcoOledFontCur
                0x0000000080000120                dycoOledFontCur
                0x0000000080000124                pbOledFontCur
                0x0000000080000128                pbOledFontUser
 .sbss          0x0000000080000134        0x8 build/nsensor/production/_ext/1684788505/OledGrph.o
                0x0000000080000134                pfnDoRop
                0x0000000080000138                modOledCur
 .sbss          0x000000008000013c       0x14 build/nsensor/production/_ext/1965004555/plib_canfd1.o
 .sbss          0x0000000080000150        0x8 build/nsensor/production/_ext/2014902340/plib_evic.o
                0x0000000080000150                extInt2CbObj
 .sbss          0x0000000080000158        0x8 build/nsensor/production/_ext/619197180/plib_qei2.o
                0x0000000080000158                qei2Obj
 .sbss          0x0000000080000160        0x8 build/nsensor/production/_ext/2015287515/plib_rtcc.o
 .sbss          0x0000000080000168        0x8 build/nsensor/production/_ext/619200320/plib_tmr5.o
 .sbss          0x0000000080000170        0x8 build/nsensor/production/_ext/619200320/plib_tmr3.o
 .sbss          0x0000000080000178        0x8 build/nsensor/production/_ext/619200320/plib_tmr6.o
 .sbss          0x0000000080000180        0x8 build/nsensor/production/_ext/619200320/plib_tmr2.o
 .sbss          0x0000000080000188        0x8 build/nsensor/production/_ext/1856863253/exceptions.o
 .sbss          0x0000000080000190       0x78 build/nsensor/production/_ext/1360937237/gfx.o
                0x0000000080000190                xa
                0x0000000080000194                ya
                0x0000000080000198                za
                0x00000000800001a0                q1
                0x00000000800001a8                q2
                0x00000000800001b0                q3
 .sbss          0x0000000080000208        0x4 build/nsensor/production/_ext/1360937237/imu.o
 *fill*         0x000000008000020c        0x4 
 .sbss          0x0000000080000210       0x18 build/nsensor/production/_ext/1360937237/do_fft.o
 .sbss          0x0000000080000228        0xa build/nsensor/production/_ext/1360937237/main.o
                0x0000000080000228                host_ptr
 *fill*         0x0000000080000232        0x2 
 .sbss          0x0000000080000234       0x30 build/nsensor/production/_ext/1360937237/canfd.o
                0x0000000080000260                tx_msg_ready
                0x0000000080000261                rx_msg_ready
 .sbss          0x0000000080000264       0x3c build/nsensor/production/_ext/1360937237/host.o
                0x0000000080000294                times
 .sbss          0x00000000800002a0        0x1 build/nsensor/production/_ext/1360937237/cmd_scanner.o
                0x00000000800002a0                res
 *(.scommon)
                0x00000000800002a1                _sbss_end = .
                0x00000000800002a4                . = ALIGN (0x4)
 *fill*         0x00000000800002a1        0x3 

.bss            0x00000000800002a4        0x0
 *(.dynbss)
 *(COMMON)
                0x00000000800002a4                . = ALIGN ((. != 0x0)?0x4:0x1)
                0x00000000800002a4                . = ALIGN (0x4)
                0x00000000800002a4                _end = .
                0x00000000800002a4                _bss_end = .
                0x0000000000010000                _bmxdudba_address = LENGTH (kseg0_data_mem)
                0x0000000000010000                _bmxdupba_address = LENGTH (kseg0_data_mem)

/DISCARD/
 *(.pdr)
 *(.rel.dyn)
 *(.note.GNU-stack)
 *(.note.GNU-stack)
 *(.gnu_debuglink)
 *(.gnu.lto_*)
 *(.discard)

.gptab.sdata
 *(.gptab.data)
 *(.gptab.sdata)

.gptab.sbss
 *(.gptab.bss)
 *(.gptab.sbss)

.mdebug.abi32   0x0000000000000000        0x0
 *(.mdebug.abi32)
 .mdebug.abi32  0x0000000000000000        0x0 build/nsensor/production/_ext/1684788505/ChrFont0.o
 .mdebug.abi32  0x0000000000000000        0x0 build/nsensor/production/_ext/1684788505/dogm-graphic.o
 .mdebug.abi32  0x0000000000000000        0x0 build/nsensor/production/_ext/1684788505/eadog.o
 .mdebug.abi32  0x0000000000000000        0x0 build/nsensor/production/_ext/1684788505/FillPat.o
 .mdebug.abi32  0x0000000000000000        0x0 build/nsensor/production/_ext/1684788505/foo.o
 .mdebug.abi32  0x0000000000000000        0x0 build/nsensor/production/_ext/1684788505/lcd_drv.o
 .mdebug.abi32  0x0000000000000000        0x0 build/nsensor/production/_ext/1684788505/OledChar.o
 .mdebug.abi32  0x0000000000000000        0x0 build/nsensor/production/_ext/1684788505/OledDriver.o
 .mdebug.abi32  0x0000000000000000        0x0 build/nsensor/production/_ext/1684788505/OledGrph.o
 .mdebug.abi32  0x0000000000000000        0x0 build/nsensor/production/_ext/1966772718/plib_adchs.o
 .mdebug.abi32  0x0000000000000000        0x0 build/nsensor/production/_ext/1965004555/plib_canfd1.o
 .mdebug.abi32  0x0000000000000000        0x0 build/nsensor/production/_ext/619183945/plib_clk.o
 .mdebug.abi32  0x0000000000000000        0x0 build/nsensor/production/_ext/1664108525/plib_coretimer.o
 .mdebug.abi32  0x0000000000000000        0x0 build/nsensor/production/_ext/2014863652/plib_dmac.o
 .mdebug.abi32  0x0000000000000000        0x0 build/nsensor/production/_ext/2014902340/plib_evic.o
 .mdebug.abi32  0x0000000000000000        0x0 build/nsensor/production/_ext/2014956168/plib_gpio.o
 .mdebug.abi32  0x0000000000000000        0x0 build/nsensor/production/_ext/1955707305/plib_mcpwm.o
 .mdebug.abi32  0x0000000000000000        0x0 build/nsensor/production/_ext/619197180/plib_qei2.o
 .mdebug.abi32  0x0000000000000000        0x0 build/nsensor/production/_ext/2015287515/plib_rtcc.o
 .mdebug.abi32  0x0000000000000000        0x0 build/nsensor/production/_ext/1877210129/plib_spi1_master.o
 .mdebug.abi32  0x0000000000000000        0x0 build/nsensor/production/_ext/1877210129/plib_spi2_master.o
 .mdebug.abi32  0x0000000000000000        0x0 build/nsensor/production/_ext/619200320/plib_tmr9.o
 .mdebug.abi32  0x0000000000000000        0x0 build/nsensor/production/_ext/619200320/plib_tmr5.o
 .mdebug.abi32  0x0000000000000000        0x0 build/nsensor/production/_ext/619200320/plib_tmr3.o
 .mdebug.abi32  0x0000000000000000        0x0 build/nsensor/production/_ext/619200320/plib_tmr6.o
 .mdebug.abi32  0x0000000000000000        0x0 build/nsensor/production/_ext/619200320/plib_tmr2.o
 .mdebug.abi32  0x0000000000000000        0x0 build/nsensor/production/_ext/2015359111/plib_uart1.o
 .mdebug.abi32  0x0000000000000000        0x0 build/nsensor/production/_ext/725740559/xc32_monitor.o
 .mdebug.abi32  0x0000000000000000        0x0 build/nsensor/production/_ext/1856863253/exceptions.o
 .mdebug.abi32  0x0000000000000000        0x0 build/nsensor/production/_ext/1856863253/interrupts.o
 .mdebug.abi32  0x0000000000000000        0x0 build/nsensor/production/_ext/1856863253/initialization.o
 .mdebug.abi32  0x0000000000000000        0x0 build/nsensor/production/_ext/1360937237/bma490l.o
 .mdebug.abi32  0x0000000000000000        0x0 build/nsensor/production/_ext/1360937237/timers.o
 .mdebug.abi32  0x0000000000000000        0x0 build/nsensor/production/_ext/1360937237/sca3300.o
 .mdebug.abi32  0x0000000000000000        0x0 build/nsensor/production/_ext/1360937237/gfx.o
 .mdebug.abi32  0x0000000000000000        0x0 build/nsensor/production/_ext/1360937237/imu.o
 .mdebug.abi32  0x0000000000000000        0x0 build/nsensor/production/_ext/1360937237/pid.o
 .mdebug.abi32  0x0000000000000000        0x0 build/nsensor/production/_ext/1360937237/do_fft.o
 .mdebug.abi32  0x0000000000000000        0x0 build/nsensor/production/_ext/1360937237/fft.o
 .mdebug.abi32  0x0000000000000000        0x0 build/nsensor/production/_ext/1360937237/main.o
 .mdebug.abi32  0x0000000000000000        0x0 build/nsensor/production/_ext/1360937237/canfd.o
 .mdebug.abi32  0x0000000000000000        0x0 build/nsensor/production/_ext/1360937237/host.o
 .mdebug.abi32  0x0000000000000000        0x0 build/nsensor/production/_ext/1360937237/cmd_scanner.o
 .mdebug.abi32  0x0000000000000000        0x0 /opt/microchip/xc32/v4.21/bin/bin/../../lib/gcc/pic32mx/8.3.1/../../../../pic32mx/lib/fpu64/libpic32.a(default-on-reset.o)
 .mdebug.abi32  0x0000000000000000        0x0 /opt/microchip/xc32/v4.21/bin/bin/../../lib/gcc/pic32mx/8.3.1/../../../../pic32mx/lib/fpu64/libpic32.a(default-on-bootstrap.o)
 .mdebug.abi32  0x0000000000000000        0x0 /opt/microchip/xc32/v4.21/bin/bin/../../lib/gcc/pic32mx/8.3.1/../../../../pic32mx/lib/fpu64/libpic32.a(defaultinterrupt.o)
 .mdebug.abi32  0x0000000000000000        0x0 /opt/microchip/xc32/v4.21/bin/bin/../../lib/gcc/pic32mx/8.3.1/../../../../pic32mx/lib/fpu64/libc-musl.a(__sio_printf_s.o)
 .mdebug.abi32  0x0000000000000000        0x0 /opt/microchip/xc32/v4.21/bin/bin/../../lib/gcc/pic32mx/8.3.1/../../../../pic32mx/lib/fpu64/libc-musl.a(__sio_snprintf_dfosux.o)
 .mdebug.abi32  0x0000000000000000        0x0 /opt/microchip/xc32/v4.21/bin/bin/../../lib/gcc/pic32mx/8.3.1/../../../../pic32mx/lib/fpu64/libc-musl.a(__sio_snprintf_dosux.o)
 .mdebug.abi32  0x0000000000000000        0x0 /opt/microchip/xc32/v4.21/bin/bin/../../lib/gcc/pic32mx/8.3.1/../../../../pic32mx/lib/fpu64/libc-musl.a(__sio_snprintf_doux.o)
 .mdebug.abi32  0x0000000000000000        0x0 /opt/microchip/xc32/v4.21/bin/bin/../../lib/gcc/pic32mx/8.3.1/../../../../pic32mx/lib/fpu64/libc-musl.a(__sio_snprintf_s.o)
 .mdebug.abi32  0x0000000000000000        0x0 /opt/microchip/xc32/v4.21/bin/bin/../../lib/gcc/pic32mx/8.3.1/../../../../pic32mx/lib/fpu64/libc-musl.a(__fmt_d.o)
 .mdebug.abi32  0x0000000000000000        0x0 /opt/microchip/xc32/v4.21/bin/bin/../../lib/gcc/pic32mx/8.3.1/../../../../pic32mx/lib/fpu64/libc-musl.a(__fmt_fp.o)
 .mdebug.abi32  0x0000000000000000        0x0 /opt/microchip/xc32/v4.21/bin/bin/../../lib/gcc/pic32mx/8.3.1/../../../../pic32mx/lib/fpu64/libc-musl.a(__fmt_o.o)
 .mdebug.abi32  0x0000000000000000        0x0 /opt/microchip/xc32/v4.21/bin/bin/../../lib/gcc/pic32mx/8.3.1/../../../../pic32mx/lib/fpu64/libc-musl.a(__fmt_s.o)
 .mdebug.abi32  0x0000000000000000        0x0 /opt/microchip/xc32/v4.21/bin/bin/../../lib/gcc/pic32mx/8.3.1/../../../../pic32mx/lib/fpu64/libc-musl.a(__fmt_u.o)
 .mdebug.abi32  0x0000000000000000        0x0 /opt/microchip/xc32/v4.21/bin/bin/../../lib/gcc/pic32mx/8.3.1/../../../../pic32mx/lib/fpu64/libc-musl.a(__fmt_x.o)
 .mdebug.abi32  0x0000000000000000        0x0 /opt/microchip/xc32/v4.21/bin/bin/../../lib/gcc/pic32mx/8.3.1/../../../../pic32mx/lib/fpu64/libc-musl.a(__pop_float.o)
 .mdebug.abi32  0x0000000000000000        0x0 /opt/microchip/xc32/v4.21/bin/bin/../../lib/gcc/pic32mx/8.3.1/../../../../pic32mx/lib/fpu64/libc-musl.a(__pop_int.o)
 .mdebug.abi32  0x0000000000000000        0x0 /opt/microchip/xc32/v4.21/bin/bin/../../lib/gcc/pic32mx/8.3.1/../../../../pic32mx/lib/fpu64/libc-musl.a(__pop_ptr.o)
 .mdebug.abi32  0x0000000000000000        0x0 /opt/microchip/xc32/v4.21/bin/bin/../../lib/gcc/pic32mx/8.3.1/../../../../pic32mx/lib/fpu64/libc-musl.a(__printf_core.o)
 .mdebug.abi32  0x0000000000000000        0x0 /opt/microchip/xc32/v4.21/bin/bin/../../lib/gcc/pic32mx/8.3.1/../../../../pic32mx/lib/fpu64/libc-musl.a(stdout.o)
 .mdebug.abi32  0x0000000000000000        0x0 /opt/microchip/xc32/v4.21/bin/bin/../../lib/gcc/pic32mx/8.3.1/../../../../pic32mx/lib/fpu64/libc-musl.a(vprintf.o)
 .mdebug.abi32  0x0000000000000000        0x0 /opt/microchip/xc32/v4.21/bin/bin/../../lib/gcc/pic32mx/8.3.1/../../../../pic32mx/lib/fpu64/libc-musl.a(atoi.o)
 .mdebug.abi32  0x0000000000000000        0x0 /opt/microchip/xc32/v4.21/bin/bin/../../lib/gcc/pic32mx/8.3.1/../../../../pic32mx/lib/fpu64/libc-musl.a(strcpy.o)
 .mdebug.abi32  0x0000000000000000        0x0 /opt/microchip/xc32/v4.21/bin/bin/../../lib/gcc/pic32mx/8.3.1/../../../../pic32mx/lib/fpu64/libc-musl.a(strncmp.o)
 .mdebug.abi32  0x0000000000000000        0x0 /opt/microchip/xc32/v4.21/bin/bin/../../lib/gcc/pic32mx/8.3.1/../../../../pic32mx/lib/fpu64/libc-musl.a(tolower.o)
 .mdebug.abi32  0x0000000000000000        0x0 /opt/microchip/xc32/v4.21/bin/bin/../../lib/gcc/pic32mx/8.3.1/../../../../pic32mx/lib/fpu64/libc-musl.a(toupper.o)
 .mdebug.abi32  0x0000000000000000        0x0 /opt/microchip/xc32/v4.21/bin/bin/../../lib/gcc/pic32mx/8.3.1/../../../../pic32mx/lib/fpu64/libc-musl.a(__int_vfprintf.o)
 .mdebug.abi32  0x0000000000000000        0x0 /opt/microchip/xc32/v4.21/bin/bin/../../lib/gcc/pic32mx/8.3.1/../../../../pic32mx/lib/fpu64/libc-musl.a(__int_vsnprintf.o)
 .mdebug.abi32  0x0000000000000000        0x0 /opt/microchip/xc32/v4.21/bin/bin/../../lib/gcc/pic32mx/8.3.1/../../../../pic32mx/lib/fpu64/libc-musl.a(__fopen.o)
 .mdebug.abi32  0x0000000000000000        0x0 /opt/microchip/xc32/v4.21/bin/bin/../../lib/gcc/pic32mx/8.3.1/../../../../pic32mx/lib/fpu64/libc-musl.a(__io_init_needed.o)
 .mdebug.abi32  0x0000000000000000        0x0 /opt/microchip/xc32/v4.21/bin/bin/../../lib/gcc/pic32mx/8.3.1/../../../../pic32mx/lib/fpu64/libc-musl.a(__out.o)
 .mdebug.abi32  0x0000000000000000        0x0 /opt/microchip/xc32/v4.21/bin/bin/../../lib/gcc/pic32mx/8.3.1/../../../../pic32mx/lib/fpu64/libc-musl.a(__stdio_close.o)
 .mdebug.abi32  0x0000000000000000        0x0 /opt/microchip/xc32/v4.21/bin/bin/../../lib/gcc/pic32mx/8.3.1/../../../../pic32mx/lib/fpu64/libc-musl.a(vfprintf.o)
 .mdebug.abi32  0x0000000000000000        0x0 /opt/microchip/xc32/v4.21/bin/bin/../../lib/gcc/pic32mx/8.3.1/../../../../pic32mx/lib/fpu64/libc-musl.a(stpcpy.o)
 .mdebug.abi32  0x0000000000000000        0x0 /opt/microchip/xc32/v4.21/bin/bin/../../lib/gcc/pic32mx/8.3.1/../../../../pic32mx/lib/fpu64/libc-musl.a(malloc.o)
 .mdebug.abi32  0x0000000000000000        0x0 /opt/microchip/xc32/v4.21/bin/bin/../../lib/gcc/pic32mx/8.3.1/../../../../pic32mx/lib/fpu64/libc-musl.a(expand_heap.o)
 .mdebug.abi32  0x0000000000000000        0x0 /opt/microchip/xc32/v4.21/bin/bin/../../lib/gcc/pic32mx/8.3.1/../../../../pic32mx/lib/fpu64/libc-musl.a(__init_stdio.o)
 .mdebug.abi32  0x0000000000000000        0x0 /opt/microchip/xc32/v4.21/bin/bin/../../lib/gcc/pic32mx/8.3.1/../../../../pic32mx/lib/fpu64/libc-musl.a(__io_file_needed.o)
 .mdebug.abi32  0x0000000000000000        0x0 /opt/microchip/xc32/v4.21/bin/bin/../../lib/gcc/pic32mx/8.3.1/../../../../pic32mx/lib/fpu64/libc-musl.a(__io_fmt_needed.o)
 .mdebug.abi32  0x0000000000000000        0x0 /opt/microchip/xc32/v4.21/bin/bin/../../lib/gcc/pic32mx/8.3.1/../../../../pic32mx/lib/fpu64/libc-musl.a(libc.o)
 .mdebug.abi32  0x0000000000000000        0x0 /opt/microchip/xc32/v4.21/bin/bin/../../lib/gcc/pic32mx/8.3.1/../../../../pic32mx/lib/fpu64/libc-musl.a(__fmt_a.o)
 .mdebug.abi32  0x0000000000000000        0x0 /opt/microchip/xc32/v4.21/bin/bin/../../lib/gcc/pic32mx/8.3.1/../../../../pic32mx/lib/fpu64/libm-musl.a(cos.o)
 .mdebug.abi32  0x0000000000000000        0x0 /opt/microchip/xc32/v4.21/bin/bin/../../lib/gcc/pic32mx/8.3.1/../../../../pic32mx/lib/fpu64/libm-musl.a(floor.o)
 .mdebug.abi32  0x0000000000000000        0x0 /opt/microchip/xc32/v4.21/bin/bin/../../lib/gcc/pic32mx/8.3.1/../../../../pic32mx/lib/fpu64/libm-musl.a(fma.o)
 .mdebug.abi32  0x0000000000000000        0x0 /opt/microchip/xc32/v4.21/bin/bin/../../lib/gcc/pic32mx/8.3.1/../../../../pic32mx/lib/fpu64/libm-musl.a(scalbn.o)
 .mdebug.abi32  0x0000000000000000        0x0 /opt/microchip/xc32/v4.21/bin/bin/../../lib/gcc/pic32mx/8.3.1/../../../../pic32mx/lib/fpu64/libm-musl.a(sin.o)
 .mdebug.abi32  0x0000000000000000        0x0 /opt/microchip/xc32/v4.21/bin/bin/../../lib/gcc/pic32mx/8.3.1/../../../../pic32mx/lib/fpu64/libm-musl.a(__cos.o)
 .mdebug.abi32  0x0000000000000000        0x0 /opt/microchip/xc32/v4.21/bin/bin/../../lib/gcc/pic32mx/8.3.1/../../../../pic32mx/lib/fpu64/libm-musl.a(__rem_pio2.o)
 .mdebug.abi32  0x0000000000000000        0x0 /opt/microchip/xc32/v4.21/bin/bin/../../lib/gcc/pic32mx/8.3.1/../../../../pic32mx/lib/fpu64/libm-musl.a(__rem_pio2_large.o)
 .mdebug.abi32  0x0000000000000000        0x0 /opt/microchip/xc32/v4.21/bin/bin/../../lib/gcc/pic32mx/8.3.1/../../../../pic32mx/lib/fpu64/libm-musl.a(__sin.o)
 .mdebug.abi32  0x0000000000000000        0x0 /opt/microchip/xc32/v4.21/bin/bin/../../lib/gcc/pic32mx/8.3.1/fpu64/libgcc.a(_lshrdi3.o)
 .mdebug.abi32  0x0000000000000000        0x0 /opt/microchip/xc32/v4.21/bin/bin/../../lib/gcc/pic32mx/8.3.1/fpu64/libgcc.a(_ashldi3.o)
 .mdebug.abi32  0x0000000000000000        0x0 /opt/microchip/xc32/v4.21/bin/bin/../../lib/gcc/pic32mx/8.3.1/fpu64/libgcc.a(_udivdi3.o)
 .mdebug.abi32  0x0000000000000000        0x0 /opt/microchip/xc32/v4.21/bin/bin/../../lib/gcc/pic32mx/8.3.1/fpu64/libgcc.a(_umoddi3.o)
 .mdebug.abi32  0x0000000000000000        0x0 /opt/microchip/xc32/v4.21/bin/bin/../../lib/gcc/pic32mx/8.3.1/../../../../pic32mx/lib/fpu64/libpic32.a(sbrk.o)
 .mdebug.abi32  0x0000000000000000        0x0 /opt/microchip/xc32/v4.21/bin/bin/../../lib/gcc/pic32mx/8.3.1/../../../../pic32mx/lib/fpu64/libpic32.a(lseek.o)
 .mdebug.abi32  0x0000000000000000        0x0 /opt/microchip/xc32/v4.21/bin/bin/../../lib/gcc/pic32mx/8.3.1/../../../../pic32mx/lib/fpu64/libpic32.a(close.o)
 .mdebug.abi32  0x0000000000000000        0x0 /opt/microchip/xc32/v4.21/bin/bin/../../lib/gcc/pic32mx/8.3.1/../../../../pic32mx/lib/fpu64/libpic32.a(errno.o)

.mdebug.abiN32
 *(.mdebug.abiN32)

.mdebug.abi64
 *(.mdebug.abi64)

.mdebug.abiO64
 *(.mdebug.abiO64)

.mdebug.eabi32
 *(.mdebug.eabi32)

.mdebug.eabi64
 *(.mdebug.eabi64)

.gcc_compiled_long32
 *(.gcc_compiled_long32)

.gcc_compiled_long64
 *(.gcc_compiled_long64)

.stab
 *(.stab)

.stabstr
 *(.stabstr)

.stab.excl
 *(.stab.excl)

.stab.exclstr
 *(.stab.exclstr)

.stab.index
 *(.stab.index)

.stab.indexstr
 *(.stab.indexstr)

.comment        0x0000000000000000       0xa7
 *(.comment)
 .comment       0x0000000000000000       0x2b build/nsensor/production/_ext/1684788505/ChrFont0.o
                                         0x2c (size before relaxing)
 .comment       0x000000000000002b       0x2c build/nsensor/production/_ext/1684788505/dogm-graphic.o
 .comment       0x000000000000002b       0x2c build/nsensor/production/_ext/1684788505/eadog.o
 .comment       0x000000000000002b       0x2c build/nsensor/production/_ext/1684788505/FillPat.o
 .comment       0x000000000000002b       0x2c build/nsensor/production/_ext/1684788505/foo.o
 .comment       0x000000000000002b       0x2c build/nsensor/production/_ext/1684788505/lcd_drv.o
 .comment       0x000000000000002b       0x2c build/nsensor/production/_ext/1684788505/OledChar.o
 .comment       0x000000000000002b       0x2c build/nsensor/production/_ext/1684788505/OledDriver.o
 .comment       0x000000000000002b       0x2c build/nsensor/production/_ext/1684788505/OledGrph.o
 .comment       0x000000000000002b       0x2c build/nsensor/production/_ext/1966772718/plib_adchs.o
 .comment       0x000000000000002b       0x2c build/nsensor/production/_ext/1965004555/plib_canfd1.o
 .comment       0x000000000000002b       0x2c build/nsensor/production/_ext/619183945/plib_clk.o
 .comment       0x000000000000002b       0x2c build/nsensor/production/_ext/1664108525/plib_coretimer.o
 .comment       0x000000000000002b       0x2c build/nsensor/production/_ext/2014863652/plib_dmac.o
 .comment       0x000000000000002b       0x2c build/nsensor/production/_ext/2014902340/plib_evic.o
 .comment       0x000000000000002b       0x2c build/nsensor/production/_ext/2014956168/plib_gpio.o
 .comment       0x000000000000002b       0x2c build/nsensor/production/_ext/1955707305/plib_mcpwm.o
 .comment       0x000000000000002b       0x2c build/nsensor/production/_ext/619197180/plib_qei2.o
 .comment       0x000000000000002b       0x2c build/nsensor/production/_ext/2015287515/plib_rtcc.o
 .comment       0x000000000000002b       0x2c build/nsensor/production/_ext/1877210129/plib_spi1_master.o
 .comment       0x000000000000002b       0x2c build/nsensor/production/_ext/1877210129/plib_spi2_master.o
 .comment       0x000000000000002b       0x2c build/nsensor/production/_ext/619200320/plib_tmr9.o
 .comment       0x000000000000002b       0x2c build/nsensor/production/_ext/619200320/plib_tmr5.o
 .comment       0x000000000000002b       0x2c build/nsensor/production/_ext/619200320/plib_tmr3.o
 .comment       0x000000000000002b       0x2c build/nsensor/production/_ext/619200320/plib_tmr6.o
 .comment       0x000000000000002b       0x2c build/nsensor/production/_ext/619200320/plib_tmr2.o
 .comment       0x000000000000002b       0x2c build/nsensor/production/_ext/2015359111/plib_uart1.o
 .comment       0x000000000000002b       0x2c build/nsensor/production/_ext/725740559/xc32_monitor.o
 .comment       0x000000000000002b       0x2c build/nsensor/production/_ext/1856863253/exceptions.o
 .comment       0x000000000000002b       0x2c build/nsensor/production/_ext/1856863253/interrupts.o
 .comment       0x000000000000002b       0x2c build/nsensor/production/_ext/1856863253/initialization.o
 .comment       0x000000000000002b       0x2c build/nsensor/production/_ext/1360937237/bma490l.o
 .comment       0x000000000000002b       0x2c build/nsensor/production/_ext/1360937237/timers.o
 .comment       0x000000000000002b       0x2c build/nsensor/production/_ext/1360937237/sca3300.o
 .comment       0x000000000000002b       0x2c build/nsensor/production/_ext/1360937237/gfx.o
 .comment       0x000000000000002b       0x2c build/nsensor/production/_ext/1360937237/imu.o
 .comment       0x000000000000002b       0x2c build/nsensor/production/_ext/1360937237/pid.o
 .comment       0x000000000000002b       0x2c build/nsensor/production/_ext/1360937237/do_fft.o
 .comment       0x000000000000002b       0x2c build/nsensor/production/_ext/1360937237/fft.o
 .comment       0x000000000000002b       0x2c build/nsensor/production/_ext/1360937237/main.o
 .comment       0x000000000000002b       0x2c build/nsensor/production/_ext/1360937237/canfd.o
 .comment       0x000000000000002b       0x2c build/nsensor/production/_ext/1360937237/host.o
 .comment       0x000000000000002b       0x2c build/nsensor/production/_ext/1360937237/cmd_scanner.o
 .comment       0x000000000000002b       0x18 /opt/microchip/xc32/v4.21/bin/bin/../../lib/gcc/pic32mx/8.3.1/../../../../pic32mx/lib/fpu64/libpic32.a(memset.o)
                                         0x19 (size before relaxing)
 .comment       0x0000000000000043       0x19 /opt/microchip/xc32/v4.21/bin/bin/../../lib/gcc/pic32mx/8.3.1/../../../../pic32mx/lib/fpu64/libpic32.a(strlen.o)
                                         0x1a (size before relaxing)
 .comment       0x000000000000005c       0x2c /opt/microchip/xc32/v4.21/bin/bin/../../lib/gcc/pic32mx/8.3.1/../../../../pic32mx/lib/fpu64/libpic32.a(default-on-reset.o)
 .comment       0x000000000000005c       0x2c /opt/microchip/xc32/v4.21/bin/bin/../../lib/gcc/pic32mx/8.3.1/../../../../pic32mx/lib/fpu64/libpic32.a(default-on-bootstrap.o)
 .comment       0x000000000000005c       0x2c /opt/microchip/xc32/v4.21/bin/bin/../../lib/gcc/pic32mx/8.3.1/../../../../pic32mx/lib/fpu64/libpic32.a(defaultinterrupt.o)
 .comment       0x000000000000005c       0x2c /opt/microchip/xc32/v4.21/bin/bin/../../lib/gcc/pic32mx/8.3.1/../../../../pic32mx/lib/fpu64/libc-musl.a(__sio_printf_s.o)
 .comment       0x000000000000005c       0x2c /opt/microchip/xc32/v4.21/bin/bin/../../lib/gcc/pic32mx/8.3.1/../../../../pic32mx/lib/fpu64/libc-musl.a(__sio_snprintf_dfosux.o)
 .comment       0x000000000000005c       0x2c /opt/microchip/xc32/v4.21/bin/bin/../../lib/gcc/pic32mx/8.3.1/../../../../pic32mx/lib/fpu64/libc-musl.a(__sio_snprintf_dosux.o)
 .comment       0x000000000000005c       0x2c /opt/microchip/xc32/v4.21/bin/bin/../../lib/gcc/pic32mx/8.3.1/../../../../pic32mx/lib/fpu64/libc-musl.a(__sio_snprintf_doux.o)
 .comment       0x000000000000005c       0x2c /opt/microchip/xc32/v4.21/bin/bin/../../lib/gcc/pic32mx/8.3.1/../../../../pic32mx/lib/fpu64/libc-musl.a(__sio_snprintf_s.o)
 .comment       0x000000000000005c       0x2c /opt/microchip/xc32/v4.21/bin/bin/../../lib/gcc/pic32mx/8.3.1/../../../../pic32mx/lib/fpu64/libc-musl.a(__fmt_d.o)
 .comment       0x000000000000005c       0x2c /opt/microchip/xc32/v4.21/bin/bin/../../lib/gcc/pic32mx/8.3.1/../../../../pic32mx/lib/fpu64/libc-musl.a(__fmt_fp.o)
 .comment       0x000000000000005c       0x2c /opt/microchip/xc32/v4.21/bin/bin/../../lib/gcc/pic32mx/8.3.1/../../../../pic32mx/lib/fpu64/libc-musl.a(__fmt_o.o)
 .comment       0x000000000000005c       0x2c /opt/microchip/xc32/v4.21/bin/bin/../../lib/gcc/pic32mx/8.3.1/../../../../pic32mx/lib/fpu64/libc-musl.a(__fmt_s.o)
 .comment       0x000000000000005c       0x2c /opt/microchip/xc32/v4.21/bin/bin/../../lib/gcc/pic32mx/8.3.1/../../../../pic32mx/lib/fpu64/libc-musl.a(__fmt_u.o)
 .comment       0x000000000000005c       0x2c /opt/microchip/xc32/v4.21/bin/bin/../../lib/gcc/pic32mx/8.3.1/../../../../pic32mx/lib/fpu64/libc-musl.a(__fmt_x.o)
 .comment       0x000000000000005c       0x2c /opt/microchip/xc32/v4.21/bin/bin/../../lib/gcc/pic32mx/8.3.1/../../../../pic32mx/lib/fpu64/libc-musl.a(__pop_float.o)
 .comment       0x000000000000005c       0x2c /opt/microchip/xc32/v4.21/bin/bin/../../lib/gcc/pic32mx/8.3.1/../../../../pic32mx/lib/fpu64/libc-musl.a(__pop_int.o)
 .comment       0x000000000000005c       0x2c /opt/microchip/xc32/v4.21/bin/bin/../../lib/gcc/pic32mx/8.3.1/../../../../pic32mx/lib/fpu64/libc-musl.a(__pop_ptr.o)
 .comment       0x000000000000005c       0x2c /opt/microchip/xc32/v4.21/bin/bin/../../lib/gcc/pic32mx/8.3.1/../../../../pic32mx/lib/fpu64/libc-musl.a(__printf_core.o)
 .comment       0x000000000000005c       0x2c /opt/microchip/xc32/v4.21/bin/bin/../../lib/gcc/pic32mx/8.3.1/../../../../pic32mx/lib/fpu64/libc-musl.a(stdout.o)
 .comment       0x000000000000005c       0x2c /opt/microchip/xc32/v4.21/bin/bin/../../lib/gcc/pic32mx/8.3.1/../../../../pic32mx/lib/fpu64/libc-musl.a(vprintf.o)
 .comment       0x000000000000005c       0x2c /opt/microchip/xc32/v4.21/bin/bin/../../lib/gcc/pic32mx/8.3.1/../../../../pic32mx/lib/fpu64/libc-musl.a(atoi.o)
 .comment       0x000000000000005c       0x2c /opt/microchip/xc32/v4.21/bin/bin/../../lib/gcc/pic32mx/8.3.1/../../../../pic32mx/lib/fpu64/libc-musl.a(strcpy.o)
 .comment       0x000000000000005c       0x2c /opt/microchip/xc32/v4.21/bin/bin/../../lib/gcc/pic32mx/8.3.1/../../../../pic32mx/lib/fpu64/libc-musl.a(strncmp.o)
 .comment       0x000000000000005c       0x2c /opt/microchip/xc32/v4.21/bin/bin/../../lib/gcc/pic32mx/8.3.1/../../../../pic32mx/lib/fpu64/libc-musl.a(tolower.o)
 .comment       0x000000000000005c       0x2c /opt/microchip/xc32/v4.21/bin/bin/../../lib/gcc/pic32mx/8.3.1/../../../../pic32mx/lib/fpu64/libc-musl.a(toupper.o)
 .comment       0x000000000000005c       0x2c /opt/microchip/xc32/v4.21/bin/bin/../../lib/gcc/pic32mx/8.3.1/../../../../pic32mx/lib/fpu64/libc-musl.a(__int_vfprintf.o)
 .comment       0x000000000000005c       0x2c /opt/microchip/xc32/v4.21/bin/bin/../../lib/gcc/pic32mx/8.3.1/../../../../pic32mx/lib/fpu64/libc-musl.a(__int_vsnprintf.o)
 .comment       0x000000000000005c       0x2c /opt/microchip/xc32/v4.21/bin/bin/../../lib/gcc/pic32mx/8.3.1/../../../../pic32mx/lib/fpu64/libc-musl.a(__fopen.o)
 .comment       0x000000000000005c       0x2c /opt/microchip/xc32/v4.21/bin/bin/../../lib/gcc/pic32mx/8.3.1/../../../../pic32mx/lib/fpu64/libc-musl.a(__io_init_needed.o)
 .comment       0x000000000000005c       0x2c /opt/microchip/xc32/v4.21/bin/bin/../../lib/gcc/pic32mx/8.3.1/../../../../pic32mx/lib/fpu64/libc-musl.a(__out.o)
 .comment       0x000000000000005c       0x2c /opt/microchip/xc32/v4.21/bin/bin/../../lib/gcc/pic32mx/8.3.1/../../../../pic32mx/lib/fpu64/libc-musl.a(__stdio_close.o)
 .comment       0x000000000000005c       0x2c /opt/microchip/xc32/v4.21/bin/bin/../../lib/gcc/pic32mx/8.3.1/../../../../pic32mx/lib/fpu64/libc-musl.a(vfprintf.o)
 .comment       0x000000000000005c       0x2c /opt/microchip/xc32/v4.21/bin/bin/../../lib/gcc/pic32mx/8.3.1/../../../../pic32mx/lib/fpu64/libc-musl.a(stpcpy.o)
 .comment       0x000000000000005c       0x2c /opt/microchip/xc32/v4.21/bin/bin/../../lib/gcc/pic32mx/8.3.1/../../../../pic32mx/lib/fpu64/libc-musl.a(malloc.o)
 .comment       0x000000000000005c       0x2c /opt/microchip/xc32/v4.21/bin/bin/../../lib/gcc/pic32mx/8.3.1/../../../../pic32mx/lib/fpu64/libc-musl.a(expand_heap.o)
 .comment       0x000000000000005c       0x2c /opt/microchip/xc32/v4.21/bin/bin/../../lib/gcc/pic32mx/8.3.1/../../../../pic32mx/lib/fpu64/libc-musl.a(__init_stdio.o)
 .comment       0x000000000000005c       0x2c /opt/microchip/xc32/v4.21/bin/bin/../../lib/gcc/pic32mx/8.3.1/../../../../pic32mx/lib/fpu64/libc-musl.a(__io_file_needed.o)
 .comment       0x000000000000005c       0x2c /opt/microchip/xc32/v4.21/bin/bin/../../lib/gcc/pic32mx/8.3.1/../../../../pic32mx/lib/fpu64/libc-musl.a(__io_fmt_needed.o)
 .comment       0x000000000000005c       0x2c /opt/microchip/xc32/v4.21/bin/bin/../../lib/gcc/pic32mx/8.3.1/../../../../pic32mx/lib/fpu64/libc-musl.a(libc.o)
 .comment       0x000000000000005c       0x2c /opt/microchip/xc32/v4.21/bin/bin/../../lib/gcc/pic32mx/8.3.1/../../../../pic32mx/lib/fpu64/libc-musl.a(__fmt_a.o)
 .comment       0x000000000000005c       0x2c /opt/microchip/xc32/v4.21/bin/bin/../../lib/gcc/pic32mx/8.3.1/../../../../pic32mx/lib/fpu64/libm-musl.a(cos.o)
 .comment       0x000000000000005c       0x2c /opt/microchip/xc32/v4.21/bin/bin/../../lib/gcc/pic32mx/8.3.1/../../../../pic32mx/lib/fpu64/libm-musl.a(floor.o)
 .comment       0x000000000000005c       0x2c /opt/microchip/xc32/v4.21/bin/bin/../../lib/gcc/pic32mx/8.3.1/../../../../pic32mx/lib/fpu64/libm-musl.a(fma.o)
 .comment       0x000000000000005c       0x2c /opt/microchip/xc32/v4.21/bin/bin/../../lib/gcc/pic32mx/8.3.1/../../../../pic32mx/lib/fpu64/libm-musl.a(scalbn.o)
 .comment       0x000000000000005c       0x2c /opt/microchip/xc32/v4.21/bin/bin/../../lib/gcc/pic32mx/8.3.1/../../../../pic32mx/lib/fpu64/libm-musl.a(sin.o)
 .comment       0x000000000000005c       0x2c /opt/microchip/xc32/v4.21/bin/bin/../../lib/gcc/pic32mx/8.3.1/../../../../pic32mx/lib/fpu64/libm-musl.a(__cos.o)
 .comment       0x000000000000005c       0x2c /opt/microchip/xc32/v4.21/bin/bin/../../lib/gcc/pic32mx/8.3.1/../../../../pic32mx/lib/fpu64/libm-musl.a(__rem_pio2.o)
 .comment       0x000000000000005c       0x2c /opt/microchip/xc32/v4.21/bin/bin/../../lib/gcc/pic32mx/8.3.1/../../../../pic32mx/lib/fpu64/libm-musl.a(__rem_pio2_large.o)
 .comment       0x000000000000005c       0x2c /opt/microchip/xc32/v4.21/bin/bin/../../lib/gcc/pic32mx/8.3.1/../../../../pic32mx/lib/fpu64/libm-musl.a(__sin.o)
 .comment       0x000000000000005c       0x2c /opt/microchip/xc32/v4.21/bin/bin/../../lib/gcc/pic32mx/8.3.1/fpu64/libgcc.a(_lshrdi3.o)
 .comment       0x000000000000005c       0x2c /opt/microchip/xc32/v4.21/bin/bin/../../lib/gcc/pic32mx/8.3.1/fpu64/libgcc.a(_ashldi3.o)
 .comment       0x000000000000005c       0x2c /opt/microchip/xc32/v4.21/bin/bin/../../lib/gcc/pic32mx/8.3.1/fpu64/libgcc.a(_udivdi3.o)
 .comment       0x000000000000005c       0x2c /opt/microchip/xc32/v4.21/bin/bin/../../lib/gcc/pic32mx/8.3.1/fpu64/libgcc.a(_umoddi3.o)
 .comment       0x000000000000005c       0x4b /opt/microchip/xc32/v4.21/bin/bin/../../lib/gcc/pic32mx/8.3.1/../../../../pic32mx/lib/fpu64/libpic32.a(sbrk.o)
                                         0x77 (size before relaxing)
 .comment       0x00000000000000a7       0x2c /opt/microchip/xc32/v4.21/bin/bin/../../lib/gcc/pic32mx/8.3.1/../../../../pic32mx/lib/fpu64/libpic32.a(lseek.o)
 .comment       0x00000000000000a7       0x2c /opt/microchip/xc32/v4.21/bin/bin/../../lib/gcc/pic32mx/8.3.1/../../../../pic32mx/lib/fpu64/libpic32.a(close.o)
 .comment       0x00000000000000a7       0x2c /opt/microchip/xc32/v4.21/bin/bin/../../lib/gcc/pic32mx/8.3.1/../../../../pic32mx/lib/fpu64/libpic32.a(errno.o)

.debug
 *.elf(.debug)
 *(.debug)

.line
 *.elf(.line)
 *(.line)

.debug_srcinfo
 *.elf(.debug_srcinfo)
 *(.debug_srcinfo)

.debug_sfnames
 *.elf(.debug_sfnames)
 *(.debug_sfnames)

.debug_aranges  0x0000000000000000      0xd70
 *.elf(.debug_aranges)
 *(.debug_aranges)
 .debug_aranges
                0x0000000000000000       0x18 build/nsensor/production/_ext/1684788505/ChrFont0.o
 .debug_aranges
                0x0000000000000018       0x20 build/nsensor/production/_ext/1684788505/dogm-graphic.o
 .debug_aranges
                0x0000000000000038       0x20 build/nsensor/production/_ext/1684788505/eadog.o
 .debug_aranges
                0x0000000000000058       0x18 build/nsensor/production/_ext/1684788505/FillPat.o
 .debug_aranges
                0x0000000000000070       0x18 build/nsensor/production/_ext/1684788505/foo.o
 .debug_aranges
                0x0000000000000088       0x20 build/nsensor/production/_ext/1684788505/lcd_drv.o
 .debug_aranges
                0x00000000000000a8       0x20 build/nsensor/production/_ext/1684788505/OledChar.o
 .debug_aranges
                0x00000000000000c8       0x20 build/nsensor/production/_ext/1684788505/OledDriver.o
 .debug_aranges
                0x00000000000000e8       0x20 build/nsensor/production/_ext/1684788505/OledGrph.o
 .debug_aranges
                0x0000000000000108       0x20 build/nsensor/production/_ext/1966772718/plib_adchs.o
 .debug_aranges
                0x0000000000000128       0x20 build/nsensor/production/_ext/1965004555/plib_canfd1.o
 .debug_aranges
                0x0000000000000148       0x20 build/nsensor/production/_ext/619183945/plib_clk.o
 .debug_aranges
                0x0000000000000168       0x20 build/nsensor/production/_ext/1664108525/plib_coretimer.o
 .debug_aranges
                0x0000000000000188       0x20 build/nsensor/production/_ext/2014863652/plib_dmac.o
 .debug_aranges
                0x00000000000001a8       0x20 build/nsensor/production/_ext/2014902340/plib_evic.o
 .debug_aranges
                0x00000000000001c8       0x20 build/nsensor/production/_ext/2014956168/plib_gpio.o
 .debug_aranges
                0x00000000000001e8       0x20 build/nsensor/production/_ext/1955707305/plib_mcpwm.o
 .debug_aranges
                0x0000000000000208       0x20 build/nsensor/production/_ext/619197180/plib_qei2.o
 .debug_aranges
                0x0000000000000228       0x20 build/nsensor/production/_ext/2015287515/plib_rtcc.o
 .debug_aranges
                0x0000000000000248       0x20 build/nsensor/production/_ext/1877210129/plib_spi1_master.o
 .debug_aranges
                0x0000000000000268       0x20 build/nsensor/production/_ext/1877210129/plib_spi2_master.o
 .debug_aranges
                0x0000000000000288       0x20 build/nsensor/production/_ext/619200320/plib_tmr9.o
 .debug_aranges
                0x00000000000002a8       0x20 build/nsensor/production/_ext/619200320/plib_tmr5.o
 .debug_aranges
                0x00000000000002c8       0x20 build/nsensor/production/_ext/619200320/plib_tmr3.o
 .debug_aranges
                0x00000000000002e8       0x20 build/nsensor/production/_ext/619200320/plib_tmr6.o
 .debug_aranges
                0x0000000000000308       0x20 build/nsensor/production/_ext/619200320/plib_tmr2.o
 .debug_aranges
                0x0000000000000328       0x20 build/nsensor/production/_ext/2015359111/plib_uart1.o
 .debug_aranges
                0x0000000000000348       0x20 build/nsensor/production/_ext/725740559/xc32_monitor.o
 .debug_aranges
                0x0000000000000368       0x20 build/nsensor/production/_ext/1856863253/exceptions.o
 .debug_aranges
                0x0000000000000388       0x20 build/nsensor/production/_ext/1856863253/interrupts.o
 .debug_aranges
                0x00000000000003a8       0x20 build/nsensor/production/_ext/1856863253/initialization.o
 .debug_aranges
                0x00000000000003c8       0x20 build/nsensor/production/_ext/1360937237/bma490l.o
 .debug_aranges
                0x00000000000003e8       0x20 build/nsensor/production/_ext/1360937237/timers.o
 .debug_aranges
                0x0000000000000408       0x20 build/nsensor/production/_ext/1360937237/sca3300.o
 .debug_aranges
                0x0000000000000428       0x20 build/nsensor/production/_ext/1360937237/gfx.o
 .debug_aranges
                0x0000000000000448       0x20 build/nsensor/production/_ext/1360937237/imu.o
 .debug_aranges
                0x0000000000000468       0x20 build/nsensor/production/_ext/1360937237/pid.o
 .debug_aranges
                0x0000000000000488       0x20 build/nsensor/production/_ext/1360937237/do_fft.o
 .debug_aranges
                0x00000000000004a8       0x20 build/nsensor/production/_ext/1360937237/fft.o
 .debug_aranges
                0x00000000000004c8       0x20 build/nsensor/production/_ext/1360937237/main.o
 .debug_aranges
                0x00000000000004e8       0x20 build/nsensor/production/_ext/1360937237/canfd.o
 .debug_aranges
                0x0000000000000508       0x20 build/nsensor/production/_ext/1360937237/host.o
 .debug_aranges
                0x0000000000000528       0x20 build/nsensor/production/_ext/1360937237/cmd_scanner.o
 .debug_aranges
                0x0000000000000548       0x20 /opt/microchip/xc32/v4.21/bin/bin/../../lib/gcc/pic32mx/8.3.1/../../../../pic32mx/lib/fpu64/libpic32.a(default-on-reset.o)
 .debug_aranges
                0x0000000000000568       0x20 /opt/microchip/xc32/v4.21/bin/bin/../../lib/gcc/pic32mx/8.3.1/../../../../pic32mx/lib/fpu64/libpic32.a(default-on-bootstrap.o)
 .debug_aranges
                0x0000000000000588       0x20 /opt/microchip/xc32/v4.21/bin/bin/../../lib/gcc/pic32mx/8.3.1/../../../../pic32mx/lib/fpu64/libpic32.a(defaultinterrupt.o)
 .debug_aranges
                0x00000000000005a8       0x28 /opt/microchip/xc32/v4.21/bin/bin/../../lib/gcc/pic32mx/8.3.1/../../../../pic32mx/lib/fpu64/libc-musl.a(__sio_printf_s.o)
 .debug_aranges
                0x00000000000005d0       0x28 /opt/microchip/xc32/v4.21/bin/bin/../../lib/gcc/pic32mx/8.3.1/../../../../pic32mx/lib/fpu64/libc-musl.a(__sio_snprintf_dfosux.o)
 .debug_aranges
                0x00000000000005f8       0x28 /opt/microchip/xc32/v4.21/bin/bin/../../lib/gcc/pic32mx/8.3.1/../../../../pic32mx/lib/fpu64/libc-musl.a(__sio_snprintf_dosux.o)
 .debug_aranges
                0x0000000000000620       0x28 /opt/microchip/xc32/v4.21/bin/bin/../../lib/gcc/pic32mx/8.3.1/../../../../pic32mx/lib/fpu64/libc-musl.a(__sio_snprintf_doux.o)
 .debug_aranges
                0x0000000000000648       0x28 /opt/microchip/xc32/v4.21/bin/bin/../../lib/gcc/pic32mx/8.3.1/../../../../pic32mx/lib/fpu64/libc-musl.a(__sio_snprintf_s.o)
 .debug_aranges
                0x0000000000000670       0x20 /opt/microchip/xc32/v4.21/bin/bin/../../lib/gcc/pic32mx/8.3.1/../../../../pic32mx/lib/fpu64/libc-musl.a(__fmt_d.o)
 .debug_aranges
                0x0000000000000690       0x20 /opt/microchip/xc32/v4.21/bin/bin/../../lib/gcc/pic32mx/8.3.1/../../../../pic32mx/lib/fpu64/libc-musl.a(__fmt_fp.o)
 .debug_aranges
                0x00000000000006b0       0x20 /opt/microchip/xc32/v4.21/bin/bin/../../lib/gcc/pic32mx/8.3.1/../../../../pic32mx/lib/fpu64/libc-musl.a(__fmt_o.o)
 .debug_aranges
                0x00000000000006d0       0x20 /opt/microchip/xc32/v4.21/bin/bin/../../lib/gcc/pic32mx/8.3.1/../../../../pic32mx/lib/fpu64/libc-musl.a(__fmt_s.o)
 .debug_aranges
                0x00000000000006f0       0x28 /opt/microchip/xc32/v4.21/bin/bin/../../lib/gcc/pic32mx/8.3.1/../../../../pic32mx/lib/fpu64/libc-musl.a(__fmt_u.o)
 .debug_aranges
                0x0000000000000718       0x20 /opt/microchip/xc32/v4.21/bin/bin/../../lib/gcc/pic32mx/8.3.1/../../../../pic32mx/lib/fpu64/libc-musl.a(__fmt_x.o)
 .debug_aranges
                0x0000000000000738       0x20 /opt/microchip/xc32/v4.21/bin/bin/../../lib/gcc/pic32mx/8.3.1/../../../../pic32mx/lib/fpu64/libc-musl.a(__pop_float.o)
 .debug_aranges
                0x0000000000000758       0x20 /opt/microchip/xc32/v4.21/bin/bin/../../lib/gcc/pic32mx/8.3.1/../../../../pic32mx/lib/fpu64/libc-musl.a(__pop_int.o)
 .debug_aranges
                0x0000000000000778       0x20 /opt/microchip/xc32/v4.21/bin/bin/../../lib/gcc/pic32mx/8.3.1/../../../../pic32mx/lib/fpu64/libc-musl.a(__pop_ptr.o)
 .debug_aranges
                0x0000000000000798       0x50 /opt/microchip/xc32/v4.21/bin/bin/../../lib/gcc/pic32mx/8.3.1/../../../../pic32mx/lib/fpu64/libc-musl.a(__printf_core.o)
 .debug_aranges
                0x00000000000007e8       0x28 /opt/microchip/xc32/v4.21/bin/bin/../../lib/gcc/pic32mx/8.3.1/../../../../pic32mx/lib/fpu64/libc-musl.a(stdout.o)
 .debug_aranges
                0x0000000000000810       0x20 /opt/microchip/xc32/v4.21/bin/bin/../../lib/gcc/pic32mx/8.3.1/../../../../pic32mx/lib/fpu64/libc-musl.a(vprintf.o)
 .debug_aranges
                0x0000000000000830       0x20 /opt/microchip/xc32/v4.21/bin/bin/../../lib/gcc/pic32mx/8.3.1/../../../../pic32mx/lib/fpu64/libc-musl.a(atoi.o)
 .debug_aranges
                0x0000000000000850       0x20 /opt/microchip/xc32/v4.21/bin/bin/../../lib/gcc/pic32mx/8.3.1/../../../../pic32mx/lib/fpu64/libc-musl.a(strcpy.o)
 .debug_aranges
                0x0000000000000870       0x20 /opt/microchip/xc32/v4.21/bin/bin/../../lib/gcc/pic32mx/8.3.1/../../../../pic32mx/lib/fpu64/libc-musl.a(strncmp.o)
 .debug_aranges
                0x0000000000000890       0x28 /opt/microchip/xc32/v4.21/bin/bin/../../lib/gcc/pic32mx/8.3.1/../../../../pic32mx/lib/fpu64/libc-musl.a(tolower.o)
 .debug_aranges
                0x00000000000008b8       0x28 /opt/microchip/xc32/v4.21/bin/bin/../../lib/gcc/pic32mx/8.3.1/../../../../pic32mx/lib/fpu64/libc-musl.a(toupper.o)
 .debug_aranges
                0x00000000000008e0       0x20 /opt/microchip/xc32/v4.21/bin/bin/../../lib/gcc/pic32mx/8.3.1/../../../../pic32mx/lib/fpu64/libc-musl.a(__int_vfprintf.o)
 .debug_aranges
                0x0000000000000900       0x20 /opt/microchip/xc32/v4.21/bin/bin/../../lib/gcc/pic32mx/8.3.1/../../../../pic32mx/lib/fpu64/libc-musl.a(__int_vsnprintf.o)
 .debug_aranges
                0x0000000000000920       0x30 /opt/microchip/xc32/v4.21/bin/bin/../../lib/gcc/pic32mx/8.3.1/../../../../pic32mx/lib/fpu64/libc-musl.a(__fopen.o)
 .debug_aranges
                0x0000000000000950       0x28 /opt/microchip/xc32/v4.21/bin/bin/../../lib/gcc/pic32mx/8.3.1/../../../../pic32mx/lib/fpu64/libc-musl.a(__io_init_needed.o)
 .debug_aranges
                0x0000000000000978       0x28 /opt/microchip/xc32/v4.21/bin/bin/../../lib/gcc/pic32mx/8.3.1/../../../../pic32mx/lib/fpu64/libc-musl.a(__out.o)
 .debug_aranges
                0x00000000000009a0       0x28 /opt/microchip/xc32/v4.21/bin/bin/../../lib/gcc/pic32mx/8.3.1/../../../../pic32mx/lib/fpu64/libc-musl.a(__stdio_close.o)
 .debug_aranges
                0x00000000000009c8       0x28 /opt/microchip/xc32/v4.21/bin/bin/../../lib/gcc/pic32mx/8.3.1/../../../../pic32mx/lib/fpu64/libc-musl.a(vfprintf.o)
 .debug_aranges
                0x00000000000009f0       0x20 /opt/microchip/xc32/v4.21/bin/bin/../../lib/gcc/pic32mx/8.3.1/../../../../pic32mx/lib/fpu64/libc-musl.a(stpcpy.o)
 .debug_aranges
                0x0000000000000a10       0x70 /opt/microchip/xc32/v4.21/bin/bin/../../lib/gcc/pic32mx/8.3.1/../../../../pic32mx/lib/fpu64/libc-musl.a(malloc.o)
 .debug_aranges
                0x0000000000000a80       0x20 /opt/microchip/xc32/v4.21/bin/bin/../../lib/gcc/pic32mx/8.3.1/../../../../pic32mx/lib/fpu64/libc-musl.a(expand_heap.o)
 .debug_aranges
                0x0000000000000aa0       0x28 /opt/microchip/xc32/v4.21/bin/bin/../../lib/gcc/pic32mx/8.3.1/../../../../pic32mx/lib/fpu64/libc-musl.a(__init_stdio.o)
 .debug_aranges
                0x0000000000000ac8       0x20 /opt/microchip/xc32/v4.21/bin/bin/../../lib/gcc/pic32mx/8.3.1/../../../../pic32mx/lib/fpu64/libc-musl.a(__io_file_needed.o)
 .debug_aranges
                0x0000000000000ae8       0x20 /opt/microchip/xc32/v4.21/bin/bin/../../lib/gcc/pic32mx/8.3.1/../../../../pic32mx/lib/fpu64/libc-musl.a(__io_fmt_needed.o)
 .debug_aranges
                0x0000000000000b08       0x18 /opt/microchip/xc32/v4.21/bin/bin/../../lib/gcc/pic32mx/8.3.1/../../../../pic32mx/lib/fpu64/libc-musl.a(libc.o)
 .debug_aranges
                0x0000000000000b20       0x20 /opt/microchip/xc32/v4.21/bin/bin/../../lib/gcc/pic32mx/8.3.1/../../../../pic32mx/lib/fpu64/libc-musl.a(__fmt_a.o)
 .debug_aranges
                0x0000000000000b40       0x20 /opt/microchip/xc32/v4.21/bin/bin/../../lib/gcc/pic32mx/8.3.1/../../../../pic32mx/lib/fpu64/libm-musl.a(cos.o)
 .debug_aranges
                0x0000000000000b60       0x20 /opt/microchip/xc32/v4.21/bin/bin/../../lib/gcc/pic32mx/8.3.1/../../../../pic32mx/lib/fpu64/libm-musl.a(floor.o)
 .debug_aranges
                0x0000000000000b80       0x30 /opt/microchip/xc32/v4.21/bin/bin/../../lib/gcc/pic32mx/8.3.1/../../../../pic32mx/lib/fpu64/libm-musl.a(fma.o)
 .debug_aranges
                0x0000000000000bb0       0x20 /opt/microchip/xc32/v4.21/bin/bin/../../lib/gcc/pic32mx/8.3.1/../../../../pic32mx/lib/fpu64/libm-musl.a(scalbn.o)
 .debug_aranges
                0x0000000000000bd0       0x20 /opt/microchip/xc32/v4.21/bin/bin/../../lib/gcc/pic32mx/8.3.1/../../../../pic32mx/lib/fpu64/libm-musl.a(sin.o)
 .debug_aranges
                0x0000000000000bf0       0x20 /opt/microchip/xc32/v4.21/bin/bin/../../lib/gcc/pic32mx/8.3.1/../../../../pic32mx/lib/fpu64/libm-musl.a(__cos.o)
 .debug_aranges
                0x0000000000000c10       0x20 /opt/microchip/xc32/v4.21/bin/bin/../../lib/gcc/pic32mx/8.3.1/../../../../pic32mx/lib/fpu64/libm-musl.a(__rem_pio2.o)
 .debug_aranges
                0x0000000000000c30       0x20 /opt/microchip/xc32/v4.21/bin/bin/../../lib/gcc/pic32mx/8.3.1/../../../../pic32mx/lib/fpu64/libm-musl.a(__rem_pio2_large.o)
 .debug_aranges
                0x0000000000000c50       0x20 /opt/microchip/xc32/v4.21/bin/bin/../../lib/gcc/pic32mx/8.3.1/../../../../pic32mx/lib/fpu64/libm-musl.a(__sin.o)
 .debug_aranges
                0x0000000000000c70       0x20 /opt/microchip/xc32/v4.21/bin/bin/../../lib/gcc/pic32mx/8.3.1/fpu64/libgcc.a(_lshrdi3.o)
 .debug_aranges
                0x0000000000000c90       0x20 /opt/microchip/xc32/v4.21/bin/bin/../../lib/gcc/pic32mx/8.3.1/fpu64/libgcc.a(_ashldi3.o)
 .debug_aranges
                0x0000000000000cb0       0x20 /opt/microchip/xc32/v4.21/bin/bin/../../lib/gcc/pic32mx/8.3.1/fpu64/libgcc.a(_udivdi3.o)
 .debug_aranges
                0x0000000000000cd0       0x20 /opt/microchip/xc32/v4.21/bin/bin/../../lib/gcc/pic32mx/8.3.1/fpu64/libgcc.a(_umoddi3.o)
 .debug_aranges
                0x0000000000000cf0       0x40 /opt/microchip/xc32/v4.21/bin/bin/../../lib/gcc/pic32mx/8.3.1/../../../../pic32mx/lib/fpu64/libpic32.a(sbrk.o)
 .debug_aranges
                0x0000000000000d30       0x20 /opt/microchip/xc32/v4.21/bin/bin/../../lib/gcc/pic32mx/8.3.1/../../../../pic32mx/lib/fpu64/libpic32.a(lseek.o)
 .debug_aranges
                0x0000000000000d50       0x20 /opt/microchip/xc32/v4.21/bin/bin/../../lib/gcc/pic32mx/8.3.1/../../../../pic32mx/lib/fpu64/libpic32.a(close.o)

.debug_pubnames
 *.elf(.debug_pubnames)
 *(.debug_pubnames)

.debug_info     0x0000000000000000    0x1821c
 *.elf(.debug_info .gnu.linkonce.wi.*)
 *(.debug_info .gnu.linkonce.wi.*)
 .debug_info    0x0000000000000000       0x97 build/nsensor/production/_ext/1684788505/ChrFont0.o
 .debug_info    0x0000000000000097      0x3d8 build/nsensor/production/_ext/1684788505/dogm-graphic.o
 .debug_info    0x000000000000046f      0x626 build/nsensor/production/_ext/1684788505/eadog.o
 .debug_info    0x0000000000000a95       0x96 build/nsensor/production/_ext/1684788505/FillPat.o
 .debug_info    0x0000000000000b2b       0xbd build/nsensor/production/_ext/1684788505/foo.o
 .debug_info    0x0000000000000be8      0x149 build/nsensor/production/_ext/1684788505/lcd_drv.o
 .debug_info    0x0000000000000d31      0x35e build/nsensor/production/_ext/1684788505/OledChar.o
 .debug_info    0x000000000000108f      0x907 build/nsensor/production/_ext/1684788505/OledDriver.o
 .debug_info    0x0000000000001996      0x9bb build/nsensor/production/_ext/1684788505/OledGrph.o
 .debug_info    0x0000000000002351      0xad0 build/nsensor/production/_ext/1966772718/plib_adchs.o
 .debug_info    0x0000000000002e21      0xadf build/nsensor/production/_ext/1965004555/plib_canfd1.o
 .debug_info    0x0000000000003900      0x32b build/nsensor/production/_ext/619183945/plib_clk.o
 .debug_info    0x0000000000003c2b      0x576 build/nsensor/production/_ext/1664108525/plib_coretimer.o
 .debug_info    0x00000000000041a1     0x1083 build/nsensor/production/_ext/2014863652/plib_dmac.o
 .debug_info    0x0000000000005224      0x8f1 build/nsensor/production/_ext/2014902340/plib_evic.o
 .debug_info    0x0000000000005b15      0x5e7 build/nsensor/production/_ext/2014956168/plib_gpio.o
 .debug_info    0x00000000000060fc      0x5e0 build/nsensor/production/_ext/1955707305/plib_mcpwm.o
 .debug_info    0x00000000000066dc      0x337 build/nsensor/production/_ext/619197180/plib_qei2.o
 .debug_info    0x0000000000006a13      0x696 build/nsensor/production/_ext/2015287515/plib_rtcc.o
 .debug_info    0x00000000000070a9      0x57c build/nsensor/production/_ext/1877210129/plib_spi1_master.o
 .debug_info    0x0000000000007625      0x57c build/nsensor/production/_ext/1877210129/plib_spi2_master.o
 .debug_info    0x0000000000007ba1      0x182 build/nsensor/production/_ext/619200320/plib_tmr9.o
 .debug_info    0x0000000000007d23      0x54a build/nsensor/production/_ext/619200320/plib_tmr5.o
 .debug_info    0x000000000000826d      0x557 build/nsensor/production/_ext/619200320/plib_tmr3.o
 .debug_info    0x00000000000087c4      0x4e5 build/nsensor/production/_ext/619200320/plib_tmr6.o
 .debug_info    0x0000000000008ca9      0x557 build/nsensor/production/_ext/619200320/plib_tmr2.o
 .debug_info    0x0000000000009200      0x576 build/nsensor/production/_ext/2015359111/plib_uart1.o
 .debug_info    0x0000000000009776      0x155 build/nsensor/production/_ext/725740559/xc32_monitor.o
 .debug_info    0x00000000000098cb      0x147 build/nsensor/production/_ext/1856863253/exceptions.o
 .debug_info    0x0000000000009a12      0x1c3 build/nsensor/production/_ext/1856863253/interrupts.o
 .debug_info    0x0000000000009bd5      0x1f6 build/nsensor/production/_ext/1856863253/initialization.o
 .debug_info    0x0000000000009dcb      0x704 build/nsensor/production/_ext/1360937237/bma490l.o
 .debug_info    0x000000000000a4cf      0x20e build/nsensor/production/_ext/1360937237/timers.o
 .debug_info    0x000000000000a6dd      0x8e3 build/nsensor/production/_ext/1360937237/sca3300.o
 .debug_info    0x000000000000afc0      0x45a build/nsensor/production/_ext/1360937237/gfx.o
 .debug_info    0x000000000000b41a      0x7ab build/nsensor/production/_ext/1360937237/imu.o
 .debug_info    0x000000000000bbc5      0x1a6 build/nsensor/production/_ext/1360937237/pid.o
 .debug_info    0x000000000000bd6b      0x32b build/nsensor/production/_ext/1360937237/do_fft.o
 .debug_info    0x000000000000c096      0x3dd build/nsensor/production/_ext/1360937237/fft.o
 .debug_info    0x000000000000c473      0xdbd build/nsensor/production/_ext/1360937237/main.o
 .debug_info    0x000000000000d230      0xab6 build/nsensor/production/_ext/1360937237/canfd.o
 .debug_info    0x000000000000dce6     0x13de build/nsensor/production/_ext/1360937237/host.o
 .debug_info    0x000000000000f0c4      0x312 build/nsensor/production/_ext/1360937237/cmd_scanner.o
 .debug_info    0x000000000000f3d6       0x3f /opt/microchip/xc32/v4.21/bin/bin/../../lib/gcc/pic32mx/8.3.1/../../../../pic32mx/lib/fpu64/libpic32.a(default-on-reset.o)
 .debug_info    0x000000000000f415       0x3f /opt/microchip/xc32/v4.21/bin/bin/../../lib/gcc/pic32mx/8.3.1/../../../../pic32mx/lib/fpu64/libpic32.a(default-on-bootstrap.o)
 .debug_info    0x000000000000f454       0x40 /opt/microchip/xc32/v4.21/bin/bin/../../lib/gcc/pic32mx/8.3.1/../../../../pic32mx/lib/fpu64/libpic32.a(defaultinterrupt.o)
 .debug_info    0x000000000000f494      0x170 /opt/microchip/xc32/v4.21/bin/bin/../../lib/gcc/pic32mx/8.3.1/../../../../pic32mx/lib/fpu64/libc-musl.a(__sio_printf_s.o)
 .debug_info    0x000000000000f604      0x23a /opt/microchip/xc32/v4.21/bin/bin/../../lib/gcc/pic32mx/8.3.1/../../../../pic32mx/lib/fpu64/libc-musl.a(__sio_snprintf_dfosux.o)
 .debug_info    0x000000000000f83e      0x20c /opt/microchip/xc32/v4.21/bin/bin/../../lib/gcc/pic32mx/8.3.1/../../../../pic32mx/lib/fpu64/libc-musl.a(__sio_snprintf_dosux.o)
 .debug_info    0x000000000000fa4a      0x20c /opt/microchip/xc32/v4.21/bin/bin/../../lib/gcc/pic32mx/8.3.1/../../../../pic32mx/lib/fpu64/libc-musl.a(__sio_snprintf_doux.o)
 .debug_info    0x000000000000fc56      0x182 /opt/microchip/xc32/v4.21/bin/bin/../../lib/gcc/pic32mx/8.3.1/../../../../pic32mx/lib/fpu64/libc-musl.a(__sio_snprintf_s.o)
 .debug_info    0x000000000000fdd8      0x327 /opt/microchip/xc32/v4.21/bin/bin/../../lib/gcc/pic32mx/8.3.1/../../../../pic32mx/lib/fpu64/libc-musl.a(__fmt_d.o)
 .debug_info    0x00000000000100ff      0x648 /opt/microchip/xc32/v4.21/bin/bin/../../lib/gcc/pic32mx/8.3.1/../../../../pic32mx/lib/fpu64/libc-musl.a(__fmt_fp.o)
 .debug_info    0x0000000000010747      0x2f8 /opt/microchip/xc32/v4.21/bin/bin/../../lib/gcc/pic32mx/8.3.1/../../../../pic32mx/lib/fpu64/libc-musl.a(__fmt_o.o)
 .debug_info    0x0000000000010a3f      0x2a9 /opt/microchip/xc32/v4.21/bin/bin/../../lib/gcc/pic32mx/8.3.1/../../../../pic32mx/lib/fpu64/libc-musl.a(__fmt_s.o)
 .debug_info    0x0000000000010ce8      0x3cb /opt/microchip/xc32/v4.21/bin/bin/../../lib/gcc/pic32mx/8.3.1/../../../../pic32mx/lib/fpu64/libc-musl.a(__fmt_u.o)
 .debug_info    0x00000000000110b3      0x322 /opt/microchip/xc32/v4.21/bin/bin/../../lib/gcc/pic32mx/8.3.1/../../../../pic32mx/lib/fpu64/libc-musl.a(__fmt_x.o)
 .debug_info    0x00000000000113d5      0x134 /opt/microchip/xc32/v4.21/bin/bin/../../lib/gcc/pic32mx/8.3.1/../../../../pic32mx/lib/fpu64/libc-musl.a(__pop_float.o)
 .debug_info    0x0000000000011509      0x14e /opt/microchip/xc32/v4.21/bin/bin/../../lib/gcc/pic32mx/8.3.1/../../../../pic32mx/lib/fpu64/libc-musl.a(__pop_int.o)
 .debug_info    0x0000000000011657      0x15e /opt/microchip/xc32/v4.21/bin/bin/../../lib/gcc/pic32mx/8.3.1/../../../../pic32mx/lib/fpu64/libc-musl.a(__pop_ptr.o)
 .debug_info    0x00000000000117b5      0x9ee /opt/microchip/xc32/v4.21/bin/bin/../../lib/gcc/pic32mx/8.3.1/../../../../pic32mx/lib/fpu64/libc-musl.a(__printf_core.o)
 .debug_info    0x00000000000121a3      0x3c9 /opt/microchip/xc32/v4.21/bin/bin/../../lib/gcc/pic32mx/8.3.1/../../../../pic32mx/lib/fpu64/libc-musl.a(stdout.o)
 .debug_info    0x000000000001256c      0x107 /opt/microchip/xc32/v4.21/bin/bin/../../lib/gcc/pic32mx/8.3.1/../../../../pic32mx/lib/fpu64/libc-musl.a(vprintf.o)
 .debug_info    0x0000000000012673       0xee /opt/microchip/xc32/v4.21/bin/bin/../../lib/gcc/pic32mx/8.3.1/../../../../pic32mx/lib/fpu64/libc-musl.a(atoi.o)
 .debug_info    0x0000000000012761       0xbb /opt/microchip/xc32/v4.21/bin/bin/../../lib/gcc/pic32mx/8.3.1/../../../../pic32mx/lib/fpu64/libc-musl.a(strcpy.o)
 .debug_info    0x000000000001281c       0xdd /opt/microchip/xc32/v4.21/bin/bin/../../lib/gcc/pic32mx/8.3.1/../../../../pic32mx/lib/fpu64/libc-musl.a(strncmp.o)
 .debug_info    0x00000000000128f9      0x11b /opt/microchip/xc32/v4.21/bin/bin/../../lib/gcc/pic32mx/8.3.1/../../../../pic32mx/lib/fpu64/libc-musl.a(tolower.o)
 .debug_info    0x0000000000012a14      0x11b /opt/microchip/xc32/v4.21/bin/bin/../../lib/gcc/pic32mx/8.3.1/../../../../pic32mx/lib/fpu64/libc-musl.a(toupper.o)
 .debug_info    0x0000000000012b2f      0x1e0 /opt/microchip/xc32/v4.21/bin/bin/../../lib/gcc/pic32mx/8.3.1/../../../../pic32mx/lib/fpu64/libc-musl.a(__int_vfprintf.o)
 .debug_info    0x0000000000012d0f      0x1f5 /opt/microchip/xc32/v4.21/bin/bin/../../lib/gcc/pic32mx/8.3.1/../../../../pic32mx/lib/fpu64/libc-musl.a(__int_vsnprintf.o)
 .debug_info    0x0000000000012f04      0x2d0 /opt/microchip/xc32/v4.21/bin/bin/../../lib/gcc/pic32mx/8.3.1/../../../../pic32mx/lib/fpu64/libc-musl.a(__fopen.o)
 .debug_info    0x00000000000131d4       0xdf /opt/microchip/xc32/v4.21/bin/bin/../../lib/gcc/pic32mx/8.3.1/../../../../pic32mx/lib/fpu64/libc-musl.a(__io_init_needed.o)
 .debug_info    0x00000000000132b3      0x29f /opt/microchip/xc32/v4.21/bin/bin/../../lib/gcc/pic32mx/8.3.1/../../../../pic32mx/lib/fpu64/libc-musl.a(__out.o)
 .debug_info    0x0000000000013552      0x3f6 /opt/microchip/xc32/v4.21/bin/bin/../../lib/gcc/pic32mx/8.3.1/../../../../pic32mx/lib/fpu64/libc-musl.a(__stdio_close.o)
 .debug_info    0x0000000000013948      0x3ef /opt/microchip/xc32/v4.21/bin/bin/../../lib/gcc/pic32mx/8.3.1/../../../../pic32mx/lib/fpu64/libc-musl.a(vfprintf.o)
 .debug_info    0x0000000000013d37       0xab /opt/microchip/xc32/v4.21/bin/bin/../../lib/gcc/pic32mx/8.3.1/../../../../pic32mx/lib/fpu64/libc-musl.a(stpcpy.o)
 .debug_info    0x0000000000013de2      0xfed /opt/microchip/xc32/v4.21/bin/bin/../../lib/gcc/pic32mx/8.3.1/../../../../pic32mx/lib/fpu64/libc-musl.a(malloc.o)
 .debug_info    0x0000000000014dcf      0x105 /opt/microchip/xc32/v4.21/bin/bin/../../lib/gcc/pic32mx/8.3.1/../../../../pic32mx/lib/fpu64/libc-musl.a(expand_heap.o)
 .debug_info    0x0000000000014ed4       0xb9 /opt/microchip/xc32/v4.21/bin/bin/../../lib/gcc/pic32mx/8.3.1/../../../../pic32mx/lib/fpu64/libc-musl.a(__init_stdio.o)
 .debug_info    0x0000000000014f8d       0xaf /opt/microchip/xc32/v4.21/bin/bin/../../lib/gcc/pic32mx/8.3.1/../../../../pic32mx/lib/fpu64/libc-musl.a(__io_file_needed.o)
 .debug_info    0x000000000001503c      0x17e /opt/microchip/xc32/v4.21/bin/bin/../../lib/gcc/pic32mx/8.3.1/../../../../pic32mx/lib/fpu64/libc-musl.a(__io_fmt_needed.o)
 .debug_info    0x00000000000151ba      0x276 /opt/microchip/xc32/v4.21/bin/bin/../../lib/gcc/pic32mx/8.3.1/../../../../pic32mx/lib/fpu64/libc-musl.a(libc.o)
 .debug_info    0x0000000000015430      0x604 /opt/microchip/xc32/v4.21/bin/bin/../../lib/gcc/pic32mx/8.3.1/../../../../pic32mx/lib/fpu64/libc-musl.a(__fmt_a.o)
 .debug_info    0x0000000000015a34      0x1f8 /opt/microchip/xc32/v4.21/bin/bin/../../lib/gcc/pic32mx/8.3.1/../../../../pic32mx/lib/fpu64/libm-musl.a(cos.o)
 .debug_info    0x0000000000015c2c      0x16d /opt/microchip/xc32/v4.21/bin/bin/../../lib/gcc/pic32mx/8.3.1/../../../../pic32mx/lib/fpu64/libm-musl.a(floor.o)
 .debug_info    0x0000000000015d99      0x534 /opt/microchip/xc32/v4.21/bin/bin/../../lib/gcc/pic32mx/8.3.1/../../../../pic32mx/lib/fpu64/libm-musl.a(fma.o)
 .debug_info    0x00000000000162cd      0x109 /opt/microchip/xc32/v4.21/bin/bin/../../lib/gcc/pic32mx/8.3.1/../../../../pic32mx/lib/fpu64/libm-musl.a(scalbn.o)
 .debug_info    0x00000000000163d6      0x1f4 /opt/microchip/xc32/v4.21/bin/bin/../../lib/gcc/pic32mx/8.3.1/../../../../pic32mx/lib/fpu64/libm-musl.a(sin.o)
 .debug_info    0x00000000000165ca      0x17b /opt/microchip/xc32/v4.21/bin/bin/../../lib/gcc/pic32mx/8.3.1/../../../../pic32mx/lib/fpu64/libm-musl.a(__cos.o)
 .debug_info    0x0000000000016745      0x313 /opt/microchip/xc32/v4.21/bin/bin/../../lib/gcc/pic32mx/8.3.1/../../../../pic32mx/lib/fpu64/libm-musl.a(__rem_pio2.o)
 .debug_info    0x0000000000016a58      0x3c6 /opt/microchip/xc32/v4.21/bin/bin/../../lib/gcc/pic32mx/8.3.1/../../../../pic32mx/lib/fpu64/libm-musl.a(__rem_pio2_large.o)
 .debug_info    0x0000000000016e1e      0x18d /opt/microchip/xc32/v4.21/bin/bin/../../lib/gcc/pic32mx/8.3.1/../../../../pic32mx/lib/fpu64/libm-musl.a(__sin.o)
 .debug_info    0x0000000000016fab      0x1aa /opt/microchip/xc32/v4.21/bin/bin/../../lib/gcc/pic32mx/8.3.1/fpu64/libgcc.a(_lshrdi3.o)
 .debug_info    0x0000000000017155      0x1aa /opt/microchip/xc32/v4.21/bin/bin/../../lib/gcc/pic32mx/8.3.1/fpu64/libgcc.a(_ashldi3.o)
 .debug_info    0x00000000000172ff      0x6ca /opt/microchip/xc32/v4.21/bin/bin/../../lib/gcc/pic32mx/8.3.1/fpu64/libgcc.a(_udivdi3.o)
 .debug_info    0x00000000000179c9      0x73e /opt/microchip/xc32/v4.21/bin/bin/../../lib/gcc/pic32mx/8.3.1/fpu64/libgcc.a(_umoddi3.o)
 .debug_info    0x0000000000018107       0x97 /opt/microchip/xc32/v4.21/bin/bin/../../lib/gcc/pic32mx/8.3.1/../../../../pic32mx/lib/fpu64/libpic32.a(sbrk.o)
 .debug_info    0x000000000001819e       0x3f /opt/microchip/xc32/v4.21/bin/bin/../../lib/gcc/pic32mx/8.3.1/../../../../pic32mx/lib/fpu64/libpic32.a(lseek.o)
 .debug_info    0x00000000000181dd       0x3f /opt/microchip/xc32/v4.21/bin/bin/../../lib/gcc/pic32mx/8.3.1/../../../../pic32mx/lib/fpu64/libpic32.a(close.o)

.debug_abbrev   0x0000000000000000     0x7d29
 *.elf(.debug_abbrev)
 *(.debug_abbrev)
 .debug_abbrev  0x0000000000000000       0x61 build/nsensor/production/_ext/1684788505/ChrFont0.o
 .debug_abbrev  0x0000000000000061      0x18b build/nsensor/production/_ext/1684788505/dogm-graphic.o
 .debug_abbrev  0x00000000000001ec      0x1d5 build/nsensor/production/_ext/1684788505/eadog.o
 .debug_abbrev  0x00000000000003c1       0x61 build/nsensor/production/_ext/1684788505/FillPat.o
 .debug_abbrev  0x0000000000000422       0x6c build/nsensor/production/_ext/1684788505/foo.o
 .debug_abbrev  0x000000000000048e       0xf3 build/nsensor/production/_ext/1684788505/lcd_drv.o
 .debug_abbrev  0x0000000000000581      0x1cd build/nsensor/production/_ext/1684788505/OledChar.o
 .debug_abbrev  0x000000000000074e      0x243 build/nsensor/production/_ext/1684788505/OledDriver.o
 .debug_abbrev  0x0000000000000991      0x219 build/nsensor/production/_ext/1684788505/OledGrph.o
 .debug_abbrev  0x0000000000000baa      0x163 build/nsensor/production/_ext/1966772718/plib_adchs.o
 .debug_abbrev  0x0000000000000d0d      0x2a1 build/nsensor/production/_ext/1965004555/plib_canfd1.o
 .debug_abbrev  0x0000000000000fae       0xcb build/nsensor/production/_ext/619183945/plib_clk.o
 .debug_abbrev  0x0000000000001079      0x1a7 build/nsensor/production/_ext/1664108525/plib_coretimer.o
 .debug_abbrev  0x0000000000001220      0x266 build/nsensor/production/_ext/2014863652/plib_dmac.o
 .debug_abbrev  0x0000000000001486      0x17d build/nsensor/production/_ext/2014902340/plib_evic.o
 .debug_abbrev  0x0000000000001603      0x116 build/nsensor/production/_ext/2014956168/plib_gpio.o
 .debug_abbrev  0x0000000000001719      0x11d build/nsensor/production/_ext/1955707305/plib_mcpwm.o
 .debug_abbrev  0x0000000000001836      0x163 build/nsensor/production/_ext/619197180/plib_qei2.o
 .debug_abbrev  0x0000000000001999      0x204 build/nsensor/production/_ext/2015287515/plib_rtcc.o
 .debug_abbrev  0x0000000000001b9d      0x207 build/nsensor/production/_ext/1877210129/plib_spi1_master.o
 .debug_abbrev  0x0000000000001da4      0x207 build/nsensor/production/_ext/1877210129/plib_spi2_master.o
 .debug_abbrev  0x0000000000001fab       0xc9 build/nsensor/production/_ext/619200320/plib_tmr9.o
 .debug_abbrev  0x0000000000002074      0x1a7 build/nsensor/production/_ext/619200320/plib_tmr5.o
 .debug_abbrev  0x000000000000221b      0x1a7 build/nsensor/production/_ext/619200320/plib_tmr3.o
 .debug_abbrev  0x00000000000023c2      0x1a7 build/nsensor/production/_ext/619200320/plib_tmr6.o
 .debug_abbrev  0x0000000000002569      0x1a7 build/nsensor/production/_ext/619200320/plib_tmr2.o
 .debug_abbrev  0x0000000000002710      0x1e4 build/nsensor/production/_ext/2015359111/plib_uart1.o
 .debug_abbrev  0x00000000000028f4       0xad build/nsensor/production/_ext/725740559/xc32_monitor.o
 .debug_abbrev  0x00000000000029a1       0x83 build/nsensor/production/_ext/1856863253/exceptions.o
 .debug_abbrev  0x0000000000002a24       0x44 build/nsensor/production/_ext/1856863253/interrupts.o
 .debug_abbrev  0x0000000000002a68       0xae build/nsensor/production/_ext/1856863253/initialization.o
 .debug_abbrev  0x0000000000002b16      0x2a4 build/nsensor/production/_ext/1360937237/bma490l.o
 .debug_abbrev  0x0000000000002dba      0x145 build/nsensor/production/_ext/1360937237/timers.o
 .debug_abbrev  0x0000000000002eff      0x29b build/nsensor/production/_ext/1360937237/sca3300.o
 .debug_abbrev  0x000000000000319a       0xf2 build/nsensor/production/_ext/1360937237/gfx.o
 .debug_abbrev  0x000000000000328c      0x1ec build/nsensor/production/_ext/1360937237/imu.o
 .debug_abbrev  0x0000000000003478       0xdd build/nsensor/production/_ext/1360937237/pid.o
 .debug_abbrev  0x0000000000003555      0x147 build/nsensor/production/_ext/1360937237/do_fft.o
 .debug_abbrev  0x000000000000369c      0x147 build/nsensor/production/_ext/1360937237/fft.o
 .debug_abbrev  0x00000000000037e3      0x23b build/nsensor/production/_ext/1360937237/main.o
 .debug_abbrev  0x0000000000003a1e      0x1f5 build/nsensor/production/_ext/1360937237/canfd.o
 .debug_abbrev  0x0000000000003c13      0x317 build/nsensor/production/_ext/1360937237/host.o
 .debug_abbrev  0x0000000000003f2a      0x1c2 build/nsensor/production/_ext/1360937237/cmd_scanner.o
 .debug_abbrev  0x00000000000040ec       0x2e /opt/microchip/xc32/v4.21/bin/bin/../../lib/gcc/pic32mx/8.3.1/../../../../pic32mx/lib/fpu64/libpic32.a(default-on-reset.o)
 .debug_abbrev  0x000000000000411a       0x2e /opt/microchip/xc32/v4.21/bin/bin/../../lib/gcc/pic32mx/8.3.1/../../../../pic32mx/lib/fpu64/libpic32.a(default-on-bootstrap.o)
 .debug_abbrev  0x0000000000004148       0x31 /opt/microchip/xc32/v4.21/bin/bin/../../lib/gcc/pic32mx/8.3.1/../../../../pic32mx/lib/fpu64/libpic32.a(defaultinterrupt.o)
 .debug_abbrev  0x0000000000004179      0x12b /opt/microchip/xc32/v4.21/bin/bin/../../lib/gcc/pic32mx/8.3.1/../../../../pic32mx/lib/fpu64/libc-musl.a(__sio_printf_s.o)
 .debug_abbrev  0x00000000000042a4      0x100 /opt/microchip/xc32/v4.21/bin/bin/../../lib/gcc/pic32mx/8.3.1/../../../../pic32mx/lib/fpu64/libc-musl.a(__sio_snprintf_dfosux.o)
 .debug_abbrev  0x00000000000043a4      0x100 /opt/microchip/xc32/v4.21/bin/bin/../../lib/gcc/pic32mx/8.3.1/../../../../pic32mx/lib/fpu64/libc-musl.a(__sio_snprintf_dosux.o)
 .debug_abbrev  0x00000000000044a4      0x100 /opt/microchip/xc32/v4.21/bin/bin/../../lib/gcc/pic32mx/8.3.1/../../../../pic32mx/lib/fpu64/libc-musl.a(__sio_snprintf_doux.o)
 .debug_abbrev  0x00000000000045a4      0x100 /opt/microchip/xc32/v4.21/bin/bin/../../lib/gcc/pic32mx/8.3.1/../../../../pic32mx/lib/fpu64/libc-musl.a(__sio_snprintf_s.o)
 .debug_abbrev  0x00000000000046a4      0x161 /opt/microchip/xc32/v4.21/bin/bin/../../lib/gcc/pic32mx/8.3.1/../../../../pic32mx/lib/fpu64/libc-musl.a(__fmt_d.o)
 .debug_abbrev  0x0000000000004805      0x1e3 /opt/microchip/xc32/v4.21/bin/bin/../../lib/gcc/pic32mx/8.3.1/../../../../pic32mx/lib/fpu64/libc-musl.a(__fmt_fp.o)
 .debug_abbrev  0x00000000000049e8      0x161 /opt/microchip/xc32/v4.21/bin/bin/../../lib/gcc/pic32mx/8.3.1/../../../../pic32mx/lib/fpu64/libc-musl.a(__fmt_o.o)
 .debug_abbrev  0x0000000000004b49      0x14c /opt/microchip/xc32/v4.21/bin/bin/../../lib/gcc/pic32mx/8.3.1/../../../../pic32mx/lib/fpu64/libc-musl.a(__fmt_s.o)
 .debug_abbrev  0x0000000000004c95      0x193 /opt/microchip/xc32/v4.21/bin/bin/../../lib/gcc/pic32mx/8.3.1/../../../../pic32mx/lib/fpu64/libc-musl.a(__fmt_u.o)
 .debug_abbrev  0x0000000000004e28      0x150 /opt/microchip/xc32/v4.21/bin/bin/../../lib/gcc/pic32mx/8.3.1/../../../../pic32mx/lib/fpu64/libc-musl.a(__fmt_x.o)
 .debug_abbrev  0x0000000000004f78       0xc3 /opt/microchip/xc32/v4.21/bin/bin/../../lib/gcc/pic32mx/8.3.1/../../../../pic32mx/lib/fpu64/libc-musl.a(__pop_float.o)
 .debug_abbrev  0x000000000000503b       0xc3 /opt/microchip/xc32/v4.21/bin/bin/../../lib/gcc/pic32mx/8.3.1/../../../../pic32mx/lib/fpu64/libc-musl.a(__pop_int.o)
 .debug_abbrev  0x00000000000050fe       0xd7 /opt/microchip/xc32/v4.21/bin/bin/../../lib/gcc/pic32mx/8.3.1/../../../../pic32mx/lib/fpu64/libc-musl.a(__pop_ptr.o)
 .debug_abbrev  0x00000000000051d5      0x318 /opt/microchip/xc32/v4.21/bin/bin/../../lib/gcc/pic32mx/8.3.1/../../../../pic32mx/lib/fpu64/libc-musl.a(__printf_core.o)
 .debug_abbrev  0x00000000000054ed      0x17f /opt/microchip/xc32/v4.21/bin/bin/../../lib/gcc/pic32mx/8.3.1/../../../../pic32mx/lib/fpu64/libc-musl.a(stdout.o)
 .debug_abbrev  0x000000000000566c       0xdc /opt/microchip/xc32/v4.21/bin/bin/../../lib/gcc/pic32mx/8.3.1/../../../../pic32mx/lib/fpu64/libc-musl.a(vprintf.o)
 .debug_abbrev  0x0000000000005748       0xc4 /opt/microchip/xc32/v4.21/bin/bin/../../lib/gcc/pic32mx/8.3.1/../../../../pic32mx/lib/fpu64/libc-musl.a(atoi.o)
 .debug_abbrev  0x000000000000580c       0xa2 /opt/microchip/xc32/v4.21/bin/bin/../../lib/gcc/pic32mx/8.3.1/../../../../pic32mx/lib/fpu64/libc-musl.a(strcpy.o)
 .debug_abbrev  0x00000000000058ae       0xa2 /opt/microchip/xc32/v4.21/bin/bin/../../lib/gcc/pic32mx/8.3.1/../../../../pic32mx/lib/fpu64/libc-musl.a(strncmp.o)
 .debug_abbrev  0x0000000000005950       0xf1 /opt/microchip/xc32/v4.21/bin/bin/../../lib/gcc/pic32mx/8.3.1/../../../../pic32mx/lib/fpu64/libc-musl.a(tolower.o)
 .debug_abbrev  0x0000000000005a41       0xf1 /opt/microchip/xc32/v4.21/bin/bin/../../lib/gcc/pic32mx/8.3.1/../../../../pic32mx/lib/fpu64/libc-musl.a(toupper.o)
 .debug_abbrev  0x0000000000005b32      0x118 /opt/microchip/xc32/v4.21/bin/bin/../../lib/gcc/pic32mx/8.3.1/../../../../pic32mx/lib/fpu64/libc-musl.a(__int_vfprintf.o)
 .debug_abbrev  0x0000000000005c4a      0x13a /opt/microchip/xc32/v4.21/bin/bin/../../lib/gcc/pic32mx/8.3.1/../../../../pic32mx/lib/fpu64/libc-musl.a(__int_vsnprintf.o)
 .debug_abbrev  0x0000000000005d84      0x168 /opt/microchip/xc32/v4.21/bin/bin/../../lib/gcc/pic32mx/8.3.1/../../../../pic32mx/lib/fpu64/libc-musl.a(__fopen.o)
 .debug_abbrev  0x0000000000005eec       0x81 /opt/microchip/xc32/v4.21/bin/bin/../../lib/gcc/pic32mx/8.3.1/../../../../pic32mx/lib/fpu64/libc-musl.a(__io_init_needed.o)
 .debug_abbrev  0x0000000000005f6d      0x17a /opt/microchip/xc32/v4.21/bin/bin/../../lib/gcc/pic32mx/8.3.1/../../../../pic32mx/lib/fpu64/libc-musl.a(__out.o)
 .debug_abbrev  0x00000000000060e7      0x15a /opt/microchip/xc32/v4.21/bin/bin/../../lib/gcc/pic32mx/8.3.1/../../../../pic32mx/lib/fpu64/libc-musl.a(__stdio_close.o)
 .debug_abbrev  0x0000000000006241      0x178 /opt/microchip/xc32/v4.21/bin/bin/../../lib/gcc/pic32mx/8.3.1/../../../../pic32mx/lib/fpu64/libc-musl.a(vfprintf.o)
 .debug_abbrev  0x00000000000063b9       0x6e /opt/microchip/xc32/v4.21/bin/bin/../../lib/gcc/pic32mx/8.3.1/../../../../pic32mx/lib/fpu64/libc-musl.a(stpcpy.o)
 .debug_abbrev  0x0000000000006427      0x43a /opt/microchip/xc32/v4.21/bin/bin/../../lib/gcc/pic32mx/8.3.1/../../../../pic32mx/lib/fpu64/libc-musl.a(malloc.o)
 .debug_abbrev  0x0000000000006861       0xc4 /opt/microchip/xc32/v4.21/bin/bin/../../lib/gcc/pic32mx/8.3.1/../../../../pic32mx/lib/fpu64/libc-musl.a(expand_heap.o)
 .debug_abbrev  0x0000000000006925       0x65 /opt/microchip/xc32/v4.21/bin/bin/../../lib/gcc/pic32mx/8.3.1/../../../../pic32mx/lib/fpu64/libc-musl.a(__init_stdio.o)
 .debug_abbrev  0x000000000000698a       0x67 /opt/microchip/xc32/v4.21/bin/bin/../../lib/gcc/pic32mx/8.3.1/../../../../pic32mx/lib/fpu64/libc-musl.a(__io_file_needed.o)
 .debug_abbrev  0x00000000000069f1       0x67 /opt/microchip/xc32/v4.21/bin/bin/../../lib/gcc/pic32mx/8.3.1/../../../../pic32mx/lib/fpu64/libc-musl.a(__io_fmt_needed.o)
 .debug_abbrev  0x0000000000006a58       0xd4 /opt/microchip/xc32/v4.21/bin/bin/../../lib/gcc/pic32mx/8.3.1/../../../../pic32mx/lib/fpu64/libc-musl.a(libc.o)
 .debug_abbrev  0x0000000000006b2c      0x1d5 /opt/microchip/xc32/v4.21/bin/bin/../../lib/gcc/pic32mx/8.3.1/../../../../pic32mx/lib/fpu64/libc-musl.a(__fmt_a.o)
 .debug_abbrev  0x0000000000006d01      0x120 /opt/microchip/xc32/v4.21/bin/bin/../../lib/gcc/pic32mx/8.3.1/../../../../pic32mx/lib/fpu64/libm-musl.a(cos.o)
 .debug_abbrev  0x0000000000006e21      0x101 /opt/microchip/xc32/v4.21/bin/bin/../../lib/gcc/pic32mx/8.3.1/../../../../pic32mx/lib/fpu64/libm-musl.a(floor.o)
 .debug_abbrev  0x0000000000006f22      0x22d /opt/microchip/xc32/v4.21/bin/bin/../../lib/gcc/pic32mx/8.3.1/../../../../pic32mx/lib/fpu64/libm-musl.a(fma.o)
 .debug_abbrev  0x000000000000714f       0xac /opt/microchip/xc32/v4.21/bin/bin/../../lib/gcc/pic32mx/8.3.1/../../../../pic32mx/lib/fpu64/libm-musl.a(scalbn.o)
 .debug_abbrev  0x00000000000071fb      0x12b /opt/microchip/xc32/v4.21/bin/bin/../../lib/gcc/pic32mx/8.3.1/../../../../pic32mx/lib/fpu64/libm-musl.a(sin.o)
 .debug_abbrev  0x0000000000007326       0xa8 /opt/microchip/xc32/v4.21/bin/bin/../../lib/gcc/pic32mx/8.3.1/../../../../pic32mx/lib/fpu64/libm-musl.a(__cos.o)
 .debug_abbrev  0x00000000000073ce      0x140 /opt/microchip/xc32/v4.21/bin/bin/../../lib/gcc/pic32mx/8.3.1/../../../../pic32mx/lib/fpu64/libm-musl.a(__rem_pio2.o)
 .debug_abbrev  0x000000000000750e      0x159 /opt/microchip/xc32/v4.21/bin/bin/../../lib/gcc/pic32mx/8.3.1/../../../../pic32mx/lib/fpu64/libm-musl.a(__rem_pio2_large.o)
 .debug_abbrev  0x0000000000007667       0xa8 /opt/microchip/xc32/v4.21/bin/bin/../../lib/gcc/pic32mx/8.3.1/../../../../pic32mx/lib/fpu64/libm-musl.a(__sin.o)
 .debug_abbrev  0x000000000000770f      0x121 /opt/microchip/xc32/v4.21/bin/bin/../../lib/gcc/pic32mx/8.3.1/fpu64/libgcc.a(_lshrdi3.o)
 .debug_abbrev  0x0000000000007830      0x121 /opt/microchip/xc32/v4.21/bin/bin/../../lib/gcc/pic32mx/8.3.1/fpu64/libgcc.a(_ashldi3.o)
 .debug_abbrev  0x0000000000007951      0x184 /opt/microchip/xc32/v4.21/bin/bin/../../lib/gcc/pic32mx/8.3.1/fpu64/libgcc.a(_udivdi3.o)
 .debug_abbrev  0x0000000000007ad5      0x19a /opt/microchip/xc32/v4.21/bin/bin/../../lib/gcc/pic32mx/8.3.1/fpu64/libgcc.a(_umoddi3.o)
 .debug_abbrev  0x0000000000007c6f       0x5e /opt/microchip/xc32/v4.21/bin/bin/../../lib/gcc/pic32mx/8.3.1/../../../../pic32mx/lib/fpu64/libpic32.a(sbrk.o)
 .debug_abbrev  0x0000000000007ccd       0x2e /opt/microchip/xc32/v4.21/bin/bin/../../lib/gcc/pic32mx/8.3.1/../../../../pic32mx/lib/fpu64/libpic32.a(lseek.o)
 .debug_abbrev  0x0000000000007cfb       0x2e /opt/microchip/xc32/v4.21/bin/bin/../../lib/gcc/pic32mx/8.3.1/../../../../pic32mx/lib/fpu64/libpic32.a(close.o)

.debug_line     0x0000000000000000     0xf357
 *.elf(.debug_line)
 *(.debug_line)
 .debug_line    0x0000000000000000       0x8c build/nsensor/production/_ext/1684788505/ChrFont0.o
 .debug_line    0x000000000000008c      0x1db build/nsensor/production/_ext/1684788505/dogm-graphic.o
 .debug_line    0x0000000000000267      0x2ba build/nsensor/production/_ext/1684788505/eadog.o
 .debug_line    0x0000000000000521       0x8b build/nsensor/production/_ext/1684788505/FillPat.o
 .debug_line    0x00000000000005ac       0x94 build/nsensor/production/_ext/1684788505/foo.o
 .debug_line    0x0000000000000640       0xdc build/nsensor/production/_ext/1684788505/lcd_drv.o
 .debug_line    0x000000000000071c      0x1ea build/nsensor/production/_ext/1684788505/OledChar.o
 .debug_line    0x0000000000000906      0x304 build/nsensor/production/_ext/1684788505/OledDriver.o
 .debug_line    0x0000000000000c0a      0x5e9 build/nsensor/production/_ext/1684788505/OledGrph.o
 .debug_line    0x00000000000011f3      0x293 build/nsensor/production/_ext/1966772718/plib_adchs.o
 .debug_line    0x0000000000001486      0x7e8 build/nsensor/production/_ext/1965004555/plib_canfd1.o
 .debug_line    0x0000000000001c6e      0x15e build/nsensor/production/_ext/619183945/plib_clk.o
 .debug_line    0x0000000000001dcc      0x1fc build/nsensor/production/_ext/1664108525/plib_coretimer.o
 .debug_line    0x0000000000001fc8      0x67d build/nsensor/production/_ext/2014863652/plib_dmac.o
 .debug_line    0x0000000000002645      0x254 build/nsensor/production/_ext/2014902340/plib_evic.o
 .debug_line    0x0000000000002899      0x220 build/nsensor/production/_ext/2014956168/plib_gpio.o
 .debug_line    0x0000000000002ab9      0x229 build/nsensor/production/_ext/1955707305/plib_mcpwm.o
 .debug_line    0x0000000000002ce2      0x1a4 build/nsensor/production/_ext/619197180/plib_qei2.o
 .debug_line    0x0000000000002e86      0x353 build/nsensor/production/_ext/2015287515/plib_rtcc.o
 .debug_line    0x00000000000031d9      0x4ed build/nsensor/production/_ext/1877210129/plib_spi1_master.o
 .debug_line    0x00000000000036c6      0x4ed build/nsensor/production/_ext/1877210129/plib_spi2_master.o
 .debug_line    0x0000000000003bb3      0x15e build/nsensor/production/_ext/619200320/plib_tmr9.o
 .debug_line    0x0000000000003d11      0x1ad build/nsensor/production/_ext/619200320/plib_tmr5.o
 .debug_line    0x0000000000003ebe      0x1ae build/nsensor/production/_ext/619200320/plib_tmr3.o
 .debug_line    0x000000000000406c      0x1ae build/nsensor/production/_ext/619200320/plib_tmr6.o
 .debug_line    0x000000000000421a      0x1ae build/nsensor/production/_ext/619200320/plib_tmr2.o
 .debug_line    0x00000000000043c8      0x33e build/nsensor/production/_ext/2015359111/plib_uart1.o
 .debug_line    0x0000000000004706       0xeb build/nsensor/production/_ext/725740559/xc32_monitor.o
 .debug_line    0x00000000000047f1       0x92 build/nsensor/production/_ext/1856863253/exceptions.o
 .debug_line    0x0000000000004883      0x129 build/nsensor/production/_ext/1856863253/interrupts.o
 .debug_line    0x00000000000049ac      0x148 build/nsensor/production/_ext/1856863253/initialization.o
 .debug_line    0x0000000000004af4      0x2fd build/nsensor/production/_ext/1360937237/bma490l.o
 .debug_line    0x0000000000004df1      0x103 build/nsensor/production/_ext/1360937237/timers.o
 .debug_line    0x0000000000004ef4      0x438 build/nsensor/production/_ext/1360937237/sca3300.o
 .debug_line    0x000000000000532c      0x221 build/nsensor/production/_ext/1360937237/gfx.o
 .debug_line    0x000000000000554d      0x20c build/nsensor/production/_ext/1360937237/imu.o
 .debug_line    0x0000000000005759       0x9a build/nsensor/production/_ext/1360937237/pid.o
 .debug_line    0x00000000000057f3      0x151 build/nsensor/production/_ext/1360937237/do_fft.o
 .debug_line    0x0000000000005944      0x244 build/nsensor/production/_ext/1360937237/fft.o
 .debug_line    0x0000000000005b88      0x609 build/nsensor/production/_ext/1360937237/main.o
 .debug_line    0x0000000000006191      0x30f build/nsensor/production/_ext/1360937237/canfd.o
 .debug_line    0x00000000000064a0      0x668 build/nsensor/production/_ext/1360937237/host.o
 .debug_line    0x0000000000006b08      0x1aa build/nsensor/production/_ext/1360937237/cmd_scanner.o
 .debug_line    0x0000000000006cb2       0xa6 /opt/microchip/xc32/v4.21/bin/bin/../../lib/gcc/pic32mx/8.3.1/../../../../pic32mx/lib/fpu64/libpic32.a(default-on-reset.o)
 .debug_line    0x0000000000006d58       0xaa /opt/microchip/xc32/v4.21/bin/bin/../../lib/gcc/pic32mx/8.3.1/../../../../pic32mx/lib/fpu64/libpic32.a(default-on-bootstrap.o)
 .debug_line    0x0000000000006e02       0xc9 /opt/microchip/xc32/v4.21/bin/bin/../../lib/gcc/pic32mx/8.3.1/../../../../pic32mx/lib/fpu64/libpic32.a(defaultinterrupt.o)
 .debug_line    0x0000000000006ecb      0x269 /opt/microchip/xc32/v4.21/bin/bin/../../lib/gcc/pic32mx/8.3.1/../../../../pic32mx/lib/fpu64/libc-musl.a(__sio_printf_s.o)
 .debug_line    0x0000000000007134      0x201 /opt/microchip/xc32/v4.21/bin/bin/../../lib/gcc/pic32mx/8.3.1/../../../../pic32mx/lib/fpu64/libc-musl.a(__sio_snprintf_dfosux.o)
 .debug_line    0x0000000000007335      0x1fe /opt/microchip/xc32/v4.21/bin/bin/../../lib/gcc/pic32mx/8.3.1/../../../../pic32mx/lib/fpu64/libc-musl.a(__sio_snprintf_dosux.o)
 .debug_line    0x0000000000007533      0x1fd /opt/microchip/xc32/v4.21/bin/bin/../../lib/gcc/pic32mx/8.3.1/../../../../pic32mx/lib/fpu64/libc-musl.a(__sio_snprintf_doux.o)
 .debug_line    0x0000000000007730      0x1f0 /opt/microchip/xc32/v4.21/bin/bin/../../lib/gcc/pic32mx/8.3.1/../../../../pic32mx/lib/fpu64/libc-musl.a(__sio_snprintf_s.o)
 .debug_line    0x0000000000007920      0x25e /opt/microchip/xc32/v4.21/bin/bin/../../lib/gcc/pic32mx/8.3.1/../../../../pic32mx/lib/fpu64/libc-musl.a(__fmt_d.o)
 .debug_line    0x0000000000007b7e      0x6c8 /opt/microchip/xc32/v4.21/bin/bin/../../lib/gcc/pic32mx/8.3.1/../../../../pic32mx/lib/fpu64/libc-musl.a(__fmt_fp.o)
 .debug_line    0x0000000000008246      0x20f /opt/microchip/xc32/v4.21/bin/bin/../../lib/gcc/pic32mx/8.3.1/../../../../pic32mx/lib/fpu64/libc-musl.a(__fmt_o.o)
 .debug_line    0x0000000000008455      0x25d /opt/microchip/xc32/v4.21/bin/bin/../../lib/gcc/pic32mx/8.3.1/../../../../pic32mx/lib/fpu64/libc-musl.a(__fmt_s.o)
 .debug_line    0x00000000000086b2      0x2a3 /opt/microchip/xc32/v4.21/bin/bin/../../lib/gcc/pic32mx/8.3.1/../../../../pic32mx/lib/fpu64/libc-musl.a(__fmt_u.o)
 .debug_line    0x0000000000008955      0x338 /opt/microchip/xc32/v4.21/bin/bin/../../lib/gcc/pic32mx/8.3.1/../../../../pic32mx/lib/fpu64/libc-musl.a(__fmt_x.o)
 .debug_line    0x0000000000008c8d      0x1bb /opt/microchip/xc32/v4.21/bin/bin/../../lib/gcc/pic32mx/8.3.1/../../../../pic32mx/lib/fpu64/libc-musl.a(__pop_float.o)
 .debug_line    0x0000000000008e48      0x25a /opt/microchip/xc32/v4.21/bin/bin/../../lib/gcc/pic32mx/8.3.1/../../../../pic32mx/lib/fpu64/libc-musl.a(__pop_int.o)
 .debug_line    0x00000000000090a2      0x213 /opt/microchip/xc32/v4.21/bin/bin/../../lib/gcc/pic32mx/8.3.1/../../../../pic32mx/lib/fpu64/libc-musl.a(__pop_ptr.o)
 .debug_line    0x00000000000092b5      0x71a /opt/microchip/xc32/v4.21/bin/bin/../../lib/gcc/pic32mx/8.3.1/../../../../pic32mx/lib/fpu64/libc-musl.a(__printf_core.o)
 .debug_line    0x00000000000099cf      0x25d /opt/microchip/xc32/v4.21/bin/bin/../../lib/gcc/pic32mx/8.3.1/../../../../pic32mx/lib/fpu64/libc-musl.a(stdout.o)
 .debug_line    0x0000000000009c2c      0x19f /opt/microchip/xc32/v4.21/bin/bin/../../lib/gcc/pic32mx/8.3.1/../../../../pic32mx/lib/fpu64/libc-musl.a(vprintf.o)
 .debug_line    0x0000000000009dcb      0x17c /opt/microchip/xc32/v4.21/bin/bin/../../lib/gcc/pic32mx/8.3.1/../../../../pic32mx/lib/fpu64/libc-musl.a(atoi.o)
 .debug_line    0x0000000000009f47       0xb4 /opt/microchip/xc32/v4.21/bin/bin/../../lib/gcc/pic32mx/8.3.1/../../../../pic32mx/lib/fpu64/libc-musl.a(strcpy.o)
 .debug_line    0x0000000000009ffb      0x140 /opt/microchip/xc32/v4.21/bin/bin/../../lib/gcc/pic32mx/8.3.1/../../../../pic32mx/lib/fpu64/libc-musl.a(strncmp.o)
 .debug_line    0x000000000000a13b      0x1c1 /opt/microchip/xc32/v4.21/bin/bin/../../lib/gcc/pic32mx/8.3.1/../../../../pic32mx/lib/fpu64/libc-musl.a(tolower.o)
 .debug_line    0x000000000000a2fc      0x1c1 /opt/microchip/xc32/v4.21/bin/bin/../../lib/gcc/pic32mx/8.3.1/../../../../pic32mx/lib/fpu64/libc-musl.a(toupper.o)
 .debug_line    0x000000000000a4bd      0x1c9 /opt/microchip/xc32/v4.21/bin/bin/../../lib/gcc/pic32mx/8.3.1/../../../../pic32mx/lib/fpu64/libc-musl.a(__int_vfprintf.o)
 .debug_line    0x000000000000a686      0x272 /opt/microchip/xc32/v4.21/bin/bin/../../lib/gcc/pic32mx/8.3.1/../../../../pic32mx/lib/fpu64/libc-musl.a(__int_vsnprintf.o)
 .debug_line    0x000000000000a8f8      0x284 /opt/microchip/xc32/v4.21/bin/bin/../../lib/gcc/pic32mx/8.3.1/../../../../pic32mx/lib/fpu64/libc-musl.a(__fopen.o)
 .debug_line    0x000000000000ab7c      0x155 /opt/microchip/xc32/v4.21/bin/bin/../../lib/gcc/pic32mx/8.3.1/../../../../pic32mx/lib/fpu64/libc-musl.a(__io_init_needed.o)
 .debug_line    0x000000000000acd1      0x2ac /opt/microchip/xc32/v4.21/bin/bin/../../lib/gcc/pic32mx/8.3.1/../../../../pic32mx/lib/fpu64/libc-musl.a(__out.o)
 .debug_line    0x000000000000af7d      0x2f8 /opt/microchip/xc32/v4.21/bin/bin/../../lib/gcc/pic32mx/8.3.1/../../../../pic32mx/lib/fpu64/libc-musl.a(__stdio_close.o)
 .debug_line    0x000000000000b275      0x25f /opt/microchip/xc32/v4.21/bin/bin/../../lib/gcc/pic32mx/8.3.1/../../../../pic32mx/lib/fpu64/libc-musl.a(vfprintf.o)
 .debug_line    0x000000000000b4d4       0xbf /opt/microchip/xc32/v4.21/bin/bin/../../lib/gcc/pic32mx/8.3.1/../../../../pic32mx/lib/fpu64/libc-musl.a(stpcpy.o)
 .debug_line    0x000000000000b593      0xb49 /opt/microchip/xc32/v4.21/bin/bin/../../lib/gcc/pic32mx/8.3.1/../../../../pic32mx/lib/fpu64/libc-musl.a(malloc.o)
 .debug_line    0x000000000000c0dc      0x14b /opt/microchip/xc32/v4.21/bin/bin/../../lib/gcc/pic32mx/8.3.1/../../../../pic32mx/lib/fpu64/libc-musl.a(expand_heap.o)
 .debug_line    0x000000000000c227       0xd0 /opt/microchip/xc32/v4.21/bin/bin/../../lib/gcc/pic32mx/8.3.1/../../../../pic32mx/lib/fpu64/libc-musl.a(__init_stdio.o)
 .debug_line    0x000000000000c2f7       0xc4 /opt/microchip/xc32/v4.21/bin/bin/../../lib/gcc/pic32mx/8.3.1/../../../../pic32mx/lib/fpu64/libc-musl.a(__io_file_needed.o)
 .debug_line    0x000000000000c3bb       0xd0 /opt/microchip/xc32/v4.21/bin/bin/../../lib/gcc/pic32mx/8.3.1/../../../../pic32mx/lib/fpu64/libc-musl.a(__io_fmt_needed.o)
 .debug_line    0x000000000000c48b      0x112 /opt/microchip/xc32/v4.21/bin/bin/../../lib/gcc/pic32mx/8.3.1/../../../../pic32mx/lib/fpu64/libc-musl.a(libc.o)
 .debug_line    0x000000000000c59d      0x67d /opt/microchip/xc32/v4.21/bin/bin/../../lib/gcc/pic32mx/8.3.1/../../../../pic32mx/lib/fpu64/libc-musl.a(__fmt_a.o)
 .debug_line    0x000000000000cc1a      0x22d /opt/microchip/xc32/v4.21/bin/bin/../../lib/gcc/pic32mx/8.3.1/../../../../pic32mx/lib/fpu64/libm-musl.a(cos.o)
 .debug_line    0x000000000000ce47      0x18d /opt/microchip/xc32/v4.21/bin/bin/../../lib/gcc/pic32mx/8.3.1/../../../../pic32mx/lib/fpu64/libm-musl.a(floor.o)
 .debug_line    0x000000000000cfd4      0x697 /opt/microchip/xc32/v4.21/bin/bin/../../lib/gcc/pic32mx/8.3.1/../../../../pic32mx/lib/fpu64/libm-musl.a(fma.o)
 .debug_line    0x000000000000d66b      0x18d /opt/microchip/xc32/v4.21/bin/bin/../../lib/gcc/pic32mx/8.3.1/../../../../pic32mx/lib/fpu64/libm-musl.a(scalbn.o)
 .debug_line    0x000000000000d7f8      0x236 /opt/microchip/xc32/v4.21/bin/bin/../../lib/gcc/pic32mx/8.3.1/../../../../pic32mx/lib/fpu64/libm-musl.a(sin.o)
 .debug_line    0x000000000000da2e      0x17c /opt/microchip/xc32/v4.21/bin/bin/../../lib/gcc/pic32mx/8.3.1/../../../../pic32mx/lib/fpu64/libm-musl.a(__cos.o)
 .debug_line    0x000000000000dbaa      0x51f /opt/microchip/xc32/v4.21/bin/bin/../../lib/gcc/pic32mx/8.3.1/../../../../pic32mx/lib/fpu64/libm-musl.a(__rem_pio2.o)
 .debug_line    0x000000000000e0c9      0x66c /opt/microchip/xc32/v4.21/bin/bin/../../lib/gcc/pic32mx/8.3.1/../../../../pic32mx/lib/fpu64/libm-musl.a(__rem_pio2_large.o)
 .debug_line    0x000000000000e735      0x17c /opt/microchip/xc32/v4.21/bin/bin/../../lib/gcc/pic32mx/8.3.1/../../../../pic32mx/lib/fpu64/libm-musl.a(__sin.o)
 .debug_line    0x000000000000e8b1       0xe4 /opt/microchip/xc32/v4.21/bin/bin/../../lib/gcc/pic32mx/8.3.1/fpu64/libgcc.a(_lshrdi3.o)
 .debug_line    0x000000000000e995       0xe5 /opt/microchip/xc32/v4.21/bin/bin/../../lib/gcc/pic32mx/8.3.1/fpu64/libgcc.a(_ashldi3.o)
 .debug_line    0x000000000000ea7a      0x2e0 /opt/microchip/xc32/v4.21/bin/bin/../../lib/gcc/pic32mx/8.3.1/fpu64/libgcc.a(_udivdi3.o)
 .debug_line    0x000000000000ed5a      0x317 /opt/microchip/xc32/v4.21/bin/bin/../../lib/gcc/pic32mx/8.3.1/fpu64/libgcc.a(_umoddi3.o)
 .debug_line    0x000000000000f071      0x1b0 /opt/microchip/xc32/v4.21/bin/bin/../../lib/gcc/pic32mx/8.3.1/../../../../pic32mx/lib/fpu64/libpic32.a(sbrk.o)
 .debug_line    0x000000000000f221       0x9b /opt/microchip/xc32/v4.21/bin/bin/../../lib/gcc/pic32mx/8.3.1/../../../../pic32mx/lib/fpu64/libpic32.a(lseek.o)
 .debug_line    0x000000000000f2bc       0x9b /opt/microchip/xc32/v4.21/bin/bin/../../lib/gcc/pic32mx/8.3.1/../../../../pic32mx/lib/fpu64/libpic32.a(close.o)
 .debug_line    0x000000000000f357        0x0 /opt/microchip/xc32/v4.21/bin/bin/../../lib/gcc/pic32mx/8.3.1/../../../../pic32mx/lib/fpu64/libpic32.a(errno.o)

.debug_frame    0x0000000000000000     0x4ca8
 *.elf(.debug_frame)
 *(.debug_frame)
 .debug_frame   0x0000000000000000      0x1d0 build/nsensor/production/_ext/1684788505/dogm-graphic.o
 .debug_frame   0x00000000000001d0      0x320 build/nsensor/production/_ext/1684788505/eadog.o
 .debug_frame   0x00000000000004f0       0x58 build/nsensor/production/_ext/1684788505/lcd_drv.o
 .debug_frame   0x0000000000000548      0x140 build/nsensor/production/_ext/1684788505/OledChar.o
 .debug_frame   0x0000000000000688      0x2a0 build/nsensor/production/_ext/1684788505/OledDriver.o
 .debug_frame   0x0000000000000928      0x374 build/nsensor/production/_ext/1684788505/OledGrph.o
 .debug_frame   0x0000000000000c9c      0x1d4 build/nsensor/production/_ext/1966772718/plib_adchs.o
 .debug_frame   0x0000000000000e70      0x2bc build/nsensor/production/_ext/1965004555/plib_canfd1.o
 .debug_frame   0x000000000000112c       0x34 build/nsensor/production/_ext/619183945/plib_clk.o
 .debug_frame   0x0000000000001160      0x148 build/nsensor/production/_ext/1664108525/plib_coretimer.o
 .debug_frame   0x00000000000012a8      0x278 build/nsensor/production/_ext/2014863652/plib_dmac.o
 .debug_frame   0x0000000000001520      0x1e0 build/nsensor/production/_ext/2014902340/plib_evic.o
 .debug_frame   0x0000000000001700      0x134 build/nsensor/production/_ext/2014956168/plib_gpio.o
 .debug_frame   0x0000000000001834      0x230 build/nsensor/production/_ext/1955707305/plib_mcpwm.o
 .debug_frame   0x0000000000001a64      0x134 build/nsensor/production/_ext/619197180/plib_qei2.o
 .debug_frame   0x0000000000001b98      0x120 build/nsensor/production/_ext/2015287515/plib_rtcc.o
 .debug_frame   0x0000000000001cb8      0x168 build/nsensor/production/_ext/1877210129/plib_spi1_master.o
 .debug_frame   0x0000000000001e20      0x168 build/nsensor/production/_ext/1877210129/plib_spi2_master.o
 .debug_frame   0x0000000000001f88       0xf0 build/nsensor/production/_ext/619200320/plib_tmr9.o
 .debug_frame   0x0000000000002078      0x174 build/nsensor/production/_ext/619200320/plib_tmr5.o
 .debug_frame   0x00000000000021ec      0x174 build/nsensor/production/_ext/619200320/plib_tmr3.o
 .debug_frame   0x0000000000002360      0x174 build/nsensor/production/_ext/619200320/plib_tmr6.o
 .debug_frame   0x00000000000024d4      0x174 build/nsensor/production/_ext/619200320/plib_tmr2.o
 .debug_frame   0x0000000000002648      0x1bc build/nsensor/production/_ext/2015359111/plib_uart1.o
 .debug_frame   0x0000000000002804       0x58 build/nsensor/production/_ext/725740559/xc32_monitor.o
 .debug_frame   0x000000000000285c       0x48 build/nsensor/production/_ext/1856863253/exceptions.o
 .debug_frame   0x00000000000028a4      0x934 build/nsensor/production/_ext/1856863253/interrupts.o
 .debug_frame   0x00000000000031d8       0x34 build/nsensor/production/_ext/1856863253/initialization.o
 .debug_frame   0x000000000000320c      0x194 build/nsensor/production/_ext/1360937237/bma490l.o
 .debug_frame   0x00000000000033a0       0xb8 build/nsensor/production/_ext/1360937237/timers.o
 .debug_frame   0x0000000000003458      0x1b4 build/nsensor/production/_ext/1360937237/sca3300.o
 .debug_frame   0x000000000000360c       0xa0 build/nsensor/production/_ext/1360937237/gfx.o
 .debug_frame   0x00000000000036ac       0x98 build/nsensor/production/_ext/1360937237/imu.o
 .debug_frame   0x0000000000003744       0x50 build/nsensor/production/_ext/1360937237/pid.o
 .debug_frame   0x0000000000003794      0x10c build/nsensor/production/_ext/1360937237/do_fft.o
 .debug_frame   0x00000000000038a0       0xc0 build/nsensor/production/_ext/1360937237/fft.o
 .debug_frame   0x0000000000003960       0xc0 build/nsensor/production/_ext/1360937237/main.o
 .debug_frame   0x0000000000003a20      0x144 build/nsensor/production/_ext/1360937237/canfd.o
 .debug_frame   0x0000000000003b64      0x2b8 build/nsensor/production/_ext/1360937237/host.o
 .debug_frame   0x0000000000003e1c      0x10c build/nsensor/production/_ext/1360937237/cmd_scanner.o
 .debug_frame   0x0000000000003f28       0x20 /opt/microchip/xc32/v4.21/bin/bin/../../lib/gcc/pic32mx/8.3.1/../../../../pic32mx/lib/fpu64/libpic32.a(default-on-reset.o)
 .debug_frame   0x0000000000003f48       0x20 /opt/microchip/xc32/v4.21/bin/bin/../../lib/gcc/pic32mx/8.3.1/../../../../pic32mx/lib/fpu64/libpic32.a(default-on-bootstrap.o)
 .debug_frame   0x0000000000003f68       0x20 /opt/microchip/xc32/v4.21/bin/bin/../../lib/gcc/pic32mx/8.3.1/../../../../pic32mx/lib/fpu64/libpic32.a(defaultinterrupt.o)
 .debug_frame   0x0000000000003f88       0x48 /opt/microchip/xc32/v4.21/bin/bin/../../lib/gcc/pic32mx/8.3.1/../../../../pic32mx/lib/fpu64/libc-musl.a(__sio_printf_s.o)
 .debug_frame   0x0000000000003fd0       0x48 /opt/microchip/xc32/v4.21/bin/bin/../../lib/gcc/pic32mx/8.3.1/../../../../pic32mx/lib/fpu64/libc-musl.a(__sio_snprintf_dfosux.o)
 .debug_frame   0x0000000000004018       0x48 /opt/microchip/xc32/v4.21/bin/bin/../../lib/gcc/pic32mx/8.3.1/../../../../pic32mx/lib/fpu64/libc-musl.a(__sio_snprintf_dosux.o)
 .debug_frame   0x0000000000004060       0x48 /opt/microchip/xc32/v4.21/bin/bin/../../lib/gcc/pic32mx/8.3.1/../../../../pic32mx/lib/fpu64/libc-musl.a(__sio_snprintf_doux.o)
 .debug_frame   0x00000000000040a8       0x48 /opt/microchip/xc32/v4.21/bin/bin/../../lib/gcc/pic32mx/8.3.1/../../../../pic32mx/lib/fpu64/libc-musl.a(__sio_snprintf_s.o)
 .debug_frame   0x00000000000040f0       0x38 /opt/microchip/xc32/v4.21/bin/bin/../../lib/gcc/pic32mx/8.3.1/../../../../pic32mx/lib/fpu64/libc-musl.a(__fmt_d.o)
 .debug_frame   0x0000000000004128       0x50 /opt/microchip/xc32/v4.21/bin/bin/../../lib/gcc/pic32mx/8.3.1/../../../../pic32mx/lib/fpu64/libc-musl.a(__fmt_fp.o)
 .debug_frame   0x0000000000004178       0x34 /opt/microchip/xc32/v4.21/bin/bin/../../lib/gcc/pic32mx/8.3.1/../../../../pic32mx/lib/fpu64/libc-musl.a(__fmt_o.o)
 .debug_frame   0x00000000000041ac       0x34 /opt/microchip/xc32/v4.21/bin/bin/../../lib/gcc/pic32mx/8.3.1/../../../../pic32mx/lib/fpu64/libc-musl.a(__fmt_s.o)
 .debug_frame   0x00000000000041e0       0x64 /opt/microchip/xc32/v4.21/bin/bin/../../lib/gcc/pic32mx/8.3.1/../../../../pic32mx/lib/fpu64/libc-musl.a(__fmt_u.o)
 .debug_frame   0x0000000000004244       0x40 /opt/microchip/xc32/v4.21/bin/bin/../../lib/gcc/pic32mx/8.3.1/../../../../pic32mx/lib/fpu64/libc-musl.a(__fmt_x.o)
 .debug_frame   0x0000000000004284       0x20 /opt/microchip/xc32/v4.21/bin/bin/../../lib/gcc/pic32mx/8.3.1/../../../../pic32mx/lib/fpu64/libc-musl.a(__pop_float.o)
 .debug_frame   0x00000000000042a4       0x20 /opt/microchip/xc32/v4.21/bin/bin/../../lib/gcc/pic32mx/8.3.1/../../../../pic32mx/lib/fpu64/libc-musl.a(__pop_int.o)
 .debug_frame   0x00000000000042c4       0x20 /opt/microchip/xc32/v4.21/bin/bin/../../lib/gcc/pic32mx/8.3.1/../../../../pic32mx/lib/fpu64/libc-musl.a(__pop_ptr.o)
 .debug_frame   0x00000000000042e4       0xcc /opt/microchip/xc32/v4.21/bin/bin/../../lib/gcc/pic32mx/8.3.1/../../../../pic32mx/lib/fpu64/libc-musl.a(__printf_core.o)
 .debug_frame   0x00000000000043b0       0x3c /opt/microchip/xc32/v4.21/bin/bin/../../lib/gcc/pic32mx/8.3.1/../../../../pic32mx/lib/fpu64/libc-musl.a(stdout.o)
 .debug_frame   0x00000000000043ec       0x2c /opt/microchip/xc32/v4.21/bin/bin/../../lib/gcc/pic32mx/8.3.1/../../../../pic32mx/lib/fpu64/libc-musl.a(vprintf.o)
 .debug_frame   0x0000000000004418       0x20 /opt/microchip/xc32/v4.21/bin/bin/../../lib/gcc/pic32mx/8.3.1/../../../../pic32mx/lib/fpu64/libc-musl.a(atoi.o)
 .debug_frame   0x0000000000004438       0x2c /opt/microchip/xc32/v4.21/bin/bin/../../lib/gcc/pic32mx/8.3.1/../../../../pic32mx/lib/fpu64/libc-musl.a(strcpy.o)
 .debug_frame   0x0000000000004464       0x20 /opt/microchip/xc32/v4.21/bin/bin/../../lib/gcc/pic32mx/8.3.1/../../../../pic32mx/lib/fpu64/libc-musl.a(strncmp.o)
 .debug_frame   0x0000000000004484       0x3c /opt/microchip/xc32/v4.21/bin/bin/../../lib/gcc/pic32mx/8.3.1/../../../../pic32mx/lib/fpu64/libc-musl.a(tolower.o)
 .debug_frame   0x00000000000044c0       0x3c /opt/microchip/xc32/v4.21/bin/bin/../../lib/gcc/pic32mx/8.3.1/../../../../pic32mx/lib/fpu64/libc-musl.a(toupper.o)
 .debug_frame   0x00000000000044fc       0x2c /opt/microchip/xc32/v4.21/bin/bin/../../lib/gcc/pic32mx/8.3.1/../../../../pic32mx/lib/fpu64/libc-musl.a(__int_vfprintf.o)
 .debug_frame   0x0000000000004528       0x2c /opt/microchip/xc32/v4.21/bin/bin/../../lib/gcc/pic32mx/8.3.1/../../../../pic32mx/lib/fpu64/libc-musl.a(__int_vsnprintf.o)
 .debug_frame   0x0000000000004554       0x58 /opt/microchip/xc32/v4.21/bin/bin/../../lib/gcc/pic32mx/8.3.1/../../../../pic32mx/lib/fpu64/libc-musl.a(__fopen.o)
 .debug_frame   0x00000000000045ac       0x48 /opt/microchip/xc32/v4.21/bin/bin/../../lib/gcc/pic32mx/8.3.1/../../../../pic32mx/lib/fpu64/libc-musl.a(__io_init_needed.o)
 .debug_frame   0x00000000000045f4       0x50 /opt/microchip/xc32/v4.21/bin/bin/../../lib/gcc/pic32mx/8.3.1/../../../../pic32mx/lib/fpu64/libc-musl.a(__out.o)
 .debug_frame   0x0000000000004644       0x50 /opt/microchip/xc32/v4.21/bin/bin/../../lib/gcc/pic32mx/8.3.1/../../../../pic32mx/lib/fpu64/libc-musl.a(__stdio_close.o)
 .debug_frame   0x0000000000004694       0x48 /opt/microchip/xc32/v4.21/bin/bin/../../lib/gcc/pic32mx/8.3.1/../../../../pic32mx/lib/fpu64/libc-musl.a(vfprintf.o)
 .debug_frame   0x00000000000046dc       0x20 /opt/microchip/xc32/v4.21/bin/bin/../../lib/gcc/pic32mx/8.3.1/../../../../pic32mx/lib/fpu64/libc-musl.a(stpcpy.o)
 .debug_frame   0x00000000000046fc      0x168 /opt/microchip/xc32/v4.21/bin/bin/../../lib/gcc/pic32mx/8.3.1/../../../../pic32mx/lib/fpu64/libc-musl.a(malloc.o)
 .debug_frame   0x0000000000004864       0x2c /opt/microchip/xc32/v4.21/bin/bin/../../lib/gcc/pic32mx/8.3.1/../../../../pic32mx/lib/fpu64/libc-musl.a(expand_heap.o)
 .debug_frame   0x0000000000004890       0x3c /opt/microchip/xc32/v4.21/bin/bin/../../lib/gcc/pic32mx/8.3.1/../../../../pic32mx/lib/fpu64/libc-musl.a(__init_stdio.o)
 .debug_frame   0x00000000000048cc       0x2c /opt/microchip/xc32/v4.21/bin/bin/../../lib/gcc/pic32mx/8.3.1/../../../../pic32mx/lib/fpu64/libc-musl.a(__io_file_needed.o)
 .debug_frame   0x00000000000048f8       0x2c /opt/microchip/xc32/v4.21/bin/bin/../../lib/gcc/pic32mx/8.3.1/../../../../pic32mx/lib/fpu64/libc-musl.a(__io_fmt_needed.o)
 .debug_frame   0x0000000000004924       0x58 /opt/microchip/xc32/v4.21/bin/bin/../../lib/gcc/pic32mx/8.3.1/../../../../pic32mx/lib/fpu64/libc-musl.a(__fmt_a.o)
 .debug_frame   0x000000000000497c       0x2c /opt/microchip/xc32/v4.21/bin/bin/../../lib/gcc/pic32mx/8.3.1/../../../../pic32mx/lib/fpu64/libm-musl.a(cos.o)
 .debug_frame   0x00000000000049a8       0x2c /opt/microchip/xc32/v4.21/bin/bin/../../lib/gcc/pic32mx/8.3.1/../../../../pic32mx/lib/fpu64/libm-musl.a(floor.o)
 .debug_frame   0x00000000000049d4       0x64 /opt/microchip/xc32/v4.21/bin/bin/../../lib/gcc/pic32mx/8.3.1/../../../../pic32mx/lib/fpu64/libm-musl.a(fma.o)
 .debug_frame   0x0000000000004a38       0x20 /opt/microchip/xc32/v4.21/bin/bin/../../lib/gcc/pic32mx/8.3.1/../../../../pic32mx/lib/fpu64/libm-musl.a(scalbn.o)
 .debug_frame   0x0000000000004a58       0x2c /opt/microchip/xc32/v4.21/bin/bin/../../lib/gcc/pic32mx/8.3.1/../../../../pic32mx/lib/fpu64/libm-musl.a(sin.o)
 .debug_frame   0x0000000000004a84       0x20 /opt/microchip/xc32/v4.21/bin/bin/../../lib/gcc/pic32mx/8.3.1/../../../../pic32mx/lib/fpu64/libm-musl.a(__cos.o)
 .debug_frame   0x0000000000004aa4       0x30 /opt/microchip/xc32/v4.21/bin/bin/../../lib/gcc/pic32mx/8.3.1/../../../../pic32mx/lib/fpu64/libm-musl.a(__rem_pio2.o)
 .debug_frame   0x0000000000004ad4       0x58 /opt/microchip/xc32/v4.21/bin/bin/../../lib/gcc/pic32mx/8.3.1/../../../../pic32mx/lib/fpu64/libm-musl.a(__rem_pio2_large.o)
 .debug_frame   0x0000000000004b2c       0x20 /opt/microchip/xc32/v4.21/bin/bin/../../lib/gcc/pic32mx/8.3.1/../../../../pic32mx/lib/fpu64/libm-musl.a(__sin.o)
 .debug_frame   0x0000000000004b4c       0x20 /opt/microchip/xc32/v4.21/bin/bin/../../lib/gcc/pic32mx/8.3.1/fpu64/libgcc.a(_lshrdi3.o)
 .debug_frame   0x0000000000004b6c       0x20 /opt/microchip/xc32/v4.21/bin/bin/../../lib/gcc/pic32mx/8.3.1/fpu64/libgcc.a(_ashldi3.o)
 .debug_frame   0x0000000000004b8c       0x20 /opt/microchip/xc32/v4.21/bin/bin/../../lib/gcc/pic32mx/8.3.1/fpu64/libgcc.a(_udivdi3.o)
 .debug_frame   0x0000000000004bac       0x20 /opt/microchip/xc32/v4.21/bin/bin/../../lib/gcc/pic32mx/8.3.1/fpu64/libgcc.a(_umoddi3.o)
 .debug_frame   0x0000000000004bcc       0x9c /opt/microchip/xc32/v4.21/bin/bin/../../lib/gcc/pic32mx/8.3.1/../../../../pic32mx/lib/fpu64/libpic32.a(sbrk.o)
 .debug_frame   0x0000000000004c68       0x20 /opt/microchip/xc32/v4.21/bin/bin/../../lib/gcc/pic32mx/8.3.1/../../../../pic32mx/lib/fpu64/libpic32.a(lseek.o)
 .debug_frame   0x0000000000004c88       0x20 /opt/microchip/xc32/v4.21/bin/bin/../../lib/gcc/pic32mx/8.3.1/../../../../pic32mx/lib/fpu64/libpic32.a(close.o)

.debug_str      0x0000000000000000    0x1cb53
 *.elf(.debug_str)
 *(.debug_str)
 .debug_str     0x0000000000000000      0x278 build/nsensor/production/_ext/1684788505/ChrFont0.o
 .debug_str     0x0000000000000278      0x3da build/nsensor/production/_ext/1684788505/dogm-graphic.o
 .debug_str     0x0000000000000652      0x532 build/nsensor/production/_ext/1684788505/eadog.o
 .debug_str     0x0000000000000b84      0x275 build/nsensor/production/_ext/1684788505/FillPat.o
 .debug_str     0x0000000000000df9      0x2a0 build/nsensor/production/_ext/1684788505/foo.o
 .debug_str     0x0000000000001099      0x2f4 build/nsensor/production/_ext/1684788505/lcd_drv.o
 .debug_str     0x000000000000138d      0x3ed build/nsensor/production/_ext/1684788505/OledChar.o
 .debug_str     0x000000000000177a      0x73e build/nsensor/production/_ext/1684788505/OledDriver.o
 .debug_str     0x0000000000001eb8      0x5aa build/nsensor/production/_ext/1684788505/OledGrph.o
 .debug_str     0x0000000000002462      0x932 build/nsensor/production/_ext/1966772718/plib_adchs.o
 .debug_str     0x0000000000002d94      0x9c4 build/nsensor/production/_ext/1965004555/plib_canfd1.o
 .debug_str     0x0000000000003758      0x40b build/nsensor/production/_ext/619183945/plib_clk.o
 .debug_str     0x0000000000003b63      0x4eb build/nsensor/production/_ext/1664108525/plib_coretimer.o
 .debug_str     0x000000000000404e      0xa15 build/nsensor/production/_ext/2014863652/plib_dmac.o
 .debug_str     0x0000000000004a63     0x12eb build/nsensor/production/_ext/2014902340/plib_evic.o
 .debug_str     0x0000000000005d4e      0x516 build/nsensor/production/_ext/2014956168/plib_gpio.o
 .debug_str     0x0000000000006264      0x608 build/nsensor/production/_ext/1955707305/plib_mcpwm.o
 .debug_str     0x000000000000686c      0x500 build/nsensor/production/_ext/619197180/plib_qei2.o
 .debug_str     0x0000000000006d6c      0x669 build/nsensor/production/_ext/2015287515/plib_rtcc.o
 .debug_str     0x00000000000073d5      0x661 build/nsensor/production/_ext/1877210129/plib_spi1_master.o
 .debug_str     0x0000000000007a36      0x661 build/nsensor/production/_ext/1877210129/plib_spi2_master.o
 .debug_str     0x0000000000008097      0x336 build/nsensor/production/_ext/619200320/plib_tmr9.o
 .debug_str     0x00000000000083cd      0x4c7 build/nsensor/production/_ext/619200320/plib_tmr5.o
 .debug_str     0x0000000000008894      0x4d0 build/nsensor/production/_ext/619200320/plib_tmr3.o
 .debug_str     0x0000000000008d64      0x4b2 build/nsensor/production/_ext/619200320/plib_tmr6.o
 .debug_str     0x0000000000009216      0x4d0 build/nsensor/production/_ext/619200320/plib_tmr2.o
 .debug_str     0x00000000000096e6      0x5eb build/nsensor/production/_ext/2015359111/plib_uart1.o
 .debug_str     0x0000000000009cd1      0x2df build/nsensor/production/_ext/725740559/xc32_monitor.o
 .debug_str     0x0000000000009fb0      0x38f build/nsensor/production/_ext/1856863253/exceptions.o
 .debug_str     0x000000000000a33f      0x383 build/nsensor/production/_ext/1856863253/interrupts.o
 .debug_str     0x000000000000a6c2      0x358 build/nsensor/production/_ext/1856863253/initialization.o
 .debug_str     0x000000000000aa1a      0x549 build/nsensor/production/_ext/1360937237/bma490l.o
 .debug_str     0x000000000000af63      0x340 build/nsensor/production/_ext/1360937237/timers.o
 .debug_str     0x000000000000b2a3      0x774 build/nsensor/production/_ext/1360937237/sca3300.o
 .debug_str     0x000000000000ba17      0x31e build/nsensor/production/_ext/1360937237/gfx.o
 .debug_str     0x000000000000bd35      0x614 build/nsensor/production/_ext/1360937237/imu.o
 .debug_str     0x000000000000c349      0x2ea build/nsensor/production/_ext/1360937237/pid.o
 .debug_str     0x000000000000c633      0x362 build/nsensor/production/_ext/1360937237/do_fft.o
 .debug_str     0x000000000000c995      0x2d9 build/nsensor/production/_ext/1360937237/fft.o
 .debug_str     0x000000000000cc6e      0xada build/nsensor/production/_ext/1360937237/main.o
 .debug_str     0x000000000000d748      0x9a8 build/nsensor/production/_ext/1360937237/canfd.o
 .debug_str     0x000000000000e0f0      0xe06 build/nsensor/production/_ext/1360937237/host.o
 .debug_str     0x000000000000eef6      0x38e build/nsensor/production/_ext/1360937237/cmd_scanner.o
 .debug_str     0x000000000000f284      0x35a /opt/microchip/xc32/v4.21/bin/bin/../../lib/gcc/pic32mx/8.3.1/../../../../pic32mx/lib/fpu64/libpic32.a(default-on-reset.o)
 .debug_str     0x000000000000f5de      0x362 /opt/microchip/xc32/v4.21/bin/bin/../../lib/gcc/pic32mx/8.3.1/../../../../pic32mx/lib/fpu64/libpic32.a(default-on-bootstrap.o)
 .debug_str     0x000000000000f940      0x374 /opt/microchip/xc32/v4.21/bin/bin/../../lib/gcc/pic32mx/8.3.1/../../../../pic32mx/lib/fpu64/libpic32.a(defaultinterrupt.o)
 .debug_str     0x000000000000fcb4      0x3d8 /opt/microchip/xc32/v4.21/bin/bin/../../lib/gcc/pic32mx/8.3.1/../../../../pic32mx/lib/fpu64/libc-musl.a(__sio_printf_s.o)
 .debug_str     0x000000000001008c      0x45a /opt/microchip/xc32/v4.21/bin/bin/../../lib/gcc/pic32mx/8.3.1/../../../../pic32mx/lib/fpu64/libc-musl.a(__sio_snprintf_dfosux.o)
 .debug_str     0x00000000000104e6      0x436 /opt/microchip/xc32/v4.21/bin/bin/../../lib/gcc/pic32mx/8.3.1/../../../../pic32mx/lib/fpu64/libc-musl.a(__sio_snprintf_dosux.o)
 .debug_str     0x000000000001091c      0x434 /opt/microchip/xc32/v4.21/bin/bin/../../lib/gcc/pic32mx/8.3.1/../../../../pic32mx/lib/fpu64/libc-musl.a(__sio_snprintf_doux.o)
 .debug_str     0x0000000000010d50      0x3d0 /opt/microchip/xc32/v4.21/bin/bin/../../lib/gcc/pic32mx/8.3.1/../../../../pic32mx/lib/fpu64/libc-musl.a(__sio_snprintf_s.o)
 .debug_str     0x0000000000011120      0x3ee /opt/microchip/xc32/v4.21/bin/bin/../../lib/gcc/pic32mx/8.3.1/../../../../pic32mx/lib/fpu64/libc-musl.a(__fmt_d.o)
 .debug_str     0x000000000001150e      0x44d /opt/microchip/xc32/v4.21/bin/bin/../../lib/gcc/pic32mx/8.3.1/../../../../pic32mx/lib/fpu64/libc-musl.a(__fmt_fp.o)
 .debug_str     0x000000000001195b      0x3ee /opt/microchip/xc32/v4.21/bin/bin/../../lib/gcc/pic32mx/8.3.1/../../../../pic32mx/lib/fpu64/libc-musl.a(__fmt_o.o)
 .debug_str     0x0000000000011d49      0x3da /opt/microchip/xc32/v4.21/bin/bin/../../lib/gcc/pic32mx/8.3.1/../../../../pic32mx/lib/fpu64/libc-musl.a(__fmt_s.o)
 .debug_str     0x0000000000012123      0x3f3 /opt/microchip/xc32/v4.21/bin/bin/../../lib/gcc/pic32mx/8.3.1/../../../../pic32mx/lib/fpu64/libc-musl.a(__fmt_u.o)
 .debug_str     0x0000000000012516      0x3ee /opt/microchip/xc32/v4.21/bin/bin/../../lib/gcc/pic32mx/8.3.1/../../../../pic32mx/lib/fpu64/libc-musl.a(__fmt_x.o)
 .debug_str     0x0000000000012904      0x3bc /opt/microchip/xc32/v4.21/bin/bin/../../lib/gcc/pic32mx/8.3.1/../../../../pic32mx/lib/fpu64/libc-musl.a(__pop_float.o)
 .debug_str     0x0000000000012cc0      0x3c7 /opt/microchip/xc32/v4.21/bin/bin/../../lib/gcc/pic32mx/8.3.1/../../../../pic32mx/lib/fpu64/libc-musl.a(__pop_int.o)
 .debug_str     0x0000000000013087      0x3c9 /opt/microchip/xc32/v4.21/bin/bin/../../lib/gcc/pic32mx/8.3.1/../../../../pic32mx/lib/fpu64/libc-musl.a(__pop_ptr.o)
 .debug_str     0x0000000000013450      0x4d6 /opt/microchip/xc32/v4.21/bin/bin/../../lib/gcc/pic32mx/8.3.1/../../../../pic32mx/lib/fpu64/libc-musl.a(__printf_core.o)
 .debug_str     0x0000000000013926      0x484 /opt/microchip/xc32/v4.21/bin/bin/../../lib/gcc/pic32mx/8.3.1/../../../../pic32mx/lib/fpu64/libc-musl.a(stdout.o)
 .debug_str     0x0000000000013daa      0x34d /opt/microchip/xc32/v4.21/bin/bin/../../lib/gcc/pic32mx/8.3.1/../../../../pic32mx/lib/fpu64/libc-musl.a(vprintf.o)
 .debug_str     0x00000000000140f7      0x327 /opt/microchip/xc32/v4.21/bin/bin/../../lib/gcc/pic32mx/8.3.1/../../../../pic32mx/lib/fpu64/libc-musl.a(atoi.o)
 .debug_str     0x000000000001441e      0x318 /opt/microchip/xc32/v4.21/bin/bin/../../lib/gcc/pic32mx/8.3.1/../../../../pic32mx/lib/fpu64/libc-musl.a(strcpy.o)
 .debug_str     0x0000000000014736      0x321 /opt/microchip/xc32/v4.21/bin/bin/../../lib/gcc/pic32mx/8.3.1/../../../../pic32mx/lib/fpu64/libc-musl.a(strncmp.o)
 .debug_str     0x0000000000014a57      0x354 /opt/microchip/xc32/v4.21/bin/bin/../../lib/gcc/pic32mx/8.3.1/../../../../pic32mx/lib/fpu64/libc-musl.a(tolower.o)
 .debug_str     0x0000000000014dab      0x354 /opt/microchip/xc32/v4.21/bin/bin/../../lib/gcc/pic32mx/8.3.1/../../../../pic32mx/lib/fpu64/libc-musl.a(toupper.o)
 .debug_str     0x00000000000150ff      0x3e5 /opt/microchip/xc32/v4.21/bin/bin/../../lib/gcc/pic32mx/8.3.1/../../../../pic32mx/lib/fpu64/libc-musl.a(__int_vfprintf.o)
 .debug_str     0x00000000000154e4      0x3ea /opt/microchip/xc32/v4.21/bin/bin/../../lib/gcc/pic32mx/8.3.1/../../../../pic32mx/lib/fpu64/libc-musl.a(__int_vsnprintf.o)
 .debug_str     0x00000000000158ce      0x3ff /opt/microchip/xc32/v4.21/bin/bin/../../lib/gcc/pic32mx/8.3.1/../../../../pic32mx/lib/fpu64/libc-musl.a(__fopen.o)
 .debug_str     0x0000000000015ccd      0x3cd /opt/microchip/xc32/v4.21/bin/bin/../../lib/gcc/pic32mx/8.3.1/../../../../pic32mx/lib/fpu64/libc-musl.a(__io_init_needed.o)
 .debug_str     0x000000000001609a      0x3d3 /opt/microchip/xc32/v4.21/bin/bin/../../lib/gcc/pic32mx/8.3.1/../../../../pic32mx/lib/fpu64/libc-musl.a(__out.o)
 .debug_str     0x000000000001646d      0x456 /opt/microchip/xc32/v4.21/bin/bin/../../lib/gcc/pic32mx/8.3.1/../../../../pic32mx/lib/fpu64/libc-musl.a(__stdio_close.o)
 .debug_str     0x00000000000168c3      0x47b /opt/microchip/xc32/v4.21/bin/bin/../../lib/gcc/pic32mx/8.3.1/../../../../pic32mx/lib/fpu64/libc-musl.a(vfprintf.o)
 .debug_str     0x0000000000016d3e      0x328 /opt/microchip/xc32/v4.21/bin/bin/../../lib/gcc/pic32mx/8.3.1/../../../../pic32mx/lib/fpu64/libc-musl.a(stpcpy.o)
 .debug_str     0x0000000000017066      0x59f /opt/microchip/xc32/v4.21/bin/bin/../../lib/gcc/pic32mx/8.3.1/../../../../pic32mx/lib/fpu64/libc-musl.a(malloc.o)
 .debug_str     0x0000000000017605      0x39e /opt/microchip/xc32/v4.21/bin/bin/../../lib/gcc/pic32mx/8.3.1/../../../../pic32mx/lib/fpu64/libc-musl.a(expand_heap.o)
 .debug_str     0x00000000000179a3      0x393 /opt/microchip/xc32/v4.21/bin/bin/../../lib/gcc/pic32mx/8.3.1/../../../../pic32mx/lib/fpu64/libc-musl.a(__init_stdio.o)
 .debug_str     0x0000000000017d36      0x3a0 /opt/microchip/xc32/v4.21/bin/bin/../../lib/gcc/pic32mx/8.3.1/../../../../pic32mx/lib/fpu64/libc-musl.a(__io_file_needed.o)
 .debug_str     0x00000000000180d6      0x42f /opt/microchip/xc32/v4.21/bin/bin/../../lib/gcc/pic32mx/8.3.1/../../../../pic32mx/lib/fpu64/libc-musl.a(__io_fmt_needed.o)
 .debug_str     0x0000000000018505      0x440 /opt/microchip/xc32/v4.21/bin/bin/../../lib/gcc/pic32mx/8.3.1/../../../../pic32mx/lib/fpu64/libc-musl.a(libc.o)
 .debug_str     0x0000000000018945      0x42c /opt/microchip/xc32/v4.21/bin/bin/../../lib/gcc/pic32mx/8.3.1/../../../../pic32mx/lib/fpu64/libc-musl.a(__fmt_a.o)
 .debug_str     0x0000000000018d71      0x390 /opt/microchip/xc32/v4.21/bin/bin/../../lib/gcc/pic32mx/8.3.1/../../../../pic32mx/lib/fpu64/libm-musl.a(cos.o)
 .debug_str     0x0000000000019101      0x387 /opt/microchip/xc32/v4.21/bin/bin/../../lib/gcc/pic32mx/8.3.1/../../../../pic32mx/lib/fpu64/libm-musl.a(floor.o)
 .debug_str     0x0000000000019488      0x3bf /opt/microchip/xc32/v4.21/bin/bin/../../lib/gcc/pic32mx/8.3.1/../../../../pic32mx/lib/fpu64/libm-musl.a(fma.o)
 .debug_str     0x0000000000019847      0x377 /opt/microchip/xc32/v4.21/bin/bin/../../lib/gcc/pic32mx/8.3.1/../../../../pic32mx/lib/fpu64/libm-musl.a(scalbn.o)
 .debug_str     0x0000000000019bbe      0x390 /opt/microchip/xc32/v4.21/bin/bin/../../lib/gcc/pic32mx/8.3.1/../../../../pic32mx/lib/fpu64/libm-musl.a(sin.o)
 .debug_str     0x0000000000019f4e      0x36c /opt/microchip/xc32/v4.21/bin/bin/../../lib/gcc/pic32mx/8.3.1/../../../../pic32mx/lib/fpu64/libm-musl.a(__cos.o)
 .debug_str     0x000000000001a2ba      0x3e8 /opt/microchip/xc32/v4.21/bin/bin/../../lib/gcc/pic32mx/8.3.1/../../../../pic32mx/lib/fpu64/libm-musl.a(__rem_pio2.o)
 .debug_str     0x000000000001a6a2      0x3b6 /opt/microchip/xc32/v4.21/bin/bin/../../lib/gcc/pic32mx/8.3.1/../../../../pic32mx/lib/fpu64/libm-musl.a(__rem_pio2_large.o)
 .debug_str     0x000000000001aa58      0x36c /opt/microchip/xc32/v4.21/bin/bin/../../lib/gcc/pic32mx/8.3.1/../../../../pic32mx/lib/fpu64/libm-musl.a(__sin.o)
 .debug_str     0x000000000001adc4      0x3f0 /opt/microchip/xc32/v4.21/bin/bin/../../lib/gcc/pic32mx/8.3.1/fpu64/libgcc.a(_lshrdi3.o)
 .debug_str     0x000000000001b1b4      0x3f0 /opt/microchip/xc32/v4.21/bin/bin/../../lib/gcc/pic32mx/8.3.1/fpu64/libgcc.a(_ashldi3.o)
 .debug_str     0x000000000001b5a4      0x42d /opt/microchip/xc32/v4.21/bin/bin/../../lib/gcc/pic32mx/8.3.1/fpu64/libgcc.a(_udivdi3.o)
 .debug_str     0x000000000001b9d1      0x42d /opt/microchip/xc32/v4.21/bin/bin/../../lib/gcc/pic32mx/8.3.1/fpu64/libgcc.a(_umoddi3.o)
 .debug_str     0x000000000001bdfe      0x37a /opt/microchip/xc32/v4.21/bin/bin/../../lib/gcc/pic32mx/8.3.1/../../../../pic32mx/lib/fpu64/libpic32.a(sbrk.o)
 .debug_str     0x000000000001c178      0x34b /opt/microchip/xc32/v4.21/bin/bin/../../lib/gcc/pic32mx/8.3.1/../../../../pic32mx/lib/fpu64/libpic32.a(lseek.o)
 .debug_str     0x000000000001c4c3      0x34b /opt/microchip/xc32/v4.21/bin/bin/../../lib/gcc/pic32mx/8.3.1/../../../../pic32mx/lib/fpu64/libpic32.a(close.o)
 .debug_str     0x000000000001c80e      0x345 /opt/microchip/xc32/v4.21/bin/bin/../../lib/gcc/pic32mx/8.3.1/../../../../pic32mx/lib/fpu64/libpic32.a(errno.o)

.debug_loc      0x0000000000000000     0x7cef
 *.elf(.debug_loc)
 *(.debug_loc)
 .debug_loc     0x0000000000000000       0x47 /opt/microchip/xc32/v4.21/bin/bin/../../lib/gcc/pic32mx/8.3.1/../../../../pic32mx/lib/fpu64/libc-musl.a(__sio_printf_s.o)
 .debug_loc     0x0000000000000047       0x84 /opt/microchip/xc32/v4.21/bin/bin/../../lib/gcc/pic32mx/8.3.1/../../../../pic32mx/lib/fpu64/libc-musl.a(__sio_snprintf_dfosux.o)
 .debug_loc     0x00000000000000cb       0x84 /opt/microchip/xc32/v4.21/bin/bin/../../lib/gcc/pic32mx/8.3.1/../../../../pic32mx/lib/fpu64/libc-musl.a(__sio_snprintf_dosux.o)
 .debug_loc     0x000000000000014f       0x84 /opt/microchip/xc32/v4.21/bin/bin/../../lib/gcc/pic32mx/8.3.1/../../../../pic32mx/lib/fpu64/libc-musl.a(__sio_snprintf_doux.o)
 .debug_loc     0x00000000000001d3       0x84 /opt/microchip/xc32/v4.21/bin/bin/../../lib/gcc/pic32mx/8.3.1/../../../../pic32mx/lib/fpu64/libc-musl.a(__sio_snprintf_s.o)
 .debug_loc     0x0000000000000257      0x241 /opt/microchip/xc32/v4.21/bin/bin/../../lib/gcc/pic32mx/8.3.1/../../../../pic32mx/lib/fpu64/libc-musl.a(__fmt_d.o)
 .debug_loc     0x0000000000000498      0xc99 /opt/microchip/xc32/v4.21/bin/bin/../../lib/gcc/pic32mx/8.3.1/../../../../pic32mx/lib/fpu64/libc-musl.a(__fmt_fp.o)
 .debug_loc     0x0000000000001131       0xf2 /opt/microchip/xc32/v4.21/bin/bin/../../lib/gcc/pic32mx/8.3.1/../../../../pic32mx/lib/fpu64/libc-musl.a(__fmt_o.o)
 .debug_loc     0x0000000000001223      0x11f /opt/microchip/xc32/v4.21/bin/bin/../../lib/gcc/pic32mx/8.3.1/../../../../pic32mx/lib/fpu64/libc-musl.a(__fmt_s.o)
 .debug_loc     0x0000000000001342      0x2f0 /opt/microchip/xc32/v4.21/bin/bin/../../lib/gcc/pic32mx/8.3.1/../../../../pic32mx/lib/fpu64/libc-musl.a(__fmt_u.o)
 .debug_loc     0x0000000000001632      0x2b8 /opt/microchip/xc32/v4.21/bin/bin/../../lib/gcc/pic32mx/8.3.1/../../../../pic32mx/lib/fpu64/libc-musl.a(__fmt_x.o)
 .debug_loc     0x00000000000018ea       0x40 /opt/microchip/xc32/v4.21/bin/bin/../../lib/gcc/pic32mx/8.3.1/../../../../pic32mx/lib/fpu64/libc-musl.a(__pop_ptr.o)
 .debug_loc     0x000000000000192a      0x51f /opt/microchip/xc32/v4.21/bin/bin/../../lib/gcc/pic32mx/8.3.1/../../../../pic32mx/lib/fpu64/libc-musl.a(__printf_core.o)
 .debug_loc     0x0000000000001e49       0x64 /opt/microchip/xc32/v4.21/bin/bin/../../lib/gcc/pic32mx/8.3.1/../../../../pic32mx/lib/fpu64/libc-musl.a(vprintf.o)
 .debug_loc     0x0000000000001ead       0xbe /opt/microchip/xc32/v4.21/bin/bin/../../lib/gcc/pic32mx/8.3.1/../../../../pic32mx/lib/fpu64/libc-musl.a(atoi.o)
 .debug_loc     0x0000000000001f6b       0x54 /opt/microchip/xc32/v4.21/bin/bin/../../lib/gcc/pic32mx/8.3.1/../../../../pic32mx/lib/fpu64/libc-musl.a(strcpy.o)
 .debug_loc     0x0000000000001fbf       0xec /opt/microchip/xc32/v4.21/bin/bin/../../lib/gcc/pic32mx/8.3.1/../../../../pic32mx/lib/fpu64/libc-musl.a(strncmp.o)
 .debug_loc     0x00000000000020ab       0x9f /opt/microchip/xc32/v4.21/bin/bin/../../lib/gcc/pic32mx/8.3.1/../../../../pic32mx/lib/fpu64/libc-musl.a(__int_vfprintf.o)
 .debug_loc     0x000000000000214a      0x113 /opt/microchip/xc32/v4.21/bin/bin/../../lib/gcc/pic32mx/8.3.1/../../../../pic32mx/lib/fpu64/libc-musl.a(__int_vsnprintf.o)
 .debug_loc     0x000000000000225d       0x2f /opt/microchip/xc32/v4.21/bin/bin/../../lib/gcc/pic32mx/8.3.1/../../../../pic32mx/lib/fpu64/libc-musl.a(__fopen.o)
 .debug_loc     0x000000000000228c      0x1ab /opt/microchip/xc32/v4.21/bin/bin/../../lib/gcc/pic32mx/8.3.1/../../../../pic32mx/lib/fpu64/libc-musl.a(__out.o)
 .debug_loc     0x0000000000002437      0x130 /opt/microchip/xc32/v4.21/bin/bin/../../lib/gcc/pic32mx/8.3.1/../../../../pic32mx/lib/fpu64/libc-musl.a(__stdio_close.o)
 .debug_loc     0x0000000000002567       0x9f /opt/microchip/xc32/v4.21/bin/bin/../../lib/gcc/pic32mx/8.3.1/../../../../pic32mx/lib/fpu64/libc-musl.a(vfprintf.o)
 .debug_loc     0x0000000000002606       0x51 /opt/microchip/xc32/v4.21/bin/bin/../../lib/gcc/pic32mx/8.3.1/../../../../pic32mx/lib/fpu64/libc-musl.a(stpcpy.o)
 .debug_loc     0x0000000000002657      0xbd3 /opt/microchip/xc32/v4.21/bin/bin/../../lib/gcc/pic32mx/8.3.1/../../../../pic32mx/lib/fpu64/libc-musl.a(malloc.o)
 .debug_loc     0x000000000000322a       0x4f /opt/microchip/xc32/v4.21/bin/bin/../../lib/gcc/pic32mx/8.3.1/../../../../pic32mx/lib/fpu64/libc-musl.a(expand_heap.o)
 .debug_loc     0x0000000000003279      0xb85 /opt/microchip/xc32/v4.21/bin/bin/../../lib/gcc/pic32mx/8.3.1/../../../../pic32mx/lib/fpu64/libc-musl.a(__fmt_a.o)
 .debug_loc     0x0000000000003dfe      0x11f /opt/microchip/xc32/v4.21/bin/bin/../../lib/gcc/pic32mx/8.3.1/../../../../pic32mx/lib/fpu64/libm-musl.a(cos.o)
 .debug_loc     0x0000000000003f1d       0x7e /opt/microchip/xc32/v4.21/bin/bin/../../lib/gcc/pic32mx/8.3.1/../../../../pic32mx/lib/fpu64/libm-musl.a(floor.o)
 .debug_loc     0x0000000000003f9b      0xc8c /opt/microchip/xc32/v4.21/bin/bin/../../lib/gcc/pic32mx/8.3.1/../../../../pic32mx/lib/fpu64/libm-musl.a(fma.o)
 .debug_loc     0x0000000000004c27      0x16e /opt/microchip/xc32/v4.21/bin/bin/../../lib/gcc/pic32mx/8.3.1/../../../../pic32mx/lib/fpu64/libm-musl.a(scalbn.o)
 .debug_loc     0x0000000000004d95      0x164 /opt/microchip/xc32/v4.21/bin/bin/../../lib/gcc/pic32mx/8.3.1/../../../../pic32mx/lib/fpu64/libm-musl.a(sin.o)
 .debug_loc     0x0000000000004ef9      0x320 /opt/microchip/xc32/v4.21/bin/bin/../../lib/gcc/pic32mx/8.3.1/../../../../pic32mx/lib/fpu64/libm-musl.a(__cos.o)
 .debug_loc     0x0000000000005219      0x79c /opt/microchip/xc32/v4.21/bin/bin/../../lib/gcc/pic32mx/8.3.1/../../../../pic32mx/lib/fpu64/libm-musl.a(__rem_pio2.o)
 .debug_loc     0x00000000000059b5      0xc12 /opt/microchip/xc32/v4.21/bin/bin/../../lib/gcc/pic32mx/8.3.1/../../../../pic32mx/lib/fpu64/libm-musl.a(__rem_pio2_large.o)
 .debug_loc     0x00000000000065c7      0x21f /opt/microchip/xc32/v4.21/bin/bin/../../lib/gcc/pic32mx/8.3.1/../../../../pic32mx/lib/fpu64/libm-musl.a(__sin.o)
 .debug_loc     0x00000000000067e6       0x99 /opt/microchip/xc32/v4.21/bin/bin/../../lib/gcc/pic32mx/8.3.1/fpu64/libgcc.a(_lshrdi3.o)
 .debug_loc     0x000000000000687f       0x75 /opt/microchip/xc32/v4.21/bin/bin/../../lib/gcc/pic32mx/8.3.1/fpu64/libgcc.a(_ashldi3.o)
 .debug_loc     0x00000000000068f4      0x9f5 /opt/microchip/xc32/v4.21/bin/bin/../../lib/gcc/pic32mx/8.3.1/fpu64/libgcc.a(_udivdi3.o)
 .debug_loc     0x00000000000072e9      0x99a /opt/microchip/xc32/v4.21/bin/bin/../../lib/gcc/pic32mx/8.3.1/fpu64/libgcc.a(_umoddi3.o)
 .debug_loc     0x0000000000007c83       0x6c /opt/microchip/xc32/v4.21/bin/bin/../../lib/gcc/pic32mx/8.3.1/../../../../pic32mx/lib/fpu64/libpic32.a(sbrk.o)

.debug_macinfo
 *.elf(.debug_macinfo)
 *(.debug_macinfo)

.debug_weaknames
 *.elf(.debug_weaknames)
 *(.debug_weaknames)

.debug_funcnames
 *.elf(.debug_funcnames)
 *(.debug_funcnames)

.debug_typenames
 *.elf(.debug_typenames)
 *(.debug_typenames)

.debug_varnames
 *.elf(.debug_varnames)
 *(.debug_varnames)

.debug_pubtypes
 *.elf(.debug_pubtypes)
 *(.debug_pubtypes)

.debug_ranges   0x0000000000000000      0x930
 *.elf(.debug_ranges)
 *(.debug_ranges)
 .debug_ranges  0x0000000000000000       0x10 /opt/microchip/xc32/v4.21/bin/bin/../../lib/gcc/pic32mx/8.3.1/../../../../pic32mx/lib/fpu64/libpic32.a(default-on-reset.o)
 .debug_ranges  0x0000000000000010       0x10 /opt/microchip/xc32/v4.21/bin/bin/../../lib/gcc/pic32mx/8.3.1/../../../../pic32mx/lib/fpu64/libpic32.a(default-on-bootstrap.o)
 .debug_ranges  0x0000000000000020       0x10 /opt/microchip/xc32/v4.21/bin/bin/../../lib/gcc/pic32mx/8.3.1/../../../../pic32mx/lib/fpu64/libpic32.a(defaultinterrupt.o)
 .debug_ranges  0x0000000000000030       0x18 /opt/microchip/xc32/v4.21/bin/bin/../../lib/gcc/pic32mx/8.3.1/../../../../pic32mx/lib/fpu64/libc-musl.a(__sio_printf_s.o)
 .debug_ranges  0x0000000000000048       0x18 /opt/microchip/xc32/v4.21/bin/bin/../../lib/gcc/pic32mx/8.3.1/../../../../pic32mx/lib/fpu64/libc-musl.a(__sio_snprintf_dfosux.o)
 .debug_ranges  0x0000000000000060       0x18 /opt/microchip/xc32/v4.21/bin/bin/../../lib/gcc/pic32mx/8.3.1/../../../../pic32mx/lib/fpu64/libc-musl.a(__sio_snprintf_dosux.o)
 .debug_ranges  0x0000000000000078       0x18 /opt/microchip/xc32/v4.21/bin/bin/../../lib/gcc/pic32mx/8.3.1/../../../../pic32mx/lib/fpu64/libc-musl.a(__sio_snprintf_doux.o)
 .debug_ranges  0x0000000000000090       0x18 /opt/microchip/xc32/v4.21/bin/bin/../../lib/gcc/pic32mx/8.3.1/../../../../pic32mx/lib/fpu64/libc-musl.a(__sio_snprintf_s.o)
 .debug_ranges  0x00000000000000a8       0x10 /opt/microchip/xc32/v4.21/bin/bin/../../lib/gcc/pic32mx/8.3.1/../../../../pic32mx/lib/fpu64/libc-musl.a(__fmt_d.o)
 .debug_ranges  0x00000000000000b8       0x10 /opt/microchip/xc32/v4.21/bin/bin/../../lib/gcc/pic32mx/8.3.1/../../../../pic32mx/lib/fpu64/libc-musl.a(__fmt_fp.o)
 .debug_ranges  0x00000000000000c8       0x10 /opt/microchip/xc32/v4.21/bin/bin/../../lib/gcc/pic32mx/8.3.1/../../../../pic32mx/lib/fpu64/libc-musl.a(__fmt_o.o)
 .debug_ranges  0x00000000000000d8       0x10 /opt/microchip/xc32/v4.21/bin/bin/../../lib/gcc/pic32mx/8.3.1/../../../../pic32mx/lib/fpu64/libc-musl.a(__fmt_s.o)
 .debug_ranges  0x00000000000000e8       0x18 /opt/microchip/xc32/v4.21/bin/bin/../../lib/gcc/pic32mx/8.3.1/../../../../pic32mx/lib/fpu64/libc-musl.a(__fmt_u.o)
 .debug_ranges  0x0000000000000100       0x10 /opt/microchip/xc32/v4.21/bin/bin/../../lib/gcc/pic32mx/8.3.1/../../../../pic32mx/lib/fpu64/libc-musl.a(__fmt_x.o)
 .debug_ranges  0x0000000000000110       0x10 /opt/microchip/xc32/v4.21/bin/bin/../../lib/gcc/pic32mx/8.3.1/../../../../pic32mx/lib/fpu64/libc-musl.a(__pop_float.o)
 .debug_ranges  0x0000000000000120       0x10 /opt/microchip/xc32/v4.21/bin/bin/../../lib/gcc/pic32mx/8.3.1/../../../../pic32mx/lib/fpu64/libc-musl.a(__pop_int.o)
 .debug_ranges  0x0000000000000130       0x10 /opt/microchip/xc32/v4.21/bin/bin/../../lib/gcc/pic32mx/8.3.1/../../../../pic32mx/lib/fpu64/libc-musl.a(__pop_ptr.o)
 .debug_ranges  0x0000000000000140       0xf8 /opt/microchip/xc32/v4.21/bin/bin/../../lib/gcc/pic32mx/8.3.1/../../../../pic32mx/lib/fpu64/libc-musl.a(__printf_core.o)
 .debug_ranges  0x0000000000000238       0x18 /opt/microchip/xc32/v4.21/bin/bin/../../lib/gcc/pic32mx/8.3.1/../../../../pic32mx/lib/fpu64/libc-musl.a(stdout.o)
 .debug_ranges  0x0000000000000250       0x10 /opt/microchip/xc32/v4.21/bin/bin/../../lib/gcc/pic32mx/8.3.1/../../../../pic32mx/lib/fpu64/libc-musl.a(vprintf.o)
 .debug_ranges  0x0000000000000260       0x28 /opt/microchip/xc32/v4.21/bin/bin/../../lib/gcc/pic32mx/8.3.1/../../../../pic32mx/lib/fpu64/libc-musl.a(atoi.o)
 .debug_ranges  0x0000000000000288       0x10 /opt/microchip/xc32/v4.21/bin/bin/../../lib/gcc/pic32mx/8.3.1/../../../../pic32mx/lib/fpu64/libc-musl.a(strcpy.o)
 .debug_ranges  0x0000000000000298       0x10 /opt/microchip/xc32/v4.21/bin/bin/../../lib/gcc/pic32mx/8.3.1/../../../../pic32mx/lib/fpu64/libc-musl.a(strncmp.o)
 .debug_ranges  0x00000000000002a8       0x18 /opt/microchip/xc32/v4.21/bin/bin/../../lib/gcc/pic32mx/8.3.1/../../../../pic32mx/lib/fpu64/libc-musl.a(tolower.o)
 .debug_ranges  0x00000000000002c0       0x18 /opt/microchip/xc32/v4.21/bin/bin/../../lib/gcc/pic32mx/8.3.1/../../../../pic32mx/lib/fpu64/libc-musl.a(toupper.o)
 .debug_ranges  0x00000000000002d8       0x10 /opt/microchip/xc32/v4.21/bin/bin/../../lib/gcc/pic32mx/8.3.1/../../../../pic32mx/lib/fpu64/libc-musl.a(__int_vfprintf.o)
 .debug_ranges  0x00000000000002e8       0x10 /opt/microchip/xc32/v4.21/bin/bin/../../lib/gcc/pic32mx/8.3.1/../../../../pic32mx/lib/fpu64/libc-musl.a(__int_vsnprintf.o)
 .debug_ranges  0x00000000000002f8       0x20 /opt/microchip/xc32/v4.21/bin/bin/../../lib/gcc/pic32mx/8.3.1/../../../../pic32mx/lib/fpu64/libc-musl.a(__fopen.o)
 .debug_ranges  0x0000000000000318       0x18 /opt/microchip/xc32/v4.21/bin/bin/../../lib/gcc/pic32mx/8.3.1/../../../../pic32mx/lib/fpu64/libc-musl.a(__io_init_needed.o)
 .debug_ranges  0x0000000000000330       0x30 /opt/microchip/xc32/v4.21/bin/bin/../../lib/gcc/pic32mx/8.3.1/../../../../pic32mx/lib/fpu64/libc-musl.a(__out.o)
 .debug_ranges  0x0000000000000360       0x18 /opt/microchip/xc32/v4.21/bin/bin/../../lib/gcc/pic32mx/8.3.1/../../../../pic32mx/lib/fpu64/libc-musl.a(__stdio_close.o)
 .debug_ranges  0x0000000000000378       0x18 /opt/microchip/xc32/v4.21/bin/bin/../../lib/gcc/pic32mx/8.3.1/../../../../pic32mx/lib/fpu64/libc-musl.a(vfprintf.o)
 .debug_ranges  0x0000000000000390       0x10 /opt/microchip/xc32/v4.21/bin/bin/../../lib/gcc/pic32mx/8.3.1/../../../../pic32mx/lib/fpu64/libc-musl.a(stpcpy.o)
 .debug_ranges  0x00000000000003a0      0x1e8 /opt/microchip/xc32/v4.21/bin/bin/../../lib/gcc/pic32mx/8.3.1/../../../../pic32mx/lib/fpu64/libc-musl.a(malloc.o)
 .debug_ranges  0x0000000000000588       0x10 /opt/microchip/xc32/v4.21/bin/bin/../../lib/gcc/pic32mx/8.3.1/../../../../pic32mx/lib/fpu64/libc-musl.a(expand_heap.o)
 .debug_ranges  0x0000000000000598       0x18 /opt/microchip/xc32/v4.21/bin/bin/../../lib/gcc/pic32mx/8.3.1/../../../../pic32mx/lib/fpu64/libc-musl.a(__init_stdio.o)
 .debug_ranges  0x00000000000005b0       0x10 /opt/microchip/xc32/v4.21/bin/bin/../../lib/gcc/pic32mx/8.3.1/../../../../pic32mx/lib/fpu64/libc-musl.a(__io_file_needed.o)
 .debug_ranges  0x00000000000005c0       0x10 /opt/microchip/xc32/v4.21/bin/bin/../../lib/gcc/pic32mx/8.3.1/../../../../pic32mx/lib/fpu64/libc-musl.a(__io_fmt_needed.o)
 .debug_ranges  0x00000000000005d0       0x10 /opt/microchip/xc32/v4.21/bin/bin/../../lib/gcc/pic32mx/8.3.1/../../../../pic32mx/lib/fpu64/libc-musl.a(__fmt_a.o)
 .debug_ranges  0x00000000000005e0       0x48 /opt/microchip/xc32/v4.21/bin/bin/../../lib/gcc/pic32mx/8.3.1/../../../../pic32mx/lib/fpu64/libm-musl.a(cos.o)
 .debug_ranges  0x0000000000000628       0x10 /opt/microchip/xc32/v4.21/bin/bin/../../lib/gcc/pic32mx/8.3.1/../../../../pic32mx/lib/fpu64/libm-musl.a(floor.o)
 .debug_ranges  0x0000000000000638       0x78 /opt/microchip/xc32/v4.21/bin/bin/../../lib/gcc/pic32mx/8.3.1/../../../../pic32mx/lib/fpu64/libm-musl.a(fma.o)
 .debug_ranges  0x00000000000006b0       0x10 /opt/microchip/xc32/v4.21/bin/bin/../../lib/gcc/pic32mx/8.3.1/../../../../pic32mx/lib/fpu64/libm-musl.a(scalbn.o)
 .debug_ranges  0x00000000000006c0       0x48 /opt/microchip/xc32/v4.21/bin/bin/../../lib/gcc/pic32mx/8.3.1/../../../../pic32mx/lib/fpu64/libm-musl.a(sin.o)
 .debug_ranges  0x0000000000000708       0x10 /opt/microchip/xc32/v4.21/bin/bin/../../lib/gcc/pic32mx/8.3.1/../../../../pic32mx/lib/fpu64/libm-musl.a(__cos.o)
 .debug_ranges  0x0000000000000718       0x10 /opt/microchip/xc32/v4.21/bin/bin/../../lib/gcc/pic32mx/8.3.1/../../../../pic32mx/lib/fpu64/libm-musl.a(__rem_pio2.o)
 .debug_ranges  0x0000000000000728       0x10 /opt/microchip/xc32/v4.21/bin/bin/../../lib/gcc/pic32mx/8.3.1/../../../../pic32mx/lib/fpu64/libm-musl.a(__rem_pio2_large.o)
 .debug_ranges  0x0000000000000738       0x10 /opt/microchip/xc32/v4.21/bin/bin/../../lib/gcc/pic32mx/8.3.1/../../../../pic32mx/lib/fpu64/libm-musl.a(__sin.o)
 .debug_ranges  0x0000000000000748       0xd8 /opt/microchip/xc32/v4.21/bin/bin/../../lib/gcc/pic32mx/8.3.1/fpu64/libgcc.a(_udivdi3.o)
 .debug_ranges  0x0000000000000820       0xc0 /opt/microchip/xc32/v4.21/bin/bin/../../lib/gcc/pic32mx/8.3.1/fpu64/libgcc.a(_umoddi3.o)
 .debug_ranges  0x00000000000008e0       0x30 /opt/microchip/xc32/v4.21/bin/bin/../../lib/gcc/pic32mx/8.3.1/../../../../pic32mx/lib/fpu64/libpic32.a(sbrk.o)
 .debug_ranges  0x0000000000000910       0x10 /opt/microchip/xc32/v4.21/bin/bin/../../lib/gcc/pic32mx/8.3.1/../../../../pic32mx/lib/fpu64/libpic32.a(lseek.o)
 .debug_ranges  0x0000000000000920       0x10 /opt/microchip/xc32/v4.21/bin/bin/../../lib/gcc/pic32mx/8.3.1/../../../../pic32mx/lib/fpu64/libpic32.a(close.o)

.gnu.attributes
                0x0000000000000000       0x10
 *(.gnu.attributes)
 .gnu.attributes
                0x0000000000000000       0x10 /opt/microchip/xc32/v4.21/bin/bin/../../lib/gcc/pic32mx/8.3.1/../../../../pic32mx/lib/fpu64/debug-exception-return.o
 .gnu.attributes
                0x0000000000000010       0x10 build/nsensor/production/_ext/1684788505/ChrFont0.o
 .gnu.attributes
                0x0000000000000020       0x10 build/nsensor/production/_ext/1684788505/dogm-graphic.o
 .gnu.attributes
                0x0000000000000030       0x10 build/nsensor/production/_ext/1684788505/eadog.o
 .gnu.attributes
                0x0000000000000040       0x10 build/nsensor/production/_ext/1684788505/FillPat.o
 .gnu.attributes
                0x0000000000000050       0x10 build/nsensor/production/_ext/1684788505/foo.o
 .gnu.attributes
                0x0000000000000060       0x10 build/nsensor/production/_ext/1684788505/lcd_drv.o
 .gnu.attributes
                0x0000000000000070       0x10 build/nsensor/production/_ext/1684788505/OledChar.o
 .gnu.attributes
                0x0000000000000080       0x10 build/nsensor/production/_ext/1684788505/OledDriver.o
 .gnu.attributes
                0x0000000000000090       0x10 build/nsensor/production/_ext/1684788505/OledGrph.o
 .gnu.attributes
                0x00000000000000a0       0x10 build/nsensor/production/_ext/1966772718/plib_adchs.o
 .gnu.attributes
                0x00000000000000b0       0x10 build/nsensor/production/_ext/1965004555/plib_canfd1.o
 .gnu.attributes
                0x00000000000000c0       0x10 build/nsensor/production/_ext/619183945/plib_clk.o
 .gnu.attributes
                0x00000000000000d0       0x10 build/nsensor/production/_ext/1664108525/plib_coretimer.o
 .gnu.attributes
                0x00000000000000e0       0x10 build/nsensor/production/_ext/2014863652/plib_dmac.o
 .gnu.attributes
                0x00000000000000f0       0x10 build/nsensor/production/_ext/2014902340/plib_evic.o
 .gnu.attributes
                0x0000000000000100       0x10 build/nsensor/production/_ext/2014956168/plib_gpio.o
 .gnu.attributes
                0x0000000000000110       0x10 build/nsensor/production/_ext/1955707305/plib_mcpwm.o
 .gnu.attributes
                0x0000000000000120       0x10 build/nsensor/production/_ext/619197180/plib_qei2.o
 .gnu.attributes
                0x0000000000000130       0x10 build/nsensor/production/_ext/2015287515/plib_rtcc.o
 .gnu.attributes
                0x0000000000000140       0x10 build/nsensor/production/_ext/1877210129/plib_spi1_master.o
 .gnu.attributes
                0x0000000000000150       0x10 build/nsensor/production/_ext/1877210129/plib_spi2_master.o
 .gnu.attributes
                0x0000000000000160       0x10 build/nsensor/production/_ext/619200320/plib_tmr9.o
 .gnu.attributes
                0x0000000000000170       0x10 build/nsensor/production/_ext/619200320/plib_tmr5.o
 .gnu.attributes
                0x0000000000000180       0x10 build/nsensor/production/_ext/619200320/plib_tmr3.o
 .gnu.attributes
                0x0000000000000190       0x10 build/nsensor/production/_ext/619200320/plib_tmr6.o
 .gnu.attributes
                0x00000000000001a0       0x10 build/nsensor/production/_ext/619200320/plib_tmr2.o
 .gnu.attributes
                0x00000000000001b0       0x10 build/nsensor/production/_ext/2015359111/plib_uart1.o
 .gnu.attributes
                0x00000000000001c0       0x10 build/nsensor/production/_ext/725740559/xc32_monitor.o
 .gnu.attributes
                0x00000000000001d0       0x10 build/nsensor/production/_ext/1856863253/exceptions.o
 .gnu.attributes
                0x00000000000001e0       0x10 build/nsensor/production/_ext/1856863253/interrupts.o
 .gnu.attributes
                0x00000000000001f0       0x10 build/nsensor/production/_ext/1856863253/initialization.o
 .gnu.attributes
                0x0000000000000200       0x10 build/nsensor/production/_ext/1360937237/bma490l.o
 .gnu.attributes
                0x0000000000000210       0x10 build/nsensor/production/_ext/1360937237/timers.o
 .gnu.attributes
                0x0000000000000220       0x10 build/nsensor/production/_ext/1360937237/sca3300.o
 .gnu.attributes
                0x0000000000000230       0x10 build/nsensor/production/_ext/1360937237/gfx.o
 .gnu.attributes
                0x0000000000000240       0x10 build/nsensor/production/_ext/1360937237/imu.o
 .gnu.attributes
                0x0000000000000250       0x10 build/nsensor/production/_ext/1360937237/pid.o
 .gnu.attributes
                0x0000000000000260       0x10 build/nsensor/production/_ext/1360937237/do_fft.o
 .gnu.attributes
                0x0000000000000270       0x10 build/nsensor/production/_ext/1360937237/fft.o
 .gnu.attributes
                0x0000000000000280       0x10 build/nsensor/production/_ext/1360937237/main.o
 .gnu.attributes
                0x0000000000000290       0x10 build/nsensor/production/_ext/1360937237/canfd.o
 .gnu.attributes
                0x00000000000002a0       0x10 build/nsensor/production/_ext/1360937237/host.o
 .gnu.attributes
                0x00000000000002b0       0x10 build/nsensor/production/_ext/1360937237/cmd_scanner.o
 .gnu.attributes
                0x00000000000002c0       0x10 /tmp/ccBkuxsy.o
 .gnu.attributes
                0x00000000000002d0       0x10 /tmp/ccWIkHyp.o
 .gnu.attributes
                0x00000000000002e0       0x10 /tmp/ccRzzlsZ.o
 .gnu.attributes
                0x00000000000002f0       0x10 /tmp/ccs5yPaT.o
 .gnu.attributes
                0x0000000000000300       0x10 /opt/microchip/xc32/v4.21/bin/bin/../../lib/gcc/pic32mx/8.3.1/../../../../pic32mx/lib/fpu64/pic32_software_reset.o
 .gnu.attributes
                0x0000000000000310       0x10 /opt/microchip/xc32/v4.21/bin/bin/../../lib/gcc/pic32mx/8.3.1/../../../../pic32mx/lib/fpu64/libpic32.a(memcpy.o)
 .gnu.attributes
                0x0000000000000320       0x10 /opt/microchip/xc32/v4.21/bin/bin/../../lib/gcc/pic32mx/8.3.1/../../../../pic32mx/lib/fpu64/libpic32.a(memset.o)
 .gnu.attributes
                0x0000000000000330       0x10 /opt/microchip/xc32/v4.21/bin/bin/../../lib/gcc/pic32mx/8.3.1/../../../../pic32mx/lib/fpu64/libpic32.a(strlen.o)
 .gnu.attributes
                0x0000000000000340       0x10 /opt/microchip/xc32/v4.21/bin/bin/../../lib/gcc/pic32mx/8.3.1/../../../../pic32mx/lib/fpu64/libpic32.a(default-on-reset.o)
 .gnu.attributes
                0x0000000000000350       0x10 /opt/microchip/xc32/v4.21/bin/bin/../../lib/gcc/pic32mx/8.3.1/../../../../pic32mx/lib/fpu64/libpic32.a(default-on-bootstrap.o)
 .gnu.attributes
                0x0000000000000360       0x10 /opt/microchip/xc32/v4.21/bin/bin/../../lib/gcc/pic32mx/8.3.1/../../../../pic32mx/lib/fpu64/libpic32.a(default-nmi-handler.o)
 .gnu.attributes
                0x0000000000000370       0x10 /opt/microchip/xc32/v4.21/bin/bin/../../lib/gcc/pic32mx/8.3.1/../../../../pic32mx/lib/fpu64/libpic32.a(pic32_data_init_wrapper.o)
 .gnu.attributes
                0x0000000000000380       0x10 /opt/microchip/xc32/v4.21/bin/bin/../../lib/gcc/pic32mx/8.3.1/../../../../pic32mx/lib/fpu64/libpic32.a(pic32_data_init_0_1.o)
 .gnu.attributes
                0x0000000000000390       0x10 /opt/microchip/xc32/v4.21/bin/bin/../../lib/gcc/pic32mx/8.3.1/../../../../pic32mx/lib/fpu64/libpic32.a(general-exception.o)
 .gnu.attributes
                0x00000000000003a0       0x10 /opt/microchip/xc32/v4.21/bin/bin/../../lib/gcc/pic32mx/8.3.1/../../../../pic32mx/lib/fpu64/libpic32.a(defaultinterrupt.o)
 .gnu.attributes
                0x00000000000003b0       0x10 /opt/microchip/xc32/v4.21/bin/bin/../../lib/gcc/pic32mx/8.3.1/../../../../pic32mx/lib/fpu64/libc-musl.a(__sio_printf_s.o)
 .gnu.attributes
                0x00000000000003c0       0x10 /opt/microchip/xc32/v4.21/bin/bin/../../lib/gcc/pic32mx/8.3.1/../../../../pic32mx/lib/fpu64/libc-musl.a(__sio_snprintf_dfosux.o)
 .gnu.attributes
                0x00000000000003d0       0x10 /opt/microchip/xc32/v4.21/bin/bin/../../lib/gcc/pic32mx/8.3.1/../../../../pic32mx/lib/fpu64/libc-musl.a(__sio_snprintf_dosux.o)
 .gnu.attributes
                0x00000000000003e0       0x10 /opt/microchip/xc32/v4.21/bin/bin/../../lib/gcc/pic32mx/8.3.1/../../../../pic32mx/lib/fpu64/libc-musl.a(__sio_snprintf_doux.o)
 .gnu.attributes
                0x00000000000003f0       0x10 /opt/microchip/xc32/v4.21/bin/bin/../../lib/gcc/pic32mx/8.3.1/../../../../pic32mx/lib/fpu64/libc-musl.a(__sio_snprintf_s.o)
 .gnu.attributes
                0x0000000000000400       0x10 /opt/microchip/xc32/v4.21/bin/bin/../../lib/gcc/pic32mx/8.3.1/../../../../pic32mx/lib/fpu64/libc-musl.a(__fmt_d.o)
 .gnu.attributes
                0x0000000000000410       0x10 /opt/microchip/xc32/v4.21/bin/bin/../../lib/gcc/pic32mx/8.3.1/../../../../pic32mx/lib/fpu64/libc-musl.a(__fmt_fp.o)
 .gnu.attributes
                0x0000000000000420       0x10 /opt/microchip/xc32/v4.21/bin/bin/../../lib/gcc/pic32mx/8.3.1/../../../../pic32mx/lib/fpu64/libc-musl.a(__fmt_o.o)
 .gnu.attributes
                0x0000000000000430       0x10 /opt/microchip/xc32/v4.21/bin/bin/../../lib/gcc/pic32mx/8.3.1/../../../../pic32mx/lib/fpu64/libc-musl.a(__fmt_s.o)
 .gnu.attributes
                0x0000000000000440       0x10 /opt/microchip/xc32/v4.21/bin/bin/../../lib/gcc/pic32mx/8.3.1/../../../../pic32mx/lib/fpu64/libc-musl.a(__fmt_u.o)
 .gnu.attributes
                0x0000000000000450       0x10 /opt/microchip/xc32/v4.21/bin/bin/../../lib/gcc/pic32mx/8.3.1/../../../../pic32mx/lib/fpu64/libc-musl.a(__fmt_x.o)
 .gnu.attributes
                0x0000000000000460       0x10 /opt/microchip/xc32/v4.21/bin/bin/../../lib/gcc/pic32mx/8.3.1/../../../../pic32mx/lib/fpu64/libc-musl.a(__pop_float.o)
 .gnu.attributes
                0x0000000000000470       0x10 /opt/microchip/xc32/v4.21/bin/bin/../../lib/gcc/pic32mx/8.3.1/../../../../pic32mx/lib/fpu64/libc-musl.a(__pop_int.o)
 .gnu.attributes
                0x0000000000000480       0x10 /opt/microchip/xc32/v4.21/bin/bin/../../lib/gcc/pic32mx/8.3.1/../../../../pic32mx/lib/fpu64/libc-musl.a(__pop_ptr.o)
 .gnu.attributes
                0x0000000000000490       0x10 /opt/microchip/xc32/v4.21/bin/bin/../../lib/gcc/pic32mx/8.3.1/../../../../pic32mx/lib/fpu64/libc-musl.a(__printf_core.o)
 .gnu.attributes
                0x00000000000004a0       0x10 /opt/microchip/xc32/v4.21/bin/bin/../../lib/gcc/pic32mx/8.3.1/../../../../pic32mx/lib/fpu64/libc-musl.a(stdout.o)
 .gnu.attributes
                0x00000000000004b0       0x10 /opt/microchip/xc32/v4.21/bin/bin/../../lib/gcc/pic32mx/8.3.1/../../../../pic32mx/lib/fpu64/libc-musl.a(vprintf.o)
 .gnu.attributes
                0x00000000000004c0       0x10 /opt/microchip/xc32/v4.21/bin/bin/../../lib/gcc/pic32mx/8.3.1/../../../../pic32mx/lib/fpu64/libc-musl.a(atoi.o)
 .gnu.attributes
                0x00000000000004d0       0x10 /opt/microchip/xc32/v4.21/bin/bin/../../lib/gcc/pic32mx/8.3.1/../../../../pic32mx/lib/fpu64/libc-musl.a(strcpy.o)
 .gnu.attributes
                0x00000000000004e0       0x10 /opt/microchip/xc32/v4.21/bin/bin/../../lib/gcc/pic32mx/8.3.1/../../../../pic32mx/lib/fpu64/libc-musl.a(strncmp.o)
 .gnu.attributes
                0x00000000000004f0       0x10 /opt/microchip/xc32/v4.21/bin/bin/../../lib/gcc/pic32mx/8.3.1/../../../../pic32mx/lib/fpu64/libc-musl.a(tolower.o)
 .gnu.attributes
                0x0000000000000500       0x10 /opt/microchip/xc32/v4.21/bin/bin/../../lib/gcc/pic32mx/8.3.1/../../../../pic32mx/lib/fpu64/libc-musl.a(toupper.o)
 .gnu.attributes
                0x0000000000000510       0x10 /opt/microchip/xc32/v4.21/bin/bin/../../lib/gcc/pic32mx/8.3.1/../../../../pic32mx/lib/fpu64/libc-musl.a(__int_vfprintf.o)
 .gnu.attributes
                0x0000000000000520       0x10 /opt/microchip/xc32/v4.21/bin/bin/../../lib/gcc/pic32mx/8.3.1/../../../../pic32mx/lib/fpu64/libc-musl.a(__int_vsnprintf.o)
 .gnu.attributes
                0x0000000000000530       0x10 /opt/microchip/xc32/v4.21/bin/bin/../../lib/gcc/pic32mx/8.3.1/../../../../pic32mx/lib/fpu64/libc-musl.a(__fopen.o)
 .gnu.attributes
                0x0000000000000540       0x10 /opt/microchip/xc32/v4.21/bin/bin/../../lib/gcc/pic32mx/8.3.1/../../../../pic32mx/lib/fpu64/libc-musl.a(__io_init_needed.o)
 .gnu.attributes
                0x0000000000000550       0x10 /opt/microchip/xc32/v4.21/bin/bin/../../lib/gcc/pic32mx/8.3.1/../../../../pic32mx/lib/fpu64/libc-musl.a(__out.o)
 .gnu.attributes
                0x0000000000000560       0x10 /opt/microchip/xc32/v4.21/bin/bin/../../lib/gcc/pic32mx/8.3.1/../../../../pic32mx/lib/fpu64/libc-musl.a(__stdio_close.o)
 .gnu.attributes
                0x0000000000000570       0x10 /opt/microchip/xc32/v4.21/bin/bin/../../lib/gcc/pic32mx/8.3.1/../../../../pic32mx/lib/fpu64/libc-musl.a(vfprintf.o)
 .gnu.attributes
                0x0000000000000580       0x10 /opt/microchip/xc32/v4.21/bin/bin/../../lib/gcc/pic32mx/8.3.1/../../../../pic32mx/lib/fpu64/libc-musl.a(stpcpy.o)
 .gnu.attributes
                0x0000000000000590       0x10 /opt/microchip/xc32/v4.21/bin/bin/../../lib/gcc/pic32mx/8.3.1/../../../../pic32mx/lib/fpu64/libc-musl.a(malloc.o)
 .gnu.attributes
                0x00000000000005a0       0x10 /opt/microchip/xc32/v4.21/bin/bin/../../lib/gcc/pic32mx/8.3.1/../../../../pic32mx/lib/fpu64/libc-musl.a(expand_heap.o)
 .gnu.attributes
                0x00000000000005b0       0x10 /opt/microchip/xc32/v4.21/bin/bin/../../lib/gcc/pic32mx/8.3.1/../../../../pic32mx/lib/fpu64/libc-musl.a(__init_stdio.o)
 .gnu.attributes
                0x00000000000005c0       0x10 /opt/microchip/xc32/v4.21/bin/bin/../../lib/gcc/pic32mx/8.3.1/../../../../pic32mx/lib/fpu64/libc-musl.a(__io_file_needed.o)
 .gnu.attributes
                0x00000000000005d0       0x10 /opt/microchip/xc32/v4.21/bin/bin/../../lib/gcc/pic32mx/8.3.1/../../../../pic32mx/lib/fpu64/libc-musl.a(__io_fmt_needed.o)
 .gnu.attributes
                0x00000000000005e0       0x10 /opt/microchip/xc32/v4.21/bin/bin/../../lib/gcc/pic32mx/8.3.1/../../../../pic32mx/lib/fpu64/libc-musl.a(libc.o)
 .gnu.attributes
                0x00000000000005f0       0x10 /opt/microchip/xc32/v4.21/bin/bin/../../lib/gcc/pic32mx/8.3.1/../../../../pic32mx/lib/fpu64/libc-musl.a(__fmt_a.o)
 .gnu.attributes
                0x0000000000000600       0x10 /opt/microchip/xc32/v4.21/bin/bin/../../lib/gcc/pic32mx/8.3.1/../../../../pic32mx/lib/fpu64/libm-musl.a(cos.o)
 .gnu.attributes
                0x0000000000000610       0x10 /opt/microchip/xc32/v4.21/bin/bin/../../lib/gcc/pic32mx/8.3.1/../../../../pic32mx/lib/fpu64/libm-musl.a(floor.o)
 .gnu.attributes
                0x0000000000000620       0x10 /opt/microchip/xc32/v4.21/bin/bin/../../lib/gcc/pic32mx/8.3.1/../../../../pic32mx/lib/fpu64/libm-musl.a(fma.o)
 .gnu.attributes
                0x0000000000000630       0x10 /opt/microchip/xc32/v4.21/bin/bin/../../lib/gcc/pic32mx/8.3.1/../../../../pic32mx/lib/fpu64/libm-musl.a(scalbn.o)
 .gnu.attributes
                0x0000000000000640       0x10 /opt/microchip/xc32/v4.21/bin/bin/../../lib/gcc/pic32mx/8.3.1/../../../../pic32mx/lib/fpu64/libm-musl.a(sin.o)
 .gnu.attributes
                0x0000000000000650       0x10 /opt/microchip/xc32/v4.21/bin/bin/../../lib/gcc/pic32mx/8.3.1/../../../../pic32mx/lib/fpu64/libm-musl.a(__cos.o)
 .gnu.attributes
                0x0000000000000660       0x10 /opt/microchip/xc32/v4.21/bin/bin/../../lib/gcc/pic32mx/8.3.1/../../../../pic32mx/lib/fpu64/libm-musl.a(__rem_pio2.o)
 .gnu.attributes
                0x0000000000000670       0x10 /opt/microchip/xc32/v4.21/bin/bin/../../lib/gcc/pic32mx/8.3.1/../../../../pic32mx/lib/fpu64/libm-musl.a(__rem_pio2_large.o)
 .gnu.attributes
                0x0000000000000680       0x10 /opt/microchip/xc32/v4.21/bin/bin/../../lib/gcc/pic32mx/8.3.1/../../../../pic32mx/lib/fpu64/libm-musl.a(__sin.o)
 .gnu.attributes
                0x0000000000000690       0x10 /opt/microchip/xc32/v4.21/bin/bin/../../lib/gcc/pic32mx/8.3.1/fpu64/libgcc.a(_lshrdi3.o)
 .gnu.attributes
                0x00000000000006a0       0x10 /opt/microchip/xc32/v4.21/bin/bin/../../lib/gcc/pic32mx/8.3.1/fpu64/libgcc.a(_ashldi3.o)
 .gnu.attributes
                0x00000000000006b0       0x10 /opt/microchip/xc32/v4.21/bin/bin/../../lib/gcc/pic32mx/8.3.1/fpu64/libgcc.a(_udivdi3.o)
 .gnu.attributes
                0x00000000000006c0       0x10 /opt/microchip/xc32/v4.21/bin/bin/../../lib/gcc/pic32mx/8.3.1/fpu64/libgcc.a(_umoddi3.o)
 .gnu.attributes
                0x00000000000006d0       0x10 /opt/microchip/xc32/v4.21/bin/bin/../../lib/gcc/pic32mx/8.3.1/../../../../pic32mx/lib/fpu64/libpic32.a(sbrk.o)
 .gnu.attributes
                0x00000000000006e0       0x10 /opt/microchip/xc32/v4.21/bin/bin/../../lib/gcc/pic32mx/8.3.1/../../../../pic32mx/lib/fpu64/libpic32.a(lseek.o)
 .gnu.attributes
                0x00000000000006f0       0x10 /opt/microchip/xc32/v4.21/bin/bin/../../lib/gcc/pic32mx/8.3.1/../../../../pic32mx/lib/fpu64/libpic32.a(close.o)
 .gnu.attributes
                0x0000000000000700       0x10 /opt/microchip/xc32/v4.21/bin/bin/../../lib/gcc/pic32mx/8.3.1/../../../../pic32mx/lib/fpu64/libpic32.a(errno.o)
                0x0000000000000200                _min_heap_size = 0x200
LOAD /tmp/ccBkuxsy.o
LOAD /tmp/ccWIkHyp.o
LOAD /tmp/ccRzzlsZ.o
LOAD /tmp/ccs5yPaT.o
LOAD /opt/microchip/xc32/v4.21/bin/bin/../../lib/gcc/pic32mx/8.3.1/../../../../pic32mx/lib/fpu64/pic32_software_reset.o
LOAD /opt/microchip/xc32/v4.21/bin/bin/../../lib/gcc/pic32mx/8.3.1/fpu64/libgcc.a
START GROUP
LOAD /opt/microchip/xc32/v4.21/bin/bin/../../lib/gcc/pic32mx/8.3.1/../../../../pic32mx/lib/fpu64/libpic32.a
LOAD /opt/microchip/xc32/v4.21/bin/bin/../../lib/gcc/pic32mx/8.3.1/../../../../pic32mx/lib/fpu64/libdebug.a
LOAD /opt/microchip/xc32/v4.21/bin/bin/../../lib/gcc/pic32mx/8.3.1/../../../../pic32mx/lib/fpu64/libc-musl.a
LOAD /opt/microchip/xc32/v4.21/bin/bin/../../lib/gcc/pic32mx/8.3.1/../../../../pic32mx/lib/fpu64/libm-musl.a
LOAD /opt/microchip/xc32/v4.21/bin/bin/../../lib/gcc/pic32mx/8.3.1/../../../../pic32mx/lib/fpu64/libdspr2.a
LOAD /opt/microchip/xc32/v4.21/bin/bin/../../lib/gcc/pic32mx/8.3.1/../../../../pic32mx/lib/fpu64/libdsp.a
LOAD /opt/microchip/xc32/v4.21/bin/bin/../../lib/gcc/pic32mx/8.3.1/fpu64/libgcc.a
END GROUP
LOAD /opt/microchip/xc32/v4.21/bin/bin/../../lib/gcc/pic32mx/8.3.1/fpu64/libgcc.a
OUTPUT(dist/nsensor/production/wfi.X.production.elf elf32-tradlittlemips)
LOAD stack
LOAD data_init

.reginfo        0x0000000000000000       0x18
 .reginfo       0x0000000000000000       0x18 /opt/microchip/xc32/v4.21/bin/bin/../../lib/gcc/pic32mx/8.3.1/../../../../pic32mx/lib/fpu64/debug-exception-return.o

__xc_reference_data
                0x0000000000000000      0x168
 __xc_reference_data
                0x0000000000000000       0x24 /opt/microchip/xc32/v4.21/bin/bin/../../lib/gcc/pic32mx/8.3.1/../../../../pic32mx/lib/fpu64/libc-musl.a(stdout.o)
                0x0000000000000000                __stdout_needs_init
 __xc_reference_data
                0x0000000000000024       0x48 /opt/microchip/xc32/v4.21/bin/bin/../../lib/gcc/pic32mx/8.3.1/../../../../pic32mx/lib/fpu64/libc-musl.a(__io_init_needed.o)
                0x0000000000000024                __io_init_needed
                0x0000000000000048                __io_init_needs_file
 __xc_reference_data
                0x000000000000006c       0x24 /opt/microchip/xc32/v4.21/bin/bin/../../lib/gcc/pic32mx/8.3.1/../../../../pic32mx/lib/fpu64/libc-musl.a(vfprintf.o)
                0x000000000000006c                __vfprintf_needs_fmt
 __xc_reference_data
                0x0000000000000090       0x24 /opt/microchip/xc32/v4.21/bin/bin/../../lib/gcc/pic32mx/8.3.1/../../../../pic32mx/lib/fpu64/libc-musl.a(__io_file_needed.o)
                0x0000000000000090                __io_file_needed
 __xc_reference_data
                0x00000000000000b4       0xb4 /opt/microchip/xc32/v4.21/bin/bin/../../lib/gcc/pic32mx/8.3.1/../../../../pic32mx/lib/fpu64/libc-musl.a(__io_fmt_needed.o)
                0x00000000000000b4                __io_fmt_needed

.stack          0x00000000800046c0      0x400
 .stack         0x00000000800046c0      0x400 stack

.__vector_offset_BF8106B8_data
                0x00000000bf8106b8       0x80
 .__vector_offset_BF8106B8_data
                0x00000000bf8106b8       0x80 /tmp/ccRzzlsZ.o

.__vector_offset_BF810540_data
                0x00000000bf810540       0x70
 .__vector_offset_BF810540_data
                0x00000000bf810540       0x70 /tmp/ccRzzlsZ.o

.__vector_offset_BF81065C_data
                0x00000000bf81065c       0x58
 .__vector_offset_BF81065C_data
                0x00000000bf81065c       0x58 /tmp/ccRzzlsZ.o

.__vector_offset_BF8105CC_data
                0x00000000bf8105cc       0x40
 .__vector_offset_BF8105CC_data
                0x00000000bf8105cc       0x40 /tmp/ccRzzlsZ.o

.__vector_offset_BF8107A0_data
                0x00000000bf8107a0       0x2c
 .__vector_offset_BF8107A0_data
                0x00000000bf8107a0       0x2c /tmp/ccRzzlsZ.o

.__vector_offset_BF8107E4_data
                0x00000000bf8107e4       0x28
 .__vector_offset_BF8107E4_data
                0x00000000bf8107e4       0x28 /tmp/ccRzzlsZ.o

.__vector_offset_BF810614_data
                0x00000000bf810614       0x24
 .__vector_offset_BF810614_data
                0x00000000bf810614       0x24 /tmp/ccRzzlsZ.o

.__vector_offset_BF8105B8_data
                0x00000000bf8105b8       0x10
 .__vector_offset_BF8105B8_data
                0x00000000bf8105b8       0x10 /tmp/ccRzzlsZ.o

.__vector_offset_BF810748_data
                0x00000000bf810748       0x10
 .__vector_offset_BF810748_data
                0x00000000bf810748       0x10 /tmp/ccRzzlsZ.o

.__vector_offset_BF810818_data
                0x00000000bf810818       0x10
 .__vector_offset_BF810818_data
                0x00000000bf810818       0x10 /tmp/ccRzzlsZ.o

.__vector_offset_BF810924_data
                0x00000000bf810924       0x10
 .__vector_offset_BF810924_data
                0x00000000bf810924       0x10 /tmp/ccRzzlsZ.o

.__vector_offset_BF8108F8_data
                0x00000000bf8108f8        0xc
 .__vector_offset_BF8108F8_data
                0x00000000bf8108f8        0xc /tmp/ccRzzlsZ.o

.__vector_offset_BF810914_data
                0x00000000bf810914        0xc
 .__vector_offset_BF810914_data
                0x00000000bf810914        0xc /tmp/ccRzzlsZ.o

.__vector_offset_BF810788_data
                0x00000000bf810788        0x8
 .__vector_offset_BF810788_data
                0x00000000bf810788        0x8 /tmp/ccRzzlsZ.o

.__vector_offset_BF810938_data
                0x00000000bf810938        0x8
 .__vector_offset_BF810938_data
                0x00000000bf810938        0x8 /tmp/ccRzzlsZ.o

.rgbOledBmp_page
                0x00000000a0009ff0        0x5
 .rgbOledBmp_page
                0x00000000a0009ff0        0x5 build/nsensor/production/_ext/1684788505/OledDriver.o
                0x00000000a0009ff0                rgbOledBmp_page

.__vector_offset_BF8107DC_data
                0x00000000bf8107dc        0x4
 .__vector_offset_BF8107DC_data
                0x00000000bf8107dc        0x4 /tmp/ccRzzlsZ.o

.__vector_offset_BF810834_data
                0x00000000bf810834        0x4
 .__vector_offset_BF810834_data
                0x00000000bf810834        0x4 /tmp/ccRzzlsZ.o

.__vector_offset_BF8108D8_data
                0x00000000bf8108d8        0x4
 .__vector_offset_BF8108D8_data
                0x00000000bf8108d8        0x4 /tmp/ccRzzlsZ.o

.data           0x00000000800002a8      0x3f8
 .data          0x00000000800002a8      0x248 build/nsensor/production/_ext/1360937237/main.o
                0x00000000800002a8                imu0
                0x0000000080000380                fft0
                0x00000000800003c8                accel
                0x0000000080000448                xpid
                0x0000000080000480                ypid
                0x00000000800004b8                zpid
 .data          0x00000000800004f0      0x1b0 build/nsensor/production/_ext/1360937237/host.o
                0x00000000800004f0                cmd_buffer
                0x00000000800005f0                response_buffer
                0x0000000080000630                host0

.data           0x00000000800006a0       0xb0
 .data          0x00000000800006a0       0x68 /opt/microchip/xc32/v4.21/bin/bin/../../lib/gcc/pic32mx/8.3.1/../../../../pic32mx/lib/fpu64/libc-musl.a(stdout.o)
                0x00000000800006a0                __stdout_used
 .data          0x0000000080000708       0x48 build/nsensor/production/_ext/1360937237/cmd_scanner.o

.data           0x0000000080000750       0x60
 .data          0x0000000080000750       0x40 build/nsensor/production/_ext/1360937237/bma490l.o
 .data          0x0000000080000790       0x20 build/nsensor/production/_ext/1360937237/sca3300.o
                0x0000000080000790                sdata

.data._stdout   0x00000000800002a4        0x4
 .data._stdout  0x00000000800002a4        0x4 /opt/microchip/xc32/v4.21/bin/bin/../../lib/gcc/pic32mx/8.3.1/../../../../pic32mx/lib/fpu64/libc-musl.a(stdout.o)
                0x00000000800002a4                _stdout

.data%z1        0x0000000000000000        0x0
 .data          0x0000000000000000        0x0 /opt/microchip/xc32/v4.21/bin/bin/../../lib/gcc/pic32mx/8.3.1/../../../../pic32mx/lib/fpu64/libpic32.a(errno.o)

.data%z2        0x0000000000000000        0x0
 .data          0x0000000000000000        0x0 /opt/microchip/xc32/v4.21/bin/bin/../../lib/gcc/pic32mx/8.3.1/../../../../pic32mx/lib/fpu64/libpic32.a(close.o)

.data%z3        0x0000000000000000        0x0
 .data          0x0000000000000000        0x0 /opt/microchip/xc32/v4.21/bin/bin/../../lib/gcc/pic32mx/8.3.1/../../../../pic32mx/lib/fpu64/libpic32.a(lseek.o)

.data%z4        0x0000000000000000        0x0
 .data          0x0000000000000000        0x0 /opt/microchip/xc32/v4.21/bin/bin/../../lib/gcc/pic32mx/8.3.1/../../../../pic32mx/lib/fpu64/libpic32.a(sbrk.o)

.data%z5        0x0000000000000000        0x0
 .data          0x0000000000000000        0x0 /opt/microchip/xc32/v4.21/bin/bin/../../lib/gcc/pic32mx/8.3.1/fpu64/libgcc.a(_umoddi3.o)

.data%z6        0x0000000000000000        0x0
 .data          0x0000000000000000        0x0 /opt/microchip/xc32/v4.21/bin/bin/../../lib/gcc/pic32mx/8.3.1/fpu64/libgcc.a(_udivdi3.o)

.data%z7        0x0000000000000000        0x0
 .data          0x0000000000000000        0x0 /opt/microchip/xc32/v4.21/bin/bin/../../lib/gcc/pic32mx/8.3.1/fpu64/libgcc.a(_ashldi3.o)

.data%z8        0x0000000000000000        0x0
 .data          0x0000000000000000        0x0 /opt/microchip/xc32/v4.21/bin/bin/../../lib/gcc/pic32mx/8.3.1/fpu64/libgcc.a(_lshrdi3.o)

.data%z9        0x0000000000000000        0x0
 .data          0x0000000000000000        0x0 /opt/microchip/xc32/v4.21/bin/bin/../../lib/gcc/pic32mx/8.3.1/../../../../pic32mx/lib/fpu64/libm-musl.a(__sin.o)

.data%z10       0x0000000000000000        0x0
 .data          0x0000000000000000        0x0 /opt/microchip/xc32/v4.21/bin/bin/../../lib/gcc/pic32mx/8.3.1/../../../../pic32mx/lib/fpu64/libm-musl.a(__rem_pio2_large.o)

.data%z11       0x0000000000000000        0x0
 .data          0x0000000000000000        0x0 /opt/microchip/xc32/v4.21/bin/bin/../../lib/gcc/pic32mx/8.3.1/../../../../pic32mx/lib/fpu64/libm-musl.a(__rem_pio2.o)

.data%z12       0x0000000000000000        0x0
 .data          0x0000000000000000        0x0 /opt/microchip/xc32/v4.21/bin/bin/../../lib/gcc/pic32mx/8.3.1/../../../../pic32mx/lib/fpu64/libm-musl.a(__cos.o)

.data%z13       0x0000000000000000        0x0
 .data          0x0000000000000000        0x0 /opt/microchip/xc32/v4.21/bin/bin/../../lib/gcc/pic32mx/8.3.1/../../../../pic32mx/lib/fpu64/libm-musl.a(sin.o)

.data%z14       0x0000000000000000        0x0
 .data          0x0000000000000000        0x0 /opt/microchip/xc32/v4.21/bin/bin/../../lib/gcc/pic32mx/8.3.1/../../../../pic32mx/lib/fpu64/libm-musl.a(scalbn.o)

.data%z15       0x0000000000000000        0x0
 .data          0x0000000000000000        0x0 /opt/microchip/xc32/v4.21/bin/bin/../../lib/gcc/pic32mx/8.3.1/../../../../pic32mx/lib/fpu64/libm-musl.a(fma.o)

.data%z16       0x0000000000000000        0x0
 .data          0x0000000000000000        0x0 /opt/microchip/xc32/v4.21/bin/bin/../../lib/gcc/pic32mx/8.3.1/../../../../pic32mx/lib/fpu64/libm-musl.a(floor.o)

.data%z17       0x0000000000000000        0x0
 .data          0x0000000000000000        0x0 /opt/microchip/xc32/v4.21/bin/bin/../../lib/gcc/pic32mx/8.3.1/../../../../pic32mx/lib/fpu64/libm-musl.a(cos.o)

.data%z18       0x0000000000000000        0x0
 .data          0x0000000000000000        0x0 /opt/microchip/xc32/v4.21/bin/bin/../../lib/gcc/pic32mx/8.3.1/../../../../pic32mx/lib/fpu64/libc-musl.a(__fmt_a.o)

.data%z19       0x0000000000000000        0x0
 .data          0x0000000000000000        0x0 /opt/microchip/xc32/v4.21/bin/bin/../../lib/gcc/pic32mx/8.3.1/../../../../pic32mx/lib/fpu64/libc-musl.a(libc.o)

.data%z20       0x0000000000000000        0x0
 .data          0x0000000000000000        0x0 /opt/microchip/xc32/v4.21/bin/bin/../../lib/gcc/pic32mx/8.3.1/../../../../pic32mx/lib/fpu64/libc-musl.a(__io_fmt_needed.o)

.data%z21       0x0000000000000000        0x0
 .data          0x0000000000000000        0x0 /opt/microchip/xc32/v4.21/bin/bin/../../lib/gcc/pic32mx/8.3.1/../../../../pic32mx/lib/fpu64/libc-musl.a(__io_file_needed.o)

.data%z22       0x0000000000000000        0x0
 .data          0x0000000000000000        0x0 /opt/microchip/xc32/v4.21/bin/bin/../../lib/gcc/pic32mx/8.3.1/../../../../pic32mx/lib/fpu64/libc-musl.a(__init_stdio.o)

.data%z23       0x0000000000000000        0x0
 .data          0x0000000000000000        0x0 /opt/microchip/xc32/v4.21/bin/bin/../../lib/gcc/pic32mx/8.3.1/../../../../pic32mx/lib/fpu64/libc-musl.a(expand_heap.o)

.data%z24       0x0000000000000000        0x0
 .data          0x0000000000000000        0x0 /opt/microchip/xc32/v4.21/bin/bin/../../lib/gcc/pic32mx/8.3.1/../../../../pic32mx/lib/fpu64/libc-musl.a(malloc.o)

.data%z25       0x0000000000000000        0x0
 .data          0x0000000000000000        0x0 /opt/microchip/xc32/v4.21/bin/bin/../../lib/gcc/pic32mx/8.3.1/../../../../pic32mx/lib/fpu64/libc-musl.a(stpcpy.o)

.data%z26       0x0000000000000000        0x0
 .data          0x0000000000000000        0x0 /opt/microchip/xc32/v4.21/bin/bin/../../lib/gcc/pic32mx/8.3.1/../../../../pic32mx/lib/fpu64/libc-musl.a(vfprintf.o)

.data%z27       0x0000000000000000        0x0
 .data          0x0000000000000000        0x0 /opt/microchip/xc32/v4.21/bin/bin/../../lib/gcc/pic32mx/8.3.1/../../../../pic32mx/lib/fpu64/libc-musl.a(__stdio_close.o)

.data%z28       0x0000000000000000        0x0
 .data          0x0000000000000000        0x0 /opt/microchip/xc32/v4.21/bin/bin/../../lib/gcc/pic32mx/8.3.1/../../../../pic32mx/lib/fpu64/libc-musl.a(__out.o)

.data%z29       0x0000000000000000        0x0
 .data          0x0000000000000000        0x0 /opt/microchip/xc32/v4.21/bin/bin/../../lib/gcc/pic32mx/8.3.1/../../../../pic32mx/lib/fpu64/libc-musl.a(__io_init_needed.o)

.data%z30       0x0000000000000000        0x0
 .data          0x0000000000000000        0x0 /opt/microchip/xc32/v4.21/bin/bin/../../lib/gcc/pic32mx/8.3.1/../../../../pic32mx/lib/fpu64/libc-musl.a(__fopen.o)

.data%z31       0x0000000000000000        0x0
 .data          0x0000000000000000        0x0 /opt/microchip/xc32/v4.21/bin/bin/../../lib/gcc/pic32mx/8.3.1/../../../../pic32mx/lib/fpu64/libc-musl.a(__int_vsnprintf.o)

.data%z32       0x0000000000000000        0x0
 .data          0x0000000000000000        0x0 /opt/microchip/xc32/v4.21/bin/bin/../../lib/gcc/pic32mx/8.3.1/../../../../pic32mx/lib/fpu64/libc-musl.a(__int_vfprintf.o)

.data%z33       0x0000000000000000        0x0
 .data          0x0000000000000000        0x0 /opt/microchip/xc32/v4.21/bin/bin/../../lib/gcc/pic32mx/8.3.1/../../../../pic32mx/lib/fpu64/libc-musl.a(toupper.o)

.data%z34       0x0000000000000000        0x0
 .data          0x0000000000000000        0x0 /opt/microchip/xc32/v4.21/bin/bin/../../lib/gcc/pic32mx/8.3.1/../../../../pic32mx/lib/fpu64/libc-musl.a(tolower.o)

.data%z35       0x0000000000000000        0x0
 .data          0x0000000000000000        0x0 /opt/microchip/xc32/v4.21/bin/bin/../../lib/gcc/pic32mx/8.3.1/../../../../pic32mx/lib/fpu64/libc-musl.a(strncmp.o)

.data%z36       0x0000000000000000        0x0
 .data          0x0000000000000000        0x0 /opt/microchip/xc32/v4.21/bin/bin/../../lib/gcc/pic32mx/8.3.1/../../../../pic32mx/lib/fpu64/libc-musl.a(strcpy.o)

.data%z37       0x0000000000000000        0x0
 .data          0x0000000000000000        0x0 /opt/microchip/xc32/v4.21/bin/bin/../../lib/gcc/pic32mx/8.3.1/../../../../pic32mx/lib/fpu64/libc-musl.a(atoi.o)

.data%z38       0x0000000000000000        0x0
 .data          0x0000000000000000        0x0 /opt/microchip/xc32/v4.21/bin/bin/../../lib/gcc/pic32mx/8.3.1/../../../../pic32mx/lib/fpu64/libc-musl.a(vprintf.o)

.data%z39       0x0000000000000000        0x0
 .data          0x0000000000000000        0x0 /opt/microchip/xc32/v4.21/bin/bin/../../lib/gcc/pic32mx/8.3.1/../../../../pic32mx/lib/fpu64/libc-musl.a(__printf_core.o)

.data%z40       0x0000000000000000        0x0
 .data          0x0000000000000000        0x0 /opt/microchip/xc32/v4.21/bin/bin/../../lib/gcc/pic32mx/8.3.1/../../../../pic32mx/lib/fpu64/libc-musl.a(__pop_ptr.o)

.data%z41       0x0000000000000000        0x0
 .data          0x0000000000000000        0x0 /opt/microchip/xc32/v4.21/bin/bin/../../lib/gcc/pic32mx/8.3.1/../../../../pic32mx/lib/fpu64/libc-musl.a(__pop_int.o)

.data%z42       0x0000000000000000        0x0
 .data          0x0000000000000000        0x0 /opt/microchip/xc32/v4.21/bin/bin/../../lib/gcc/pic32mx/8.3.1/../../../../pic32mx/lib/fpu64/libc-musl.a(__pop_float.o)

.data%z43       0x0000000000000000        0x0
 .data          0x0000000000000000        0x0 /opt/microchip/xc32/v4.21/bin/bin/../../lib/gcc/pic32mx/8.3.1/../../../../pic32mx/lib/fpu64/libc-musl.a(__fmt_x.o)

.data%z44       0x0000000000000000        0x0
 .data          0x0000000000000000        0x0 /opt/microchip/xc32/v4.21/bin/bin/../../lib/gcc/pic32mx/8.3.1/../../../../pic32mx/lib/fpu64/libc-musl.a(__fmt_u.o)

.data%z45       0x0000000000000000        0x0
 .data          0x0000000000000000        0x0 /opt/microchip/xc32/v4.21/bin/bin/../../lib/gcc/pic32mx/8.3.1/../../../../pic32mx/lib/fpu64/libc-musl.a(__fmt_s.o)

.data%z46       0x0000000000000000        0x0
 .data          0x0000000000000000        0x0 /opt/microchip/xc32/v4.21/bin/bin/../../lib/gcc/pic32mx/8.3.1/../../../../pic32mx/lib/fpu64/libc-musl.a(__fmt_o.o)

.data%z47       0x0000000000000000        0x0
 .data          0x0000000000000000        0x0 /opt/microchip/xc32/v4.21/bin/bin/../../lib/gcc/pic32mx/8.3.1/../../../../pic32mx/lib/fpu64/libc-musl.a(__fmt_fp.o)

.data%z48       0x0000000000000000        0x0
 .data          0x0000000000000000        0x0 /opt/microchip/xc32/v4.21/bin/bin/../../lib/gcc/pic32mx/8.3.1/../../../../pic32mx/lib/fpu64/libc-musl.a(__fmt_d.o)

.data%z49       0x0000000000000000        0x0
 .data          0x0000000000000000        0x0 /opt/microchip/xc32/v4.21/bin/bin/../../lib/gcc/pic32mx/8.3.1/../../../../pic32mx/lib/fpu64/libc-musl.a(__sio_snprintf_s.o)

.data%z50       0x0000000000000000        0x0
 .data          0x0000000000000000        0x0 /opt/microchip/xc32/v4.21/bin/bin/../../lib/gcc/pic32mx/8.3.1/../../../../pic32mx/lib/fpu64/libc-musl.a(__sio_snprintf_doux.o)

.data%z51       0x0000000000000000        0x0
 .data          0x0000000000000000        0x0 /opt/microchip/xc32/v4.21/bin/bin/../../lib/gcc/pic32mx/8.3.1/../../../../pic32mx/lib/fpu64/libc-musl.a(__sio_snprintf_dosux.o)

.data%z52       0x0000000000000000        0x0
 .data          0x0000000000000000        0x0 /opt/microchip/xc32/v4.21/bin/bin/../../lib/gcc/pic32mx/8.3.1/../../../../pic32mx/lib/fpu64/libc-musl.a(__sio_snprintf_dfosux.o)

.data%z53       0x0000000000000000        0x0
 .data          0x0000000000000000        0x0 /opt/microchip/xc32/v4.21/bin/bin/../../lib/gcc/pic32mx/8.3.1/../../../../pic32mx/lib/fpu64/libc-musl.a(__sio_printf_s.o)

.data%z54       0x0000000000000000        0x0
 .data          0x0000000000000000        0x0 /opt/microchip/xc32/v4.21/bin/bin/../../lib/gcc/pic32mx/8.3.1/../../../../pic32mx/lib/fpu64/libpic32.a(defaultinterrupt.o)

.data%z55       0x0000000000000000        0x0
 .data          0x0000000000000000        0x0 /opt/microchip/xc32/v4.21/bin/bin/../../lib/gcc/pic32mx/8.3.1/../../../../pic32mx/lib/fpu64/libpic32.a(general-exception.o)

.data%z56       0x0000000000000000        0x0
 .data          0x0000000000000000        0x0 /opt/microchip/xc32/v4.21/bin/bin/../../lib/gcc/pic32mx/8.3.1/../../../../pic32mx/lib/fpu64/libpic32.a(pic32_data_init_0_1.o)

.data%z57       0x0000000000000000        0x0
 .data          0x0000000000000000        0x0 /opt/microchip/xc32/v4.21/bin/bin/../../lib/gcc/pic32mx/8.3.1/../../../../pic32mx/lib/fpu64/libpic32.a(pic32_data_init_wrapper.o)

.data%z58       0x0000000000000000        0x0
 .data          0x0000000000000000        0x0 /opt/microchip/xc32/v4.21/bin/bin/../../lib/gcc/pic32mx/8.3.1/../../../../pic32mx/lib/fpu64/libpic32.a(default-nmi-handler.o)

.data%z59       0x0000000000000000        0x0
 .data          0x0000000000000000        0x0 /opt/microchip/xc32/v4.21/bin/bin/../../lib/gcc/pic32mx/8.3.1/../../../../pic32mx/lib/fpu64/libpic32.a(default-on-bootstrap.o)

.data%z60       0x0000000000000000        0x0
 .data          0x0000000000000000        0x0 /opt/microchip/xc32/v4.21/bin/bin/../../lib/gcc/pic32mx/8.3.1/../../../../pic32mx/lib/fpu64/libpic32.a(default-on-reset.o)

.data%z61       0x0000000000000000        0x0
 .data          0x0000000000000000        0x0 /opt/microchip/xc32/v4.21/bin/bin/../../lib/gcc/pic32mx/8.3.1/../../../../pic32mx/lib/fpu64/libpic32.a(strlen.o)

.data%z62       0x0000000000000000        0x0
 .data          0x0000000000000000        0x0 /opt/microchip/xc32/v4.21/bin/bin/../../lib/gcc/pic32mx/8.3.1/../../../../pic32mx/lib/fpu64/libpic32.a(memset.o)

.data%z63       0x0000000000000000        0x0
 .data          0x0000000000000000        0x0 /opt/microchip/xc32/v4.21/bin/bin/../../lib/gcc/pic32mx/8.3.1/../../../../pic32mx/lib/fpu64/libpic32.a(memcpy.o)

.data%z64       0x0000000000000000        0x0
 .data          0x0000000000000000        0x0 /opt/microchip/xc32/v4.21/bin/bin/../../lib/gcc/pic32mx/8.3.1/../../../../pic32mx/lib/fpu64/pic32_software_reset.o

.data%z65       0x0000000000000000        0x0
 .data          0x0000000000000000        0x0 /tmp/ccs5yPaT.o

.data%z66       0x0000000000000000        0x0
 .data          0x0000000000000000        0x0 /tmp/ccRzzlsZ.o

.data%z67       0x0000000000000000        0x0
 .data          0x0000000000000000        0x0 /tmp/ccWIkHyp.o

.data%z68       0x0000000000000000        0x0
 .data          0x0000000000000000        0x0 /tmp/ccBkuxsy.o

.data%z69       0x0000000000000000        0x0
 .data          0x0000000000000000        0x0 build/nsensor/production/_ext/1360937237/canfd.o

.data%z70       0x0000000000000000        0x0
 .data          0x0000000000000000        0x0 build/nsensor/production/_ext/1360937237/fft.o

.data%z71       0x0000000000000000        0x0
 .data          0x0000000000000000        0x0 build/nsensor/production/_ext/1360937237/do_fft.o

.data%z72       0x0000000000000000        0x0
 .data          0x0000000000000000        0x0 build/nsensor/production/_ext/1360937237/pid.o

.data%z73       0x0000000000000000        0x0
 .data          0x0000000000000000        0x0 build/nsensor/production/_ext/1360937237/imu.o

.data%z74       0x0000000000000000        0x0
 .data          0x0000000000000000        0x0 build/nsensor/production/_ext/1360937237/gfx.o

.data%z75       0x0000000000000000        0x0
 .data          0x0000000000000000        0x0 build/nsensor/production/_ext/1360937237/timers.o

.data%z76       0x0000000000000000        0x0
 .data          0x0000000000000000        0x0 build/nsensor/production/_ext/1856863253/initialization.o

.data%z77       0x0000000000000000        0x0
 .data          0x0000000000000000        0x0 build/nsensor/production/_ext/1856863253/interrupts.o

.data%z78       0x0000000000000000        0x0
 .data          0x0000000000000000        0x0 build/nsensor/production/_ext/1856863253/exceptions.o

.data%z79       0x0000000000000000        0x0
 .data          0x0000000000000000        0x0 build/nsensor/production/_ext/725740559/xc32_monitor.o

.data%z80       0x0000000000000000        0x0
 .data          0x0000000000000000        0x0 build/nsensor/production/_ext/2015359111/plib_uart1.o

.data%z81       0x0000000000000000        0x0
 .data          0x0000000000000000        0x0 build/nsensor/production/_ext/619200320/plib_tmr2.o

.data%z82       0x0000000000000000        0x0
 .data          0x0000000000000000        0x0 build/nsensor/production/_ext/619200320/plib_tmr6.o

.data%z83       0x0000000000000000        0x0
 .data          0x0000000000000000        0x0 build/nsensor/production/_ext/619200320/plib_tmr3.o

.data%z84       0x0000000000000000        0x0
 .data          0x0000000000000000        0x0 build/nsensor/production/_ext/619200320/plib_tmr5.o

.data%z85       0x0000000000000000        0x0
 .data          0x0000000000000000        0x0 build/nsensor/production/_ext/619200320/plib_tmr9.o

.data%z86       0x0000000000000000        0x0
 .data          0x0000000000000000        0x0 build/nsensor/production/_ext/1877210129/plib_spi2_master.o

.data%z87       0x0000000000000000        0x0
 .data          0x0000000000000000        0x0 build/nsensor/production/_ext/1877210129/plib_spi1_master.o

.data%z88       0x0000000000000000        0x0
 .data          0x0000000000000000        0x0 build/nsensor/production/_ext/2015287515/plib_rtcc.o

.data%z89       0x0000000000000000        0x0
 .data          0x0000000000000000        0x0 build/nsensor/production/_ext/619197180/plib_qei2.o

.data%z90       0x0000000000000000        0x0
 .data          0x0000000000000000        0x0 build/nsensor/production/_ext/1955707305/plib_mcpwm.o

.data%z91       0x0000000000000000        0x0
 .data          0x0000000000000000        0x0 build/nsensor/production/_ext/2014956168/plib_gpio.o

.data%z92       0x0000000000000000        0x0
 .data          0x0000000000000000        0x0 build/nsensor/production/_ext/2014902340/plib_evic.o

.data%z93       0x0000000000000000        0x0
 .data          0x0000000000000000        0x0 build/nsensor/production/_ext/2014863652/plib_dmac.o

.data%z94       0x0000000000000000        0x0
 .data          0x0000000000000000        0x0 build/nsensor/production/_ext/1664108525/plib_coretimer.o

.data%z95       0x0000000000000000        0x0
 .data          0x0000000000000000        0x0 build/nsensor/production/_ext/619183945/plib_clk.o

.data%z96       0x0000000000000000        0x0
 .data          0x0000000000000000        0x0 build/nsensor/production/_ext/1965004555/plib_canfd1.o

.data%z97       0x0000000000000000        0x0
 .data          0x0000000000000000        0x0 build/nsensor/production/_ext/1966772718/plib_adchs.o

.data%z98       0x0000000000000000        0x0
 .data          0x0000000000000000        0x0 build/nsensor/production/_ext/1684788505/OledGrph.o

.data%z99       0x0000000000000000        0x0
 .data          0x0000000000000000        0x0 build/nsensor/production/_ext/1684788505/OledDriver.o

.data%z100      0x0000000000000000        0x0
 .data          0x0000000000000000        0x0 build/nsensor/production/_ext/1684788505/OledChar.o

.data%z101      0x0000000000000000        0x0
 .data          0x0000000000000000        0x0 build/nsensor/production/_ext/1684788505/lcd_drv.o

.data%z102      0x0000000000000000        0x0
 .data          0x0000000000000000        0x0 build/nsensor/production/_ext/1684788505/foo.o

.data%z103      0x0000000000000000        0x0
 .data          0x0000000000000000        0x0 build/nsensor/production/_ext/1684788505/FillPat.o

.data%z104      0x0000000000000000        0x0
 .data          0x0000000000000000        0x0 build/nsensor/production/_ext/1684788505/eadog.o

.data%z105      0x0000000000000000        0x0
 .data          0x0000000000000000        0x0 build/nsensor/production/_ext/1684788505/dogm-graphic.o

.data%z106      0x0000000000000000        0x0
 .data          0x0000000000000000        0x0 build/nsensor/production/_ext/1684788505/ChrFont0.o

.data%z107      0x0000000000000000        0x0
 .data          0x0000000000000000        0x0 /opt/microchip/xc32/v4.21/bin/bin/../../lib/gcc/pic32mx/8.3.1/../../../../pic32mx/lib/fpu64/debug-exception-return.o

.bss            0x00000000800007b0     0x2300
 .bss           0x00000000800007b0     0x2300 build/nsensor/production/_ext/1360937237/fft.o
                0x00000000800007b0                inB
                0x00000000800008b0                fft_buffer
                0x00000000800009b0                xr
                0x00000000800011b0                xi
                0x00000000800019b0                wr
                0x0000000080001db0                wi
                0x00000000800021b0                rev
                0x00000000800022b0                ww

.rgbOledBmp0    0x00000000a000a000      0xf00
 .rgbOledBmp0   0x00000000a000a000      0xf00 build/nsensor/production/_ext/1684788505/OledDriver.o
                0x00000000a000a000                rgbOledBmp0

.rgbOledBmp1    0x00000000a000af00      0xf00
 .rgbOledBmp1   0x00000000a000af00      0xf00 build/nsensor/production/_ext/1684788505/OledDriver.o
                0x00000000a000af00                rgbOledBmp1

.bss.can_message_buffer
                0x00000000a0002ab0      0x9c8
 .bss.can_message_buffer
                0x00000000a0002ab0      0x9c8 build/nsensor/production/_ext/1965004555/plib_canfd1.o

.bss            0x0000000080003478      0x798
 .bss           0x0000000080003478      0x518 build/nsensor/production/_ext/1965004555/plib_canfd1.o
 .bss           0x0000000080003990      0x280 build/nsensor/production/_ext/1360937237/host.o
                0x0000000080003b10                uart_buffer

.bss            0x0000000080003c10      0x41c
 .bss           0x0000000080003c10      0x210 /opt/microchip/xc32/v4.21/bin/bin/../../lib/gcc/pic32mx/8.3.1/../../../../pic32mx/lib/fpu64/libc-musl.a(malloc.o)
 .bss           0x0000000080003e20      0x20c build/nsensor/production/_ext/1360937237/main.o
                0x0000000080003e20                tickCount

.bss            0x000000008000402c      0x200
 .bss           0x000000008000402c      0x100 build/nsensor/production/_ext/1684788505/OledChar.o
                0x000000008000402c                rgbOledFontUser
 .bss           0x000000008000412c      0x100 build/nsensor/production/_ext/1360937237/imu.o
                0x000000008000412c                imu_buffer

.bss            0x000000008000422c      0x11c
 .bss           0x000000008000422c       0x94 build/nsensor/production/_ext/2014863652/plib_dmac.o
 .bss           0x00000000800042c0       0x88 build/nsensor/production/_ext/1360937237/cmd_scanner.o
                0x00000000800042c0                cli_ctx

.bss            0x0000000080004348       0xd0
 .bss           0x0000000080004348       0x80 build/nsensor/production/_ext/1360937237/canfd.o
 .bss           0x00000000800043c8       0x50 /opt/microchip/xc32/v4.21/bin/bin/../../lib/gcc/pic32mx/8.3.1/../../../../pic32mx/lib/fpu64/libc-musl.a(libc.o)
                0x00000000800043c8                __progname_full
                0x00000000800043c8                program_invocation_name
                0x00000000800043cc                __progname
                0x00000000800043cc                program_invocation_short_name
                0x00000000800043d0                __sysinfo
                0x00000000800043d4                __hwcap
                0x00000000800043d8                __libc

.bss            0x0000000080004418       0x50
 .bss           0x0000000080004418       0x28 build/nsensor/production/_ext/1877210129/plib_spi1_master.o
                0x0000000080004418                spi1Obj
 .bss           0x0000000080004440       0x28 build/nsensor/production/_ext/1877210129/plib_spi2_master.o
                0x0000000080004440                spi2Obj

.bss            0x0000000080004468       0x34
 .bss           0x0000000080004468       0x24 /opt/microchip/xc32/v4.21/bin/bin/../../lib/gcc/pic32mx/8.3.1/../../../../pic32mx/lib/fpu64/libpic32.a(sbrk.o)
                0x0000000080004484                _maxbrk
                0x0000000080004488                _minbrk
 .bss           0x000000008000448c       0x10 build/nsensor/production/_ext/1664108525/plib_coretimer.o
                0x000000008000448c                coreTmr

.rgbOledBmp_blank
                0x00000000a0009ff8        0x4
 .rgbOledBmp_blank
                0x00000000a0009ff8        0x4 build/nsensor/production/_ext/1684788505/OledDriver.o

.bss.errno      0x000000008000449c        0x4
 .bss.errno     0x000000008000449c        0x4 /opt/microchip/xc32/v4.21/bin/bin/../../lib/gcc/pic32mx/8.3.1/../../../../pic32mx/lib/fpu64/libpic32.a(errno.o)
                0x000000008000449c                errno

.bss%z108       0x0000000000000000        0x0
 .bss           0x0000000000000000        0x0 /opt/microchip/xc32/v4.21/bin/bin/../../lib/gcc/pic32mx/8.3.1/../../../../pic32mx/lib/fpu64/libpic32.a(errno.o)

.bss%z109       0x0000000000000000        0x0
 .bss           0x0000000000000000        0x0 /opt/microchip/xc32/v4.21/bin/bin/../../lib/gcc/pic32mx/8.3.1/../../../../pic32mx/lib/fpu64/libpic32.a(close.o)

.bss%z110       0x0000000000000000        0x0
 .bss           0x0000000000000000        0x0 /opt/microchip/xc32/v4.21/bin/bin/../../lib/gcc/pic32mx/8.3.1/../../../../pic32mx/lib/fpu64/libpic32.a(lseek.o)

.bss%z111       0x0000000000000000        0x0
 .bss           0x0000000000000000        0x0 /opt/microchip/xc32/v4.21/bin/bin/../../lib/gcc/pic32mx/8.3.1/fpu64/libgcc.a(_umoddi3.o)

.bss%z112       0x0000000000000000        0x0
 .bss           0x0000000000000000        0x0 /opt/microchip/xc32/v4.21/bin/bin/../../lib/gcc/pic32mx/8.3.1/fpu64/libgcc.a(_udivdi3.o)

.bss%z113       0x0000000000000000        0x0
 .bss           0x0000000000000000        0x0 /opt/microchip/xc32/v4.21/bin/bin/../../lib/gcc/pic32mx/8.3.1/fpu64/libgcc.a(_ashldi3.o)

.bss%z114       0x0000000000000000        0x0
 .bss           0x0000000000000000        0x0 /opt/microchip/xc32/v4.21/bin/bin/../../lib/gcc/pic32mx/8.3.1/fpu64/libgcc.a(_lshrdi3.o)

.bss%z115       0x0000000000000000        0x0
 .bss           0x0000000000000000        0x0 /opt/microchip/xc32/v4.21/bin/bin/../../lib/gcc/pic32mx/8.3.1/../../../../pic32mx/lib/fpu64/libm-musl.a(__sin.o)

.bss%z116       0x0000000000000000        0x0
 .bss           0x0000000000000000        0x0 /opt/microchip/xc32/v4.21/bin/bin/../../lib/gcc/pic32mx/8.3.1/../../../../pic32mx/lib/fpu64/libm-musl.a(__rem_pio2_large.o)

.bss%z117       0x0000000000000000        0x0
 .bss           0x0000000000000000        0x0 /opt/microchip/xc32/v4.21/bin/bin/../../lib/gcc/pic32mx/8.3.1/../../../../pic32mx/lib/fpu64/libm-musl.a(__rem_pio2.o)

.bss%z118       0x0000000000000000        0x0
 .bss           0x0000000000000000        0x0 /opt/microchip/xc32/v4.21/bin/bin/../../lib/gcc/pic32mx/8.3.1/../../../../pic32mx/lib/fpu64/libm-musl.a(__cos.o)

.bss%z119       0x0000000000000000        0x0
 .bss           0x0000000000000000        0x0 /opt/microchip/xc32/v4.21/bin/bin/../../lib/gcc/pic32mx/8.3.1/../../../../pic32mx/lib/fpu64/libm-musl.a(sin.o)

.bss%z120       0x0000000000000000        0x0
 .bss           0x0000000000000000        0x0 /opt/microchip/xc32/v4.21/bin/bin/../../lib/gcc/pic32mx/8.3.1/../../../../pic32mx/lib/fpu64/libm-musl.a(scalbn.o)

.bss%z121       0x0000000000000000        0x0
 .bss           0x0000000000000000        0x0 /opt/microchip/xc32/v4.21/bin/bin/../../lib/gcc/pic32mx/8.3.1/../../../../pic32mx/lib/fpu64/libm-musl.a(fma.o)

.bss%z122       0x0000000000000000        0x0
 .bss           0x0000000000000000        0x0 /opt/microchip/xc32/v4.21/bin/bin/../../lib/gcc/pic32mx/8.3.1/../../../../pic32mx/lib/fpu64/libm-musl.a(floor.o)

.bss%z123       0x0000000000000000        0x0
 .bss           0x0000000000000000        0x0 /opt/microchip/xc32/v4.21/bin/bin/../../lib/gcc/pic32mx/8.3.1/../../../../pic32mx/lib/fpu64/libm-musl.a(cos.o)

.bss%z124       0x0000000000000000        0x0
 .bss           0x0000000000000000        0x0 /opt/microchip/xc32/v4.21/bin/bin/../../lib/gcc/pic32mx/8.3.1/../../../../pic32mx/lib/fpu64/libc-musl.a(__fmt_a.o)

.bss%z125       0x0000000000000000        0x0
 .bss           0x0000000000000000        0x0 /opt/microchip/xc32/v4.21/bin/bin/../../lib/gcc/pic32mx/8.3.1/../../../../pic32mx/lib/fpu64/libc-musl.a(__io_fmt_needed.o)

.bss%z126       0x0000000000000000        0x0
 .bss           0x0000000000000000        0x0 /opt/microchip/xc32/v4.21/bin/bin/../../lib/gcc/pic32mx/8.3.1/../../../../pic32mx/lib/fpu64/libc-musl.a(__io_file_needed.o)

.bss%z127       0x0000000000000000        0x0
 .bss           0x0000000000000000        0x0 /opt/microchip/xc32/v4.21/bin/bin/../../lib/gcc/pic32mx/8.3.1/../../../../pic32mx/lib/fpu64/libc-musl.a(__init_stdio.o)

.bss%z128       0x0000000000000000        0x0
 .bss           0x0000000000000000        0x0 /opt/microchip/xc32/v4.21/bin/bin/../../lib/gcc/pic32mx/8.3.1/../../../../pic32mx/lib/fpu64/libc-musl.a(expand_heap.o)

.bss%z129       0x0000000000000000        0x0
 .bss           0x0000000000000000        0x0 /opt/microchip/xc32/v4.21/bin/bin/../../lib/gcc/pic32mx/8.3.1/../../../../pic32mx/lib/fpu64/libc-musl.a(stpcpy.o)

.bss%z130       0x0000000000000000        0x0
 .bss           0x0000000000000000        0x0 /opt/microchip/xc32/v4.21/bin/bin/../../lib/gcc/pic32mx/8.3.1/../../../../pic32mx/lib/fpu64/libc-musl.a(vfprintf.o)

.bss%z131       0x0000000000000000        0x0
 .bss           0x0000000000000000        0x0 /opt/microchip/xc32/v4.21/bin/bin/../../lib/gcc/pic32mx/8.3.1/../../../../pic32mx/lib/fpu64/libc-musl.a(__stdio_close.o)

.bss%z132       0x0000000000000000        0x0
 .bss           0x0000000000000000        0x0 /opt/microchip/xc32/v4.21/bin/bin/../../lib/gcc/pic32mx/8.3.1/../../../../pic32mx/lib/fpu64/libc-musl.a(__out.o)

.bss%z133       0x0000000000000000        0x0
 .bss           0x0000000000000000        0x0 /opt/microchip/xc32/v4.21/bin/bin/../../lib/gcc/pic32mx/8.3.1/../../../../pic32mx/lib/fpu64/libc-musl.a(__io_init_needed.o)

.bss%z134       0x0000000000000000        0x0
 .bss           0x0000000000000000        0x0 /opt/microchip/xc32/v4.21/bin/bin/../../lib/gcc/pic32mx/8.3.1/../../../../pic32mx/lib/fpu64/libc-musl.a(__fopen.o)

.bss%z135       0x0000000000000000        0x0
 .bss           0x0000000000000000        0x0 /opt/microchip/xc32/v4.21/bin/bin/../../lib/gcc/pic32mx/8.3.1/../../../../pic32mx/lib/fpu64/libc-musl.a(__int_vsnprintf.o)

.bss%z136       0x0000000000000000        0x0
 .bss           0x0000000000000000        0x0 /opt/microchip/xc32/v4.21/bin/bin/../../lib/gcc/pic32mx/8.3.1/../../../../pic32mx/lib/fpu64/libc-musl.a(__int_vfprintf.o)

.bss%z137       0x0000000000000000        0x0
 .bss           0x0000000000000000        0x0 /opt/microchip/xc32/v4.21/bin/bin/../../lib/gcc/pic32mx/8.3.1/../../../../pic32mx/lib/fpu64/libc-musl.a(toupper.o)

.bss%z138       0x0000000000000000        0x0
 .bss           0x0000000000000000        0x0 /opt/microchip/xc32/v4.21/bin/bin/../../lib/gcc/pic32mx/8.3.1/../../../../pic32mx/lib/fpu64/libc-musl.a(tolower.o)

.bss%z139       0x0000000000000000        0x0
 .bss           0x0000000000000000        0x0 /opt/microchip/xc32/v4.21/bin/bin/../../lib/gcc/pic32mx/8.3.1/../../../../pic32mx/lib/fpu64/libc-musl.a(strncmp.o)

.bss%z140       0x0000000000000000        0x0
 .bss           0x0000000000000000        0x0 /opt/microchip/xc32/v4.21/bin/bin/../../lib/gcc/pic32mx/8.3.1/../../../../pic32mx/lib/fpu64/libc-musl.a(strcpy.o)

.bss%z141       0x0000000000000000        0x0
 .bss           0x0000000000000000        0x0 /opt/microchip/xc32/v4.21/bin/bin/../../lib/gcc/pic32mx/8.3.1/../../../../pic32mx/lib/fpu64/libc-musl.a(atoi.o)

.bss%z142       0x0000000000000000        0x0
 .bss           0x0000000000000000        0x0 /opt/microchip/xc32/v4.21/bin/bin/../../lib/gcc/pic32mx/8.3.1/../../../../pic32mx/lib/fpu64/libc-musl.a(vprintf.o)

.bss%z143       0x0000000000000000        0x0
 .bss           0x0000000000000000        0x0 /opt/microchip/xc32/v4.21/bin/bin/../../lib/gcc/pic32mx/8.3.1/../../../../pic32mx/lib/fpu64/libc-musl.a(stdout.o)

.bss%z144       0x0000000000000000        0x0
 .bss           0x0000000000000000        0x0 /opt/microchip/xc32/v4.21/bin/bin/../../lib/gcc/pic32mx/8.3.1/../../../../pic32mx/lib/fpu64/libc-musl.a(__printf_core.o)

.bss%z145       0x0000000000000000        0x0
 .bss           0x0000000000000000        0x0 /opt/microchip/xc32/v4.21/bin/bin/../../lib/gcc/pic32mx/8.3.1/../../../../pic32mx/lib/fpu64/libc-musl.a(__pop_ptr.o)

.bss%z146       0x0000000000000000        0x0
 .bss           0x0000000000000000        0x0 /opt/microchip/xc32/v4.21/bin/bin/../../lib/gcc/pic32mx/8.3.1/../../../../pic32mx/lib/fpu64/libc-musl.a(__pop_int.o)

.bss%z147       0x0000000000000000        0x0
 .bss           0x0000000000000000        0x0 /opt/microchip/xc32/v4.21/bin/bin/../../lib/gcc/pic32mx/8.3.1/../../../../pic32mx/lib/fpu64/libc-musl.a(__pop_float.o)

.bss%z148       0x0000000000000000        0x0
 .bss           0x0000000000000000        0x0 /opt/microchip/xc32/v4.21/bin/bin/../../lib/gcc/pic32mx/8.3.1/../../../../pic32mx/lib/fpu64/libc-musl.a(__fmt_x.o)

.bss%z149       0x0000000000000000        0x0
 .bss           0x0000000000000000        0x0 /opt/microchip/xc32/v4.21/bin/bin/../../lib/gcc/pic32mx/8.3.1/../../../../pic32mx/lib/fpu64/libc-musl.a(__fmt_u.o)

.bss%z150       0x0000000000000000        0x0
 .bss           0x0000000000000000        0x0 /opt/microchip/xc32/v4.21/bin/bin/../../lib/gcc/pic32mx/8.3.1/../../../../pic32mx/lib/fpu64/libc-musl.a(__fmt_s.o)

.bss%z151       0x0000000000000000        0x0
 .bss           0x0000000000000000        0x0 /opt/microchip/xc32/v4.21/bin/bin/../../lib/gcc/pic32mx/8.3.1/../../../../pic32mx/lib/fpu64/libc-musl.a(__fmt_o.o)

.bss%z152       0x0000000000000000        0x0
 .bss           0x0000000000000000        0x0 /opt/microchip/xc32/v4.21/bin/bin/../../lib/gcc/pic32mx/8.3.1/../../../../pic32mx/lib/fpu64/libc-musl.a(__fmt_fp.o)

.bss%z153       0x0000000000000000        0x0
 .bss           0x0000000000000000        0x0 /opt/microchip/xc32/v4.21/bin/bin/../../lib/gcc/pic32mx/8.3.1/../../../../pic32mx/lib/fpu64/libc-musl.a(__fmt_d.o)

.bss%z154       0x0000000000000000        0x0
 .bss           0x0000000000000000        0x0 /opt/microchip/xc32/v4.21/bin/bin/../../lib/gcc/pic32mx/8.3.1/../../../../pic32mx/lib/fpu64/libc-musl.a(__sio_snprintf_s.o)

.bss%z155       0x0000000000000000        0x0
 .bss           0x0000000000000000        0x0 /opt/microchip/xc32/v4.21/bin/bin/../../lib/gcc/pic32mx/8.3.1/../../../../pic32mx/lib/fpu64/libc-musl.a(__sio_snprintf_doux.o)

.bss%z156       0x0000000000000000        0x0
 .bss           0x0000000000000000        0x0 /opt/microchip/xc32/v4.21/bin/bin/../../lib/gcc/pic32mx/8.3.1/../../../../pic32mx/lib/fpu64/libc-musl.a(__sio_snprintf_dosux.o)

.bss%z157       0x0000000000000000        0x0
 .bss           0x0000000000000000        0x0 /opt/microchip/xc32/v4.21/bin/bin/../../lib/gcc/pic32mx/8.3.1/../../../../pic32mx/lib/fpu64/libc-musl.a(__sio_snprintf_dfosux.o)

.bss%z158       0x0000000000000000        0x0
 .bss           0x0000000000000000        0x0 /opt/microchip/xc32/v4.21/bin/bin/../../lib/gcc/pic32mx/8.3.1/../../../../pic32mx/lib/fpu64/libc-musl.a(__sio_printf_s.o)

.bss%z159       0x0000000000000000        0x0
 .bss           0x0000000000000000        0x0 /opt/microchip/xc32/v4.21/bin/bin/../../lib/gcc/pic32mx/8.3.1/../../../../pic32mx/lib/fpu64/libpic32.a(defaultinterrupt.o)

.bss%z160       0x0000000000000000        0x0
 .bss           0x0000000000000000        0x0 /opt/microchip/xc32/v4.21/bin/bin/../../lib/gcc/pic32mx/8.3.1/../../../../pic32mx/lib/fpu64/libpic32.a(general-exception.o)

.bss%z161       0x0000000000000000        0x0
 .bss           0x0000000000000000        0x0 /opt/microchip/xc32/v4.21/bin/bin/../../lib/gcc/pic32mx/8.3.1/../../../../pic32mx/lib/fpu64/libpic32.a(pic32_data_init_0_1.o)

.bss%z162       0x0000000000000000        0x0
 .bss           0x0000000000000000        0x0 /opt/microchip/xc32/v4.21/bin/bin/../../lib/gcc/pic32mx/8.3.1/../../../../pic32mx/lib/fpu64/libpic32.a(pic32_data_init_wrapper.o)

.bss%z163       0x0000000000000000        0x0
 .bss           0x0000000000000000        0x0 /opt/microchip/xc32/v4.21/bin/bin/../../lib/gcc/pic32mx/8.3.1/../../../../pic32mx/lib/fpu64/libpic32.a(default-nmi-handler.o)

.bss%z164       0x0000000000000000        0x0
 .bss           0x0000000000000000        0x0 /opt/microchip/xc32/v4.21/bin/bin/../../lib/gcc/pic32mx/8.3.1/../../../../pic32mx/lib/fpu64/libpic32.a(default-on-bootstrap.o)

.bss%z165       0x0000000000000000        0x0
 .bss           0x0000000000000000        0x0 /opt/microchip/xc32/v4.21/bin/bin/../../lib/gcc/pic32mx/8.3.1/../../../../pic32mx/lib/fpu64/libpic32.a(default-on-reset.o)

.bss%z166       0x0000000000000000        0x0
 .bss           0x0000000000000000        0x0 /opt/microchip/xc32/v4.21/bin/bin/../../lib/gcc/pic32mx/8.3.1/../../../../pic32mx/lib/fpu64/libpic32.a(strlen.o)

.bss%z167       0x0000000000000000        0x0
 .bss           0x0000000000000000        0x0 /opt/microchip/xc32/v4.21/bin/bin/../../lib/gcc/pic32mx/8.3.1/../../../../pic32mx/lib/fpu64/libpic32.a(memset.o)

.bss%z168       0x0000000000000000        0x0
 .bss           0x0000000000000000        0x0 /opt/microchip/xc32/v4.21/bin/bin/../../lib/gcc/pic32mx/8.3.1/../../../../pic32mx/lib/fpu64/libpic32.a(memcpy.o)

.bss%z169       0x0000000000000000        0x0
 .bss           0x0000000000000000        0x0 /opt/microchip/xc32/v4.21/bin/bin/../../lib/gcc/pic32mx/8.3.1/../../../../pic32mx/lib/fpu64/pic32_software_reset.o

.bss%z170       0x0000000000000000        0x0
 .bss           0x0000000000000000        0x0 /tmp/ccs5yPaT.o

.bss%z171       0x0000000000000000        0x0
 .bss           0x0000000000000000        0x0 /tmp/ccRzzlsZ.o

.bss%z172       0x0000000000000000        0x0
 .bss           0x0000000000000000        0x0 /tmp/ccWIkHyp.o

.bss%z173       0x0000000000000000        0x0
 .bss           0x0000000000000000        0x0 /tmp/ccBkuxsy.o

.bss%z174       0x0000000000000000        0x0
 .bss           0x0000000000000000        0x0 build/nsensor/production/_ext/1360937237/do_fft.o

.bss%z175       0x0000000000000000        0x0
 .bss           0x0000000000000000        0x0 build/nsensor/production/_ext/1360937237/pid.o

.bss%z176       0x0000000000000000        0x0
 .bss           0x0000000000000000        0x0 build/nsensor/production/_ext/1360937237/gfx.o

.bss%z177       0x0000000000000000        0x0
 .bss           0x0000000000000000        0x0 build/nsensor/production/_ext/1360937237/sca3300.o

.bss%z178       0x0000000000000000        0x0
 .bss           0x0000000000000000        0x0 build/nsensor/production/_ext/1360937237/timers.o

.bss%z179       0x0000000000000000        0x0
 .bss           0x0000000000000000        0x0 build/nsensor/production/_ext/1360937237/bma490l.o

.bss%z180       0x0000000000000000        0x0
 .bss           0x0000000000000000        0x0 build/nsensor/production/_ext/1856863253/initialization.o

.bss%z181       0x0000000000000000        0x0
 .bss           0x0000000000000000        0x0 build/nsensor/production/_ext/1856863253/interrupts.o

.bss%z182       0x0000000000000000        0x0
 .bss           0x0000000000000000        0x0 build/nsensor/production/_ext/1856863253/exceptions.o

.bss%z183       0x0000000000000000        0x0
 .bss           0x0000000000000000        0x0 build/nsensor/production/_ext/725740559/xc32_monitor.o

.bss%z184       0x0000000000000000        0x0
 .bss           0x0000000000000000        0x0 build/nsensor/production/_ext/2015359111/plib_uart1.o

.bss%z185       0x0000000000000000        0x0
 .bss           0x0000000000000000        0x0 build/nsensor/production/_ext/619200320/plib_tmr2.o

.bss%z186       0x0000000000000000        0x0
 .bss           0x0000000000000000        0x0 build/nsensor/production/_ext/619200320/plib_tmr6.o

.bss%z187       0x0000000000000000        0x0
 .bss           0x0000000000000000        0x0 build/nsensor/production/_ext/619200320/plib_tmr3.o

.bss%z188       0x0000000000000000        0x0
 .bss           0x0000000000000000        0x0 build/nsensor/production/_ext/619200320/plib_tmr5.o

.bss%z189       0x0000000000000000        0x0
 .bss           0x0000000000000000        0x0 build/nsensor/production/_ext/619200320/plib_tmr9.o

.bss%z190       0x0000000000000000        0x0
 .bss           0x0000000000000000        0x0 build/nsensor/production/_ext/2015287515/plib_rtcc.o

.bss%z191       0x0000000000000000        0x0
 .bss           0x0000000000000000        0x0 build/nsensor/production/_ext/619197180/plib_qei2.o

.bss%z192       0x0000000000000000        0x0
 .bss           0x0000000000000000        0x0 build/nsensor/production/_ext/1955707305/plib_mcpwm.o

.bss%z193       0x0000000000000000        0x0
 .bss           0x0000000000000000        0x0 build/nsensor/production/_ext/2014956168/plib_gpio.o

.bss%z194       0x0000000000000000        0x0
 .bss           0x0000000000000000        0x0 build/nsensor/production/_ext/2014902340/plib_evic.o

.bss%z195       0x0000000000000000        0x0
 .bss           0x0000000000000000        0x0 build/nsensor/production/_ext/619183945/plib_clk.o

.bss%z196       0x0000000000000000        0x0
 .bss           0x0000000000000000        0x0 build/nsensor/production/_ext/1966772718/plib_adchs.o

.bss%z197       0x0000000000000000        0x0
 .bss           0x0000000000000000        0x0 build/nsensor/production/_ext/1684788505/OledGrph.o

.bss%z198       0x0000000000000000        0x0
 .bss           0x0000000000000000        0x0 build/nsensor/production/_ext/1684788505/OledDriver.o

.bss%z199       0x0000000000000000        0x0
 .bss           0x0000000000000000        0x0 build/nsensor/production/_ext/1684788505/lcd_drv.o

.bss%z200       0x0000000000000000        0x0
 .bss           0x0000000000000000        0x0 build/nsensor/production/_ext/1684788505/foo.o

.bss%z201       0x0000000000000000        0x0
 .bss           0x0000000000000000        0x0 build/nsensor/production/_ext/1684788505/FillPat.o

.bss%z202       0x0000000000000000        0x0
 .bss           0x0000000000000000        0x0 build/nsensor/production/_ext/1684788505/eadog.o

.bss%z203       0x0000000000000000        0x0
 .bss           0x0000000000000000        0x0 build/nsensor/production/_ext/1684788505/dogm-graphic.o

.bss%z204       0x0000000000000000        0x0
 .bss           0x0000000000000000        0x0 build/nsensor/production/_ext/1684788505/ChrFont0.o

.bss%z205       0x0000000000000000        0x0
 .bss           0x0000000000000000        0x0 /opt/microchip/xc32/v4.21/bin/bin/../../lib/gcc/pic32mx/8.3.1/../../../../pic32mx/lib/fpu64/debug-exception-return.o

._debug_exception
                0x00000000bfc00480       0x2c
 ._debug_exception
                0x00000000bfc00480       0x2c /opt/microchip/xc32/v4.21/bin/bin/../../lib/gcc/pic32mx/8.3.1/../../../../pic32mx/lib/fpu64/debug-exception-return.o
                0x00000000bfc00480                __DbgExecReturn

.text           0x000000009d0002c0     0x3958
 .text          0x000000009d0002c0     0x1d74 build/nsensor/production/_ext/1965004555/plib_canfd1.o
                0x000000009d0003f8                CAN1_Initialize
                0x000000009d000598                CAN1_MessageTransmit
                0x000000009d00095c                CAN1_MessageReceive
                0x000000009d000cb8                CAN1_MessageAbort
                0x000000009d000d64                CAN1_MessageAcceptanceFilterSet
                0x000000009d000ee8                CAN1_MessageAcceptanceFilterGet
                0x000000009d000fc4                CAN1_MessageAcceptanceFilterMaskSet
                0x000000009d0010e8                CAN1_MessageAcceptanceFilterMaskGet
                0x000000009d0011b8                CAN1_ErrorGet
                0x000000009d0011dc                CAN1_ErrorCountGet
                0x000000009d001234                CAN1_InterruptGet
                0x000000009d0012b8                CAN1_TxFIFOQueueIsFull
                0x000000009d00134c                CAN1_AutoRTRResponseSet
                0x000000009d0015f8                CAN1_CallbackRegister
                0x000000009d001678                CAN1_ErrorCallbackRegister
                0x000000009d001fb4                CAN1_InterruptHandler
 .text          0x000000009d002034     0x1be4 build/nsensor/production/_ext/1856863253/interrupts.o
                0x000000009d002034                CORE_TIMER_Handler
                0x000000009d002210                EXTERNAL_2_Handler
                0x000000009d0023ec                TIMER_5_Handler
                0x000000009d0025c8                RTCC_Handler
                0x000000009d0027a4                SPI1_RX_Handler
                0x000000009d002980                SPI1_TX_Handler
                0x000000009d002b5c                SPI2_RX_Handler
                0x000000009d002d38                SPI2_TX_Handler
                0x000000009d002f14                DMA0_Handler
                0x000000009d0030f0                DMA1_Handler
                0x000000009d0032cc                DMA2_Handler
                0x000000009d0034a8                TIMER_6_Handler
                0x000000009d003684                CAN1_Handler
                0x000000009d003860                QEI2_Handler
                0x000000009d003a3c                DMA7_Handler

.text           0x000000009d003c18     0x2e44
 .text          0x000000009d003c18     0x181c build/nsensor/production/_ext/1360937237/host.o
                0x000000009d003c18                APP_CAN_Callback_h
                0x000000009d003cf8                APP_CAN_Error_Callback_h
                0x000000009d003da4                print_menu_h
                0x000000009d003dc8                PrintFormattedData_h
                0x000000009d003e24                UART1DmaChannelHandler_State
                0x000000009d003e54                UART1DmaWrite
                0x000000009d003ee8                host_sm
                0x000000009d004cc0                fft_bin_total
                0x000000009d004d54                approxRollingAverage
                0x000000009d004db8                fh_show_idle
                0x000000009d004e2c                fh_stop_trigger
                0x000000009d004ea0                fh_start_trigger
                0x000000009d004f14                fh_start_warn
                0x000000009d004f88                fh_start_unlock
                0x000000009d005000                fh_start_lock
                0x000000009d005074                fh_start_safe
                0x000000009d0050e8                fh_start_AT
                0x000000009d005290                TP1_check
                0x000000009d00530c                send_from_host
 .text          0x000000009d005434     0x1628 build/nsensor/production/_ext/1684788505/OledGrph.o
                0x000000009d005434                OledMoveTo
                0x000000009d005544                OledGetPos
                0x000000009d005588                OledSetDrawColor
                0x000000009d0055c4                OledGetStdPattern
                0x000000009d005600                OledSetFillPattern
                0x000000009d005630                OledSetDrawMode
                0x000000009d005720                OledGetDrawMode
                0x000000009d005744                OledDrawPixel
                0x000000009d0057c0                OledGetPixel
                0x000000009d005800                OledLineTo
                0x000000009d005a60                OledDrawRect
                0x000000009d005b04                OledFillRect
                0x000000009d005de0                OledGetBmp
                0x000000009d0060f0                OledPutBmp
                0x000000009d0064e8                OledDrawChar
                0x000000009d0065ac                OledDrawString
                0x000000009d006614                OledRopSet
                0x000000009d00668c                OledRopOr
                0x000000009d0066e8                OledRopAnd
                0x000000009d006744                OledRopXor
                0x000000009d0067a0                OledMoveUp
                0x000000009d006850                OledMoveDown
                0x000000009d006900                OledMoveLeft
                0x000000009d006988                OledMoveRight
                0x000000009d0069bc                OledClampXco
                0x000000009d006a0c                OledClampYco

.text           0x000000009d006a5c     0x28f8
 .text          0x000000009d006a5c     0x14bc build/nsensor/production/_ext/1360937237/main.o
                0x000000009d006a5c                qei_index_cb
                0x000000009d006a88                main
                0x000000009d007d04                update_imu_int1
                0x000000009d007d88                delay_us
 .text          0x000000009d007f18     0x143c build/nsensor/production/_ext/2014863652/plib_dmac.o
                0x000000009d008238                DMAC_Initialize
                0x000000009d008378                DMAC_ChannelCallbackRegister
                0x000000009d0083e0                DMAC_ChannelTransfer
                0x000000009d008638                DMAC_ChainTransferSetup
                0x000000009d0087ec                DMAC_ChannelPatternMatchSetup
                0x000000009d0088cc                DMAC_ChannelPatternMatchDisable
                0x000000009d008928                DMAC_ChannelDisable
                0x000000009d0089ac                DMAC_ChannelIsBusy
                0x000000009d008a44                DMAC_ChannelTransferStatusGet
                0x000000009d008ae4                DMAC_ChannelCRCSetup
                0x000000009d008c2c                DMAC_CRCDisable
                0x000000009d008c5c                DMAC_CRCRead
                0x000000009d008ce4                DMA0_InterruptHandler
                0x000000009d008e80                DMA1_InterruptHandler
                0x000000009d00901c                DMA2_InterruptHandler
                0x000000009d0091b8                DMA7_InterruptHandler

.text           0x000000009d009354     0x1fd0
 .text          0x000000009d009354      0xfe8 build/nsensor/production/_ext/1877210129/plib_spi1_master.o
                0x000000009d009354                SPI1_Initialize
                0x000000009d009430                SPI1_TransferSetup
                0x000000009d0095b8                SPI1_Write
                0x000000009d009600                SPI1_Read
                0x000000009d009648                SPI1_IsTransmitterBusy
                0x000000009d00967c                SPI1_WriteRead
                0x000000009d009ba0                SPI1_IsBusy
                0x000000009d009c00                SPI1_CallbackRegister
                0x000000009d009c4c                SPI1_RX_InterruptHandler
                0x000000009d00a118                SPI1_TX_InterruptHandler
 .text          0x000000009d00a33c      0xfe8 build/nsensor/production/_ext/1877210129/plib_spi2_master.o
                0x000000009d00a33c                SPI2_Initialize
                0x000000009d00a418                SPI2_TransferSetup
                0x000000009d00a5a0                SPI2_Write
                0x000000009d00a5e8                SPI2_Read
                0x000000009d00a630                SPI2_IsTransmitterBusy
                0x000000009d00a664                SPI2_WriteRead
                0x000000009d00ab88                SPI2_IsBusy
                0x000000009d00abe8                SPI2_CallbackRegister
                0x000000009d00ac34                SPI2_RX_InterruptHandler
                0x000000009d00b100                SPI2_TX_InterruptHandler

.text           0x000000009d00b324      0xc84
 .text          0x000000009d00b324      0xc84 build/nsensor/production/_ext/1360937237/sca3300.o
                0x000000009d00b324                CalculateCRC
                0x000000009d00b450                sca3300_check_crc
                0x000000009d00b4d0                sca3300_imu_transfer
                0x000000009d00b590                sca3300_getdata
                0x000000009d00b8c0                sca3300_getid
                0x000000009d00ba58                sca3300_getserial
                0x000000009d00bb98                sca3300_set_spimode
                0x000000009d00be8c                sca3300_cs_disable
                0x000000009d00bf3c                sca3300_version

.dinit          0x000000009d00bfa8      0xc00
 .dinit         0x000000009d00bfa8      0xc00 data_init

.text           0x000000009d00cba8     0x1534
 .text          0x000000009d00cba8      0xbec build/nsensor/production/_ext/2015287515/plib_rtcc.o
                0x000000009d00cba8                RTCC_Initialize
                0x000000009d00cc94                RTCC_InterruptEnable
                0x000000009d00ccc8                RTCC_InterruptDisable
                0x000000009d00ccfc                RTCC_TimeSet
                0x000000009d00d134                RTCC_TimeGet
                0x000000009d00d33c                RTCC_AlarmSet
                0x000000009d00d700                RTCC_CallbackRegister
                0x000000009d00d73c                RTCC_InterruptHandler
 .text          0x000000009d00d794      0x948 build/nsensor/production/_ext/1684788505/eadog.o
                0x000000009d00d794                SPI1_Initialize_internal
                0x000000009d00d870                ReSet_SetLow
                0x000000009d00d8b0                ReSet_SetHigh
                0x000000009d00d8f0                RS_SetLow
                0x000000009d00d930                RS_SetHigh
                0x000000009d00d970                CSB_SetLow
                0x000000009d00d9b0                CSB_SetHigh
                0x000000009d00d9f0                SPI1_Exchange8bit
                0x000000009d00da3c                SPI1_ExchangeBuffer
                0x000000009d00da90                wdtdelay
                0x000000009d00daf8                init_display
                0x000000009d00dcfc                eaDogM_WriteChr
                0x000000009d00dd40                eaDogM_WriteCommand
                0x000000009d00dd84                eaDogM_SetPos
                0x000000009d00ddf4                eaDogM_ClearRow
                0x000000009d00de70                eaDogM_WriteString
                0x000000009d00def8                eaDogM_WriteStringAtPos
                0x000000009d00df60                eaDogM_WriteIntAtPos
                0x000000009d00e054                eaDogM_WriteByteToCGRAM

.text.__rem_pio2_large
                0x000000009d00e0dc      0x838
 .text.__rem_pio2_large
                0x000000009d00e0dc      0x838 /opt/microchip/xc32/v4.21/bin/bin/../../lib/gcc/pic32mx/8.3.1/../../../../pic32mx/lib/fpu64/libm-musl.a(__rem_pio2_large.o)
                0x000000009d00e0dc                __rem_pio2_large

.text           0x000000009d00e914     0x1010
 .text          0x000000009d00e914      0x80c build/nsensor/production/_ext/1360937237/bma490l.o
                0x000000009d00e914                bma490l_getdata
                0x000000009d00e9d0                bma490l_getid
                0x000000009d00eaf8                imu_getis
                0x000000009d00ec10                imu_set_reg
                0x000000009d00ecf8                imu_get_reg
                0x000000009d00ede4                bma490l_set_spimode
                0x000000009d00f038                bma490_version
 .text          0x000000009d00f120      0x804 build/nsensor/production/_ext/1684788505/OledDriver.o
                0x000000009d00f120                OledInit
                0x000000009d00f1b4                OledTerm
                0x000000009d00f1f0                OledHostInit
                0x000000009d00f214                OledHostTerm
                0x000000009d00f238                OledDvrInit
                0x000000009d00f334                OledDevInit
                0x000000009d00f358                OledDevTerm
                0x000000009d00f37c                OledDisplayOn
                0x000000009d00f3a0                OledDisplayOff
                0x000000009d00f3c4                OledClear
                0x000000009d00f400                CBDmaChannelHandler
                0x000000009d00f42c                OledClearBuffer
                0x000000009d00f4dc                OledUpdate
                0x000000009d00f520                SPI1DmaChannelHandler_State
                0x000000009d00f6d4                OledPutBuffer
                0x000000009d00f724                SPI1DmaChannelHandler
                0x000000009d00f770                SPI1_to_Buffer
                0x000000009d00f854                wait_lcd_done
                0x000000009d00f8c8                lcd_version

.text           0x000000009d00f924      0xec8
 .text          0x000000009d00f924      0x770 build/nsensor/production/_ext/1684788505/dogm-graphic.o
                0x000000009d00f96c                lcd_inc_page
                0x000000009d00f9c4                lcd_inc_column
                0x000000009d00fa18                lcd_moveto_xy
                0x000000009d00faf4                lcd_move_xy
                0x000000009d00fb70                lcd_data
                0x000000009d00fbd8                lcd_command
                0x000000009d00fc34                lcd_command_s
                0x000000009d00fcd4                lcd_clear_area
                0x000000009d00fe58                lcd_clear_area_xy
                0x000000009d00fee4                lcd_set_contrast
                0x000000009d00ff64                lcd_init
 .text          0x000000009d010094      0x758 build/nsensor/production/_ext/1360937237/fft.o
                0x000000009d010094                initFFT
                0x000000009d01025c                FFT
                0x000000009d0104fc                windowFFT
                0x000000009d0105c4                powerScale
                0x000000009d010790                fft_version

.text           0x000000009d0107ec      0xe54
 .text          0x000000009d0107ec      0x748 build/nsensor/production/_ext/2015359111/plib_uart1.o
                0x000000009d01087c                UART1_Initialize
                0x000000009d0108d0                UART1_SerialSetup
                0x000000009d010af0                UART1_Read
                0x000000009d010c28                UART1_Write
                0x000000009d010d14                UART1_ErrorGet
                0x000000009d010d68                UART1_AutoBaudQuery
                0x000000009d010dac                UART1_AutoBaudSet
                0x000000009d010df0                UART1_WriteByte
                0x000000009d010e3c                UART1_TransmitterIsReady
                0x000000009d010e80                UART1_ReadByte
                0x000000009d010ea8                UART1_ReceiverIsReady
                0x000000009d010ef0                UART1_TransmitComplete
 .text          0x000000009d010f34      0x70c build/nsensor/production/_ext/1360937237/canfd.o
                0x000000009d010f34                APP_CAN_Callback
                0x000000009d010fcc                APP_CAN_Error_Callback
                0x000000009d011010                print_menu
                0x000000009d011034                PrintFormattedData
                0x000000009d011090                canfd_state
                0x000000009d011414                canfd_num_tx
                0x000000009d011438                canfd_num_rx
                0x000000009d01145c                canfd_num_stall
                0x000000009d011480                canfd_set_filter

.text.__fmt_fp  0x000000009d011640      0x6d0
 .text.__fmt_fp
                0x000000009d011640      0x6d0 /opt/microchip/xc32/v4.21/bin/bin/../../lib/gcc/pic32mx/8.3.1/../../../../pic32mx/lib/fpu64/libc-musl.a(__fmt_fp.o)
                0x000000009d011640                __fmt_f_needed
                0x000000009d011640                __fmt_fp

.text           0x000000009d011d10      0xd44
 .text          0x000000009d011d10      0x6c4 build/nsensor/production/_ext/1360937237/gfx.o
                0x000000009d011d10                line_rot
                0x000000009d011d7c                vector_graph
                0x000000009d012124                LA_gfx
                0x000000009d012344                fft_draw
 .text          0x000000009d0123d4      0x680 build/nsensor/production/_ext/1966772718/plib_adchs.o
                0x000000009d0123d4                ADCHS_Initialize
                0x000000009d01259c                ADCHS_ModulesEnable
                0x000000009d0125e0                ADCHS_ModulesDisable
                0x000000009d012628                ADCHS_ChannelResultInterruptEnable
                0x000000009d0126b4                ADCHS_ChannelResultInterruptDisable
                0x000000009d012748                ADCHS_ChannelEarlyInterruptEnable
                0x000000009d0127d4                ADCHS_ChannelEarlyInterruptDisable
                0x000000009d012868                ADCHS_GlobalEdgeConversionStart
                0x000000009d0128a0                ADCHS_GlobalLevelConversionStart
                0x000000009d0128d8                ADCHS_GlobalLevelConversionStop
                0x000000009d01290c                ADCHS_ChannelConversionStart
                0x000000009d012964                ADCHS_ChannelResultIsReady
                0x000000009d0129e4                ADCHS_ChannelResultGet
                0x000000009d012a24                ADCHS_EOSStatusGet

.text.fma       0x000000009d012a54      0x678
 .text.fma      0x000000009d012a54      0x678 /opt/microchip/xc32/v4.21/bin/bin/../../lib/gcc/pic32mx/8.3.1/../../../../pic32mx/lib/fpu64/libm-musl.a(fma.o)
                0x000000009d012a54                fma

.text.__fmt_a   0x000000009d0130cc      0x628
 .text.__fmt_a  0x000000009d0130cc      0x628 /opt/microchip/xc32/v4.21/bin/bin/../../lib/gcc/pic32mx/8.3.1/../../../../pic32mx/lib/fpu64/libc-musl.a(__fmt_a.o)
                0x000000009d0130cc                __fmt_a_needed
                0x000000009d0130cc                __fmt_a

.text           0x000000009d0136f4      0xb08
 .text          0x000000009d0136f4      0x584 build/nsensor/production/_ext/1955707305/plib_mcpwm.o
                0x000000009d0136f4                MCPWM_Initialize
                0x000000009d0137dc                MCPWM_Start
                0x000000009d013814                MCPWM_Stop
                0x000000009d013848                MCPWM_PrimaryPeriodSet
                0x000000009d013880                MCPWM_PrimaryPeriodGet
                0x000000009d0138ac                MCPWM_SecondaryPeriodSet
                0x000000009d0138e4                MCPWM_SecondaryPeriodGet
                0x000000009d013910                MCPWM_ChannelPrimaryDutySet
                0x000000009d01395c                MCPWM_ChannelSecondaryDutySet
                0x000000009d0139a8                MCPWM_ChannelDeadTimeSet
                0x000000009d013a24                MCPWM_ChannelPrimaryTriggerSet
                0x000000009d013a70                MCPWM_ChannelSecondaryTriggerSet
                0x000000009d013abc                MCPWM_ChannelLeadingEdgeBlankingDelaySet
                0x000000009d013b08                MCPWM_ChannelPinsOverrideEnable
                0x000000009d013b64                MCPWM_ChannelPinsOverrideDisable
                0x000000009d013bc0                MCPWM_ChannelPinsOwnershipEnable
                0x000000009d013c1c                MCPWM_ChannelPinsOwnershipDisable
 .text          0x000000009d013c78      0x584 build/nsensor/production/_ext/1360937237/imu.o
                0x000000009d013c78                get_imu_scale
                0x000000009d013e7c                getAllData
                0x000000009d01418c                imu_string

.text.__printf_core
                0x000000009d0141fc      0x580
 .text.__printf_core
                0x000000009d0141fc      0x580 /opt/microchip/xc32/v4.21/bin/bin/../../lib/gcc/pic32mx/8.3.1/../../../../pic32mx/lib/fpu64/libc-musl.a(__printf_core.o)
                0x000000009d0141fc                __printf_core

.text           0x000000009d01477c      0x56c
 .text          0x000000009d01477c      0x56c build/nsensor/production/_ext/2014902340/plib_evic.o
                0x000000009d01477c                EVIC_Initialize
                0x000000009d014890                EVIC_SourceEnable
                0x000000009d0148fc                EVIC_SourceDisable
                0x000000009d014968                EVIC_SourceIsEnabled
                0x000000009d0149c8                EVIC_SourceStatusGet
                0x000000009d014a28                EVIC_SourceStatusSet
                0x000000009d014a94                EVIC_SourceStatusClear
                0x000000009d014b00                EVIC_INT_Enable
                0x000000009d014b30                EVIC_INT_Disable
                0x000000009d014b78                EVIC_INT_Restore
                0x000000009d014bbc                EVIC_ExternalInterruptEnable
                0x000000009d014bf0                EVIC_ExternalInterruptDisable
                0x000000009d014c24                EVIC_ExternalInterruptCallbackRegister
                0x000000009d014c8c                EXTERNAL_2_InterruptHandler

.rodata         0x000000009d014ce8      0x514
 .rodata        0x000000009d014ce8      0x514 build/nsensor/production/_ext/1684788505/foo.o
                0x000000009d014ce8                foo_map

.text           0x000000009d0151fc      0x89c
 .text          0x000000009d0151fc      0x450 build/nsensor/production/_ext/1684788505/OledChar.o
                0x000000009d0151fc                OledSetCursor
                0x000000009d0152a4                OledGetCursor
                0x000000009d0152e8                OledDefUserChar
                0x000000009d015390                OledSetCharUpdate
                0x000000009d0153c8                OledGetCharUpdate
                0x000000009d0153ec                OledPutChar
                0x000000009d01544c                OledPutString
                0x000000009d0154dc                OledDrawGlyph
                0x000000009d0155c0                OledAdvanceCursor
 .text          0x000000009d01564c      0x44c build/nsensor/production/_ext/1360937237/cmd_scanner.o
                0x000000009d0156a0                scmd_init
                0x000000009d0156e4                linux_getc
                0x000000009d015740                linux_putc
                0x000000009d0158d8                cli_read
                0x000000009d015a4c                dump_uart

.text           0x000000009d015a98      0x43c
 .text          0x000000009d015a98      0x43c build/nsensor/production/_ext/2014956168/plib_gpio.o
                0x000000009d015a98                GPIO_Initialize
                0x000000009d015c78                GPIO_PortRead
                0x000000009d015cb4                GPIO_PortWrite
                0x000000009d015d30                GPIO_PortLatchRead
                0x000000009d015d6c                GPIO_PortSet
                0x000000009d015db4                GPIO_PortClear
                0x000000009d015dfc                GPIO_PortToggle
                0x000000009d015e44                GPIO_PortInputEnable
                0x000000009d015e8c                GPIO_PortOutputEnable

.text.__rem_pio2
                0x000000009d015ed4      0x430
 .text.__rem_pio2
                0x000000009d015ed4      0x430 /opt/microchip/xc32/v4.21/bin/bin/../../lib/gcc/pic32mx/8.3.1/../../../../pic32mx/lib/fpu64/libm-musl.a(__rem_pio2.o)
                0x000000009d015ed4                __rem_pio2

.text           0x000000009d016304      0x7b8
 .text          0x000000009d016304      0x3dc build/nsensor/production/_ext/1664108525/plib_coretimer.o
                0x000000009d016304                CORETIMER_Initialize
                0x000000009d016368                CORETIMER_CallbackSet
                0x000000009d0163b0                CORETIMER_PeriodSet
                0x000000009d0163e8                CORETIMER_Start
                0x000000009d016470                CORETIMER_Stop
                0x000000009d0164bc                CORETIMER_FrequencyGet
                0x000000009d0164e4                CORE_TIMER_InterruptHandler
                0x000000009d0165ec                CORETIMER_DelayMs
                0x000000009d016670                CORETIMER_DelayUs
 .text          0x000000009d0166e0      0x3dc build/nsensor/production/_ext/1360937237/do_fft.o
                0x000000009d0166e0                __delay_ms_fft
                0x000000009d016768                __delay_us_fft
                0x000000009d0167dc                do_fft
                0x000000009d016964                do_fft_version
                0x000000009d0169c0                do_fft_dc_x
                0x000000009d016a14                do_fft_dc_y
                0x000000009d016a68                do_fft_dc_z

.rodata         0x000000009d016ac0      0x3c8
 .rodata        0x000000009d016ac0      0x3c8 build/nsensor/production/_ext/1360937237/host.o

.text           0x000000009d016e88      0x774
 .text          0x000000009d016e88      0x3bc /opt/microchip/xc32/v4.21/bin/bin/../../lib/gcc/pic32mx/8.3.1/fpu64/libgcc.a(_udivdi3.o)
                0x000000009d016e88                __udivdi3
 .text          0x000000009d017244      0x3b8 /opt/microchip/xc32/v4.21/bin/bin/../../lib/gcc/pic32mx/8.3.1/fpu64/libgcc.a(_umoddi3.o)
                0x000000009d017244                __umoddi3

.rodata         0x000000009d0175fc      0x300
 .rodata        0x000000009d0175fc      0x300 build/nsensor/production/_ext/1684788505/ChrFont0.o
                0x000000009d0175fc                rgbOledFont0

.text.malloc    0x000000009d0178fc      0x290
 .text.malloc   0x000000009d0178fc      0x290 /opt/microchip/xc32/v4.21/bin/bin/../../lib/gcc/pic32mx/8.3.1/../../../../pic32mx/lib/fpu64/libc-musl.a(malloc.o)
                0x000000009d0178fc                malloc

.text           0x000000009d017b8c      0x4f8
 .text          0x000000009d017b8c      0x27c build/nsensor/production/_ext/619200320/plib_tmr3.o
                0x000000009d017b8c                TMR3_Initialize
                0x000000009d017be4                TMR3_Start
                0x000000009d017c14                TMR3_Stop
                0x000000009d017c44                TMR3_PeriodSet
                0x000000009d017c7c                TMR3_PeriodGet
                0x000000009d017ca8                TMR3_CounterGet
                0x000000009d017cd4                TMR3_FrequencyGet
                0x000000009d017cfc                TIMER_3_InterruptHandler
                0x000000009d017d6c                TMR3_InterruptEnable
                0x000000009d017d9c                TMR3_InterruptDisable
                0x000000009d017dcc                TMR3_CallbackRegister
 .text          0x000000009d017e08      0x27c build/nsensor/production/_ext/619200320/plib_tmr6.o
                0x000000009d017e08                TMR6_Initialize
                0x000000009d017e60                TMR6_Start
                0x000000009d017e90                TMR6_Stop
                0x000000009d017ec0                TMR6_PeriodSet
                0x000000009d017ef8                TMR6_PeriodGet
                0x000000009d017f24                TMR6_CounterGet
                0x000000009d017f50                TMR6_FrequencyGet
                0x000000009d017f78                TIMER_6_InterruptHandler
                0x000000009d017fe8                TMR6_InterruptEnable
                0x000000009d018018                TMR6_InterruptDisable
                0x000000009d018048                TMR6_CallbackRegister

.text           0x000000009d018084      0x4f0
 .text          0x000000009d018084      0x27c build/nsensor/production/_ext/619200320/plib_tmr2.o
                0x000000009d018084                TMR2_Initialize
                0x000000009d0180dc                TMR2_Start
                0x000000009d01810c                TMR2_Stop
                0x000000009d01813c                TMR2_PeriodSet
                0x000000009d018174                TMR2_PeriodGet
                0x000000009d0181a0                TMR2_CounterGet
                0x000000009d0181cc                TMR2_FrequencyGet
                0x000000009d0181f4                TIMER_2_InterruptHandler
                0x000000009d018264                TMR2_InterruptEnable
                0x000000009d018294                TMR2_InterruptDisable
                0x000000009d0182c4                TMR2_CallbackRegister
 .text          0x000000009d018300      0x274 build/nsensor/production/_ext/619200320/plib_tmr5.o
                0x000000009d018300                TMR5_Initialize
                0x000000009d01835c                TMR5_Start
                0x000000009d01838c                TMR5_Stop
                0x000000009d0183bc                TMR5_PeriodSet
                0x000000009d0183f0                TMR5_PeriodGet
                0x000000009d018418                TMR5_CounterGet
                0x000000009d018440                TMR5_FrequencyGet
                0x000000009d018468                TIMER_5_InterruptHandler
                0x000000009d0184d8                TMR5_InterruptEnable
                0x000000009d018508                TMR5_InterruptDisable
                0x000000009d018538                TMR5_CallbackRegister

.text           0x000000009d018574      0x250
 .text          0x000000009d018574      0x250 build/nsensor/production/_ext/619197180/plib_qei2.o
                0x000000009d018574                QEI2_Initialize
                0x000000009d0185d4                QEI2_Start
                0x000000009d01860c                QEI2_Stop
                0x000000009d018648                QEI2_PulseIntervalGet
                0x000000009d018670                QEI2_PositionWindowSet
                0x000000009d0186b4                QEI2_PositionCountSet
                0x000000009d0186e8                QEI2_VelocityCountSet
                0x000000009d01871c                QEI2_CallbackRegister
                0x000000009d018758                QEI2_InterruptHandler

.rodata         0x000000009d0187c8      0x248
 .rodata        0x000000009d0187c8      0x248 build/nsensor/production/_ext/1360937237/main.o
                0x000000009d018800                update_delay

.text           0x000000009d018a10      0x218
 .text          0x000000009d018a10      0x218 build/nsensor/production/_ext/1360937237/timers.o
                0x000000009d018a10                StartTimer
                0x000000009d018a6c                TimerDone
                0x000000009d018ac8                WaitMs
                0x000000009d018b30                timer_ms_tick
                0x000000009d018be4                delay_ms_tick

.text.__fmt_x   0x000000009d018c28      0x208
 .text.__fmt_x  0x000000009d018c28      0x208 /opt/microchip/xc32/v4.21/bin/bin/../../lib/gcc/pic32mx/8.3.1/../../../../pic32mx/lib/fpu64/libc-musl.a(__fmt_x.o)
                0x000000009d018c28                __fmt_x
                0x000000009d018c28                __fmt_x_needed

.text.free      0x000000009d018e30      0x198
 .text.free     0x000000009d018e30      0x198 /opt/microchip/xc32/v4.21/bin/bin/../../lib/gcc/pic32mx/8.3.1/../../../../pic32mx/lib/fpu64/libc-musl.a(malloc.o)
                0x000000009d018e30                free

.text.__pop_int
                0x000000009d018fc8      0x188
 .text.__pop_int
                0x000000009d018fc8      0x188 /opt/microchip/xc32/v4.21/bin/bin/../../lib/gcc/pic32mx/8.3.1/../../../../pic32mx/lib/fpu64/libc-musl.a(__pop_int.o)
                0x000000009d018fc8                __pop_int
                0x000000009d018fc8                __pop_int_needed

.text           0x000000009d000000      0x168
 .text          0x000000009d000000      0x168 /opt/microchip/xc32/v4.21/bin/bin/../../lib/gcc/pic32mx/8.3.1/../../../../pic32mx/lib/fpu64/libpic32.a(memcpy.o)
                0x000000009d000000                memcpy

.text           0x000000009d019150      0x2cc
 .text          0x000000009d019150      0x168 /opt/microchip/xc32/v4.21/bin/bin/../../lib/gcc/pic32mx/8.3.1/../../../../pic32mx/lib/fpu64/libpic32.a(strlen.o)
                0x000000009d019150                strlen
 .text          0x000000009d0192b8      0x164 build/nsensor/production/_ext/619183945/plib_clk.o
                0x000000009d0192b8                CLK_Initialize

.text           0x000000009d01941c      0x160
 .text          0x000000009d01941c      0x160 build/nsensor/production/_ext/619200320/plib_tmr9.o
                0x000000009d01941c                TMR9_Initialize
                0x000000009d019470                TMR9_Start
                0x000000009d0194a0                TMR9_Stop
                0x000000009d0194d0                TMR9_PeriodSet
                0x000000009d019504                TMR9_PeriodGet
                0x000000009d01952c                TMR9_CounterGet
                0x000000009d019554                TMR9_FrequencyGet

.rodata         0x000000009d019580      0x158
 .rodata        0x000000009d019580      0x158 /opt/microchip/xc32/v4.21/bin/bin/../../lib/gcc/pic32mx/8.3.1/../../../../pic32mx/lib/fpu64/libm-musl.a(__rem_pio2_large.o)

.text._sbrk_init
                0x000000009d0196d8      0x154
 .text._sbrk_init
                0x000000009d0196d8      0x154 /opt/microchip/xc32/v4.21/bin/bin/../../lib/gcc/pic32mx/8.3.1/../../../../pic32mx/lib/fpu64/libpic32.a(sbrk.o)
                0x000000009d0196d8                _sbrk_init

.text.__fmt_d   0x000000009d01982c      0x150
 .text.__fmt_d  0x000000009d01982c      0x150 /opt/microchip/xc32/v4.21/bin/bin/../../lib/gcc/pic32mx/8.3.1/../../../../pic32mx/lib/fpu64/libc-musl.a(__fmt_d.o)
                0x000000009d01982c                __fmt_d
                0x000000009d01982c                __fmt_d_needed

.text           0x000000009d01997c      0x140
 .text          0x000000009d01997c      0x140 build/nsensor/production/_ext/1684788505/lcd_drv.o
                0x000000009d01997c                init_lcd_drv

.text.__cvt_u   0x000000009d019abc      0x13c
 .text.__cvt_u  0x000000009d019abc      0x13c /opt/microchip/xc32/v4.21/bin/bin/../../lib/gcc/pic32mx/8.3.1/../../../../pic32mx/lib/fpu64/libc-musl.a(__fmt_u.o)
                0x000000009d019abc                __cvt_u

.text.sin       0x000000009d019bf8      0x120
 .text.sin      0x000000009d019bf8      0x120 /opt/microchip/xc32/v4.21/bin/bin/../../lib/gcc/pic32mx/8.3.1/../../../../pic32mx/lib/fpu64/libm-musl.a(sin.o)
                0x000000009d019bf8                sin

.text           0x000000009d019d18      0x11c
 .text          0x000000009d019d18      0x11c build/nsensor/production/_ext/1360937237/pid.o
                0x000000009d019d18                UpdatePI
                0x000000009d019df4                ResetPI

.text.realloc   0x000000009d019e34      0x118
 .text.realloc  0x000000009d019e34      0x118 /opt/microchip/xc32/v4.21/bin/bin/../../lib/gcc/pic32mx/8.3.1/../../../../pic32mx/lib/fpu64/libc-musl.a(malloc.o)
                0x000000009d019e34                realloc

.text.__pad     0x000000009d019f4c      0x100
 .text.__pad    0x000000009d019f4c      0x100 /opt/microchip/xc32/v4.21/bin/bin/../../lib/gcc/pic32mx/8.3.1/../../../../pic32mx/lib/fpu64/libc-musl.a(__printf_core.o)
                0x000000009d019f4c                __pad

.text.cos       0x000000009d01a04c      0x100
 .text.cos      0x000000009d01a04c      0x100 /opt/microchip/xc32/v4.21/bin/bin/../../lib/gcc/pic32mx/8.3.1/../../../../pic32mx/lib/fpu64/libm-musl.a(cos.o)
                0x000000009d01a04c                cos

.text           0x000000009d01a14c      0x1f4
 .text          0x000000009d01a14c       0xfc build/nsensor/production/_ext/725740559/xc32_monitor.o
                0x000000009d01a14c                read
                0x000000009d01a1d4                write
 .text          0x000000009d01a248       0xf8 build/nsensor/production/_ext/1856863253/initialization.o
                0x000000009d01a248                SYS_Initialize

.text.__fmt_o   0x000000009d01a340       0xf4
 .text.__fmt_o  0x000000009d01a340       0xf4 /opt/microchip/xc32/v4.21/bin/bin/../../lib/gcc/pic32mx/8.3.1/../../../../pic32mx/lib/fpu64/libc-musl.a(__fmt_o.o)
                0x000000009d01a340                __fmt_o
                0x000000009d01a340                __fmt_o_needed

.text.__pop_ptr
                0x000000009d01a434       0xe4
 .text.__pop_ptr
                0x000000009d01a434       0xe4 /opt/microchip/xc32/v4.21/bin/bin/../../lib/gcc/pic32mx/8.3.1/../../../../pic32mx/lib/fpu64/libc-musl.a(__pop_ptr.o)
                0x000000009d01a434                __pop_ptr
                0x000000009d01a434                __pop_ptr_needed

.rodata         0x000000009d01a518       0xe0
 .rodata        0x000000009d01a518       0xe0 build/nsensor/production/_ext/1360937237/imu.o
                0x000000009d01a518                imu_table

.text.general_exception
                0x000000009d01a5f8       0xdc
 .text.general_exception
                0x000000009d01a5f8       0xdc /opt/microchip/xc32/v4.21/bin/bin/../../lib/gcc/pic32mx/8.3.1/../../../../pic32mx/lib/fpu64/libpic32.a(general-exception.o)
                0x000000009d01a5f8                _general_exception_context

.text.__stdio_close_rw
                0x000000009d01a6d4       0xc0
 .text.__stdio_close_rw
                0x000000009d01a6d4       0xc0 /opt/microchip/xc32/v4.21/bin/bin/../../lib/gcc/pic32mx/8.3.1/../../../../pic32mx/lib/fpu64/libc-musl.a(__stdio_close.o)
                0x000000009d01a6d4                __stdio_close_rw

.text.__fmt_u   0x000000009d01a794       0xbc
 .text.__fmt_u  0x000000009d01a794       0xbc /opt/microchip/xc32/v4.21/bin/bin/../../lib/gcc/pic32mx/8.3.1/../../../../pic32mx/lib/fpu64/libc-musl.a(__fmt_u.o)
                0x000000009d01a794                __fmt_u
                0x000000009d01a794                __fmt_u_needed

.text.floor     0x000000009d01a850       0xb4
 .text.floor    0x000000009d01a850       0xb4 /opt/microchip/xc32/v4.21/bin/bin/../../lib/gcc/pic32mx/8.3.1/../../../../pic32mx/lib/fpu64/libm-musl.a(floor.o)
                0x000000009d01a850                floor

.text._sbrk     0x000000009d01a904       0xb0
 .text._sbrk    0x000000009d01a904       0xb0 /opt/microchip/xc32/v4.21/bin/bin/../../lib/gcc/pic32mx/8.3.1/../../../../pic32mx/lib/fpu64/libpic32.a(sbrk.o)
                0x000000009d01a904                _sbrk

.text.unbin     0x000000009d01a9b4       0xac
 .text.unbin    0x000000009d01a9b4       0xac /opt/microchip/xc32/v4.21/bin/bin/../../lib/gcc/pic32mx/8.3.1/../../../../pic32mx/lib/fpu64/libc-musl.a(malloc.o)

.text           0x000000009d01aa60       0xa8
 .text          0x000000009d01aa60       0xa8 /opt/microchip/xc32/v4.21/bin/bin/../../lib/gcc/pic32mx/8.3.1/../../../../pic32mx/lib/fpu64/libpic32.a(memset.o)
                0x000000009d01aa60                memset

.text.__fmt_s   0x000000009d01ab08       0xa4
 .text.__fmt_s  0x000000009d01ab08       0xa4 /opt/microchip/xc32/v4.21/bin/bin/../../lib/gcc/pic32mx/8.3.1/../../../../pic32mx/lib/fpu64/libc-musl.a(__fmt_s.o)
                0x000000009d01ab08                __fmt_s
                0x000000009d01ab08                __fmt_0_needed
                0x000000009d01ab08                __fmt_s_needed

.rodata         0x000000009d01abb0       0xa0
 .rodata        0x000000009d01abb0       0xa0 build/nsensor/production/_ext/1360937237/do_fft.o

.text.__stdio_close
                0x000000009d01ac50       0xa0
 .text.__stdio_close
                0x000000009d01ac50       0xa0 /opt/microchip/xc32/v4.21/bin/bin/../../lib/gcc/pic32mx/8.3.1/../../../../pic32mx/lib/fpu64/libc-musl.a(__stdio_close.o)
                0x000000009d01ac50                __stdio_close

.text.__sin     0x000000009d01acf0       0x90
 .text.__sin    0x000000009d01acf0       0x90 /opt/microchip/xc32/v4.21/bin/bin/../../lib/gcc/pic32mx/8.3.1/../../../../pic32mx/lib/fpu64/libm-musl.a(__sin.o)
                0x000000009d01acf0                __sin

.text.__out     0x000000009d01ad80       0x8c
 .text.__out    0x000000009d01ad80       0x8c /opt/microchip/xc32/v4.21/bin/bin/../../lib/gcc/pic32mx/8.3.1/../../../../pic32mx/lib/fpu64/libc-musl.a(__out.o)
                0x000000009d01ad80                __out
                0x000000009d01ad80                __out_needed

.text.normalize
                0x000000009d01ae0c       0x8c
 .text.normalize
                0x000000009d01ae0c       0x8c /opt/microchip/xc32/v4.21/bin/bin/../../lib/gcc/pic32mx/8.3.1/../../../../pic32mx/lib/fpu64/libm-musl.a(fma.o)

.text.scalbn    0x000000009d01ae98       0x8c
 .text.scalbn   0x000000009d01ae98       0x8c /opt/microchip/xc32/v4.21/bin/bin/../../lib/gcc/pic32mx/8.3.1/../../../../pic32mx/lib/fpu64/libm-musl.a(scalbn.o)
                0x000000009d01ae98                scalbn

.text.__cos     0x000000009d01af24       0x88
 .text.__cos    0x000000009d01af24       0x88 /opt/microchip/xc32/v4.21/bin/bin/../../lib/gcc/pic32mx/8.3.1/../../../../pic32mx/lib/fpu64/libm-musl.a(__cos.o)
                0x000000009d01af24                __cos

.rodata         0x000000009d01afb0       0x80
 .rodata        0x000000009d01afb0       0x80 build/nsensor/production/_ext/1360937237/gfx.o

.text.dinit.startup
                0x000000009d01b030       0x80
 .text.dinit.startup
                0x000000009d01b030       0x80 /opt/microchip/xc32/v4.21/bin/bin/../../lib/gcc/pic32mx/8.3.1/../../../../pic32mx/lib/fpu64/libpic32.a(pic32_data_init_0_1.o)
                0x000000009d01b030                __copy_needed
                0x000000009d01b030                __pic32_data_init_impl

.text.__vsnprintf
                0x000000009d01b0b0       0x80
 .text.__vsnprintf
                0x000000009d01b0b0       0x80 /opt/microchip/xc32/v4.21/bin/bin/../../lib/gcc/pic32mx/8.3.1/../../../../pic32mx/lib/fpu64/libc-musl.a(__int_vsnprintf.o)
                0x000000009d01b0b0                __vsnprintf

.text.atoi      0x000000009d01b130       0x7c
 .text.atoi     0x000000009d01b130       0x7c /opt/microchip/xc32/v4.21/bin/bin/../../lib/gcc/pic32mx/8.3.1/../../../../pic32mx/lib/fpu64/libc-musl.a(atoi.o)
                0x000000009d01b130                atoi

.rodata.cst8    0x000000009d01b1b0       0x78
 .rodata.cst8   0x000000009d01b1b0       0x78 /opt/microchip/xc32/v4.21/bin/bin/../../lib/gcc/pic32mx/8.3.1/../../../../pic32mx/lib/fpu64/libm-musl.a(__rem_pio2.o)

.text.alloc_rev
                0x000000009d01b228       0x74
 .text.alloc_rev
                0x000000009d01b228       0x74 /opt/microchip/xc32/v4.21/bin/bin/../../lib/gcc/pic32mx/8.3.1/../../../../pic32mx/lib/fpu64/libc-musl.a(malloc.o)

.rodata         0x000000009d000190       0x70
 .rodata        0x000000009d000190       0x70 build/nsensor/production/_ext/1360937237/fft.o

.text.alloc_fwd
                0x000000009d01b29c       0x70
 .text.alloc_fwd
                0x000000009d01b29c       0x70 /opt/microchip/xc32/v4.21/bin/bin/../../lib/gcc/pic32mx/8.3.1/../../../../pic32mx/lib/fpu64/libc-musl.a(malloc.o)

.text.a_clz_64  0x000000009d01b30c       0x6c
 .text.a_clz_64
                0x000000009d01b30c       0x6c /opt/microchip/xc32/v4.21/bin/bin/../../lib/gcc/pic32mx/8.3.1/../../../../pic32mx/lib/fpu64/libm-musl.a(fma.o)

.rodata         0x000000009d01b378       0x64
 .rodata        0x000000009d01b378       0x64 build/nsensor/production/_ext/1360937237/bma490l.o

.text           0x000000009d01b3dc       0x60
 .text          0x000000009d01b3dc       0x60 build/nsensor/production/_ext/1856863253/exceptions.o
                0x000000009d01b3dc                _general_exception_handler
                0x000000009d01b40c                _bootstrap_exception_handler

.text.__fopen_std
                0x000000009d01b43c       0x60
 .text.__fopen_std
                0x000000009d01b43c       0x60 /opt/microchip/xc32/v4.21/bin/bin/../../lib/gcc/pic32mx/8.3.1/../../../../pic32mx/lib/fpu64/libc-musl.a(__fopen.o)
                0x000000009d01b43c                __fopen_rw

.text.bin_index
                0x000000009d01b49c       0x60
 .text.bin_index
                0x000000009d01b49c       0x60 /opt/microchip/xc32/v4.21/bin/bin/../../lib/gcc/pic32mx/8.3.1/../../../../pic32mx/lib/fpu64/libc-musl.a(malloc.o)

.text.__sio_snprintf_dfosux
                0x000000009d01b4fc       0x5c
 .text.__sio_snprintf_dfosux
                0x000000009d01b4fc       0x5c /opt/microchip/xc32/v4.21/bin/bin/../../lib/gcc/pic32mx/8.3.1/../../../../pic32mx/lib/fpu64/libc-musl.a(__sio_snprintf_dfosux.o)
                0x000000009d01b4fc                __sio_snprintf_dfosux

.text.__string_out
                0x000000009d01b558       0x5c
 .text.__string_out
                0x000000009d01b558       0x5c /opt/microchip/xc32/v4.21/bin/bin/../../lib/gcc/pic32mx/8.3.1/../../../../pic32mx/lib/fpu64/libc-musl.a(__printf_core.o)

.rodata         0x000000009d01b5b4       0x5c
 .rodata        0x000000009d01b5b4       0x5c /opt/microchip/xc32/v4.21/bin/bin/../../lib/gcc/pic32mx/8.3.1/../../../../pic32mx/lib/fpu64/libc-musl.a(malloc.o)

.text.__fmt_state
                0x000000009d01b610       0x58
 .text.__fmt_state
                0x000000009d01b610       0x58 /opt/microchip/xc32/v4.21/bin/bin/../../lib/gcc/pic32mx/8.3.1/../../../../pic32mx/lib/fpu64/libc-musl.a(__printf_core.o)
                0x000000009d01b610                __fmt_state

.text.adjust_size
                0x000000009d01b668       0x58
 .text.adjust_size
                0x000000009d01b668       0x58 /opt/microchip/xc32/v4.21/bin/bin/../../lib/gcc/pic32mx/8.3.1/../../../../pic32mx/lib/fpu64/libc-musl.a(malloc.o)

.text.trim      0x000000009d01b6c0       0x58
 .text.trim     0x000000009d01b6c0       0x58 /opt/microchip/xc32/v4.21/bin/bin/../../lib/gcc/pic32mx/8.3.1/../../../../pic32mx/lib/fpu64/libc-musl.a(malloc.o)

.rodata         0x000000009d01b718       0x54
 .rodata        0x000000009d01b718       0x54 build/nsensor/production/_ext/1684788505/OledDriver.o

.text.main_entry
                0x000000009d01b76c       0x54
 .text.main_entry
                0x000000009d01b76c       0x54 /tmp/ccBkuxsy.o
                0x000000009d01b7a0                __crt0_exit

.rodata         0x000000009d01b7c0       0x50
 .rodata        0x000000009d01b7c0       0x50 build/nsensor/production/_ext/1360937237/sca3300.o

.text.__malloc0
                0x000000009d01b810       0x50
 .text.__malloc0
                0x000000009d01b810       0x50 /opt/microchip/xc32/v4.21/bin/bin/../../lib/gcc/pic32mx/8.3.1/../../../../pic32mx/lib/fpu64/libc-musl.a(malloc.o)
                0x000000009d01b810                __malloc0

.text.__sio_snprintf_dosux
                0x000000009d01b860       0x4c
 .text.__sio_snprintf_dosux
                0x000000009d01b860       0x4c /opt/microchip/xc32/v4.21/bin/bin/../../lib/gcc/pic32mx/8.3.1/../../../../pic32mx/lib/fpu64/libc-musl.a(__sio_snprintf_dosux.o)
                0x000000009d01b860                __sio_snprintf_dosux

.text.__sio_snprintf_doux
                0x000000009d01b8ac       0x4c
 .text.__sio_snprintf_doux
                0x000000009d01b8ac       0x4c /opt/microchip/xc32/v4.21/bin/bin/../../lib/gcc/pic32mx/8.3.1/../../../../pic32mx/lib/fpu64/libc-musl.a(__sio_snprintf_doux.o)
                0x000000009d01b8ac                __sio_snprintf_doux

.text.sbrk      0x000000009d01b8f8       0x4c
 .text.sbrk     0x000000009d01b8f8       0x4c /opt/microchip/xc32/v4.21/bin/bin/../../lib/gcc/pic32mx/8.3.1/../../../../pic32mx/lib/fpu64/libpic32.a(sbrk.o)
                0x000000009d01b8f8                sbrk

.text.__pop_float
                0x000000009d01b944       0x48
 .text.__pop_float
                0x000000009d01b944       0x48 /opt/microchip/xc32/v4.21/bin/bin/../../lib/gcc/pic32mx/8.3.1/../../../../pic32mx/lib/fpu64/libc-musl.a(__pop_float.o)
                0x000000009d01b944                __pop_float
                0x000000009d01b944                __pop_float_needed

.text.strncmp   0x000000009d01b98c       0x48
 .text.strncmp  0x000000009d01b98c       0x48 /opt/microchip/xc32/v4.21/bin/bin/../../lib/gcc/pic32mx/8.3.1/../../../../pic32mx/lib/fpu64/libc-musl.a(strncmp.o)
                0x000000009d01b98c                strncmp

.text           0x000000009d01b9d4       0x44
 .text          0x000000009d01b9d4       0x44 /opt/microchip/xc32/v4.21/bin/bin/../../lib/gcc/pic32mx/8.3.1/../../../../pic32mx/lib/fpu64/pic32_software_reset.o
                0x000000009d01b9d4                __pic32_software_reset

.rodata         0x000000009d01ba18       0x40
 .rodata        0x000000009d01ba18       0x40 build/nsensor/production/_ext/1684788505/FillPat.o
                0x000000009d01ba18                rgbFillPat

.rodata.cst8    0x000000009d01ba58       0x80
 .rodata.cst8   0x000000009d01ba58       0x40 /opt/microchip/xc32/v4.21/bin/bin/../../lib/gcc/pic32mx/8.3.1/../../../../pic32mx/lib/fpu64/libm-musl.a(__cos.o)
 .rodata.cst8   0x000000009d01ba98       0x40 /opt/microchip/xc32/v4.21/bin/bin/../../lib/gcc/pic32mx/8.3.1/../../../../pic32mx/lib/fpu64/libm-musl.a(__sin.o)

.text.__wrap_printf
                0x000000009d01bad8       0x3c
 .text.__wrap_printf
                0x000000009d01bad8       0x3c /opt/microchip/xc32/v4.21/bin/bin/../../lib/gcc/pic32mx/8.3.1/../../../../pic32mx/lib/fpu64/libc-musl.a(__sio_printf_s.o)
                0x000000009d01bad8                _printf_s
                0x000000009d01bad8                _dprintf_s

.text.__vfprintf
                0x000000009d01bb14       0x3c
 .text.__vfprintf
                0x000000009d01bb14       0x3c /opt/microchip/xc32/v4.21/bin/bin/../../lib/gcc/pic32mx/8.3.1/../../../../pic32mx/lib/fpu64/libc-musl.a(__int_vfprintf.o)
                0x000000009d01bb14                __vfprintf

.text.vfprintf  0x000000009d01bb50       0x3c
 .text.vfprintf
                0x000000009d01bb50       0x3c /opt/microchip/xc32/v4.21/bin/bin/../../lib/gcc/pic32mx/8.3.1/../../../../pic32mx/lib/fpu64/libc-musl.a(vfprintf.o)
                0x000000009d01bb50                vfprintf

.text.__expand_heap
                0x000000009d01bb8c       0x3c
 .text.__expand_heap
                0x000000009d01bb8c       0x3c /opt/microchip/xc32/v4.21/bin/bin/../../lib/gcc/pic32mx/8.3.1/../../../../pic32mx/lib/fpu64/libc-musl.a(expand_heap.o)
                0x000000009d01bb8c                __expand_heap

.text           0x000000009d01bbc8       0x78
 .text          0x000000009d01bbc8       0x3c /opt/microchip/xc32/v4.21/bin/bin/../../lib/gcc/pic32mx/8.3.1/fpu64/libgcc.a(_lshrdi3.o)
                0x000000009d01bbc8                __lshrdi3
 .text          0x000000009d01bc04       0x3c /opt/microchip/xc32/v4.21/bin/bin/../../lib/gcc/pic32mx/8.3.1/fpu64/libgcc.a(_ashldi3.o)
                0x000000009d01bc04                __ashldi3

.text.lock_bin  0x000000009d01bc40       0x34
 .text.lock_bin
                0x000000009d01bc40       0x34 /opt/microchip/xc32/v4.21/bin/bin/../../lib/gcc/pic32mx/8.3.1/../../../../pic32mx/lib/fpu64/libc-musl.a(malloc.o)

.text.vprintf   0x000000009d01bc74       0x30
 .text.vprintf  0x000000009d01bc74       0x30 /opt/microchip/xc32/v4.21/bin/bin/../../lib/gcc/pic32mx/8.3.1/../../../../pic32mx/lib/fpu64/libc-musl.a(vprintf.o)
                0x000000009d01bc74                vprintf

.rodata.cst8    0x000000009d01bca8       0x30
 .rodata.cst8   0x000000009d01bca8       0x30 /opt/microchip/xc32/v4.21/bin/bin/../../lib/gcc/pic32mx/8.3.1/../../../../pic32mx/lib/fpu64/libm-musl.a(__rem_pio2_large.o)

.text.__init_stdio
                0x000000009d01bcd8       0x2c
 .text.__init_stdio
                0x000000009d01bcd8       0x2c /opt/microchip/xc32/v4.21/bin/bin/../../lib/gcc/pic32mx/8.3.1/../../../../pic32mx/lib/fpu64/libc-musl.a(__init_stdio.o)
                0x000000009d01bcd8                __init_stdio_needed
                0x000000009d01bcd8                __init_stdio

.text._stub_sbd_memlayout
                0x000000009d01bd04       0x2c
 .text._stub_sbd_memlayout
                0x000000009d01bd04       0x2c /opt/microchip/xc32/v4.21/bin/bin/../../lib/gcc/pic32mx/8.3.1/../../../../pic32mx/lib/fpu64/libpic32.a(sbrk.o)
                0x000000009d01bd04                _stub_sbd_memlayout
                0x000000009d01bd04                _sbd_memlayout

.text.strcpy    0x000000009d01bd30       0x28
 .text.strcpy   0x000000009d01bd30       0x28 /opt/microchip/xc32/v4.21/bin/bin/../../lib/gcc/pic32mx/8.3.1/../../../../pic32mx/lib/fpu64/libc-musl.a(strcpy.o)
                0x000000009d01bd30                strcpy

.rodata.cst8    0x000000009d01bd58       0x28
 .rodata.cst8   0x000000009d01bd58       0x28 /opt/microchip/xc32/v4.21/bin/bin/../../lib/gcc/pic32mx/8.3.1/../../../../pic32mx/lib/fpu64/libc-musl.a(__fmt_a.o)

.text.__wrap_snprintf
                0x000000009d01bd80       0x48
 .text.__wrap_snprintf
                0x000000009d01bd80       0x24 /opt/microchip/xc32/v4.21/bin/bin/../../lib/gcc/pic32mx/8.3.1/../../../../pic32mx/lib/fpu64/libc-musl.a(__sio_snprintf_dfosux.o)
                0x000000009d01bd80                _snprintf_cdeEfFnopsuxX
                0x000000009d01bd80                _snprintf_cdgGnopsuxX
                0x000000009d01bd80                _snprintf_cdeEnopsuxX
                0x000000009d01bd80                _dsnprintf_cdeEnopsuxX
                0x000000009d01bd80                _dsnprintf_cdfFgGnopsuxX
                0x000000009d01bd80                _snprintf_cdfFgGnopsuxX
                0x000000009d01bd80                _dsnprintf_cdeEgGnopsuxX
                0x000000009d01bd80                _snprintf_cdeEfFgGnopsuxX
                0x000000009d01bd80                _dsnprintf_cdeEfFnopsuxX
                0x000000009d01bd80                _dsnprintf_cdeEfFgGnopsuxX
                0x000000009d01bd80                _dsnprintf_cdfFnopsuxX
                0x000000009d01bd80                _dsnprintf_cdgGnopsuxX
                0x000000009d01bd80                _snprintf_cdfFnopsuxX
                0x000000009d01bd80                _snprintf_cdeEgGnopsuxX
 .text.__wrap_snprintf
                0x000000009d01bda4       0x24 /opt/microchip/xc32/v4.21/bin/bin/../../lib/gcc/pic32mx/8.3.1/../../../../pic32mx/lib/fpu64/libc-musl.a(__sio_snprintf_dosux.o)
                0x000000009d01bda4                _dsnprintf_cdnopsuxX
                0x000000009d01bda4                _snprintf_cdnopsuxX

.text.__wrap_snprintf
                0x000000009d01bdc8       0x48
 .text.__wrap_snprintf
                0x000000009d01bdc8       0x24 /opt/microchip/xc32/v4.21/bin/bin/../../lib/gcc/pic32mx/8.3.1/../../../../pic32mx/lib/fpu64/libc-musl.a(__sio_snprintf_doux.o)
                0x000000009d01bdc8                _snprintf_cdnopuxX
                0x000000009d01bdc8                _dsnprintf_cdnopuxX
 .text.__wrap_snprintf
                0x000000009d01bdec       0x24 /opt/microchip/xc32/v4.21/bin/bin/../../lib/gcc/pic32mx/8.3.1/../../../../pic32mx/lib/fpu64/libc-musl.a(__sio_snprintf_s.o)
                0x000000009d01bdec                _dsnprintf_s
                0x000000009d01bdec                _snprintf_s

.rodata         0x000000009d01be10       0x20
 .rodata        0x000000009d01be10       0x20 build/nsensor/production/_ext/1360937237/cmd_scanner.o

.text.dinit.startup
                0x000000009d01be30       0x20
 .text.dinit.startup
                0x000000009d01be30       0x20 /opt/microchip/xc32/v4.21/bin/bin/../../lib/gcc/pic32mx/8.3.1/../../../../pic32mx/lib/fpu64/libpic32.a(pic32_data_init_wrapper.o)
                0x000000009d01be30                __pic32_data_init

.rodata.cst8    0x000000009d01be50       0x20
 .rodata.cst8   0x000000009d01be50       0x20 /opt/microchip/xc32/v4.21/bin/bin/../../lib/gcc/pic32mx/8.3.1/../../../../pic32mx/lib/fpu64/libc-musl.a(__fmt_fp.o)

.text.__init_stdout
                0x000000009d01be70       0x20
 .text.__init_stdout
                0x000000009d01be70       0x20 /opt/microchip/xc32/v4.21/bin/bin/../../lib/gcc/pic32mx/8.3.1/../../../../pic32mx/lib/fpu64/libc-musl.a(stdout.o)
                0x000000009d01be70                __init_stdout

.text.__fwrite_min
                0x000000009d01be90       0x20
 .text.__fwrite_min
                0x000000009d01be90       0x20 /opt/microchip/xc32/v4.21/bin/bin/../../lib/gcc/pic32mx/8.3.1/../../../../pic32mx/lib/fpu64/libc-musl.a(__out.o)
                0x000000009d01be90                __fwrite
                0x000000009d01be90                __stdio_write
                0x000000009d01be90                __stdio_write_unbuffered

.text.stpcpy    0x000000009d01beb0       0x20
 .text.stpcpy   0x000000009d01beb0       0x20 /opt/microchip/xc32/v4.21/bin/bin/../../lib/gcc/pic32mx/8.3.1/../../../../pic32mx/lib/fpu64/libc-musl.a(stpcpy.o)
                0x000000009d01beb0                stpcpy
                0x000000009d01beb0                __stpcpy

.rodata.cst8    0x000000009d01bed0       0x20
 .rodata.cst8   0x000000009d01bed0       0x20 /opt/microchip/xc32/v4.21/bin/bin/../../lib/gcc/pic32mx/8.3.1/../../../../pic32mx/lib/fpu64/libm-musl.a(fma.o)

.text.__sio_printf_s
                0x000000009d01bef0       0x1c
 .text.__sio_printf_s
                0x000000009d01bef0       0x1c /opt/microchip/xc32/v4.21/bin/bin/../../lib/gcc/pic32mx/8.3.1/../../../../pic32mx/lib/fpu64/libc-musl.a(__sio_printf_s.o)
                0x000000009d01bef0                __sio_printf_s

.text.__sio_snprintf_s
                0x000000009d01bf0c       0x1c
 .text.__sio_snprintf_s
                0x000000009d01bf0c       0x1c /opt/microchip/xc32/v4.21/bin/bin/../../lib/gcc/pic32mx/8.3.1/../../../../pic32mx/lib/fpu64/libc-musl.a(__sio_snprintf_s.o)
                0x000000009d01bf0c                __sio_snprintf_s

.text.tolower   0x000000009d01bf28       0x1c
 .text.tolower  0x000000009d01bf28       0x1c /opt/microchip/xc32/v4.21/bin/bin/../../lib/gcc/pic32mx/8.3.1/../../../../pic32mx/lib/fpu64/libc-musl.a(tolower.o)
                0x000000009d01bf28                tolower

.text.__tolower_l
                0x000000009d01bf44       0x1c
 .text.__tolower_l
                0x000000009d01bf44       0x1c /opt/microchip/xc32/v4.21/bin/bin/../../lib/gcc/pic32mx/8.3.1/../../../../pic32mx/lib/fpu64/libc-musl.a(tolower.o)
                0x000000009d01bf44                __tolower_l
                0x000000009d01bf44                tolower_l

.text.toupper   0x000000009d01bf60       0x1c
 .text.toupper  0x000000009d01bf60       0x1c /opt/microchip/xc32/v4.21/bin/bin/../../lib/gcc/pic32mx/8.3.1/../../../../pic32mx/lib/fpu64/libc-musl.a(toupper.o)
                0x000000009d01bf60                toupper

.text.__toupper_l
                0x000000009d01bf7c       0x1c
 .text.__toupper_l
                0x000000009d01bf7c       0x1c /opt/microchip/xc32/v4.21/bin/bin/../../lib/gcc/pic32mx/8.3.1/../../../../pic32mx/lib/fpu64/libc-musl.a(toupper.o)
                0x000000009d01bf7c                toupper_l
                0x000000009d01bf7c                __toupper_l

.text.__fopen   0x000000009d01bf98       0x1c
 .text.__fopen  0x000000009d01bf98       0x1c /opt/microchip/xc32/v4.21/bin/bin/../../lib/gcc/pic32mx/8.3.1/../../../../pic32mx/lib/fpu64/libc-musl.a(__fopen.o)
                0x000000009d01bf98                __fopen_needed
                0x000000009d01bf98                __fopen

.MIPS.abiflags  0x000000009d000168       0x18
 .MIPS.abiflags
                0x000000009d000168       0x18 /opt/microchip/xc32/v4.21/bin/bin/../../lib/gcc/pic32mx/8.3.1/../../../../pic32mx/lib/fpu64/debug-exception-return.o

.text           0x000000009d01bfb4       0x18
 .text          0x000000009d01bfb4       0x18 /opt/microchip/xc32/v4.21/bin/bin/../../lib/gcc/pic32mx/8.3.1/../../../../pic32mx/lib/fpu64/libpic32.a(default-nmi-handler.o)
                0x000000009d01bfb4                _nmi_handler

.rodata         0x000000009d01bfcc       0x18
 .rodata        0x000000009d01bfcc       0x18 /opt/microchip/xc32/v4.21/bin/bin/../../lib/gcc/pic32mx/8.3.1/../../../../pic32mx/lib/fpu64/libc-musl.a(__printf_core.o)

.rodata.cst8    0x000000009d01bfe8       0x18
 .rodata.cst8   0x000000009d01bfe8       0x18 /opt/microchip/xc32/v4.21/bin/bin/../../lib/gcc/pic32mx/8.3.1/../../../../pic32mx/lib/fpu64/libm-musl.a(floor.o)

.rodata         0x000000009d01c000       0x10
 .rodata        0x000000009d01c000       0x10 build/nsensor/production/_ext/1965004555/plib_canfd1.o

.rodata.str1.4  0x000000009d01c010       0x20
 .rodata.str1.4
                0x000000009d01c010       0x10 /opt/microchip/xc32/v4.21/bin/bin/../../lib/gcc/pic32mx/8.3.1/../../../../pic32mx/lib/fpu64/libc-musl.a(__fmt_fp.o)
 .rodata.str1.4
                0x000000009d01c020       0x10 /opt/microchip/xc32/v4.21/bin/bin/../../lib/gcc/pic32mx/8.3.1/../../../../pic32mx/lib/fpu64/libc-musl.a(__fmt_a.o)

.rodata.cst8    0x000000009d01c030       0x20
 .rodata.cst8   0x000000009d01c030       0x10 /opt/microchip/xc32/v4.21/bin/bin/../../lib/gcc/pic32mx/8.3.1/../../../../pic32mx/lib/fpu64/libm-musl.a(cos.o)
 .rodata.cst8   0x000000009d01c040       0x10 /opt/microchip/xc32/v4.21/bin/bin/../../lib/gcc/pic32mx/8.3.1/../../../../pic32mx/lib/fpu64/libm-musl.a(scalbn.o)

.rodata.cst8    0x000000009d01c050       0x10
 .rodata.cst8   0x000000009d01c050       0x10 /opt/microchip/xc32/v4.21/bin/bin/../../lib/gcc/pic32mx/8.3.1/../../../../pic32mx/lib/fpu64/libm-musl.a(sin.o)

.text._on_reset
                0x000000009d01c060        0x8
 .text._on_reset
                0x000000009d01c060        0x8 /opt/microchip/xc32/v4.21/bin/bin/../../lib/gcc/pic32mx/8.3.1/../../../../pic32mx/lib/fpu64/libpic32.a(default-on-reset.o)
                0x000000009d01c060                _on_reset

.text._on_bootstrap
                0x000000009d01c068        0x8
 .text._on_bootstrap
                0x000000009d01c068        0x8 /opt/microchip/xc32/v4.21/bin/bin/../../lib/gcc/pic32mx/8.3.1/../../../../pic32mx/lib/fpu64/libpic32.a(default-on-bootstrap.o)
                0x000000009d01c068                _on_bootstrap

.text.__dummy_fmt3
                0x000000009d01c070        0x8
 .text.__dummy_fmt3
                0x000000009d01c070        0x8 /opt/microchip/xc32/v4.21/bin/bin/../../lib/gcc/pic32mx/8.3.1/../../../../pic32mx/lib/fpu64/libc-musl.a(__printf_core.o)

.text.__dummy_fmt4
                0x000000009d01c078        0x8
 .text.__dummy_fmt4
                0x000000009d01c078        0x8 /opt/microchip/xc32/v4.21/bin/bin/../../lib/gcc/pic32mx/8.3.1/../../../../pic32mx/lib/fpu64/libc-musl.a(__printf_core.o)

.text.__dummy_fmts
                0x000000009d01c080        0x8
 .text.__dummy_fmts
                0x000000009d01c080        0x8 /opt/microchip/xc32/v4.21/bin/bin/../../lib/gcc/pic32mx/8.3.1/../../../../pic32mx/lib/fpu64/libc-musl.a(__printf_core.o)

.rodata.str1.4  0x000000009d01c088        0x8
 .rodata.str1.4
                0x000000009d01c088        0x8 /opt/microchip/xc32/v4.21/bin/bin/../../lib/gcc/pic32mx/8.3.1/../../../../pic32mx/lib/fpu64/libc-musl.a(__printf_core.o)

.text.__dummy   0x000000009d01c090       0x10
 .text.__dummy  0x000000009d01c090        0x8 /opt/microchip/xc32/v4.21/bin/bin/../../lib/gcc/pic32mx/8.3.1/../../../../pic32mx/lib/fpu64/libc-musl.a(__fopen.o)
                0x000000009d01c090                __stdio_seek
 .text.__dummy  0x000000009d01c098        0x8 /opt/microchip/xc32/v4.21/bin/bin/../../lib/gcc/pic32mx/8.3.1/../../../../pic32mx/lib/fpu64/libc-musl.a(__init_stdio.o)
                0x000000009d01c098                __init_stderr
                0x000000009d01c098                __init_stdin

.text.getpagesize
                0x000000009d01c0a0        0x8
 .text.getpagesize
                0x000000009d01c0a0        0x8 /opt/microchip/xc32/v4.21/bin/bin/../../lib/gcc/pic32mx/8.3.1/../../../../pic32mx/lib/fpu64/libpic32.a(sbrk.o)
                0x000000009d01c0a0                getpagesize

.text.lseek     0x000000009d01c0a8        0x8
 .text.lseek    0x000000009d01c0a8        0x8 /opt/microchip/xc32/v4.21/bin/bin/../../lib/gcc/pic32mx/8.3.1/../../../../pic32mx/lib/fpu64/libpic32.a(lseek.o)
                0x000000009d01c0a8                lseek

.text.close     0x000000009d01c0b0        0x8
 .text.close    0x000000009d01c0b0        0x8 /opt/microchip/xc32/v4.21/bin/bin/../../lib/gcc/pic32mx/8.3.1/../../../../pic32mx/lib/fpu64/libpic32.a(close.o)
                0x000000009d01c0b0                close

.text%z206      0x0000000000000000        0x0
 .text          0x0000000000000000        0x0 /opt/microchip/xc32/v4.21/bin/bin/../../lib/gcc/pic32mx/8.3.1/../../../../pic32mx/lib/fpu64/libpic32.a(errno.o)

.text%z207      0x0000000000000000        0x0
 .text          0x0000000000000000        0x0 /opt/microchip/xc32/v4.21/bin/bin/../../lib/gcc/pic32mx/8.3.1/../../../../pic32mx/lib/fpu64/libpic32.a(close.o)

.text%z208      0x0000000000000000        0x0
 .text          0x0000000000000000        0x0 /opt/microchip/xc32/v4.21/bin/bin/../../lib/gcc/pic32mx/8.3.1/../../../../pic32mx/lib/fpu64/libpic32.a(lseek.o)

.text%z209      0x0000000000000000        0x0
 .text          0x0000000000000000        0x0 /opt/microchip/xc32/v4.21/bin/bin/../../lib/gcc/pic32mx/8.3.1/../../../../pic32mx/lib/fpu64/libpic32.a(sbrk.o)

.text%z210      0x0000000000000000        0x0
 .text          0x0000000000000000        0x0 /opt/microchip/xc32/v4.21/bin/bin/../../lib/gcc/pic32mx/8.3.1/../../../../pic32mx/lib/fpu64/libm-musl.a(__sin.o)

.text%z211      0x0000000000000000        0x0
 .text          0x0000000000000000        0x0 /opt/microchip/xc32/v4.21/bin/bin/../../lib/gcc/pic32mx/8.3.1/../../../../pic32mx/lib/fpu64/libm-musl.a(__rem_pio2_large.o)

.text%z212      0x0000000000000000        0x0
 .text          0x0000000000000000        0x0 /opt/microchip/xc32/v4.21/bin/bin/../../lib/gcc/pic32mx/8.3.1/../../../../pic32mx/lib/fpu64/libm-musl.a(__rem_pio2.o)

.text%z213      0x0000000000000000        0x0
 .text          0x0000000000000000        0x0 /opt/microchip/xc32/v4.21/bin/bin/../../lib/gcc/pic32mx/8.3.1/../../../../pic32mx/lib/fpu64/libm-musl.a(__cos.o)

.text%z214      0x0000000000000000        0x0
 .text          0x0000000000000000        0x0 /opt/microchip/xc32/v4.21/bin/bin/../../lib/gcc/pic32mx/8.3.1/../../../../pic32mx/lib/fpu64/libm-musl.a(sin.o)

.text%z215      0x0000000000000000        0x0
 .text          0x0000000000000000        0x0 /opt/microchip/xc32/v4.21/bin/bin/../../lib/gcc/pic32mx/8.3.1/../../../../pic32mx/lib/fpu64/libm-musl.a(scalbn.o)

.text%z216      0x0000000000000000        0x0
 .text          0x0000000000000000        0x0 /opt/microchip/xc32/v4.21/bin/bin/../../lib/gcc/pic32mx/8.3.1/../../../../pic32mx/lib/fpu64/libm-musl.a(fma.o)

.text%z217      0x0000000000000000        0x0
 .text          0x0000000000000000        0x0 /opt/microchip/xc32/v4.21/bin/bin/../../lib/gcc/pic32mx/8.3.1/../../../../pic32mx/lib/fpu64/libm-musl.a(floor.o)

.text%z218      0x0000000000000000        0x0
 .text          0x0000000000000000        0x0 /opt/microchip/xc32/v4.21/bin/bin/../../lib/gcc/pic32mx/8.3.1/../../../../pic32mx/lib/fpu64/libm-musl.a(cos.o)

.text%z219      0x0000000000000000        0x0
 .text          0x0000000000000000        0x0 /opt/microchip/xc32/v4.21/bin/bin/../../lib/gcc/pic32mx/8.3.1/../../../../pic32mx/lib/fpu64/libc-musl.a(__fmt_a.o)

.text%z220      0x0000000000000000        0x0
 .text          0x0000000000000000        0x0 /opt/microchip/xc32/v4.21/bin/bin/../../lib/gcc/pic32mx/8.3.1/../../../../pic32mx/lib/fpu64/libc-musl.a(libc.o)

.text%z221      0x0000000000000000        0x0
 .text          0x0000000000000000        0x0 /opt/microchip/xc32/v4.21/bin/bin/../../lib/gcc/pic32mx/8.3.1/../../../../pic32mx/lib/fpu64/libc-musl.a(__io_fmt_needed.o)

.text%z222      0x0000000000000000        0x0
 .text          0x0000000000000000        0x0 /opt/microchip/xc32/v4.21/bin/bin/../../lib/gcc/pic32mx/8.3.1/../../../../pic32mx/lib/fpu64/libc-musl.a(__io_file_needed.o)

.text%z223      0x0000000000000000        0x0
 .text          0x0000000000000000        0x0 /opt/microchip/xc32/v4.21/bin/bin/../../lib/gcc/pic32mx/8.3.1/../../../../pic32mx/lib/fpu64/libc-musl.a(__init_stdio.o)

.text%z224      0x0000000000000000        0x0
 .text          0x0000000000000000        0x0 /opt/microchip/xc32/v4.21/bin/bin/../../lib/gcc/pic32mx/8.3.1/../../../../pic32mx/lib/fpu64/libc-musl.a(expand_heap.o)

.text%z225      0x0000000000000000        0x0
 .text          0x0000000000000000        0x0 /opt/microchip/xc32/v4.21/bin/bin/../../lib/gcc/pic32mx/8.3.1/../../../../pic32mx/lib/fpu64/libc-musl.a(malloc.o)

.text%z226      0x0000000000000000        0x0
 .text          0x0000000000000000        0x0 /opt/microchip/xc32/v4.21/bin/bin/../../lib/gcc/pic32mx/8.3.1/../../../../pic32mx/lib/fpu64/libc-musl.a(stpcpy.o)

.text%z227      0x0000000000000000        0x0
 .text          0x0000000000000000        0x0 /opt/microchip/xc32/v4.21/bin/bin/../../lib/gcc/pic32mx/8.3.1/../../../../pic32mx/lib/fpu64/libc-musl.a(vfprintf.o)

.text%z228      0x0000000000000000        0x0
 .text          0x0000000000000000        0x0 /opt/microchip/xc32/v4.21/bin/bin/../../lib/gcc/pic32mx/8.3.1/../../../../pic32mx/lib/fpu64/libc-musl.a(__stdio_close.o)

.text%z229      0x0000000000000000        0x0
 .text          0x0000000000000000        0x0 /opt/microchip/xc32/v4.21/bin/bin/../../lib/gcc/pic32mx/8.3.1/../../../../pic32mx/lib/fpu64/libc-musl.a(__out.o)

.text%z230      0x0000000000000000        0x0
 .text          0x0000000000000000        0x0 /opt/microchip/xc32/v4.21/bin/bin/../../lib/gcc/pic32mx/8.3.1/../../../../pic32mx/lib/fpu64/libc-musl.a(__io_init_needed.o)

.text%z231      0x0000000000000000        0x0
 .text          0x0000000000000000        0x0 /opt/microchip/xc32/v4.21/bin/bin/../../lib/gcc/pic32mx/8.3.1/../../../../pic32mx/lib/fpu64/libc-musl.a(__fopen.o)

.text%z232      0x0000000000000000        0x0
 .text          0x0000000000000000        0x0 /opt/microchip/xc32/v4.21/bin/bin/../../lib/gcc/pic32mx/8.3.1/../../../../pic32mx/lib/fpu64/libc-musl.a(__int_vsnprintf.o)

.text%z233      0x0000000000000000        0x0
 .text          0x0000000000000000        0x0 /opt/microchip/xc32/v4.21/bin/bin/../../lib/gcc/pic32mx/8.3.1/../../../../pic32mx/lib/fpu64/libc-musl.a(__int_vfprintf.o)

.text%z234      0x0000000000000000        0x0
 .text          0x0000000000000000        0x0 /opt/microchip/xc32/v4.21/bin/bin/../../lib/gcc/pic32mx/8.3.1/../../../../pic32mx/lib/fpu64/libc-musl.a(toupper.o)

.text%z235      0x0000000000000000        0x0
 .text          0x0000000000000000        0x0 /opt/microchip/xc32/v4.21/bin/bin/../../lib/gcc/pic32mx/8.3.1/../../../../pic32mx/lib/fpu64/libc-musl.a(tolower.o)

.text%z236      0x0000000000000000        0x0
 .text          0x0000000000000000        0x0 /opt/microchip/xc32/v4.21/bin/bin/../../lib/gcc/pic32mx/8.3.1/../../../../pic32mx/lib/fpu64/libc-musl.a(strncmp.o)

.text%z237      0x0000000000000000        0x0
 .text          0x0000000000000000        0x0 /opt/microchip/xc32/v4.21/bin/bin/../../lib/gcc/pic32mx/8.3.1/../../../../pic32mx/lib/fpu64/libc-musl.a(strcpy.o)

.text%z238      0x0000000000000000        0x0
 .text          0x0000000000000000        0x0 /opt/microchip/xc32/v4.21/bin/bin/../../lib/gcc/pic32mx/8.3.1/../../../../pic32mx/lib/fpu64/libc-musl.a(atoi.o)

.text%z239      0x0000000000000000        0x0
 .text          0x0000000000000000        0x0 /opt/microchip/xc32/v4.21/bin/bin/../../lib/gcc/pic32mx/8.3.1/../../../../pic32mx/lib/fpu64/libc-musl.a(vprintf.o)

.text%z240      0x0000000000000000        0x0
 .text          0x0000000000000000        0x0 /opt/microchip/xc32/v4.21/bin/bin/../../lib/gcc/pic32mx/8.3.1/../../../../pic32mx/lib/fpu64/libc-musl.a(stdout.o)

.text%z241      0x0000000000000000        0x0
 .text          0x0000000000000000        0x0 /opt/microchip/xc32/v4.21/bin/bin/../../lib/gcc/pic32mx/8.3.1/../../../../pic32mx/lib/fpu64/libc-musl.a(__printf_core.o)

.text%z242      0x0000000000000000        0x0
 .text          0x0000000000000000        0x0 /opt/microchip/xc32/v4.21/bin/bin/../../lib/gcc/pic32mx/8.3.1/../../../../pic32mx/lib/fpu64/libc-musl.a(__pop_ptr.o)

.text%z243      0x0000000000000000        0x0
 .text          0x0000000000000000        0x0 /opt/microchip/xc32/v4.21/bin/bin/../../lib/gcc/pic32mx/8.3.1/../../../../pic32mx/lib/fpu64/libc-musl.a(__pop_int.o)

.text%z244      0x0000000000000000        0x0
 .text          0x0000000000000000        0x0 /opt/microchip/xc32/v4.21/bin/bin/../../lib/gcc/pic32mx/8.3.1/../../../../pic32mx/lib/fpu64/libc-musl.a(__pop_float.o)

.text%z245      0x0000000000000000        0x0
 .text          0x0000000000000000        0x0 /opt/microchip/xc32/v4.21/bin/bin/../../lib/gcc/pic32mx/8.3.1/../../../../pic32mx/lib/fpu64/libc-musl.a(__fmt_x.o)

.text%z246      0x0000000000000000        0x0
 .text          0x0000000000000000        0x0 /opt/microchip/xc32/v4.21/bin/bin/../../lib/gcc/pic32mx/8.3.1/../../../../pic32mx/lib/fpu64/libc-musl.a(__fmt_u.o)

.text%z247      0x0000000000000000        0x0
 .text          0x0000000000000000        0x0 /opt/microchip/xc32/v4.21/bin/bin/../../lib/gcc/pic32mx/8.3.1/../../../../pic32mx/lib/fpu64/libc-musl.a(__fmt_s.o)

.text%z248      0x0000000000000000        0x0
 .text          0x0000000000000000        0x0 /opt/microchip/xc32/v4.21/bin/bin/../../lib/gcc/pic32mx/8.3.1/../../../../pic32mx/lib/fpu64/libc-musl.a(__fmt_o.o)

.text%z249      0x0000000000000000        0x0
 .text          0x0000000000000000        0x0 /opt/microchip/xc32/v4.21/bin/bin/../../lib/gcc/pic32mx/8.3.1/../../../../pic32mx/lib/fpu64/libc-musl.a(__fmt_fp.o)

.text%z250      0x0000000000000000        0x0
 .text          0x0000000000000000        0x0 /opt/microchip/xc32/v4.21/bin/bin/../../lib/gcc/pic32mx/8.3.1/../../../../pic32mx/lib/fpu64/libc-musl.a(__fmt_d.o)

.text%z251      0x0000000000000000        0x0
 .text          0x0000000000000000        0x0 /opt/microchip/xc32/v4.21/bin/bin/../../lib/gcc/pic32mx/8.3.1/../../../../pic32mx/lib/fpu64/libc-musl.a(__sio_snprintf_s.o)

.text%z252      0x0000000000000000        0x0
 .text          0x0000000000000000        0x0 /opt/microchip/xc32/v4.21/bin/bin/../../lib/gcc/pic32mx/8.3.1/../../../../pic32mx/lib/fpu64/libc-musl.a(__sio_snprintf_doux.o)

.text%z253      0x0000000000000000        0x0
 .text          0x0000000000000000        0x0 /opt/microchip/xc32/v4.21/bin/bin/../../lib/gcc/pic32mx/8.3.1/../../../../pic32mx/lib/fpu64/libc-musl.a(__sio_snprintf_dosux.o)

.text%z254      0x0000000000000000        0x0
 .text          0x0000000000000000        0x0 /opt/microchip/xc32/v4.21/bin/bin/../../lib/gcc/pic32mx/8.3.1/../../../../pic32mx/lib/fpu64/libc-musl.a(__sio_snprintf_dfosux.o)

.text%z255      0x0000000000000000        0x0
 .text          0x0000000000000000        0x0 /opt/microchip/xc32/v4.21/bin/bin/../../lib/gcc/pic32mx/8.3.1/../../../../pic32mx/lib/fpu64/libc-musl.a(__sio_printf_s.o)

.text%z256      0x0000000000000000        0x0
 .text          0x0000000000000000        0x0 /opt/microchip/xc32/v4.21/bin/bin/../../lib/gcc/pic32mx/8.3.1/../../../../pic32mx/lib/fpu64/libpic32.a(defaultinterrupt.o)

.text%z257      0x0000000000000000        0x0
 .text          0x0000000000000000        0x0 /opt/microchip/xc32/v4.21/bin/bin/../../lib/gcc/pic32mx/8.3.1/../../../../pic32mx/lib/fpu64/libpic32.a(general-exception.o)

.text%z258      0x0000000000000000        0x0
 .text          0x0000000000000000        0x0 /opt/microchip/xc32/v4.21/bin/bin/../../lib/gcc/pic32mx/8.3.1/../../../../pic32mx/lib/fpu64/libpic32.a(pic32_data_init_0_1.o)

.text%z259      0x0000000000000000        0x0
 .text          0x0000000000000000        0x0 /opt/microchip/xc32/v4.21/bin/bin/../../lib/gcc/pic32mx/8.3.1/../../../../pic32mx/lib/fpu64/libpic32.a(pic32_data_init_wrapper.o)

.text%z260      0x0000000000000000        0x0
 .text          0x0000000000000000        0x0 /opt/microchip/xc32/v4.21/bin/bin/../../lib/gcc/pic32mx/8.3.1/../../../../pic32mx/lib/fpu64/libpic32.a(default-on-bootstrap.o)

.text%z261      0x0000000000000000        0x0
 .text          0x0000000000000000        0x0 /opt/microchip/xc32/v4.21/bin/bin/../../lib/gcc/pic32mx/8.3.1/../../../../pic32mx/lib/fpu64/libpic32.a(default-on-reset.o)

.text%z262      0x0000000000000000        0x0
 .text          0x0000000000000000        0x0 /tmp/ccs5yPaT.o

.text%z263      0x0000000000000000        0x0
 .text          0x0000000000000000        0x0 /tmp/ccRzzlsZ.o

.text%z264      0x0000000000000000        0x0
 .text          0x0000000000000000        0x0 /tmp/ccWIkHyp.o

.text%z265      0x0000000000000000        0x0
 .text          0x0000000000000000        0x0 /tmp/ccBkuxsy.o

.text%z266      0x0000000000000000        0x0
 .text          0x0000000000000000        0x0 build/nsensor/production/_ext/1684788505/foo.o

.text%z267      0x0000000000000000        0x0
 .text          0x0000000000000000        0x0 build/nsensor/production/_ext/1684788505/FillPat.o

.text%z268      0x0000000000000000        0x0
 .text          0x0000000000000000        0x0 build/nsensor/production/_ext/1684788505/ChrFont0.o

.text%z269      0x0000000000000000        0x0
 .text          0x0000000000000000        0x0 /opt/microchip/xc32/v4.21/bin/bin/../../lib/gcc/pic32mx/8.3.1/../../../../pic32mx/lib/fpu64/debug-exception-return.o
