
Optional file vector_offset_init.o not found
Archive member included to satisfy reference by file (symbol)

c:/program files/microchip/xc32/v4.20/bin/bin/../../lib/gcc/pic32mx/8.3.1/../../../../pic32mx/lib/fpu64\libpic32.a(memset.o)
                              build/nsensor/production/_ext/1965004555/plib_canfd1.o (memset)
c:/program files/microchip/xc32/v4.20/bin/bin/../../lib/gcc/pic32mx/8.3.1/../../../../pic32mx/lib/fpu64\libpic32.a(strlen.o)
                              build/nsensor/production/_ext/1684788505/eadog.o (strlen)
c:/program files/microchip/xc32/v4.20/bin/bin/../../lib/gcc/pic32mx/8.3.1/../../../../pic32mx/lib/fpu64\libpic32.a(default-on-reset.o)
                              C:\Users\nsasp\AppData\Local\Temp\cc26TO6z.o (_on_reset)
c:/program files/microchip/xc32/v4.20/bin/bin/../../lib/gcc/pic32mx/8.3.1/../../../../pic32mx/lib/fpu64\libpic32.a(default-on-bootstrap.o)
                              C:\Users\nsasp\AppData\Local\Temp\cc26TO6z.o (_on_bootstrap)
c:/program files/microchip/xc32/v4.20/bin/bin/../../lib/gcc/pic32mx/8.3.1/../../../../pic32mx/lib/fpu64\libpic32.a(default-nmi-handler.o)
                              C:\Users\nsasp\AppData\Local\Temp\cc26TO6z.o (_nmi_handler)
c:/program files/microchip/xc32/v4.20/bin/bin/../../lib/gcc/pic32mx/8.3.1/../../../../pic32mx/lib/fpu64\libpic32.a(pic32_data_init_wrapper.o)
                              C:\Users\nsasp\AppData\Local\Temp\cc26TO6z.o (__pic32_data_init)
c:/program files/microchip/xc32/v4.20/bin/bin/../../lib/gcc/pic32mx/8.3.1/../../../../pic32mx/lib/fpu64\libpic32.a(pic32_data_init_0_1.o)
                              (__copy_needed)
c:/program files/microchip/xc32/v4.20/bin/bin/../../lib/gcc/pic32mx/8.3.1/../../../../pic32mx/lib/fpu64\libpic32.a(general-exception.o)
                              C:\Users\nsasp\AppData\Local\Temp\cc26TO6z.o (_general_exception_context)
c:/program files/microchip/xc32/v4.20/bin/bin/../../lib/gcc/pic32mx/8.3.1/../../../../pic32mx/lib/fpu64\libpic32.a(defaultinterrupt.o)
                              C:\Users\nsasp\AppData\Local\Temp\ccPPgLE5.o (_DefaultInterrupt)
c:/program files/microchip/xc32/v4.20/bin/bin/../../lib/gcc/pic32mx/8.3.1/../../../../pic32mx/lib/fpu64\libc-musl.a(__sio_printf_s.o)
                              build/nsensor/production/_ext/1684788505/OledDriver.o (_printf_s)
c:/program files/microchip/xc32/v4.20/bin/bin/../../lib/gcc/pic32mx/8.3.1/../../../../pic32mx/lib/fpu64\libc-musl.a(__sio_sprintf_dfosux.o)
                              build/nsensor/production/_ext/1360937237/main.o (_sprintf_cdfFnopsuxX)
c:/program files/microchip/xc32/v4.20/bin/bin/../../lib/gcc/pic32mx/8.3.1/../../../../pic32mx/lib/fpu64\libc-musl.a(__sio_sprintf_dosux.o)
                              build/nsensor/production/_ext/1360937237/bma490l.o (_sprintf_cdnopsuxX)
c:/program files/microchip/xc32/v4.20/bin/bin/../../lib/gcc/pic32mx/8.3.1/../../../../pic32mx/lib/fpu64\libc-musl.a(__sio_sprintf_doux.o)
                              build/nsensor/production/_ext/1360937237/bma490l.o (_sprintf_cdnopuxX)
c:/program files/microchip/xc32/v4.20/bin/bin/../../lib/gcc/pic32mx/8.3.1/../../../../pic32mx/lib/fpu64\libc-musl.a(__sio_sprintf_s.o)
                              build/nsensor/production/_ext/1360937237/sca3300.o (_sprintf_s)
c:/program files/microchip/xc32/v4.20/bin/bin/../../lib/gcc/pic32mx/8.3.1/../../../../pic32mx/lib/fpu64\libc-musl.a(__fmt_d.o)
                              c:/program files/microchip/xc32/v4.20/bin/bin/../../lib/gcc/pic32mx/8.3.1/../../../../pic32mx/lib/fpu64\libc-musl.a(__sio_sprintf_dfosux.o) (__fmt_d_needed)
c:/program files/microchip/xc32/v4.20/bin/bin/../../lib/gcc/pic32mx/8.3.1/../../../../pic32mx/lib/fpu64\libc-musl.a(__fmt_fp.o)
                              c:/program files/microchip/xc32/v4.20/bin/bin/../../lib/gcc/pic32mx/8.3.1/../../../../pic32mx/lib/fpu64\libc-musl.a(__sio_sprintf_dfosux.o) (__fmt_f_needed)
c:/program files/microchip/xc32/v4.20/bin/bin/../../lib/gcc/pic32mx/8.3.1/../../../../pic32mx/lib/fpu64\libc-musl.a(__fmt_o.o)
                              c:/program files/microchip/xc32/v4.20/bin/bin/../../lib/gcc/pic32mx/8.3.1/../../../../pic32mx/lib/fpu64\libc-musl.a(__sio_sprintf_dfosux.o) (__fmt_o_needed)
c:/program files/microchip/xc32/v4.20/bin/bin/../../lib/gcc/pic32mx/8.3.1/../../../../pic32mx/lib/fpu64\libc-musl.a(__fmt_s.o)
                              c:/program files/microchip/xc32/v4.20/bin/bin/../../lib/gcc/pic32mx/8.3.1/../../../../pic32mx/lib/fpu64\libc-musl.a(__sio_printf_s.o) (__fmt_s_needed)
c:/program files/microchip/xc32/v4.20/bin/bin/../../lib/gcc/pic32mx/8.3.1/../../../../pic32mx/lib/fpu64\libc-musl.a(__fmt_u.o)
                              c:/program files/microchip/xc32/v4.20/bin/bin/../../lib/gcc/pic32mx/8.3.1/../../../../pic32mx/lib/fpu64\libc-musl.a(__fmt_d.o) (__cvt_u)
c:/program files/microchip/xc32/v4.20/bin/bin/../../lib/gcc/pic32mx/8.3.1/../../../../pic32mx/lib/fpu64\libc-musl.a(__fmt_x.o)
                              c:/program files/microchip/xc32/v4.20/bin/bin/../../lib/gcc/pic32mx/8.3.1/../../../../pic32mx/lib/fpu64\libc-musl.a(__sio_sprintf_dfosux.o) (__fmt_x_needed)
c:/program files/microchip/xc32/v4.20/bin/bin/../../lib/gcc/pic32mx/8.3.1/../../../../pic32mx/lib/fpu64\libc-musl.a(__pop_float.o)
                              c:/program files/microchip/xc32/v4.20/bin/bin/../../lib/gcc/pic32mx/8.3.1/../../../../pic32mx/lib/fpu64\libc-musl.a(__sio_sprintf_dfosux.o) (__pop_float_needed)
c:/program files/microchip/xc32/v4.20/bin/bin/../../lib/gcc/pic32mx/8.3.1/../../../../pic32mx/lib/fpu64\libc-musl.a(__pop_int.o)
                              c:/program files/microchip/xc32/v4.20/bin/bin/../../lib/gcc/pic32mx/8.3.1/../../../../pic32mx/lib/fpu64\libc-musl.a(__sio_sprintf_dfosux.o) (__pop_int_needed)
c:/program files/microchip/xc32/v4.20/bin/bin/../../lib/gcc/pic32mx/8.3.1/../../../../pic32mx/lib/fpu64\libc-musl.a(__pop_ptr.o)
                              c:/program files/microchip/xc32/v4.20/bin/bin/../../lib/gcc/pic32mx/8.3.1/../../../../pic32mx/lib/fpu64\libc-musl.a(__sio_sprintf_dfosux.o) (__pop_ptr_needed)
c:/program files/microchip/xc32/v4.20/bin/bin/../../lib/gcc/pic32mx/8.3.1/../../../../pic32mx/lib/fpu64\libc-musl.a(__printf_core.o)
                              c:/program files/microchip/xc32/v4.20/bin/bin/../../lib/gcc/pic32mx/8.3.1/../../../../pic32mx/lib/fpu64\libc-musl.a(__fmt_d.o) (__pad)
c:/program files/microchip/xc32/v4.20/bin/bin/../../lib/gcc/pic32mx/8.3.1/../../../../pic32mx/lib/fpu64\libc-musl.a(stdout.o)
                              c:/program files/microchip/xc32/v4.20/bin/bin/../../lib/gcc/pic32mx/8.3.1/../../../../pic32mx/lib/fpu64\libc-musl.a(__sio_printf_s.o) (_stdout)
c:/program files/microchip/xc32/v4.20/bin/bin/../../lib/gcc/pic32mx/8.3.1/../../../../pic32mx/lib/fpu64\libc-musl.a(vprintf.o)
                              build/nsensor/production/_ext/1360937237/canfd.o (vprintf)
c:/program files/microchip/xc32/v4.20/bin/bin/../../lib/gcc/pic32mx/8.3.1/../../../../pic32mx/lib/fpu64\libc-musl.a(atoi.o)
                              c:/program files/microchip/xc32/v4.20/bin/bin/../../lib/gcc/pic32mx/8.3.1/../../../../pic32mx/lib/fpu64\libc-musl.a(__printf_core.o) (atoi)
c:/program files/microchip/xc32/v4.20/bin/bin/../../lib/gcc/pic32mx/8.3.1/../../../../pic32mx/lib/fpu64\libc-musl.a(memcpy.o)
                              c:/program files/microchip/xc32/v4.20/bin/bin/../../lib/gcc/pic32mx/8.3.1/../../../../pic32mx/lib/fpu64\libc-musl.a(__printf_core.o) (memcpy)
c:/program files/microchip/xc32/v4.20/bin/bin/../../lib/gcc/pic32mx/8.3.1/../../../../pic32mx/lib/fpu64\libc-musl.a(strcpy.o)
                              c:/program files/microchip/xc32/v4.20/bin/bin/../../lib/gcc/pic32mx/8.3.1/../../../../pic32mx/lib/fpu64\libc-musl.a(__fmt_fp.o) (strcpy)
c:/program files/microchip/xc32/v4.20/bin/bin/../../lib/gcc/pic32mx/8.3.1/../../../../pic32mx/lib/fpu64\libc-musl.a(strncmp.o)
                              build/nsensor/production/_ext/1360937237/cmd_scanner.o (strncmp)
c:/program files/microchip/xc32/v4.20/bin/bin/../../lib/gcc/pic32mx/8.3.1/../../../../pic32mx/lib/fpu64\libc-musl.a(tolower.o)
                              c:/program files/microchip/xc32/v4.20/bin/bin/../../lib/gcc/pic32mx/8.3.1/../../../../pic32mx/lib/fpu64\libc-musl.a(__fmt_fp.o) (tolower)
c:/program files/microchip/xc32/v4.20/bin/bin/../../lib/gcc/pic32mx/8.3.1/../../../../pic32mx/lib/fpu64\libc-musl.a(toupper.o)
                              c:/program files/microchip/xc32/v4.20/bin/bin/../../lib/gcc/pic32mx/8.3.1/../../../../pic32mx/lib/fpu64\libc-musl.a(__fmt_x.o) (toupper)
c:/program files/microchip/xc32/v4.20/bin/bin/../../lib/gcc/pic32mx/8.3.1/../../../../pic32mx/lib/fpu64\libc-musl.a(__int_vfprintf.o)
                              c:/program files/microchip/xc32/v4.20/bin/bin/../../lib/gcc/pic32mx/8.3.1/../../../../pic32mx/lib/fpu64\libc-musl.a(__sio_printf_s.o) (__vfprintf)
c:/program files/microchip/xc32/v4.20/bin/bin/../../lib/gcc/pic32mx/8.3.1/../../../../pic32mx/lib/fpu64\libc-musl.a(__int_vsprintf.o)
                              c:/program files/microchip/xc32/v4.20/bin/bin/../../lib/gcc/pic32mx/8.3.1/../../../../pic32mx/lib/fpu64\libc-musl.a(__sio_sprintf_dfosux.o) (__vsprintf)
c:/program files/microchip/xc32/v4.20/bin/bin/../../lib/gcc/pic32mx/8.3.1/../../../../pic32mx/lib/fpu64\libc-musl.a(__fopen.o)
                              c:/program files/microchip/xc32/v4.20/bin/bin/../../lib/gcc/pic32mx/8.3.1/../../../../pic32mx/lib/fpu64\libc-musl.a(stdout.o) (__stdio_seek)
c:/program files/microchip/xc32/v4.20/bin/bin/../../lib/gcc/pic32mx/8.3.1/../../../../pic32mx/lib/fpu64\libc-musl.a(__io_init_needed.o)
                              c:/program files/microchip/xc32/v4.20/bin/bin/../../lib/gcc/pic32mx/8.3.1/../../../../pic32mx/lib/fpu64\libc-musl.a(stdout.o) (__io_init_needed)
c:/program files/microchip/xc32/v4.20/bin/bin/../../lib/gcc/pic32mx/8.3.1/../../../../pic32mx/lib/fpu64\libc-musl.a(__out.o)
                              c:/program files/microchip/xc32/v4.20/bin/bin/../../lib/gcc/pic32mx/8.3.1/../../../../pic32mx/lib/fpu64\libc-musl.a(stdout.o) (__stdio_write_unbuffered)
c:/program files/microchip/xc32/v4.20/bin/bin/../../lib/gcc/pic32mx/8.3.1/../../../../pic32mx/lib/fpu64\libc-musl.a(__stdio_close.o)
                              c:/program files/microchip/xc32/v4.20/bin/bin/../../lib/gcc/pic32mx/8.3.1/../../../../pic32mx/lib/fpu64\libc-musl.a(stdout.o) (__stdio_close_rw)
c:/program files/microchip/xc32/v4.20/bin/bin/../../lib/gcc/pic32mx/8.3.1/../../../../pic32mx/lib/fpu64\libc-musl.a(vfprintf.o)
                              c:/program files/microchip/xc32/v4.20/bin/bin/../../lib/gcc/pic32mx/8.3.1/../../../../pic32mx/lib/fpu64\libc-musl.a(vprintf.o) (vfprintf)
c:/program files/microchip/xc32/v4.20/bin/bin/../../lib/gcc/pic32mx/8.3.1/../../../../pic32mx/lib/fpu64\libc-musl.a(stpcpy.o)
                              c:/program files/microchip/xc32/v4.20/bin/bin/../../lib/gcc/pic32mx/8.3.1/../../../../pic32mx/lib/fpu64\libc-musl.a(strcpy.o) (__stpcpy)
c:/program files/microchip/xc32/v4.20/bin/bin/../../lib/gcc/pic32mx/8.3.1/../../../../pic32mx/lib/fpu64\libc-musl.a(malloc.o)
                              c:/program files/microchip/xc32/v4.20/bin/bin/../../lib/gcc/pic32mx/8.3.1/../../../../pic32mx/lib/fpu64\libc-musl.a(__fopen.o) (malloc)
c:/program files/microchip/xc32/v4.20/bin/bin/../../lib/gcc/pic32mx/8.3.1/../../../../pic32mx/lib/fpu64\libc-musl.a(expand_heap.o)
                              c:/program files/microchip/xc32/v4.20/bin/bin/../../lib/gcc/pic32mx/8.3.1/../../../../pic32mx/lib/fpu64\libc-musl.a(malloc.o) (__expand_heap)
c:/program files/microchip/xc32/v4.20/bin/bin/../../lib/gcc/pic32mx/8.3.1/../../../../pic32mx/lib/fpu64\libc-musl.a(__int_vsnprintf.o)
                              c:/program files/microchip/xc32/v4.20/bin/bin/../../lib/gcc/pic32mx/8.3.1/../../../../pic32mx/lib/fpu64\libc-musl.a(__int_vsprintf.o) (__vsnprintf)
c:/program files/microchip/xc32/v4.20/bin/bin/../../lib/gcc/pic32mx/8.3.1/../../../../pic32mx/lib/fpu64\libc-musl.a(__init_stdio.o)
                              c:/program files/microchip/xc32/v4.20/bin/bin/../../lib/gcc/pic32mx/8.3.1/../../../../pic32mx/lib/fpu64\libc-musl.a(__io_init_needed.o) (__init_stdio_needed)
c:/program files/microchip/xc32/v4.20/bin/bin/../../lib/gcc/pic32mx/8.3.1/../../../../pic32mx/lib/fpu64\libc-musl.a(__io_file_needed.o)
                              c:/program files/microchip/xc32/v4.20/bin/bin/../../lib/gcc/pic32mx/8.3.1/../../../../pic32mx/lib/fpu64\libc-musl.a(__io_init_needed.o) (__io_file_needed)
c:/program files/microchip/xc32/v4.20/bin/bin/../../lib/gcc/pic32mx/8.3.1/../../../../pic32mx/lib/fpu64\libc-musl.a(__io_fmt_needed.o)
                              c:/program files/microchip/xc32/v4.20/bin/bin/../../lib/gcc/pic32mx/8.3.1/../../../../pic32mx/lib/fpu64\libc-musl.a(vfprintf.o) (__io_fmt_needed)
c:/program files/microchip/xc32/v4.20/bin/bin/../../lib/gcc/pic32mx/8.3.1/../../../../pic32mx/lib/fpu64\libc-musl.a(libc.o)
                              c:/program files/microchip/xc32/v4.20/bin/bin/../../lib/gcc/pic32mx/8.3.1/../../../../pic32mx/lib/fpu64\libc-musl.a(malloc.o) (__libc)
c:/program files/microchip/xc32/v4.20/bin/bin/../../lib/gcc/pic32mx/8.3.1/../../../../pic32mx/lib/fpu64\libc-musl.a(__fmt_a.o)
                              c:/program files/microchip/xc32/v4.20/bin/bin/../../lib/gcc/pic32mx/8.3.1/../../../../pic32mx/lib/fpu64\libc-musl.a(__io_fmt_needed.o) (__fmt_a_needed)
c:/program files/microchip/xc32/v4.20/bin/bin/../../lib/gcc/pic32mx/8.3.1/../../../../pic32mx/lib/fpu64\libm-musl.a(cos.o)
                              build/nsensor/production/_ext/1360937237/gfx.o (cos)
c:/program files/microchip/xc32/v4.20/bin/bin/../../lib/gcc/pic32mx/8.3.1/../../../../pic32mx/lib/fpu64\libm-musl.a(floor.o)
                              c:/program files/microchip/xc32/v4.20/bin/bin/../../lib/gcc/pic32mx/8.3.1/../../../../pic32mx/lib/fpu64\libc-musl.a(__fmt_fp.o) (floor)
c:/program files/microchip/xc32/v4.20/bin/bin/../../lib/gcc/pic32mx/8.3.1/../../../../pic32mx/lib/fpu64\libm-musl.a(fma.o)
                              c:/program files/microchip/xc32/v4.20/bin/bin/../../lib/gcc/pic32mx/8.3.1/../../../../pic32mx/lib/fpu64\libc-musl.a(__fmt_fp.o) (fma)
c:/program files/microchip/xc32/v4.20/bin/bin/../../lib/gcc/pic32mx/8.3.1/../../../../pic32mx/lib/fpu64\libm-musl.a(scalbn.o)
                              c:/program files/microchip/xc32/v4.20/bin/bin/../../lib/gcc/pic32mx/8.3.1/../../../../pic32mx/lib/fpu64\libm-musl.a(fma.o) (scalbn)
c:/program files/microchip/xc32/v4.20/bin/bin/../../lib/gcc/pic32mx/8.3.1/../../../../pic32mx/lib/fpu64\libm-musl.a(sin.o)
                              build/nsensor/production/_ext/1360937237/gfx.o (sin)
c:/program files/microchip/xc32/v4.20/bin/bin/../../lib/gcc/pic32mx/8.3.1/../../../../pic32mx/lib/fpu64\libm-musl.a(__cos.o)
                              c:/program files/microchip/xc32/v4.20/bin/bin/../../lib/gcc/pic32mx/8.3.1/../../../../pic32mx/lib/fpu64\libm-musl.a(cos.o) (__cos)
c:/program files/microchip/xc32/v4.20/bin/bin/../../lib/gcc/pic32mx/8.3.1/../../../../pic32mx/lib/fpu64\libm-musl.a(__rem_pio2.o)
                              c:/program files/microchip/xc32/v4.20/bin/bin/../../lib/gcc/pic32mx/8.3.1/../../../../pic32mx/lib/fpu64\libm-musl.a(cos.o) (__rem_pio2)
c:/program files/microchip/xc32/v4.20/bin/bin/../../lib/gcc/pic32mx/8.3.1/../../../../pic32mx/lib/fpu64\libm-musl.a(__rem_pio2_large.o)
                              c:/program files/microchip/xc32/v4.20/bin/bin/../../lib/gcc/pic32mx/8.3.1/../../../../pic32mx/lib/fpu64\libm-musl.a(__rem_pio2.o) (__rem_pio2_large)
c:/program files/microchip/xc32/v4.20/bin/bin/../../lib/gcc/pic32mx/8.3.1/../../../../pic32mx/lib/fpu64\libm-musl.a(__sin.o)
                              c:/program files/microchip/xc32/v4.20/bin/bin/../../lib/gcc/pic32mx/8.3.1/../../../../pic32mx/lib/fpu64\libm-musl.a(cos.o) (__sin)
c:/program files/microchip/xc32/v4.20/bin/bin/../../lib/gcc/pic32mx/8.3.1/fpu64\libgcc.a(_lshrdi3.o)
                              c:/program files/microchip/xc32/v4.20/bin/bin/../../lib/gcc/pic32mx/8.3.1/../../../../pic32mx/lib/fpu64\libc-musl.a(malloc.o) (__lshrdi3)
c:/program files/microchip/xc32/v4.20/bin/bin/../../lib/gcc/pic32mx/8.3.1/fpu64\libgcc.a(_ashldi3.o)
                              c:/program files/microchip/xc32/v4.20/bin/bin/../../lib/gcc/pic32mx/8.3.1/../../../../pic32mx/lib/fpu64\libc-musl.a(malloc.o) (__ashldi3)
c:/program files/microchip/xc32/v4.20/bin/bin/../../lib/gcc/pic32mx/8.3.1/fpu64\libgcc.a(_udivdi3.o)
                              c:/program files/microchip/xc32/v4.20/bin/bin/../../lib/gcc/pic32mx/8.3.1/../../../../pic32mx/lib/fpu64\libc-musl.a(__fmt_u.o) (__udivdi3)
c:/program files/microchip/xc32/v4.20/bin/bin/../../lib/gcc/pic32mx/8.3.1/fpu64\libgcc.a(_umoddi3.o)
                              c:/program files/microchip/xc32/v4.20/bin/bin/../../lib/gcc/pic32mx/8.3.1/../../../../pic32mx/lib/fpu64\libc-musl.a(__fmt_u.o) (__umoddi3)
c:/program files/microchip/xc32/v4.20/bin/bin/../../lib/gcc/pic32mx/8.3.1/../../../../pic32mx/lib/fpu64\libpic32.a(sbrk.o)
                              c:/program files/microchip/xc32/v4.20/bin/bin/../../lib/gcc/pic32mx/8.3.1/../../../../pic32mx/lib/fpu64\libc-musl.a(expand_heap.o) (_sbrk)
c:/program files/microchip/xc32/v4.20/bin/bin/../../lib/gcc/pic32mx/8.3.1/../../../../pic32mx/lib/fpu64\libpic32.a(lseek.o)
                              c:/program files/microchip/xc32/v4.20/bin/bin/../../lib/gcc/pic32mx/8.3.1/../../../../pic32mx/lib/fpu64\libc-musl.a(__stdio_close.o) (lseek)
c:/program files/microchip/xc32/v4.20/bin/bin/../../lib/gcc/pic32mx/8.3.1/../../../../pic32mx/lib/fpu64\libpic32.a(close.o)
                              c:/program files/microchip/xc32/v4.20/bin/bin/../../lib/gcc/pic32mx/8.3.1/../../../../pic32mx/lib/fpu64\libc-musl.a(__stdio_close.o) (close)
c:/program files/microchip/xc32/v4.20/bin/bin/../../lib/gcc/pic32mx/8.3.1/../../../../pic32mx/lib/fpu64\libpic32.a(errno.o)
                              c:/program files/microchip/xc32/v4.20/bin/bin/../../lib/gcc/pic32mx/8.3.1/../../../../pic32mx/lib/fpu64\libc-musl.a(__printf_core.o) (errno)

Microchip PIC32 Memory-Usage Report

kseg0 Program-Memory Usage
section                    address  length [bytes]      (dec)  Description
-------                 ----------  -------------------------  -----------
.text                   0x9d000000          0x168         360  App's exec code 
.MIPS.abiflags          0x9d000168           0x18          24   
.app_excpt              0x9d000180           0x10          16  General-Exception 
.rodata.cst8            0x9d000190           0x70         112   
.vectors                0x9d000200           0xc0         192   
.text                   0x9d0002c0         0x2ad8       10968  App's exec code 
.text                   0x9d002d98         0x1c54        7252  App's exec code 
.dinit                  0x9d0049ec          0xb50        2896   
.text                   0x9d00553c         0x14b8        5304  App's exec code 
.text.__rem_pio2_large  0x9d0069f4          0x838        2104   
.text                   0x9d00722c          0xf4c        3916  App's exec code 
.text                   0x9d008178          0x760        1888  App's exec code 
.text.__fmt_fp          0x9d0088d8          0x6d0        1744   
.text.fma               0x9d008fa8          0x678        1656   
.text.__fmt_a           0x9d009620          0x628        1576   
.text                   0x9d009c48          0xc1c        3100  App's exec code 
.text.__printf_core     0x9d00a864          0x580        1408   
.text                   0x9d00ade4          0x550        1360  App's exec code 
.rodata                 0x9d00b334          0x514        1300  Read-only const 
.text                   0x9d00b848          0x9c0        2496  App's exec code 
.text                   0x9d00c208          0x43c        1084  App's exec code 
.text.__rem_pio2        0x9d00c644          0x430        1072   
.text                   0x9d00ca74          0x804        2052  App's exec code 
.text                   0x9d00d278          0x780        1920  App's exec code 
.text                   0x9d00d9f8          0x6f0        1776  App's exec code 
.rodata                 0x9d00e0e8          0x300         768  Read-only const 
.rodata.str1.4          0x9d00e3e8          0x300         768   
.text                   0x9d00e6e8          0x2b8         696  App's exec code 
.text.malloc            0x9d00e9a0          0x290         656   
.text                   0x9d00ec30          0x488        1160  App's exec code 
.text                   0x9d00f0b8          0x464        1124  App's exec code 
.text                   0x9d00f51c          0x224         548  App's exec code 
.text.__fmt_x           0x9d00f740          0x208         520   
.text                   0x9d00f948          0x3e4         996  App's exec code 
.rodata.str1.4          0x9d00fd2c          0x1d4         468   
.text.free              0x9d00ff00          0x198         408   
.text.__pop_int         0x9d010098          0x188         392   
.rodata                 0x9d010220          0x158         344  Read-only const 
.text._sbrk_init        0x9d010378          0x154         340   
.text.__fmt_d           0x9d0104cc          0x150         336   
.text.__cvt_u           0x9d01061c          0x13c         316   
.text.sin               0x9d010758          0x120         288   
.text.realloc           0x9d010878          0x118         280   
.text                   0x9d010990          0x210         528  App's exec code 
.text.__pad             0x9d010ba0          0x100         256   
.text.cos               0x9d010ca0          0x100         256   
.text                   0x9d010da0          0x1f8         504  App's exec code 
.text                   0x9d010f98           0xfc         252  App's exec code 
.text.__fmt_o           0x9d011094           0xf4         244   
.text                   0x9d011188           0xe8         232  App's exec code 
.text.__pop_ptr         0x9d011270           0xe4         228   
.text                   0x9d011354           0xdc         220  App's exec code 
.text.general_exception 0x9d011430           0xdc         220   
.text                   0x9d01150c          0x1ac         428  App's exec code 
.text.__stdio_close_rw  0x9d0116b8           0xc0         192   
.text.__fmt_u           0x9d011778           0xbc         188   
.text.floor             0x9d011834           0xb4         180   
.text                   0x9d0118e8           0xb0         176  App's exec code 
.text._sbrk             0x9d011998           0xb0         176   
.text.unbin             0x9d011a48           0xac         172   
.text                   0x9d011af4           0xa8         168  App's exec code 
.text.__fmt_s           0x9d011b9c           0xa4         164   
.text.__stdio_close     0x9d011c40           0xa0         160   
.text                   0x9d011ce0           0x90         144  App's exec code 
.text.__sin             0x9d011d70           0x90         144   
.text                   0x9d011e00           0x8c         140  App's exec code 
.text.__out             0x9d011e8c           0x8c         140   
.text.normalize         0x9d011f18           0x8c         140   
.text.scalbn            0x9d011fa4           0x8c         140   
.rodata                 0x9d012030           0x88         136  Read-only const 
.text.__cos             0x9d0120b8           0x88         136   
.text.dinit.startup     0x9d012140           0x80         128   
.text.__vsnprintf       0x9d0121c0           0x80         128   
.text.atoi              0x9d012240           0x7c         124   
.rodata                 0x9d0122bc            0x4           4  Read-only const 
.rodata.cst8            0x9d0122c0           0x78         120   
.text.alloc_rev         0x9d012338           0x74         116   
.text.alloc_fwd         0x9d0123ac           0x70         112   
.text.a_clz_64          0x9d01241c           0x6c         108   
.rodata.str1.4          0x9d012488           0x64         100   
.text.__fopen_std       0x9d0124ec           0x60          96   
.text.bin_index         0x9d01254c           0x60          96   
.text.__sio_sprintf_dfo 0x9d0125ac           0x5c          92   
.text.__string_out      0x9d012608           0x5c          92   
.rodata                 0x9d012664           0x5c          92  Read-only const 
.rodata.cst8            0x9d0126c0           0x58          88   
.text.__fmt_state       0x9d012718           0x58          88   
.text.adjust_size       0x9d012770           0x58          88   
.text.trim              0x9d0127c8           0x58          88   
.rodata.str1.4          0x9d012820           0xa8         168   
.rodata.str1.4          0x9d0128c8           0x54          84   
.text.main_entry        0x9d01291c           0x54          84   
.text.__malloc0         0x9d012970           0x50          80   
.rodata.str1.4          0x9d0129c0           0x4c          76   
.text.__sio_sprintf_dos 0x9d012a0c           0x4c          76   
.text.__sio_sprintf_dou 0x9d012a58           0x4c          76   
.text.sbrk              0x9d012aa4           0x4c          76   
.text.__pop_float       0x9d012af0           0x48          72   
.text.strncmp           0x9d012b38           0x48          72   
.text                   0x9d012b80           0x44          68  App's exec code 
.rodata                 0x9d012bc4           0x40          64  Read-only const 
.rodata.cst8            0x9d012c08           0x80         128   
.text.__wrap_printf     0x9d012c88           0x3c          60   
.text.__vfprintf        0x9d012cc4           0x3c          60   
.text.vfprintf          0x9d012d00           0x3c          60   
.text.__expand_heap     0x9d012d3c           0x3c          60   
.text                   0x9d012d78           0x78         120  App's exec code 
.text.lock_bin          0x9d012df0           0x34          52   
.text.vprintf           0x9d012e24           0x30          48   
.rodata.cst8            0x9d012e58           0x30          48   
.text.memcpy            0x9d012e88           0x2c          44   
.text.__init_stdio      0x9d012eb4           0x2c          44   
.text._stub_sbd_memlayo 0x9d012ee0           0x2c          44   
.text                   0x9d012f0c           0x28          40  App's exec code 
.rodata.cst8            0x9d012f38           0x28          40   
.text.__wrap_sprintf    0x9d012f60           0x50          80   
.text.__wrap_sprintf    0x9d012fb0           0x50          80   
.text.strcpy            0x9d013000           0x28          40   
.text.__vsprintf        0x9d013028           0x28          40   
.rodata.cst8            0x9d013050           0x28          40   
.rodata                 0x9d013078           0x20          32  Read-only const 
.rodata.cst8            0x9d013098           0x20          32   
.text.dinit.startup     0x9d0130b8           0x20          32   
.rodata.cst8            0x9d0130d8           0x20          32   
.text.__init_stdout     0x9d0130f8           0x20          32   
.text.__fwrite_min      0x9d013118           0x20          32   
.text.stpcpy            0x9d013138           0x20          32   
.rodata.cst8            0x9d013158           0x20          32   
.text.__sio_printf_s    0x9d013178           0x1c          28   
.text.__sio_sprintf_s   0x9d013194           0x1c          28   
.text.tolower           0x9d0131b0           0x1c          28   
.text.__tolower_l       0x9d0131cc           0x1c          28   
.text.toupper           0x9d0131e8           0x1c          28   
.text.__toupper_l       0x9d013204           0x1c          28   
.text.__fopen           0x9d013220           0x1c          28   
.text                   0x9d01323c           0x18          24  App's exec code 
.rodata                 0x9d013254           0x18          24  Read-only const 
.rodata.cst8            0x9d013270           0x18          24   
.rodata                 0x9d013288           0x10          16  Read-only const 
.rodata.cst8            0x9d013298           0x20          32   
.rodata.str1.4          0x9d0132b8           0x20          32   
.rodata.str1.4          0x9d0132d8           0x10          16   
.rodata.cst8            0x9d0132e8           0x20          32   
.rodata.cst8            0x9d013308           0x10          16   
.rodata.str1.4          0x9d013318            0x8           8   
.text._on_reset         0x9d013320            0x8           8   
.text._on_bootstrap     0x9d013328            0x8           8   
.text.__dummy_fmt3      0x9d013330            0x8           8   
.text.__dummy_fmt4      0x9d013338            0x8           8   
.text.__dummy_fmts      0x9d013340            0x8           8   
.rodata.str1.4          0x9d013348            0x8           8   
.text.__dummy           0x9d013350           0x10          16   
.text.getpagesize       0x9d013360            0x8           8   
.text.lseek             0x9d013368            0x8           8   
.text.close             0x9d013370            0x8           8   
      Total kseg0_program_mem used  :     0x13368       78696  15.0% of 0x80000

kseg0 Boot-Memory Usage
section                    address  length [bytes]      (dec)  Description
-------                 ----------  -------------------------  -----------
         Total kseg0_boot_mem used  :           0           0  

kseg1 Boot-Memory Usage
section                    address  length [bytes]      (dec)  Description
-------                 ----------  -------------------------  -----------
.reset                  0xbfc00000          0x194         404  Reset handler 
.bev_excpt              0xbfc00380           0x10          16  BEV-Exception 
         Total kseg1_boot_mem used  :       0x1a4         420  36.5% of 0x480
        --------------------------------------------------------------------------
         Total Program Memory used  :     0x1350c       79116  15.1% of 0x80480
        --------------------------------------------------------------------------


Data-Memory Usage
section                    address  length [bytes]      (dec)  Description
-------                 ----------  -------------------------  -----------
.sdata                  0x80000000           0x94         148  Small init data 
.sbss                   0x80000094          0x194         404  Small uninit data 
.data                   0x80000228          0x3d8         984  Initialized data 
.data                   0x80000600           0xa8         168  Initialized data 
.data                   0x800006a8           0x48          72  Initialized data 
.data._stdout           0x800006f0            0x4           4   
.bss.errno              0x800006f4            0x4           4   
.bss                    0x800006f8         0x2300        8960  Uninitialized data 
.bss                    0x800033c8          0x758        1880  Uninitialized data 
.bss                    0x80003b20          0x310         784  Uninitialized data 
.bss                    0x80003e30          0x1aa         426  Uninitialized data 
.bss                    0x80003fdc          0x11c         284  Uninitialized data 
.bss                    0x800040f8           0x90         144  Uninitialized data 
.bss                    0x80004188           0x50          80  Uninitialized data 
.bss                    0x800041d8           0x34          52  Uninitialized data 
.bss.can_message_buffer 0xa0002a00          0x9c8        2504   
.rgbOledBmp_page        0xa0009ff0            0x5           5   
.rgbOledBmp_blank       0xa0009ff8            0x4           4   
.rgbOledBmp0            0xa000a000          0xf00        3840   
.rgbOledBmp1            0xa000af00          0xf00        3840   
         Total kseg0/kseg1 data_mem used  :      0x600b       24587  37.5% of 0x10000
        --------------------------------------------------------------------------
            Total Data Memory used  :      0x600b       24587  37.5% of 0x10000
        --------------------------------------------------------------------------


Dynamic Data-Memory Reservation
section                    address  length [bytes]      (dec)  Description
-------                 ----------  -------------------------  -----------
heap                    0x80004210          0x200         512  Reserved for heap 
stack                   0x80004428         0xbbc8       48072  Reserved for stack 

        --------------------------------------------------------------------------

Discarded input sections

 .xc_stack_usage.hdr
                0x0000000000000000        0xe c:/program files/microchip/xc32/v4.20/bin/bin/../../lib/gcc/pic32mx/8.3.1/../../../../pic32mx/lib/fpu64\debug-exception-return.o
 .xc_stack_usage
                0x0000000000000000       0x1d c:/program files/microchip/xc32/v4.20/bin/bin/../../lib/gcc/pic32mx/8.3.1/../../../../pic32mx/lib/fpu64\debug-exception-return.o
 .reginfo       0x0000000000000000       0x18 build/nsensor/production/_ext/1684788505/ChrFont0.o
 .MIPS.abiflags
                0x0000000000000000       0x18 build/nsensor/production/_ext/1684788505/ChrFont0.o
 .reginfo       0x0000000000000000       0x18 build/nsensor/production/_ext/1684788505/dogm-graphic.o
 .MIPS.abiflags
                0x0000000000000000       0x18 build/nsensor/production/_ext/1684788505/dogm-graphic.o
 .reginfo       0x0000000000000000       0x18 build/nsensor/production/_ext/1684788505/eadog.o
 .MIPS.abiflags
                0x0000000000000000       0x18 build/nsensor/production/_ext/1684788505/eadog.o
 .reginfo       0x0000000000000000       0x18 build/nsensor/production/_ext/1684788505/FillPat.o
 .MIPS.abiflags
                0x0000000000000000       0x18 build/nsensor/production/_ext/1684788505/FillPat.o
 .reginfo       0x0000000000000000       0x18 build/nsensor/production/_ext/1684788505/foo.o
 .MIPS.abiflags
                0x0000000000000000       0x18 build/nsensor/production/_ext/1684788505/foo.o
 .reginfo       0x0000000000000000       0x18 build/nsensor/production/_ext/1684788505/lcd_drv.o
 .MIPS.abiflags
                0x0000000000000000       0x18 build/nsensor/production/_ext/1684788505/lcd_drv.o
 .reginfo       0x0000000000000000       0x18 build/nsensor/production/_ext/1684788505/OledChar.o
 .MIPS.abiflags
                0x0000000000000000       0x18 build/nsensor/production/_ext/1684788505/OledChar.o
 .reginfo       0x0000000000000000       0x18 build/nsensor/production/_ext/1684788505/OledDriver.o
 .MIPS.abiflags
                0x0000000000000000       0x18 build/nsensor/production/_ext/1684788505/OledDriver.o
 .reginfo       0x0000000000000000       0x18 build/nsensor/production/_ext/1684788505/OledGrph.o
 .MIPS.abiflags
                0x0000000000000000       0x18 build/nsensor/production/_ext/1684788505/OledGrph.o
 .reginfo       0x0000000000000000       0x18 build/nsensor/production/_ext/1966772718/plib_adchs.o
 .MIPS.abiflags
                0x0000000000000000       0x18 build/nsensor/production/_ext/1966772718/plib_adchs.o
 .reginfo       0x0000000000000000       0x18 build/nsensor/production/_ext/1965004555/plib_canfd1.o
 .MIPS.abiflags
                0x0000000000000000       0x18 build/nsensor/production/_ext/1965004555/plib_canfd1.o
 .reginfo       0x0000000000000000       0x18 build/nsensor/production/_ext/619183945/plib_clk.o
 .MIPS.abiflags
                0x0000000000000000       0x18 build/nsensor/production/_ext/619183945/plib_clk.o
 .reginfo       0x0000000000000000       0x18 build/nsensor/production/_ext/1664108525/plib_coretimer.o
 .MIPS.abiflags
                0x0000000000000000       0x18 build/nsensor/production/_ext/1664108525/plib_coretimer.o
 .reginfo       0x0000000000000000       0x18 build/nsensor/production/_ext/2014863652/plib_dmac.o
 .MIPS.abiflags
                0x0000000000000000       0x18 build/nsensor/production/_ext/2014863652/plib_dmac.o
 .reginfo       0x0000000000000000       0x18 build/nsensor/production/_ext/2014902340/plib_evic.o
 .MIPS.abiflags
                0x0000000000000000       0x18 build/nsensor/production/_ext/2014902340/plib_evic.o
 .reginfo       0x0000000000000000       0x18 build/nsensor/production/_ext/2014956168/plib_gpio.o
 .MIPS.abiflags
                0x0000000000000000       0x18 build/nsensor/production/_ext/2014956168/plib_gpio.o
 .reginfo       0x0000000000000000       0x18 build/nsensor/production/_ext/1955707305/plib_mcpwm.o
 .MIPS.abiflags
                0x0000000000000000       0x18 build/nsensor/production/_ext/1955707305/plib_mcpwm.o
 .reginfo       0x0000000000000000       0x18 build/nsensor/production/_ext/619197180/plib_qei2.o
 .MIPS.abiflags
                0x0000000000000000       0x18 build/nsensor/production/_ext/619197180/plib_qei2.o
 .reginfo       0x0000000000000000       0x18 build/nsensor/production/_ext/2015287515/plib_rtcc.o
 .MIPS.abiflags
                0x0000000000000000       0x18 build/nsensor/production/_ext/2015287515/plib_rtcc.o
 .reginfo       0x0000000000000000       0x18 build/nsensor/production/_ext/1877210129/plib_spi1_master.o
 .MIPS.abiflags
                0x0000000000000000       0x18 build/nsensor/production/_ext/1877210129/plib_spi1_master.o
 .reginfo       0x0000000000000000       0x18 build/nsensor/production/_ext/1877210129/plib_spi2_master.o
 .MIPS.abiflags
                0x0000000000000000       0x18 build/nsensor/production/_ext/1877210129/plib_spi2_master.o
 .reginfo       0x0000000000000000       0x18 build/nsensor/production/_ext/619200320/plib_tmr9.o
 .MIPS.abiflags
                0x0000000000000000       0x18 build/nsensor/production/_ext/619200320/plib_tmr9.o
 .reginfo       0x0000000000000000       0x18 build/nsensor/production/_ext/619200320/plib_tmr5.o
 .MIPS.abiflags
                0x0000000000000000       0x18 build/nsensor/production/_ext/619200320/plib_tmr5.o
 .reginfo       0x0000000000000000       0x18 build/nsensor/production/_ext/619200320/plib_tmr3.o
 .MIPS.abiflags
                0x0000000000000000       0x18 build/nsensor/production/_ext/619200320/plib_tmr3.o
 .reginfo       0x0000000000000000       0x18 build/nsensor/production/_ext/619200320/plib_tmr6.o
 .MIPS.abiflags
                0x0000000000000000       0x18 build/nsensor/production/_ext/619200320/plib_tmr6.o
 .reginfo       0x0000000000000000       0x18 build/nsensor/production/_ext/619200320/plib_tmr2.o
 .MIPS.abiflags
                0x0000000000000000       0x18 build/nsensor/production/_ext/619200320/plib_tmr2.o
 .reginfo       0x0000000000000000       0x18 build/nsensor/production/_ext/2015359111/plib_uart1.o
 .MIPS.abiflags
                0x0000000000000000       0x18 build/nsensor/production/_ext/2015359111/plib_uart1.o
 .reginfo       0x0000000000000000       0x18 build/nsensor/production/_ext/725740559/xc32_monitor.o
 .MIPS.abiflags
                0x0000000000000000       0x18 build/nsensor/production/_ext/725740559/xc32_monitor.o
 .reginfo       0x0000000000000000       0x18 build/nsensor/production/_ext/1856863253/exceptions.o
 .MIPS.abiflags
                0x0000000000000000       0x18 build/nsensor/production/_ext/1856863253/exceptions.o
 .reginfo       0x0000000000000000       0x18 build/nsensor/production/_ext/1856863253/interrupts.o
 .MIPS.abiflags
                0x0000000000000000       0x18 build/nsensor/production/_ext/1856863253/interrupts.o
 .reginfo       0x0000000000000000       0x18 build/nsensor/production/_ext/1856863253/initialization.o
 .MIPS.abiflags
                0x0000000000000000       0x18 build/nsensor/production/_ext/1856863253/initialization.o
 .reginfo       0x0000000000000000       0x18 build/nsensor/production/_ext/1360937237/bma490l.o
 .MIPS.abiflags
                0x0000000000000000       0x18 build/nsensor/production/_ext/1360937237/bma490l.o
 .reginfo       0x0000000000000000       0x18 build/nsensor/production/_ext/1360937237/timers.o
 .MIPS.abiflags
                0x0000000000000000       0x18 build/nsensor/production/_ext/1360937237/timers.o
 .reginfo       0x0000000000000000       0x18 build/nsensor/production/_ext/1360937237/sca3300.o
 .MIPS.abiflags
                0x0000000000000000       0x18 build/nsensor/production/_ext/1360937237/sca3300.o
 .reginfo       0x0000000000000000       0x18 build/nsensor/production/_ext/1360937237/gfx.o
 .MIPS.abiflags
                0x0000000000000000       0x18 build/nsensor/production/_ext/1360937237/gfx.o
 .reginfo       0x0000000000000000       0x18 build/nsensor/production/_ext/1360937237/imu.o
 .MIPS.abiflags
                0x0000000000000000       0x18 build/nsensor/production/_ext/1360937237/imu.o
 .reginfo       0x0000000000000000       0x18 build/nsensor/production/_ext/1360937237/pid.o
 .MIPS.abiflags
                0x0000000000000000       0x18 build/nsensor/production/_ext/1360937237/pid.o
 .reginfo       0x0000000000000000       0x18 build/nsensor/production/_ext/1360937237/do_fft.o
 .MIPS.abiflags
                0x0000000000000000       0x18 build/nsensor/production/_ext/1360937237/do_fft.o
 .reginfo       0x0000000000000000       0x18 build/nsensor/production/_ext/1360937237/fft.o
 .MIPS.abiflags
                0x0000000000000000       0x18 build/nsensor/production/_ext/1360937237/fft.o
 .reginfo       0x0000000000000000       0x18 build/nsensor/production/_ext/1360937237/main.o
 .MIPS.abiflags
                0x0000000000000000       0x18 build/nsensor/production/_ext/1360937237/main.o
 .reginfo       0x0000000000000000       0x18 build/nsensor/production/_ext/1360937237/canfd.o
 .MIPS.abiflags
                0x0000000000000000       0x18 build/nsensor/production/_ext/1360937237/canfd.o
 .reginfo       0x0000000000000000       0x18 build/nsensor/production/_ext/1360937237/host.o
 .MIPS.abiflags
                0x0000000000000000       0x18 build/nsensor/production/_ext/1360937237/host.o
 .reginfo       0x0000000000000000       0x18 build/nsensor/production/_ext/1360937237/cmd_scanner.o
 .MIPS.abiflags
                0x0000000000000000       0x18 build/nsensor/production/_ext/1360937237/cmd_scanner.o
 .reginfo       0x0000000000000000       0x18 C:\Users\nsasp\AppData\Local\Temp\cc26TO6z.o
 .MIPS.abiflags
                0x0000000000000000       0x18 C:\Users\nsasp\AppData\Local\Temp\cc26TO6z.o
 .reginfo       0x0000000000000000       0x18 C:\Users\nsasp\AppData\Local\Temp\ccN9JJDZ.o
 .MIPS.abiflags
                0x0000000000000000       0x18 C:\Users\nsasp\AppData\Local\Temp\ccN9JJDZ.o
 .reginfo       0x0000000000000000       0x18 C:\Users\nsasp\AppData\Local\Temp\ccysgyWv.o
 .MIPS.abiflags
                0x0000000000000000       0x18 C:\Users\nsasp\AppData\Local\Temp\ccysgyWv.o
 .reginfo       0x0000000000000000       0x18 C:\Users\nsasp\AppData\Local\Temp\ccPPgLE5.o
 .MIPS.abiflags
                0x0000000000000000       0x18 C:\Users\nsasp\AppData\Local\Temp\ccPPgLE5.o
 .discard       0x0000000000000000        0x4 C:\Users\nsasp\AppData\Local\Temp\ccPPgLE5.o
 .reginfo       0x0000000000000000       0x18 c:/program files/microchip/xc32/v4.20/bin/bin/../../lib/gcc/pic32mx/8.3.1/../../../../pic32mx/lib/fpu64\pic32_software_reset.o
 .MIPS.abiflags
                0x0000000000000000       0x18 c:/program files/microchip/xc32/v4.20/bin/bin/../../lib/gcc/pic32mx/8.3.1/../../../../pic32mx/lib/fpu64\pic32_software_reset.o
 .xc_stack_usage.hdr
                0x0000000000000000        0xe c:/program files/microchip/xc32/v4.20/bin/bin/../../lib/gcc/pic32mx/8.3.1/../../../../pic32mx/lib/fpu64\pic32_software_reset.o
 .xc_stack_usage
                0x0000000000000000       0x24 c:/program files/microchip/xc32/v4.20/bin/bin/../../lib/gcc/pic32mx/8.3.1/../../../../pic32mx/lib/fpu64\pic32_software_reset.o
 .reginfo       0x0000000000000000       0x18 c:/program files/microchip/xc32/v4.20/bin/bin/../../lib/gcc/pic32mx/8.3.1/../../../../pic32mx/lib/fpu64\libpic32.a(memset.o)
 .MIPS.abiflags
                0x0000000000000000       0x18 c:/program files/microchip/xc32/v4.20/bin/bin/../../lib/gcc/pic32mx/8.3.1/../../../../pic32mx/lib/fpu64\libpic32.a(memset.o)
 .xc_stack_usage.hdr
                0x0000000000000000        0xe c:/program files/microchip/xc32/v4.20/bin/bin/../../lib/gcc/pic32mx/8.3.1/../../../../pic32mx/lib/fpu64\libpic32.a(memset.o)
 .xc_stack_usage
                0x0000000000000000       0x14 c:/program files/microchip/xc32/v4.20/bin/bin/../../lib/gcc/pic32mx/8.3.1/../../../../pic32mx/lib/fpu64\libpic32.a(memset.o)
 .reginfo       0x0000000000000000       0x18 c:/program files/microchip/xc32/v4.20/bin/bin/../../lib/gcc/pic32mx/8.3.1/../../../../pic32mx/lib/fpu64\libpic32.a(strlen.o)
 .MIPS.abiflags
                0x0000000000000000       0x18 c:/program files/microchip/xc32/v4.20/bin/bin/../../lib/gcc/pic32mx/8.3.1/../../../../pic32mx/lib/fpu64\libpic32.a(strlen.o)
 .xc_stack_usage.hdr
                0x0000000000000000        0xe c:/program files/microchip/xc32/v4.20/bin/bin/../../lib/gcc/pic32mx/8.3.1/../../../../pic32mx/lib/fpu64\libpic32.a(strlen.o)
 .xc_stack_usage
                0x0000000000000000       0x14 c:/program files/microchip/xc32/v4.20/bin/bin/../../lib/gcc/pic32mx/8.3.1/../../../../pic32mx/lib/fpu64\libpic32.a(strlen.o)
 .reginfo       0x0000000000000000       0x18 c:/program files/microchip/xc32/v4.20/bin/bin/../../lib/gcc/pic32mx/8.3.1/../../../../pic32mx/lib/fpu64\libpic32.a(default-on-reset.o)
 .MIPS.abiflags
                0x0000000000000000       0x18 c:/program files/microchip/xc32/v4.20/bin/bin/../../lib/gcc/pic32mx/8.3.1/../../../../pic32mx/lib/fpu64\libpic32.a(default-on-reset.o)
 .xc_stack_usage
                0x0000000000000000       0x17 c:/program files/microchip/xc32/v4.20/bin/bin/../../lib/gcc/pic32mx/8.3.1/../../../../pic32mx/lib/fpu64\libpic32.a(default-on-reset.o)
 .xc_stack_usage.hdr
                0x0000000000000000        0xe c:/program files/microchip/xc32/v4.20/bin/bin/../../lib/gcc/pic32mx/8.3.1/../../../../pic32mx/lib/fpu64\libpic32.a(default-on-reset.o)
 .reginfo       0x0000000000000000       0x18 c:/program files/microchip/xc32/v4.20/bin/bin/../../lib/gcc/pic32mx/8.3.1/../../../../pic32mx/lib/fpu64\libpic32.a(default-on-bootstrap.o)
 .MIPS.abiflags
                0x0000000000000000       0x18 c:/program files/microchip/xc32/v4.20/bin/bin/../../lib/gcc/pic32mx/8.3.1/../../../../pic32mx/lib/fpu64\libpic32.a(default-on-bootstrap.o)
 .xc_stack_usage
                0x0000000000000000       0x1b c:/program files/microchip/xc32/v4.20/bin/bin/../../lib/gcc/pic32mx/8.3.1/../../../../pic32mx/lib/fpu64\libpic32.a(default-on-bootstrap.o)
 .xc_stack_usage.hdr
                0x0000000000000000        0xe c:/program files/microchip/xc32/v4.20/bin/bin/../../lib/gcc/pic32mx/8.3.1/../../../../pic32mx/lib/fpu64\libpic32.a(default-on-bootstrap.o)
 .reginfo       0x0000000000000000       0x18 c:/program files/microchip/xc32/v4.20/bin/bin/../../lib/gcc/pic32mx/8.3.1/../../../../pic32mx/lib/fpu64\libpic32.a(default-nmi-handler.o)
 .MIPS.abiflags
                0x0000000000000000       0x18 c:/program files/microchip/xc32/v4.20/bin/bin/../../lib/gcc/pic32mx/8.3.1/../../../../pic32mx/lib/fpu64\libpic32.a(default-nmi-handler.o)
 .xc_stack_usage.hdr
                0x0000000000000000        0xe c:/program files/microchip/xc32/v4.20/bin/bin/../../lib/gcc/pic32mx/8.3.1/../../../../pic32mx/lib/fpu64\libpic32.a(default-nmi-handler.o)
 .xc_stack_usage
                0x0000000000000000       0x1a c:/program files/microchip/xc32/v4.20/bin/bin/../../lib/gcc/pic32mx/8.3.1/../../../../pic32mx/lib/fpu64\libpic32.a(default-nmi-handler.o)
 .reginfo       0x0000000000000000       0x18 c:/program files/microchip/xc32/v4.20/bin/bin/../../lib/gcc/pic32mx/8.3.1/../../../../pic32mx/lib/fpu64\libpic32.a(pic32_data_init_wrapper.o)
 .MIPS.abiflags
                0x0000000000000000       0x18 c:/program files/microchip/xc32/v4.20/bin/bin/../../lib/gcc/pic32mx/8.3.1/../../../../pic32mx/lib/fpu64\libpic32.a(pic32_data_init_wrapper.o)
 .xc_stack_usage.hdr
                0x0000000000000000        0xe c:/program files/microchip/xc32/v4.20/bin/bin/../../lib/gcc/pic32mx/8.3.1/../../../../pic32mx/lib/fpu64\libpic32.a(pic32_data_init_wrapper.o)
 .xc_stack_usage
                0x0000000000000000       0x1f c:/program files/microchip/xc32/v4.20/bin/bin/../../lib/gcc/pic32mx/8.3.1/../../../../pic32mx/lib/fpu64\libpic32.a(pic32_data_init_wrapper.o)
 .reginfo       0x0000000000000000       0x18 c:/program files/microchip/xc32/v4.20/bin/bin/../../lib/gcc/pic32mx/8.3.1/../../../../pic32mx/lib/fpu64\libpic32.a(pic32_data_init_0_1.o)
 .MIPS.abiflags
                0x0000000000000000       0x18 c:/program files/microchip/xc32/v4.20/bin/bin/../../lib/gcc/pic32mx/8.3.1/../../../../pic32mx/lib/fpu64\libpic32.a(pic32_data_init_0_1.o)
 .xc_stack_usage.hdr
                0x0000000000000000        0xe c:/program files/microchip/xc32/v4.20/bin/bin/../../lib/gcc/pic32mx/8.3.1/../../../../pic32mx/lib/fpu64\libpic32.a(pic32_data_init_0_1.o)
 .xc_stack_usage
                0x0000000000000000       0x24 c:/program files/microchip/xc32/v4.20/bin/bin/../../lib/gcc/pic32mx/8.3.1/../../../../pic32mx/lib/fpu64\libpic32.a(pic32_data_init_0_1.o)
 .reginfo       0x0000000000000000       0x18 c:/program files/microchip/xc32/v4.20/bin/bin/../../lib/gcc/pic32mx/8.3.1/../../../../pic32mx/lib/fpu64\libpic32.a(general-exception.o)
 .MIPS.abiflags
                0x0000000000000000       0x18 c:/program files/microchip/xc32/v4.20/bin/bin/../../lib/gcc/pic32mx/8.3.1/../../../../pic32mx/lib/fpu64\libpic32.a(general-exception.o)
 .xc_stack_usage.hdr
                0x0000000000000000        0xe c:/program files/microchip/xc32/v4.20/bin/bin/../../lib/gcc/pic32mx/8.3.1/../../../../pic32mx/lib/fpu64\libpic32.a(general-exception.o)
 .xc_stack_usage
                0x0000000000000000       0x28 c:/program files/microchip/xc32/v4.20/bin/bin/../../lib/gcc/pic32mx/8.3.1/../../../../pic32mx/lib/fpu64\libpic32.a(general-exception.o)
 .reginfo       0x0000000000000000       0x18 c:/program files/microchip/xc32/v4.20/bin/bin/../../lib/gcc/pic32mx/8.3.1/../../../../pic32mx/lib/fpu64\libpic32.a(defaultinterrupt.o)
 .MIPS.abiflags
                0x0000000000000000       0x18 c:/program files/microchip/xc32/v4.20/bin/bin/../../lib/gcc/pic32mx/8.3.1/../../../../pic32mx/lib/fpu64\libpic32.a(defaultinterrupt.o)
 .xc_stack_usage
                0x0000000000000000       0x1f c:/program files/microchip/xc32/v4.20/bin/bin/../../lib/gcc/pic32mx/8.3.1/../../../../pic32mx/lib/fpu64\libpic32.a(defaultinterrupt.o)
 .xc_stack_usage.hdr
                0x0000000000000000        0xe c:/program files/microchip/xc32/v4.20/bin/bin/../../lib/gcc/pic32mx/8.3.1/../../../../pic32mx/lib/fpu64\libpic32.a(defaultinterrupt.o)
 .reginfo       0x0000000000000000       0x18 c:/program files/microchip/xc32/v4.20/bin/bin/../../lib/gcc/pic32mx/8.3.1/../../../../pic32mx/lib/fpu64\libc-musl.a(__sio_printf_s.o)
 .MIPS.abiflags
                0x0000000000000000       0x18 c:/program files/microchip/xc32/v4.20/bin/bin/../../lib/gcc/pic32mx/8.3.1/../../../../pic32mx/lib/fpu64\libc-musl.a(__sio_printf_s.o)
 .xc_stack_usage
                0x0000000000000000       0x37 c:/program files/microchip/xc32/v4.20/bin/bin/../../lib/gcc/pic32mx/8.3.1/../../../../pic32mx/lib/fpu64\libc-musl.a(__sio_printf_s.o)
 .xc_stack_usage.hdr
                0x0000000000000000        0xe c:/program files/microchip/xc32/v4.20/bin/bin/../../lib/gcc/pic32mx/8.3.1/../../../../pic32mx/lib/fpu64\libc-musl.a(__sio_printf_s.o)
 .note.GNU-stack
                0x0000000000000000        0x0 c:/program files/microchip/xc32/v4.20/bin/bin/../../lib/gcc/pic32mx/8.3.1/../../../../pic32mx/lib/fpu64\libc-musl.a(__sio_printf_s.o)
 .reginfo       0x0000000000000000       0x18 c:/program files/microchip/xc32/v4.20/bin/bin/../../lib/gcc/pic32mx/8.3.1/../../../../pic32mx/lib/fpu64\libc-musl.a(__sio_sprintf_dfosux.o)
 .MIPS.abiflags
                0x0000000000000000       0x18 c:/program files/microchip/xc32/v4.20/bin/bin/../../lib/gcc/pic32mx/8.3.1/../../../../pic32mx/lib/fpu64\libc-musl.a(__sio_sprintf_dfosux.o)
 .xc_stack_usage
                0x0000000000000000       0x3e c:/program files/microchip/xc32/v4.20/bin/bin/../../lib/gcc/pic32mx/8.3.1/../../../../pic32mx/lib/fpu64\libc-musl.a(__sio_sprintf_dfosux.o)
 .xc_stack_usage.hdr
                0x0000000000000000        0xe c:/program files/microchip/xc32/v4.20/bin/bin/../../lib/gcc/pic32mx/8.3.1/../../../../pic32mx/lib/fpu64\libc-musl.a(__sio_sprintf_dfosux.o)
 .note.GNU-stack
                0x0000000000000000        0x0 c:/program files/microchip/xc32/v4.20/bin/bin/../../lib/gcc/pic32mx/8.3.1/../../../../pic32mx/lib/fpu64\libc-musl.a(__sio_sprintf_dfosux.o)
 .reginfo       0x0000000000000000       0x18 c:/program files/microchip/xc32/v4.20/bin/bin/../../lib/gcc/pic32mx/8.3.1/../../../../pic32mx/lib/fpu64\libc-musl.a(__sio_sprintf_dosux.o)
 .MIPS.abiflags
                0x0000000000000000       0x18 c:/program files/microchip/xc32/v4.20/bin/bin/../../lib/gcc/pic32mx/8.3.1/../../../../pic32mx/lib/fpu64\libc-musl.a(__sio_sprintf_dosux.o)
 .xc_stack_usage
                0x0000000000000000       0x3d c:/program files/microchip/xc32/v4.20/bin/bin/../../lib/gcc/pic32mx/8.3.1/../../../../pic32mx/lib/fpu64\libc-musl.a(__sio_sprintf_dosux.o)
 .xc_stack_usage.hdr
                0x0000000000000000        0xe c:/program files/microchip/xc32/v4.20/bin/bin/../../lib/gcc/pic32mx/8.3.1/../../../../pic32mx/lib/fpu64\libc-musl.a(__sio_sprintf_dosux.o)
 .note.GNU-stack
                0x0000000000000000        0x0 c:/program files/microchip/xc32/v4.20/bin/bin/../../lib/gcc/pic32mx/8.3.1/../../../../pic32mx/lib/fpu64\libc-musl.a(__sio_sprintf_dosux.o)
 .reginfo       0x0000000000000000       0x18 c:/program files/microchip/xc32/v4.20/bin/bin/../../lib/gcc/pic32mx/8.3.1/../../../../pic32mx/lib/fpu64\libc-musl.a(__sio_sprintf_doux.o)
 .MIPS.abiflags
                0x0000000000000000       0x18 c:/program files/microchip/xc32/v4.20/bin/bin/../../lib/gcc/pic32mx/8.3.1/../../../../pic32mx/lib/fpu64\libc-musl.a(__sio_sprintf_doux.o)
 .xc_stack_usage
                0x0000000000000000       0x3c c:/program files/microchip/xc32/v4.20/bin/bin/../../lib/gcc/pic32mx/8.3.1/../../../../pic32mx/lib/fpu64\libc-musl.a(__sio_sprintf_doux.o)
 .xc_stack_usage.hdr
                0x0000000000000000        0xe c:/program files/microchip/xc32/v4.20/bin/bin/../../lib/gcc/pic32mx/8.3.1/../../../../pic32mx/lib/fpu64\libc-musl.a(__sio_sprintf_doux.o)
 .note.GNU-stack
                0x0000000000000000        0x0 c:/program files/microchip/xc32/v4.20/bin/bin/../../lib/gcc/pic32mx/8.3.1/../../../../pic32mx/lib/fpu64\libc-musl.a(__sio_sprintf_doux.o)
 .reginfo       0x0000000000000000       0x18 c:/program files/microchip/xc32/v4.20/bin/bin/../../lib/gcc/pic32mx/8.3.1/../../../../pic32mx/lib/fpu64\libc-musl.a(__sio_sprintf_s.o)
 .MIPS.abiflags
                0x0000000000000000       0x18 c:/program files/microchip/xc32/v4.20/bin/bin/../../lib/gcc/pic32mx/8.3.1/../../../../pic32mx/lib/fpu64\libc-musl.a(__sio_sprintf_s.o)
 .xc_stack_usage
                0x0000000000000000       0x39 c:/program files/microchip/xc32/v4.20/bin/bin/../../lib/gcc/pic32mx/8.3.1/../../../../pic32mx/lib/fpu64\libc-musl.a(__sio_sprintf_s.o)
 .xc_stack_usage.hdr
                0x0000000000000000        0xe c:/program files/microchip/xc32/v4.20/bin/bin/../../lib/gcc/pic32mx/8.3.1/../../../../pic32mx/lib/fpu64\libc-musl.a(__sio_sprintf_s.o)
 .note.GNU-stack
                0x0000000000000000        0x0 c:/program files/microchip/xc32/v4.20/bin/bin/../../lib/gcc/pic32mx/8.3.1/../../../../pic32mx/lib/fpu64\libc-musl.a(__sio_sprintf_s.o)
 .reginfo       0x0000000000000000       0x18 c:/program files/microchip/xc32/v4.20/bin/bin/../../lib/gcc/pic32mx/8.3.1/../../../../pic32mx/lib/fpu64\libc-musl.a(__fmt_d.o)
 .MIPS.abiflags
                0x0000000000000000       0x18 c:/program files/microchip/xc32/v4.20/bin/bin/../../lib/gcc/pic32mx/8.3.1/../../../../pic32mx/lib/fpu64\libc-musl.a(__fmt_d.o)
 .xc_stack_usage
                0x0000000000000000       0x15 c:/program files/microchip/xc32/v4.20/bin/bin/../../lib/gcc/pic32mx/8.3.1/../../../../pic32mx/lib/fpu64\libc-musl.a(__fmt_d.o)
 .xc_stack_usage.hdr
                0x0000000000000000        0xe c:/program files/microchip/xc32/v4.20/bin/bin/../../lib/gcc/pic32mx/8.3.1/../../../../pic32mx/lib/fpu64\libc-musl.a(__fmt_d.o)
 .note.GNU-stack
                0x0000000000000000        0x0 c:/program files/microchip/xc32/v4.20/bin/bin/../../lib/gcc/pic32mx/8.3.1/../../../../pic32mx/lib/fpu64\libc-musl.a(__fmt_d.o)
 .reginfo       0x0000000000000000       0x18 c:/program files/microchip/xc32/v4.20/bin/bin/../../lib/gcc/pic32mx/8.3.1/../../../../pic32mx/lib/fpu64\libc-musl.a(__fmt_fp.o)
 .MIPS.abiflags
                0x0000000000000000       0x18 c:/program files/microchip/xc32/v4.20/bin/bin/../../lib/gcc/pic32mx/8.3.1/../../../../pic32mx/lib/fpu64\libc-musl.a(__fmt_fp.o)
 .xc_stack_usage
                0x0000000000000000       0x16 c:/program files/microchip/xc32/v4.20/bin/bin/../../lib/gcc/pic32mx/8.3.1/../../../../pic32mx/lib/fpu64\libc-musl.a(__fmt_fp.o)
 .xc_stack_usage.hdr
                0x0000000000000000        0xe c:/program files/microchip/xc32/v4.20/bin/bin/../../lib/gcc/pic32mx/8.3.1/../../../../pic32mx/lib/fpu64\libc-musl.a(__fmt_fp.o)
 .note.GNU-stack
                0x0000000000000000        0x0 c:/program files/microchip/xc32/v4.20/bin/bin/../../lib/gcc/pic32mx/8.3.1/../../../../pic32mx/lib/fpu64\libc-musl.a(__fmt_fp.o)
 .reginfo       0x0000000000000000       0x18 c:/program files/microchip/xc32/v4.20/bin/bin/../../lib/gcc/pic32mx/8.3.1/../../../../pic32mx/lib/fpu64\libc-musl.a(__fmt_o.o)
 .MIPS.abiflags
                0x0000000000000000       0x18 c:/program files/microchip/xc32/v4.20/bin/bin/../../lib/gcc/pic32mx/8.3.1/../../../../pic32mx/lib/fpu64\libc-musl.a(__fmt_o.o)
 .xc_stack_usage
                0x0000000000000000       0x15 c:/program files/microchip/xc32/v4.20/bin/bin/../../lib/gcc/pic32mx/8.3.1/../../../../pic32mx/lib/fpu64\libc-musl.a(__fmt_o.o)
 .xc_stack_usage.hdr
                0x0000000000000000        0xe c:/program files/microchip/xc32/v4.20/bin/bin/../../lib/gcc/pic32mx/8.3.1/../../../../pic32mx/lib/fpu64\libc-musl.a(__fmt_o.o)
 .note.GNU-stack
                0x0000000000000000        0x0 c:/program files/microchip/xc32/v4.20/bin/bin/../../lib/gcc/pic32mx/8.3.1/../../../../pic32mx/lib/fpu64\libc-musl.a(__fmt_o.o)
 .reginfo       0x0000000000000000       0x18 c:/program files/microchip/xc32/v4.20/bin/bin/../../lib/gcc/pic32mx/8.3.1/../../../../pic32mx/lib/fpu64\libc-musl.a(__fmt_s.o)
 .MIPS.abiflags
                0x0000000000000000       0x18 c:/program files/microchip/xc32/v4.20/bin/bin/../../lib/gcc/pic32mx/8.3.1/../../../../pic32mx/lib/fpu64\libc-musl.a(__fmt_s.o)
 .xc_stack_usage
                0x0000000000000000       0x15 c:/program files/microchip/xc32/v4.20/bin/bin/../../lib/gcc/pic32mx/8.3.1/../../../../pic32mx/lib/fpu64\libc-musl.a(__fmt_s.o)
 .xc_stack_usage.hdr
                0x0000000000000000        0xe c:/program files/microchip/xc32/v4.20/bin/bin/../../lib/gcc/pic32mx/8.3.1/../../../../pic32mx/lib/fpu64\libc-musl.a(__fmt_s.o)
 .note.GNU-stack
                0x0000000000000000        0x0 c:/program files/microchip/xc32/v4.20/bin/bin/../../lib/gcc/pic32mx/8.3.1/../../../../pic32mx/lib/fpu64\libc-musl.a(__fmt_s.o)
 .reginfo       0x0000000000000000       0x18 c:/program files/microchip/xc32/v4.20/bin/bin/../../lib/gcc/pic32mx/8.3.1/../../../../pic32mx/lib/fpu64\libc-musl.a(__fmt_u.o)
 .MIPS.abiflags
                0x0000000000000000       0x18 c:/program files/microchip/xc32/v4.20/bin/bin/../../lib/gcc/pic32mx/8.3.1/../../../../pic32mx/lib/fpu64\libc-musl.a(__fmt_u.o)
 .xc_stack_usage
                0x0000000000000000       0x2a c:/program files/microchip/xc32/v4.20/bin/bin/../../lib/gcc/pic32mx/8.3.1/../../../../pic32mx/lib/fpu64\libc-musl.a(__fmt_u.o)
 .xc_stack_usage.hdr
                0x0000000000000000        0xe c:/program files/microchip/xc32/v4.20/bin/bin/../../lib/gcc/pic32mx/8.3.1/../../../../pic32mx/lib/fpu64\libc-musl.a(__fmt_u.o)
 .note.GNU-stack
                0x0000000000000000        0x0 c:/program files/microchip/xc32/v4.20/bin/bin/../../lib/gcc/pic32mx/8.3.1/../../../../pic32mx/lib/fpu64\libc-musl.a(__fmt_u.o)
 .reginfo       0x0000000000000000       0x18 c:/program files/microchip/xc32/v4.20/bin/bin/../../lib/gcc/pic32mx/8.3.1/../../../../pic32mx/lib/fpu64\libc-musl.a(__fmt_x.o)
 .MIPS.abiflags
                0x0000000000000000       0x18 c:/program files/microchip/xc32/v4.20/bin/bin/../../lib/gcc/pic32mx/8.3.1/../../../../pic32mx/lib/fpu64\libc-musl.a(__fmt_x.o)
 .xc_stack_usage
                0x0000000000000000       0x15 c:/program files/microchip/xc32/v4.20/bin/bin/../../lib/gcc/pic32mx/8.3.1/../../../../pic32mx/lib/fpu64\libc-musl.a(__fmt_x.o)
 .xc_stack_usage.hdr
                0x0000000000000000        0xe c:/program files/microchip/xc32/v4.20/bin/bin/../../lib/gcc/pic32mx/8.3.1/../../../../pic32mx/lib/fpu64\libc-musl.a(__fmt_x.o)
 .note.GNU-stack
                0x0000000000000000        0x0 c:/program files/microchip/xc32/v4.20/bin/bin/../../lib/gcc/pic32mx/8.3.1/../../../../pic32mx/lib/fpu64\libc-musl.a(__fmt_x.o)
 .reginfo       0x0000000000000000       0x18 c:/program files/microchip/xc32/v4.20/bin/bin/../../lib/gcc/pic32mx/8.3.1/../../../../pic32mx/lib/fpu64\libc-musl.a(__pop_float.o)
 .MIPS.abiflags
                0x0000000000000000       0x18 c:/program files/microchip/xc32/v4.20/bin/bin/../../lib/gcc/pic32mx/8.3.1/../../../../pic32mx/lib/fpu64\libc-musl.a(__pop_float.o)
 .xc_stack_usage
                0x0000000000000000       0x19 c:/program files/microchip/xc32/v4.20/bin/bin/../../lib/gcc/pic32mx/8.3.1/../../../../pic32mx/lib/fpu64\libc-musl.a(__pop_float.o)
 .xc_stack_usage.hdr
                0x0000000000000000        0xe c:/program files/microchip/xc32/v4.20/bin/bin/../../lib/gcc/pic32mx/8.3.1/../../../../pic32mx/lib/fpu64\libc-musl.a(__pop_float.o)
 .note.GNU-stack
                0x0000000000000000        0x0 c:/program files/microchip/xc32/v4.20/bin/bin/../../lib/gcc/pic32mx/8.3.1/../../../../pic32mx/lib/fpu64\libc-musl.a(__pop_float.o)
 .reginfo       0x0000000000000000       0x18 c:/program files/microchip/xc32/v4.20/bin/bin/../../lib/gcc/pic32mx/8.3.1/../../../../pic32mx/lib/fpu64\libc-musl.a(__pop_int.o)
 .MIPS.abiflags
                0x0000000000000000       0x18 c:/program files/microchip/xc32/v4.20/bin/bin/../../lib/gcc/pic32mx/8.3.1/../../../../pic32mx/lib/fpu64\libc-musl.a(__pop_int.o)
 .xc_stack_usage
                0x0000000000000000       0x17 c:/program files/microchip/xc32/v4.20/bin/bin/../../lib/gcc/pic32mx/8.3.1/../../../../pic32mx/lib/fpu64\libc-musl.a(__pop_int.o)
 .xc_stack_usage.hdr
                0x0000000000000000        0xe c:/program files/microchip/xc32/v4.20/bin/bin/../../lib/gcc/pic32mx/8.3.1/../../../../pic32mx/lib/fpu64\libc-musl.a(__pop_int.o)
 .note.GNU-stack
                0x0000000000000000        0x0 c:/program files/microchip/xc32/v4.20/bin/bin/../../lib/gcc/pic32mx/8.3.1/../../../../pic32mx/lib/fpu64\libc-musl.a(__pop_int.o)
 .reginfo       0x0000000000000000       0x18 c:/program files/microchip/xc32/v4.20/bin/bin/../../lib/gcc/pic32mx/8.3.1/../../../../pic32mx/lib/fpu64\libc-musl.a(__pop_ptr.o)
 .MIPS.abiflags
                0x0000000000000000       0x18 c:/program files/microchip/xc32/v4.20/bin/bin/../../lib/gcc/pic32mx/8.3.1/../../../../pic32mx/lib/fpu64\libc-musl.a(__pop_ptr.o)
 .xc_stack_usage
                0x0000000000000000       0x17 c:/program files/microchip/xc32/v4.20/bin/bin/../../lib/gcc/pic32mx/8.3.1/../../../../pic32mx/lib/fpu64\libc-musl.a(__pop_ptr.o)
 .xc_stack_usage.hdr
                0x0000000000000000        0xe c:/program files/microchip/xc32/v4.20/bin/bin/../../lib/gcc/pic32mx/8.3.1/../../../../pic32mx/lib/fpu64\libc-musl.a(__pop_ptr.o)
 .note.GNU-stack
                0x0000000000000000        0x0 c:/program files/microchip/xc32/v4.20/bin/bin/../../lib/gcc/pic32mx/8.3.1/../../../../pic32mx/lib/fpu64\libc-musl.a(__pop_ptr.o)
 .reginfo       0x0000000000000000       0x18 c:/program files/microchip/xc32/v4.20/bin/bin/../../lib/gcc/pic32mx/8.3.1/../../../../pic32mx/lib/fpu64\libc-musl.a(__printf_core.o)
 .MIPS.abiflags
                0x0000000000000000       0x18 c:/program files/microchip/xc32/v4.20/bin/bin/../../lib/gcc/pic32mx/8.3.1/../../../../pic32mx/lib/fpu64\libc-musl.a(__printf_core.o)
 .xc_stack_usage
                0x0000000000000000       0xaf c:/program files/microchip/xc32/v4.20/bin/bin/../../lib/gcc/pic32mx/8.3.1/../../../../pic32mx/lib/fpu64\libc-musl.a(__printf_core.o)
 .xc_stack_usage.hdr
                0x0000000000000000        0xe c:/program files/microchip/xc32/v4.20/bin/bin/../../lib/gcc/pic32mx/8.3.1/../../../../pic32mx/lib/fpu64\libc-musl.a(__printf_core.o)
 .note.GNU-stack
                0x0000000000000000        0x0 c:/program files/microchip/xc32/v4.20/bin/bin/../../lib/gcc/pic32mx/8.3.1/../../../../pic32mx/lib/fpu64\libc-musl.a(__printf_core.o)
 .reginfo       0x0000000000000000       0x18 c:/program files/microchip/xc32/v4.20/bin/bin/../../lib/gcc/pic32mx/8.3.1/../../../../pic32mx/lib/fpu64\libc-musl.a(stdout.o)
 .MIPS.abiflags
                0x0000000000000000       0x18 c:/program files/microchip/xc32/v4.20/bin/bin/../../lib/gcc/pic32mx/8.3.1/../../../../pic32mx/lib/fpu64\libc-musl.a(stdout.o)
 .xc_stack_usage
                0x0000000000000000       0x3c c:/program files/microchip/xc32/v4.20/bin/bin/../../lib/gcc/pic32mx/8.3.1/../../../../pic32mx/lib/fpu64\libc-musl.a(stdout.o)
 .xc_stack_usage.hdr
                0x0000000000000000        0xe c:/program files/microchip/xc32/v4.20/bin/bin/../../lib/gcc/pic32mx/8.3.1/../../../../pic32mx/lib/fpu64\libc-musl.a(stdout.o)
 .note.GNU-stack
                0x0000000000000000        0x0 c:/program files/microchip/xc32/v4.20/bin/bin/../../lib/gcc/pic32mx/8.3.1/../../../../pic32mx/lib/fpu64\libc-musl.a(stdout.o)
 .reginfo       0x0000000000000000       0x18 c:/program files/microchip/xc32/v4.20/bin/bin/../../lib/gcc/pic32mx/8.3.1/../../../../pic32mx/lib/fpu64\libc-musl.a(vprintf.o)
 .MIPS.abiflags
                0x0000000000000000       0x18 c:/program files/microchip/xc32/v4.20/bin/bin/../../lib/gcc/pic32mx/8.3.1/../../../../pic32mx/lib/fpu64\libc-musl.a(vprintf.o)
 .xc_stack_usage
                0x0000000000000000       0x15 c:/program files/microchip/xc32/v4.20/bin/bin/../../lib/gcc/pic32mx/8.3.1/../../../../pic32mx/lib/fpu64\libc-musl.a(vprintf.o)
 .xc_stack_usage.hdr
                0x0000000000000000        0xe c:/program files/microchip/xc32/v4.20/bin/bin/../../lib/gcc/pic32mx/8.3.1/../../../../pic32mx/lib/fpu64\libc-musl.a(vprintf.o)
 .note.GNU-stack
                0x0000000000000000        0x0 c:/program files/microchip/xc32/v4.20/bin/bin/../../lib/gcc/pic32mx/8.3.1/../../../../pic32mx/lib/fpu64\libc-musl.a(vprintf.o)
 .reginfo       0x0000000000000000       0x18 c:/program files/microchip/xc32/v4.20/bin/bin/../../lib/gcc/pic32mx/8.3.1/../../../../pic32mx/lib/fpu64\libc-musl.a(atoi.o)
 .MIPS.abiflags
                0x0000000000000000       0x18 c:/program files/microchip/xc32/v4.20/bin/bin/../../lib/gcc/pic32mx/8.3.1/../../../../pic32mx/lib/fpu64\libc-musl.a(atoi.o)
 .xc_stack_usage
                0x0000000000000000       0x12 c:/program files/microchip/xc32/v4.20/bin/bin/../../lib/gcc/pic32mx/8.3.1/../../../../pic32mx/lib/fpu64\libc-musl.a(atoi.o)
 .xc_stack_usage.hdr
                0x0000000000000000        0xe c:/program files/microchip/xc32/v4.20/bin/bin/../../lib/gcc/pic32mx/8.3.1/../../../../pic32mx/lib/fpu64\libc-musl.a(atoi.o)
 .note.GNU-stack
                0x0000000000000000        0x0 c:/program files/microchip/xc32/v4.20/bin/bin/../../lib/gcc/pic32mx/8.3.1/../../../../pic32mx/lib/fpu64\libc-musl.a(atoi.o)
 .reginfo       0x0000000000000000       0x18 c:/program files/microchip/xc32/v4.20/bin/bin/../../lib/gcc/pic32mx/8.3.1/../../../../pic32mx/lib/fpu64\libc-musl.a(memcpy.o)
 .MIPS.abiflags
                0x0000000000000000       0x18 c:/program files/microchip/xc32/v4.20/bin/bin/../../lib/gcc/pic32mx/8.3.1/../../../../pic32mx/lib/fpu64\libc-musl.a(memcpy.o)
 .xc_stack_usage
                0x0000000000000000       0x14 c:/program files/microchip/xc32/v4.20/bin/bin/../../lib/gcc/pic32mx/8.3.1/../../../../pic32mx/lib/fpu64\libc-musl.a(memcpy.o)
 .xc_stack_usage.hdr
                0x0000000000000000        0xe c:/program files/microchip/xc32/v4.20/bin/bin/../../lib/gcc/pic32mx/8.3.1/../../../../pic32mx/lib/fpu64\libc-musl.a(memcpy.o)
 .note.GNU-stack
                0x0000000000000000        0x0 c:/program files/microchip/xc32/v4.20/bin/bin/../../lib/gcc/pic32mx/8.3.1/../../../../pic32mx/lib/fpu64\libc-musl.a(memcpy.o)
 .reginfo       0x0000000000000000       0x18 c:/program files/microchip/xc32/v4.20/bin/bin/../../lib/gcc/pic32mx/8.3.1/../../../../pic32mx/lib/fpu64\libc-musl.a(strcpy.o)
 .MIPS.abiflags
                0x0000000000000000       0x18 c:/program files/microchip/xc32/v4.20/bin/bin/../../lib/gcc/pic32mx/8.3.1/../../../../pic32mx/lib/fpu64\libc-musl.a(strcpy.o)
 .xc_stack_usage
                0x0000000000000000       0x14 c:/program files/microchip/xc32/v4.20/bin/bin/../../lib/gcc/pic32mx/8.3.1/../../../../pic32mx/lib/fpu64\libc-musl.a(strcpy.o)
 .xc_stack_usage.hdr
                0x0000000000000000        0xe c:/program files/microchip/xc32/v4.20/bin/bin/../../lib/gcc/pic32mx/8.3.1/../../../../pic32mx/lib/fpu64\libc-musl.a(strcpy.o)
 .note.GNU-stack
                0x0000000000000000        0x0 c:/program files/microchip/xc32/v4.20/bin/bin/../../lib/gcc/pic32mx/8.3.1/../../../../pic32mx/lib/fpu64\libc-musl.a(strcpy.o)
 .reginfo       0x0000000000000000       0x18 c:/program files/microchip/xc32/v4.20/bin/bin/../../lib/gcc/pic32mx/8.3.1/../../../../pic32mx/lib/fpu64\libc-musl.a(strncmp.o)
 .MIPS.abiflags
                0x0000000000000000       0x18 c:/program files/microchip/xc32/v4.20/bin/bin/../../lib/gcc/pic32mx/8.3.1/../../../../pic32mx/lib/fpu64\libc-musl.a(strncmp.o)
 .xc_stack_usage
                0x0000000000000000       0x15 c:/program files/microchip/xc32/v4.20/bin/bin/../../lib/gcc/pic32mx/8.3.1/../../../../pic32mx/lib/fpu64\libc-musl.a(strncmp.o)
 .xc_stack_usage.hdr
                0x0000000000000000        0xe c:/program files/microchip/xc32/v4.20/bin/bin/../../lib/gcc/pic32mx/8.3.1/../../../../pic32mx/lib/fpu64\libc-musl.a(strncmp.o)
 .note.GNU-stack
                0x0000000000000000        0x0 c:/program files/microchip/xc32/v4.20/bin/bin/../../lib/gcc/pic32mx/8.3.1/../../../../pic32mx/lib/fpu64\libc-musl.a(strncmp.o)
 .reginfo       0x0000000000000000       0x18 c:/program files/microchip/xc32/v4.20/bin/bin/../../lib/gcc/pic32mx/8.3.1/../../../../pic32mx/lib/fpu64\libc-musl.a(tolower.o)
 .MIPS.abiflags
                0x0000000000000000       0x18 c:/program files/microchip/xc32/v4.20/bin/bin/../../lib/gcc/pic32mx/8.3.1/../../../../pic32mx/lib/fpu64\libc-musl.a(tolower.o)
 .xc_stack_usage
                0x0000000000000000       0x2e c:/program files/microchip/xc32/v4.20/bin/bin/../../lib/gcc/pic32mx/8.3.1/../../../../pic32mx/lib/fpu64\libc-musl.a(tolower.o)
 .xc_stack_usage.hdr
                0x0000000000000000        0xe c:/program files/microchip/xc32/v4.20/bin/bin/../../lib/gcc/pic32mx/8.3.1/../../../../pic32mx/lib/fpu64\libc-musl.a(tolower.o)
 .note.GNU-stack
                0x0000000000000000        0x0 c:/program files/microchip/xc32/v4.20/bin/bin/../../lib/gcc/pic32mx/8.3.1/../../../../pic32mx/lib/fpu64\libc-musl.a(tolower.o)
 .reginfo       0x0000000000000000       0x18 c:/program files/microchip/xc32/v4.20/bin/bin/../../lib/gcc/pic32mx/8.3.1/../../../../pic32mx/lib/fpu64\libc-musl.a(toupper.o)
 .MIPS.abiflags
                0x0000000000000000       0x18 c:/program files/microchip/xc32/v4.20/bin/bin/../../lib/gcc/pic32mx/8.3.1/../../../../pic32mx/lib/fpu64\libc-musl.a(toupper.o)
 .xc_stack_usage
                0x0000000000000000       0x2e c:/program files/microchip/xc32/v4.20/bin/bin/../../lib/gcc/pic32mx/8.3.1/../../../../pic32mx/lib/fpu64\libc-musl.a(toupper.o)
 .xc_stack_usage.hdr
                0x0000000000000000        0xe c:/program files/microchip/xc32/v4.20/bin/bin/../../lib/gcc/pic32mx/8.3.1/../../../../pic32mx/lib/fpu64\libc-musl.a(toupper.o)
 .note.GNU-stack
                0x0000000000000000        0x0 c:/program files/microchip/xc32/v4.20/bin/bin/../../lib/gcc/pic32mx/8.3.1/../../../../pic32mx/lib/fpu64\libc-musl.a(toupper.o)
 .reginfo       0x0000000000000000       0x18 c:/program files/microchip/xc32/v4.20/bin/bin/../../lib/gcc/pic32mx/8.3.1/../../../../pic32mx/lib/fpu64\libc-musl.a(__int_vfprintf.o)
 .MIPS.abiflags
                0x0000000000000000       0x18 c:/program files/microchip/xc32/v4.20/bin/bin/../../lib/gcc/pic32mx/8.3.1/../../../../pic32mx/lib/fpu64\libc-musl.a(__int_vfprintf.o)
 .xc_stack_usage
                0x0000000000000000       0x18 c:/program files/microchip/xc32/v4.20/bin/bin/../../lib/gcc/pic32mx/8.3.1/../../../../pic32mx/lib/fpu64\libc-musl.a(__int_vfprintf.o)
 .xc_stack_usage.hdr
                0x0000000000000000        0xe c:/program files/microchip/xc32/v4.20/bin/bin/../../lib/gcc/pic32mx/8.3.1/../../../../pic32mx/lib/fpu64\libc-musl.a(__int_vfprintf.o)
 .note.GNU-stack
                0x0000000000000000        0x0 c:/program files/microchip/xc32/v4.20/bin/bin/../../lib/gcc/pic32mx/8.3.1/../../../../pic32mx/lib/fpu64\libc-musl.a(__int_vfprintf.o)
 .reginfo       0x0000000000000000       0x18 c:/program files/microchip/xc32/v4.20/bin/bin/../../lib/gcc/pic32mx/8.3.1/../../../../pic32mx/lib/fpu64\libc-musl.a(__int_vsprintf.o)
 .MIPS.abiflags
                0x0000000000000000       0x18 c:/program files/microchip/xc32/v4.20/bin/bin/../../lib/gcc/pic32mx/8.3.1/../../../../pic32mx/lib/fpu64\libc-musl.a(__int_vsprintf.o)
 .xc_stack_usage
                0x0000000000000000       0x18 c:/program files/microchip/xc32/v4.20/bin/bin/../../lib/gcc/pic32mx/8.3.1/../../../../pic32mx/lib/fpu64\libc-musl.a(__int_vsprintf.o)
 .xc_stack_usage.hdr
                0x0000000000000000        0xe c:/program files/microchip/xc32/v4.20/bin/bin/../../lib/gcc/pic32mx/8.3.1/../../../../pic32mx/lib/fpu64\libc-musl.a(__int_vsprintf.o)
 .note.GNU-stack
                0x0000000000000000        0x0 c:/program files/microchip/xc32/v4.20/bin/bin/../../lib/gcc/pic32mx/8.3.1/../../../../pic32mx/lib/fpu64\libc-musl.a(__int_vsprintf.o)
 .reginfo       0x0000000000000000       0x18 c:/program files/microchip/xc32/v4.20/bin/bin/../../lib/gcc/pic32mx/8.3.1/../../../../pic32mx/lib/fpu64\libc-musl.a(__fopen.o)
 .MIPS.abiflags
                0x0000000000000000       0x18 c:/program files/microchip/xc32/v4.20/bin/bin/../../lib/gcc/pic32mx/8.3.1/../../../../pic32mx/lib/fpu64\libc-musl.a(__fopen.o)
 .xc_stack_usage
                0x0000000000000000       0x43 c:/program files/microchip/xc32/v4.20/bin/bin/../../lib/gcc/pic32mx/8.3.1/../../../../pic32mx/lib/fpu64\libc-musl.a(__fopen.o)
 .xc_stack_usage.hdr
                0x0000000000000000        0xe c:/program files/microchip/xc32/v4.20/bin/bin/../../lib/gcc/pic32mx/8.3.1/../../../../pic32mx/lib/fpu64\libc-musl.a(__fopen.o)
 .note.GNU-stack
                0x0000000000000000        0x0 c:/program files/microchip/xc32/v4.20/bin/bin/../../lib/gcc/pic32mx/8.3.1/../../../../pic32mx/lib/fpu64\libc-musl.a(__fopen.o)
 .reginfo       0x0000000000000000       0x18 c:/program files/microchip/xc32/v4.20/bin/bin/../../lib/gcc/pic32mx/8.3.1/../../../../pic32mx/lib/fpu64\libc-musl.a(__io_init_needed.o)
 .MIPS.abiflags
                0x0000000000000000       0x18 c:/program files/microchip/xc32/v4.20/bin/bin/../../lib/gcc/pic32mx/8.3.1/../../../../pic32mx/lib/fpu64\libc-musl.a(__io_init_needed.o)
 .xc_stack_usage
                0x0000000000000000       0x40 c:/program files/microchip/xc32/v4.20/bin/bin/../../lib/gcc/pic32mx/8.3.1/../../../../pic32mx/lib/fpu64\libc-musl.a(__io_init_needed.o)
 .xc_stack_usage.hdr
                0x0000000000000000        0xe c:/program files/microchip/xc32/v4.20/bin/bin/../../lib/gcc/pic32mx/8.3.1/../../../../pic32mx/lib/fpu64\libc-musl.a(__io_init_needed.o)
 .note.GNU-stack
                0x0000000000000000        0x0 c:/program files/microchip/xc32/v4.20/bin/bin/../../lib/gcc/pic32mx/8.3.1/../../../../pic32mx/lib/fpu64\libc-musl.a(__io_init_needed.o)
 .reginfo       0x0000000000000000       0x18 c:/program files/microchip/xc32/v4.20/bin/bin/../../lib/gcc/pic32mx/8.3.1/../../../../pic32mx/lib/fpu64\libc-musl.a(__out.o)
 .MIPS.abiflags
                0x0000000000000000       0x18 c:/program files/microchip/xc32/v4.20/bin/bin/../../lib/gcc/pic32mx/8.3.1/../../../../pic32mx/lib/fpu64\libc-musl.a(__out.o)
 .xc_stack_usage
                0x0000000000000000       0x2d c:/program files/microchip/xc32/v4.20/bin/bin/../../lib/gcc/pic32mx/8.3.1/../../../../pic32mx/lib/fpu64\libc-musl.a(__out.o)
 .xc_stack_usage.hdr
                0x0000000000000000        0xe c:/program files/microchip/xc32/v4.20/bin/bin/../../lib/gcc/pic32mx/8.3.1/../../../../pic32mx/lib/fpu64\libc-musl.a(__out.o)
 .note.GNU-stack
                0x0000000000000000        0x0 c:/program files/microchip/xc32/v4.20/bin/bin/../../lib/gcc/pic32mx/8.3.1/../../../../pic32mx/lib/fpu64\libc-musl.a(__out.o)
 .reginfo       0x0000000000000000       0x18 c:/program files/microchip/xc32/v4.20/bin/bin/../../lib/gcc/pic32mx/8.3.1/../../../../pic32mx/lib/fpu64\libc-musl.a(__stdio_close.o)
 .MIPS.abiflags
                0x0000000000000000       0x18 c:/program files/microchip/xc32/v4.20/bin/bin/../../lib/gcc/pic32mx/8.3.1/../../../../pic32mx/lib/fpu64\libc-musl.a(__stdio_close.o)
 .xc_stack_usage
                0x0000000000000000       0x39 c:/program files/microchip/xc32/v4.20/bin/bin/../../lib/gcc/pic32mx/8.3.1/../../../../pic32mx/lib/fpu64\libc-musl.a(__stdio_close.o)
 .xc_stack_usage.hdr
                0x0000000000000000        0xe c:/program files/microchip/xc32/v4.20/bin/bin/../../lib/gcc/pic32mx/8.3.1/../../../../pic32mx/lib/fpu64\libc-musl.a(__stdio_close.o)
 .note.GNU-stack
                0x0000000000000000        0x0 c:/program files/microchip/xc32/v4.20/bin/bin/../../lib/gcc/pic32mx/8.3.1/../../../../pic32mx/lib/fpu64\libc-musl.a(__stdio_close.o)
 .reginfo       0x0000000000000000       0x18 c:/program files/microchip/xc32/v4.20/bin/bin/../../lib/gcc/pic32mx/8.3.1/../../../../pic32mx/lib/fpu64\libc-musl.a(vfprintf.o)
 .MIPS.abiflags
                0x0000000000000000       0x18 c:/program files/microchip/xc32/v4.20/bin/bin/../../lib/gcc/pic32mx/8.3.1/../../../../pic32mx/lib/fpu64\libc-musl.a(vfprintf.o)
 .xc_stack_usage
                0x0000000000000000       0x38 c:/program files/microchip/xc32/v4.20/bin/bin/../../lib/gcc/pic32mx/8.3.1/../../../../pic32mx/lib/fpu64\libc-musl.a(vfprintf.o)
 .xc_stack_usage.hdr
                0x0000000000000000        0xe c:/program files/microchip/xc32/v4.20/bin/bin/../../lib/gcc/pic32mx/8.3.1/../../../../pic32mx/lib/fpu64\libc-musl.a(vfprintf.o)
 .note.GNU-stack
                0x0000000000000000        0x0 c:/program files/microchip/xc32/v4.20/bin/bin/../../lib/gcc/pic32mx/8.3.1/../../../../pic32mx/lib/fpu64\libc-musl.a(vfprintf.o)
 .reginfo       0x0000000000000000       0x18 c:/program files/microchip/xc32/v4.20/bin/bin/../../lib/gcc/pic32mx/8.3.1/../../../../pic32mx/lib/fpu64\libc-musl.a(stpcpy.o)
 .MIPS.abiflags
                0x0000000000000000       0x18 c:/program files/microchip/xc32/v4.20/bin/bin/../../lib/gcc/pic32mx/8.3.1/../../../../pic32mx/lib/fpu64\libc-musl.a(stpcpy.o)
 .xc_stack_usage
                0x0000000000000000       0x14 c:/program files/microchip/xc32/v4.20/bin/bin/../../lib/gcc/pic32mx/8.3.1/../../../../pic32mx/lib/fpu64\libc-musl.a(stpcpy.o)
 .xc_stack_usage.hdr
                0x0000000000000000        0xe c:/program files/microchip/xc32/v4.20/bin/bin/../../lib/gcc/pic32mx/8.3.1/../../../../pic32mx/lib/fpu64\libc-musl.a(stpcpy.o)
 .note.GNU-stack
                0x0000000000000000        0x0 c:/program files/microchip/xc32/v4.20/bin/bin/../../lib/gcc/pic32mx/8.3.1/../../../../pic32mx/lib/fpu64\libc-musl.a(stpcpy.o)
 .reginfo       0x0000000000000000       0x18 c:/program files/microchip/xc32/v4.20/bin/bin/../../lib/gcc/pic32mx/8.3.1/../../../../pic32mx/lib/fpu64\libc-musl.a(malloc.o)
 .MIPS.abiflags
                0x0000000000000000       0x18 c:/program files/microchip/xc32/v4.20/bin/bin/../../lib/gcc/pic32mx/8.3.1/../../../../pic32mx/lib/fpu64\libc-musl.a(malloc.o)
 .xc_stack_usage
                0x0000000000000000       0xeb c:/program files/microchip/xc32/v4.20/bin/bin/../../lib/gcc/pic32mx/8.3.1/../../../../pic32mx/lib/fpu64\libc-musl.a(malloc.o)
 .xc_stack_usage.hdr
                0x0000000000000000        0xe c:/program files/microchip/xc32/v4.20/bin/bin/../../lib/gcc/pic32mx/8.3.1/../../../../pic32mx/lib/fpu64\libc-musl.a(malloc.o)
 .note.GNU-stack
                0x0000000000000000        0x0 c:/program files/microchip/xc32/v4.20/bin/bin/../../lib/gcc/pic32mx/8.3.1/../../../../pic32mx/lib/fpu64\libc-musl.a(malloc.o)
 .reginfo       0x0000000000000000       0x18 c:/program files/microchip/xc32/v4.20/bin/bin/../../lib/gcc/pic32mx/8.3.1/../../../../pic32mx/lib/fpu64\libc-musl.a(expand_heap.o)
 .MIPS.abiflags
                0x0000000000000000       0x18 c:/program files/microchip/xc32/v4.20/bin/bin/../../lib/gcc/pic32mx/8.3.1/../../../../pic32mx/lib/fpu64\libc-musl.a(expand_heap.o)
 .xc_stack_usage
                0x0000000000000000       0x1b c:/program files/microchip/xc32/v4.20/bin/bin/../../lib/gcc/pic32mx/8.3.1/../../../../pic32mx/lib/fpu64\libc-musl.a(expand_heap.o)
 .xc_stack_usage.hdr
                0x0000000000000000        0xe c:/program files/microchip/xc32/v4.20/bin/bin/../../lib/gcc/pic32mx/8.3.1/../../../../pic32mx/lib/fpu64\libc-musl.a(expand_heap.o)
 .note.GNU-stack
                0x0000000000000000        0x0 c:/program files/microchip/xc32/v4.20/bin/bin/../../lib/gcc/pic32mx/8.3.1/../../../../pic32mx/lib/fpu64\libc-musl.a(expand_heap.o)
 .reginfo       0x0000000000000000       0x18 c:/program files/microchip/xc32/v4.20/bin/bin/../../lib/gcc/pic32mx/8.3.1/../../../../pic32mx/lib/fpu64\libc-musl.a(__int_vsnprintf.o)
 .MIPS.abiflags
                0x0000000000000000       0x18 c:/program files/microchip/xc32/v4.20/bin/bin/../../lib/gcc/pic32mx/8.3.1/../../../../pic32mx/lib/fpu64\libc-musl.a(__int_vsnprintf.o)
 .xc_stack_usage
                0x0000000000000000       0x19 c:/program files/microchip/xc32/v4.20/bin/bin/../../lib/gcc/pic32mx/8.3.1/../../../../pic32mx/lib/fpu64\libc-musl.a(__int_vsnprintf.o)
 .xc_stack_usage.hdr
                0x0000000000000000        0xe c:/program files/microchip/xc32/v4.20/bin/bin/../../lib/gcc/pic32mx/8.3.1/../../../../pic32mx/lib/fpu64\libc-musl.a(__int_vsnprintf.o)
 .note.GNU-stack
                0x0000000000000000        0x0 c:/program files/microchip/xc32/v4.20/bin/bin/../../lib/gcc/pic32mx/8.3.1/../../../../pic32mx/lib/fpu64\libc-musl.a(__int_vsnprintf.o)
 .reginfo       0x0000000000000000       0x18 c:/program files/microchip/xc32/v4.20/bin/bin/../../lib/gcc/pic32mx/8.3.1/../../../../pic32mx/lib/fpu64\libc-musl.a(__init_stdio.o)
 .MIPS.abiflags
                0x0000000000000000       0x18 c:/program files/microchip/xc32/v4.20/bin/bin/../../lib/gcc/pic32mx/8.3.1/../../../../pic32mx/lib/fpu64\libc-musl.a(__init_stdio.o)
 .xc_stack_usage
                0x0000000000000000       0x2f c:/program files/microchip/xc32/v4.20/bin/bin/../../lib/gcc/pic32mx/8.3.1/../../../../pic32mx/lib/fpu64\libc-musl.a(__init_stdio.o)
 .xc_stack_usage.hdr
                0x0000000000000000        0xe c:/program files/microchip/xc32/v4.20/bin/bin/../../lib/gcc/pic32mx/8.3.1/../../../../pic32mx/lib/fpu64\libc-musl.a(__init_stdio.o)
 .note.GNU-stack
                0x0000000000000000        0x0 c:/program files/microchip/xc32/v4.20/bin/bin/../../lib/gcc/pic32mx/8.3.1/../../../../pic32mx/lib/fpu64\libc-musl.a(__init_stdio.o)
 .reginfo       0x0000000000000000       0x18 c:/program files/microchip/xc32/v4.20/bin/bin/../../lib/gcc/pic32mx/8.3.1/../../../../pic32mx/lib/fpu64\libc-musl.a(__io_file_needed.o)
 .MIPS.abiflags
                0x0000000000000000       0x18 c:/program files/microchip/xc32/v4.20/bin/bin/../../lib/gcc/pic32mx/8.3.1/../../../../pic32mx/lib/fpu64\libc-musl.a(__io_file_needed.o)
 .xc_stack_usage
                0x0000000000000000       0x1e c:/program files/microchip/xc32/v4.20/bin/bin/../../lib/gcc/pic32mx/8.3.1/../../../../pic32mx/lib/fpu64\libc-musl.a(__io_file_needed.o)
 .xc_stack_usage.hdr
                0x0000000000000000        0xe c:/program files/microchip/xc32/v4.20/bin/bin/../../lib/gcc/pic32mx/8.3.1/../../../../pic32mx/lib/fpu64\libc-musl.a(__io_file_needed.o)
 .note.GNU-stack
                0x0000000000000000        0x0 c:/program files/microchip/xc32/v4.20/bin/bin/../../lib/gcc/pic32mx/8.3.1/../../../../pic32mx/lib/fpu64\libc-musl.a(__io_file_needed.o)
 .reginfo       0x0000000000000000       0x18 c:/program files/microchip/xc32/v4.20/bin/bin/../../lib/gcc/pic32mx/8.3.1/../../../../pic32mx/lib/fpu64\libc-musl.a(__io_fmt_needed.o)
 .MIPS.abiflags
                0x0000000000000000       0x18 c:/program files/microchip/xc32/v4.20/bin/bin/../../lib/gcc/pic32mx/8.3.1/../../../../pic32mx/lib/fpu64\libc-musl.a(__io_fmt_needed.o)
 .xc_stack_usage
                0x0000000000000000       0x1d c:/program files/microchip/xc32/v4.20/bin/bin/../../lib/gcc/pic32mx/8.3.1/../../../../pic32mx/lib/fpu64\libc-musl.a(__io_fmt_needed.o)
 .xc_stack_usage.hdr
                0x0000000000000000        0xe c:/program files/microchip/xc32/v4.20/bin/bin/../../lib/gcc/pic32mx/8.3.1/../../../../pic32mx/lib/fpu64\libc-musl.a(__io_fmt_needed.o)
 .note.GNU-stack
                0x0000000000000000        0x0 c:/program files/microchip/xc32/v4.20/bin/bin/../../lib/gcc/pic32mx/8.3.1/../../../../pic32mx/lib/fpu64\libc-musl.a(__io_fmt_needed.o)
 .reginfo       0x0000000000000000       0x18 c:/program files/microchip/xc32/v4.20/bin/bin/../../lib/gcc/pic32mx/8.3.1/../../../../pic32mx/lib/fpu64\libc-musl.a(libc.o)
 .MIPS.abiflags
                0x0000000000000000       0x18 c:/program files/microchip/xc32/v4.20/bin/bin/../../lib/gcc/pic32mx/8.3.1/../../../../pic32mx/lib/fpu64\libc-musl.a(libc.o)
 .xc_stack_usage.hdr
                0x0000000000000000        0xe c:/program files/microchip/xc32/v4.20/bin/bin/../../lib/gcc/pic32mx/8.3.1/../../../../pic32mx/lib/fpu64\libc-musl.a(libc.o)
 .note.GNU-stack
                0x0000000000000000        0x0 c:/program files/microchip/xc32/v4.20/bin/bin/../../lib/gcc/pic32mx/8.3.1/../../../../pic32mx/lib/fpu64\libc-musl.a(libc.o)
 .reginfo       0x0000000000000000       0x18 c:/program files/microchip/xc32/v4.20/bin/bin/../../lib/gcc/pic32mx/8.3.1/../../../../pic32mx/lib/fpu64\libc-musl.a(__fmt_a.o)
 .MIPS.abiflags
                0x0000000000000000       0x18 c:/program files/microchip/xc32/v4.20/bin/bin/../../lib/gcc/pic32mx/8.3.1/../../../../pic32mx/lib/fpu64\libc-musl.a(__fmt_a.o)
 .xc_stack_usage
                0x0000000000000000       0x15 c:/program files/microchip/xc32/v4.20/bin/bin/../../lib/gcc/pic32mx/8.3.1/../../../../pic32mx/lib/fpu64\libc-musl.a(__fmt_a.o)
 .xc_stack_usage.hdr
                0x0000000000000000        0xe c:/program files/microchip/xc32/v4.20/bin/bin/../../lib/gcc/pic32mx/8.3.1/../../../../pic32mx/lib/fpu64\libc-musl.a(__fmt_a.o)
 .note.GNU-stack
                0x0000000000000000        0x0 c:/program files/microchip/xc32/v4.20/bin/bin/../../lib/gcc/pic32mx/8.3.1/../../../../pic32mx/lib/fpu64\libc-musl.a(__fmt_a.o)
 .reginfo       0x0000000000000000       0x18 c:/program files/microchip/xc32/v4.20/bin/bin/../../lib/gcc/pic32mx/8.3.1/../../../../pic32mx/lib/fpu64\libm-musl.a(cos.o)
 .MIPS.abiflags
                0x0000000000000000       0x18 c:/program files/microchip/xc32/v4.20/bin/bin/../../lib/gcc/pic32mx/8.3.1/../../../../pic32mx/lib/fpu64\libm-musl.a(cos.o)
 .xc_stack_usage
                0x0000000000000000       0x11 c:/program files/microchip/xc32/v4.20/bin/bin/../../lib/gcc/pic32mx/8.3.1/../../../../pic32mx/lib/fpu64\libm-musl.a(cos.o)
 .xc_stack_usage.hdr
                0x0000000000000000        0xe c:/program files/microchip/xc32/v4.20/bin/bin/../../lib/gcc/pic32mx/8.3.1/../../../../pic32mx/lib/fpu64\libm-musl.a(cos.o)
 .note.GNU-stack
                0x0000000000000000        0x0 c:/program files/microchip/xc32/v4.20/bin/bin/../../lib/gcc/pic32mx/8.3.1/../../../../pic32mx/lib/fpu64\libm-musl.a(cos.o)
 .reginfo       0x0000000000000000       0x18 c:/program files/microchip/xc32/v4.20/bin/bin/../../lib/gcc/pic32mx/8.3.1/../../../../pic32mx/lib/fpu64\libm-musl.a(floor.o)
 .MIPS.abiflags
                0x0000000000000000       0x18 c:/program files/microchip/xc32/v4.20/bin/bin/../../lib/gcc/pic32mx/8.3.1/../../../../pic32mx/lib/fpu64\libm-musl.a(floor.o)
 .xc_stack_usage
                0x0000000000000000       0x13 c:/program files/microchip/xc32/v4.20/bin/bin/../../lib/gcc/pic32mx/8.3.1/../../../../pic32mx/lib/fpu64\libm-musl.a(floor.o)
 .xc_stack_usage.hdr
                0x0000000000000000        0xe c:/program files/microchip/xc32/v4.20/bin/bin/../../lib/gcc/pic32mx/8.3.1/../../../../pic32mx/lib/fpu64\libm-musl.a(floor.o)
 .note.GNU-stack
                0x0000000000000000        0x0 c:/program files/microchip/xc32/v4.20/bin/bin/../../lib/gcc/pic32mx/8.3.1/../../../../pic32mx/lib/fpu64\libm-musl.a(floor.o)
 .reginfo       0x0000000000000000       0x18 c:/program files/microchip/xc32/v4.20/bin/bin/../../lib/gcc/pic32mx/8.3.1/../../../../pic32mx/lib/fpu64\libm-musl.a(fma.o)
 .MIPS.abiflags
                0x0000000000000000       0x18 c:/program files/microchip/xc32/v4.20/bin/bin/../../lib/gcc/pic32mx/8.3.1/../../../../pic32mx/lib/fpu64\libm-musl.a(fma.o)
 .xc_stack_usage
                0x0000000000000000       0x3e c:/program files/microchip/xc32/v4.20/bin/bin/../../lib/gcc/pic32mx/8.3.1/../../../../pic32mx/lib/fpu64\libm-musl.a(fma.o)
 .xc_stack_usage.hdr
                0x0000000000000000        0xe c:/program files/microchip/xc32/v4.20/bin/bin/../../lib/gcc/pic32mx/8.3.1/../../../../pic32mx/lib/fpu64\libm-musl.a(fma.o)
 .note.GNU-stack
                0x0000000000000000        0x0 c:/program files/microchip/xc32/v4.20/bin/bin/../../lib/gcc/pic32mx/8.3.1/../../../../pic32mx/lib/fpu64\libm-musl.a(fma.o)
 .reginfo       0x0000000000000000       0x18 c:/program files/microchip/xc32/v4.20/bin/bin/../../lib/gcc/pic32mx/8.3.1/../../../../pic32mx/lib/fpu64\libm-musl.a(scalbn.o)
 .MIPS.abiflags
                0x0000000000000000       0x18 c:/program files/microchip/xc32/v4.20/bin/bin/../../lib/gcc/pic32mx/8.3.1/../../../../pic32mx/lib/fpu64\libm-musl.a(scalbn.o)
 .xc_stack_usage
                0x0000000000000000       0x14 c:/program files/microchip/xc32/v4.20/bin/bin/../../lib/gcc/pic32mx/8.3.1/../../../../pic32mx/lib/fpu64\libm-musl.a(scalbn.o)
 .xc_stack_usage.hdr
                0x0000000000000000        0xe c:/program files/microchip/xc32/v4.20/bin/bin/../../lib/gcc/pic32mx/8.3.1/../../../../pic32mx/lib/fpu64\libm-musl.a(scalbn.o)
 .note.GNU-stack
                0x0000000000000000        0x0 c:/program files/microchip/xc32/v4.20/bin/bin/../../lib/gcc/pic32mx/8.3.1/../../../../pic32mx/lib/fpu64\libm-musl.a(scalbn.o)
 .reginfo       0x0000000000000000       0x18 c:/program files/microchip/xc32/v4.20/bin/bin/../../lib/gcc/pic32mx/8.3.1/../../../../pic32mx/lib/fpu64\libm-musl.a(sin.o)
 .MIPS.abiflags
                0x0000000000000000       0x18 c:/program files/microchip/xc32/v4.20/bin/bin/../../lib/gcc/pic32mx/8.3.1/../../../../pic32mx/lib/fpu64\libm-musl.a(sin.o)
 .xc_stack_usage
                0x0000000000000000       0x11 c:/program files/microchip/xc32/v4.20/bin/bin/../../lib/gcc/pic32mx/8.3.1/../../../../pic32mx/lib/fpu64\libm-musl.a(sin.o)
 .xc_stack_usage.hdr
                0x0000000000000000        0xe c:/program files/microchip/xc32/v4.20/bin/bin/../../lib/gcc/pic32mx/8.3.1/../../../../pic32mx/lib/fpu64\libm-musl.a(sin.o)
 .note.GNU-stack
                0x0000000000000000        0x0 c:/program files/microchip/xc32/v4.20/bin/bin/../../lib/gcc/pic32mx/8.3.1/../../../../pic32mx/lib/fpu64\libm-musl.a(sin.o)
 .reginfo       0x0000000000000000       0x18 c:/program files/microchip/xc32/v4.20/bin/bin/../../lib/gcc/pic32mx/8.3.1/../../../../pic32mx/lib/fpu64\libm-musl.a(__cos.o)
 .MIPS.abiflags
                0x0000000000000000       0x18 c:/program files/microchip/xc32/v4.20/bin/bin/../../lib/gcc/pic32mx/8.3.1/../../../../pic32mx/lib/fpu64\libm-musl.a(__cos.o)
 .xc_stack_usage
                0x0000000000000000       0x13 c:/program files/microchip/xc32/v4.20/bin/bin/../../lib/gcc/pic32mx/8.3.1/../../../../pic32mx/lib/fpu64\libm-musl.a(__cos.o)
 .xc_stack_usage.hdr
                0x0000000000000000        0xe c:/program files/microchip/xc32/v4.20/bin/bin/../../lib/gcc/pic32mx/8.3.1/../../../../pic32mx/lib/fpu64\libm-musl.a(__cos.o)
 .note.GNU-stack
                0x0000000000000000        0x0 c:/program files/microchip/xc32/v4.20/bin/bin/../../lib/gcc/pic32mx/8.3.1/../../../../pic32mx/lib/fpu64\libm-musl.a(__cos.o)
 .reginfo       0x0000000000000000       0x18 c:/program files/microchip/xc32/v4.20/bin/bin/../../lib/gcc/pic32mx/8.3.1/../../../../pic32mx/lib/fpu64\libm-musl.a(__rem_pio2.o)
 .MIPS.abiflags
                0x0000000000000000       0x18 c:/program files/microchip/xc32/v4.20/bin/bin/../../lib/gcc/pic32mx/8.3.1/../../../../pic32mx/lib/fpu64\libm-musl.a(__rem_pio2.o)
 .xc_stack_usage
                0x0000000000000000       0x18 c:/program files/microchip/xc32/v4.20/bin/bin/../../lib/gcc/pic32mx/8.3.1/../../../../pic32mx/lib/fpu64\libm-musl.a(__rem_pio2.o)
 .xc_stack_usage.hdr
                0x0000000000000000        0xe c:/program files/microchip/xc32/v4.20/bin/bin/../../lib/gcc/pic32mx/8.3.1/../../../../pic32mx/lib/fpu64\libm-musl.a(__rem_pio2.o)
 .note.GNU-stack
                0x0000000000000000        0x0 c:/program files/microchip/xc32/v4.20/bin/bin/../../lib/gcc/pic32mx/8.3.1/../../../../pic32mx/lib/fpu64\libm-musl.a(__rem_pio2.o)
 .reginfo       0x0000000000000000       0x18 c:/program files/microchip/xc32/v4.20/bin/bin/../../lib/gcc/pic32mx/8.3.1/../../../../pic32mx/lib/fpu64\libm-musl.a(__rem_pio2_large.o)
 .MIPS.abiflags
                0x0000000000000000       0x18 c:/program files/microchip/xc32/v4.20/bin/bin/../../lib/gcc/pic32mx/8.3.1/../../../../pic32mx/lib/fpu64\libm-musl.a(__rem_pio2_large.o)
 .xc_stack_usage
                0x0000000000000000       0x1e c:/program files/microchip/xc32/v4.20/bin/bin/../../lib/gcc/pic32mx/8.3.1/../../../../pic32mx/lib/fpu64\libm-musl.a(__rem_pio2_large.o)
 .xc_stack_usage.hdr
                0x0000000000000000        0xe c:/program files/microchip/xc32/v4.20/bin/bin/../../lib/gcc/pic32mx/8.3.1/../../../../pic32mx/lib/fpu64\libm-musl.a(__rem_pio2_large.o)
 .note.GNU-stack
                0x0000000000000000        0x0 c:/program files/microchip/xc32/v4.20/bin/bin/../../lib/gcc/pic32mx/8.3.1/../../../../pic32mx/lib/fpu64\libm-musl.a(__rem_pio2_large.o)
 .reginfo       0x0000000000000000       0x18 c:/program files/microchip/xc32/v4.20/bin/bin/../../lib/gcc/pic32mx/8.3.1/../../../../pic32mx/lib/fpu64\libm-musl.a(__sin.o)
 .MIPS.abiflags
                0x0000000000000000       0x18 c:/program files/microchip/xc32/v4.20/bin/bin/../../lib/gcc/pic32mx/8.3.1/../../../../pic32mx/lib/fpu64\libm-musl.a(__sin.o)
 .xc_stack_usage
                0x0000000000000000       0x13 c:/program files/microchip/xc32/v4.20/bin/bin/../../lib/gcc/pic32mx/8.3.1/../../../../pic32mx/lib/fpu64\libm-musl.a(__sin.o)
 .xc_stack_usage.hdr
                0x0000000000000000        0xe c:/program files/microchip/xc32/v4.20/bin/bin/../../lib/gcc/pic32mx/8.3.1/../../../../pic32mx/lib/fpu64\libm-musl.a(__sin.o)
 .note.GNU-stack
                0x0000000000000000        0x0 c:/program files/microchip/xc32/v4.20/bin/bin/../../lib/gcc/pic32mx/8.3.1/../../../../pic32mx/lib/fpu64\libm-musl.a(__sin.o)
 .reginfo       0x0000000000000000       0x18 c:/program files/microchip/xc32/v4.20/bin/bin/../../lib/gcc/pic32mx/8.3.1/fpu64\libgcc.a(_lshrdi3.o)
 .MIPS.abiflags
                0x0000000000000000       0x18 c:/program files/microchip/xc32/v4.20/bin/bin/../../lib/gcc/pic32mx/8.3.1/fpu64\libgcc.a(_lshrdi3.o)
 .xc_stack_usage
                0x0000000000000000       0x17 c:/program files/microchip/xc32/v4.20/bin/bin/../../lib/gcc/pic32mx/8.3.1/fpu64\libgcc.a(_lshrdi3.o)
 .xc_stack_usage.hdr
                0x0000000000000000        0xe c:/program files/microchip/xc32/v4.20/bin/bin/../../lib/gcc/pic32mx/8.3.1/fpu64\libgcc.a(_lshrdi3.o)
 .reginfo       0x0000000000000000       0x18 c:/program files/microchip/xc32/v4.20/bin/bin/../../lib/gcc/pic32mx/8.3.1/fpu64\libgcc.a(_ashldi3.o)
 .MIPS.abiflags
                0x0000000000000000       0x18 c:/program files/microchip/xc32/v4.20/bin/bin/../../lib/gcc/pic32mx/8.3.1/fpu64\libgcc.a(_ashldi3.o)
 .xc_stack_usage
                0x0000000000000000       0x17 c:/program files/microchip/xc32/v4.20/bin/bin/../../lib/gcc/pic32mx/8.3.1/fpu64\libgcc.a(_ashldi3.o)
 .xc_stack_usage.hdr
                0x0000000000000000        0xe c:/program files/microchip/xc32/v4.20/bin/bin/../../lib/gcc/pic32mx/8.3.1/fpu64\libgcc.a(_ashldi3.o)
 .reginfo       0x0000000000000000       0x18 c:/program files/microchip/xc32/v4.20/bin/bin/../../lib/gcc/pic32mx/8.3.1/fpu64\libgcc.a(_udivdi3.o)
 .MIPS.abiflags
                0x0000000000000000       0x18 c:/program files/microchip/xc32/v4.20/bin/bin/../../lib/gcc/pic32mx/8.3.1/fpu64\libgcc.a(_udivdi3.o)
 .xc_stack_usage
                0x0000000000000000       0x17 c:/program files/microchip/xc32/v4.20/bin/bin/../../lib/gcc/pic32mx/8.3.1/fpu64\libgcc.a(_udivdi3.o)
 .xc_stack_usage.hdr
                0x0000000000000000        0xe c:/program files/microchip/xc32/v4.20/bin/bin/../../lib/gcc/pic32mx/8.3.1/fpu64\libgcc.a(_udivdi3.o)
 .reginfo       0x0000000000000000       0x18 c:/program files/microchip/xc32/v4.20/bin/bin/../../lib/gcc/pic32mx/8.3.1/fpu64\libgcc.a(_umoddi3.o)
 .MIPS.abiflags
                0x0000000000000000       0x18 c:/program files/microchip/xc32/v4.20/bin/bin/../../lib/gcc/pic32mx/8.3.1/fpu64\libgcc.a(_umoddi3.o)
 .xc_stack_usage
                0x0000000000000000       0x17 c:/program files/microchip/xc32/v4.20/bin/bin/../../lib/gcc/pic32mx/8.3.1/fpu64\libgcc.a(_umoddi3.o)
 .xc_stack_usage.hdr
                0x0000000000000000        0xe c:/program files/microchip/xc32/v4.20/bin/bin/../../lib/gcc/pic32mx/8.3.1/fpu64\libgcc.a(_umoddi3.o)
 .reginfo       0x0000000000000000       0x18 c:/program files/microchip/xc32/v4.20/bin/bin/../../lib/gcc/pic32mx/8.3.1/../../../../pic32mx/lib/fpu64\libpic32.a(sbrk.o)
 .MIPS.abiflags
                0x0000000000000000       0x18 c:/program files/microchip/xc32/v4.20/bin/bin/../../lib/gcc/pic32mx/8.3.1/../../../../pic32mx/lib/fpu64\libpic32.a(sbrk.o)
 .xc_stack_usage
                0x0000000000000000       0x77 c:/program files/microchip/xc32/v4.20/bin/bin/../../lib/gcc/pic32mx/8.3.1/../../../../pic32mx/lib/fpu64\libpic32.a(sbrk.o)
 .xc_stack_usage.hdr
                0x0000000000000000        0xe c:/program files/microchip/xc32/v4.20/bin/bin/../../lib/gcc/pic32mx/8.3.1/../../../../pic32mx/lib/fpu64\libpic32.a(sbrk.o)
 .reginfo       0x0000000000000000       0x18 c:/program files/microchip/xc32/v4.20/bin/bin/../../lib/gcc/pic32mx/8.3.1/../../../../pic32mx/lib/fpu64\libpic32.a(lseek.o)
 .MIPS.abiflags
                0x0000000000000000       0x18 c:/program files/microchip/xc32/v4.20/bin/bin/../../lib/gcc/pic32mx/8.3.1/../../../../pic32mx/lib/fpu64\libpic32.a(lseek.o)
 .xc_stack_usage
                0x0000000000000000       0x13 c:/program files/microchip/xc32/v4.20/bin/bin/../../lib/gcc/pic32mx/8.3.1/../../../../pic32mx/lib/fpu64\libpic32.a(lseek.o)
 .xc_stack_usage.hdr
                0x0000000000000000        0xe c:/program files/microchip/xc32/v4.20/bin/bin/../../lib/gcc/pic32mx/8.3.1/../../../../pic32mx/lib/fpu64\libpic32.a(lseek.o)
 .reginfo       0x0000000000000000       0x18 c:/program files/microchip/xc32/v4.20/bin/bin/../../lib/gcc/pic32mx/8.3.1/../../../../pic32mx/lib/fpu64\libpic32.a(close.o)
 .MIPS.abiflags
                0x0000000000000000       0x18 c:/program files/microchip/xc32/v4.20/bin/bin/../../lib/gcc/pic32mx/8.3.1/../../../../pic32mx/lib/fpu64\libpic32.a(close.o)
 .xc_stack_usage
                0x0000000000000000       0x13 c:/program files/microchip/xc32/v4.20/bin/bin/../../lib/gcc/pic32mx/8.3.1/../../../../pic32mx/lib/fpu64\libpic32.a(close.o)
 .xc_stack_usage.hdr
                0x0000000000000000        0xe c:/program files/microchip/xc32/v4.20/bin/bin/../../lib/gcc/pic32mx/8.3.1/../../../../pic32mx/lib/fpu64\libpic32.a(close.o)
 .reginfo       0x0000000000000000       0x18 c:/program files/microchip/xc32/v4.20/bin/bin/../../lib/gcc/pic32mx/8.3.1/../../../../pic32mx/lib/fpu64\libpic32.a(errno.o)
 .MIPS.abiflags
                0x0000000000000000       0x18 c:/program files/microchip/xc32/v4.20/bin/bin/../../lib/gcc/pic32mx/8.3.1/../../../../pic32mx/lib/fpu64\libpic32.a(errno.o)
 .xc_stack_usage.hdr
                0x0000000000000000        0xe c:/program files/microchip/xc32/v4.20/bin/bin/../../lib/gcc/pic32mx/8.3.1/../../../../pic32mx/lib/fpu64\libpic32.a(errno.o)

Memory Configuration

Name             Origin             Length             Attributes
kseg0_program_mem 0x000000009d000000 0x0000000000080000 xr
kseg0_boot_mem   0x000000009fc04490 0x0000000000000000
debug_exec_mem   0x000000009fc04490 0x0000000000000b70
kseg1_boot_mem   0x00000000bfc00000 0x0000000000000480
kseg1_boot_mem_4B0 0x00000000bfc004b0 0x0000000000003a80
config_BFC03F40  0x00000000bfc03f40 0x0000000000000004
config_BFC03F44  0x00000000bfc03f44 0x0000000000000004
config_BFC03F48  0x00000000bfc03f48 0x0000000000000004
config_BFC03F4C  0x00000000bfc03f4c 0x0000000000000004
config_BFC03F5C  0x00000000bfc03f5c 0x0000000000000004
config_BFC03F6C  0x00000000bfc03f6c 0x0000000000000004
config_BFC03F70  0x00000000bfc03f70 0x0000000000000004
config_BFC03FC0  0x00000000bfc03fc0 0x0000000000000004
config_BFC03FC4  0x00000000bfc03fc4 0x0000000000000004
config_BFC03FC8  0x00000000bfc03fc8 0x0000000000000004
config_BFC03FCC  0x00000000bfc03fcc 0x0000000000000004
config_BFC03FDC  0x00000000bfc03fdc 0x0000000000000004
config_BFC03FEC  0x00000000bfc03fec 0x0000000000000004
config_BFC03FF0  0x00000000bfc03ff0 0x0000000000000004
lowerbootaliaslastpage 0x00000000bfc04000 0x0000000000001000
boot1            0x00000000bfc40000 0x0000000000003f30
config_BFC43F40  0x00000000bfc43f40 0x0000000000000004
config_BFC43F44  0x00000000bfc43f44 0x0000000000000004
config_BFC43F48  0x00000000bfc43f48 0x0000000000000004
config_BFC43F4C  0x00000000bfc43f4c 0x0000000000000004
config_BFC43F5C  0x00000000bfc43f5c 0x0000000000000004
config_BFC43F6C  0x00000000bfc43f6c 0x0000000000000004
config_BFC43F70  0x00000000bfc43f70 0x0000000000000004
config_BFC43FC0  0x00000000bfc43fc0 0x0000000000000004
config_BFC43FC4  0x00000000bfc43fc4 0x0000000000000004
config_BFC43FC8  0x00000000bfc43fc8 0x0000000000000004
config_BFC43FCC  0x00000000bfc43fcc 0x0000000000000004
config_BFC43FDC  0x00000000bfc43fdc 0x0000000000000004
config_BFC43FEC  0x00000000bfc43fec 0x0000000000000004
config_BFC43FF0  0x00000000bfc43ff0 0x0000000000000004
boot1lastpage    0x00000000bfc44000 0x0000000000001000
config_BFC45000  0x00000000bfc45000 0x0000000000000004
config_BFC45004  0x00000000bfc45004 0x0000000000000004
config_BFC45008  0x00000000bfc45008 0x0000000000000004
config_BFC4500C  0x00000000bfc4500c 0x0000000000000004
config_BFC45010  0x00000000bfc45010 0x0000000000000004
config_BFC45014  0x00000000bfc45014 0x0000000000000004
config_BFC45018  0x00000000bfc45018 0x0000000000000004
config_BFC45020  0x00000000bfc45020 0x0000000000000004
config_BFC45024  0x00000000bfc45024 0x0000000000000004
config_BFC45028  0x00000000bfc45028 0x0000000000000004
config_BFC4502C  0x00000000bfc4502c 0x0000000000000004
kseg0_data_mem   0x0000000080000000 0x0000000000010000 w !x
sfrs             0x00000000bf800000 0x0000000000100000
configsfrs_BFC03F30 0x00000000bfc03f30 0x000000000000001c
configsfrs_BFC03FB0 0x00000000bfc03fb0 0x000000000000001c
configsfrs_BFC43F30 0x00000000bfc43f30 0x000000000000001c
configsfrs_BFC43FB0 0x00000000bfc43fb0 0x000000000000001c
configsfrs_BFC45000 0x00000000bfc45000 0x000000000000001c
configsfrs_BFC45020 0x00000000bfc45020 0x0000000000000010
*default*        0x0000000000000000 0xffffffffffffffff

Linker script and memory map

LOAD c:/program files/microchip/xc32/v4.20/bin/bin/../../lib/gcc/pic32mx/8.3.1/../../../../pic32mx/lib/fpu64\debug-exception-return.o
LOAD build/nsensor/production/_ext/1684788505/ChrFont0.o
LOAD build/nsensor/production/_ext/1684788505/dogm-graphic.o
LOAD build/nsensor/production/_ext/1684788505/eadog.o
LOAD build/nsensor/production/_ext/1684788505/FillPat.o
LOAD build/nsensor/production/_ext/1684788505/foo.o
LOAD build/nsensor/production/_ext/1684788505/lcd_drv.o
LOAD build/nsensor/production/_ext/1684788505/OledChar.o
LOAD build/nsensor/production/_ext/1684788505/OledDriver.o
LOAD build/nsensor/production/_ext/1684788505/OledGrph.o
LOAD build/nsensor/production/_ext/1966772718/plib_adchs.o
LOAD build/nsensor/production/_ext/1965004555/plib_canfd1.o
LOAD build/nsensor/production/_ext/619183945/plib_clk.o
LOAD build/nsensor/production/_ext/1664108525/plib_coretimer.o
LOAD build/nsensor/production/_ext/2014863652/plib_dmac.o
LOAD build/nsensor/production/_ext/2014902340/plib_evic.o
LOAD build/nsensor/production/_ext/2014956168/plib_gpio.o
LOAD build/nsensor/production/_ext/1955707305/plib_mcpwm.o
LOAD build/nsensor/production/_ext/619197180/plib_qei2.o
LOAD build/nsensor/production/_ext/2015287515/plib_rtcc.o
LOAD build/nsensor/production/_ext/1877210129/plib_spi1_master.o
LOAD build/nsensor/production/_ext/1877210129/plib_spi2_master.o
LOAD build/nsensor/production/_ext/619200320/plib_tmr9.o
LOAD build/nsensor/production/_ext/619200320/plib_tmr5.o
LOAD build/nsensor/production/_ext/619200320/plib_tmr3.o
LOAD build/nsensor/production/_ext/619200320/plib_tmr6.o
LOAD build/nsensor/production/_ext/619200320/plib_tmr2.o
LOAD build/nsensor/production/_ext/2015359111/plib_uart1.o
LOAD build/nsensor/production/_ext/725740559/xc32_monitor.o
LOAD build/nsensor/production/_ext/1856863253/exceptions.o
LOAD build/nsensor/production/_ext/1856863253/interrupts.o
LOAD build/nsensor/production/_ext/1856863253/initialization.o
LOAD build/nsensor/production/_ext/1360937237/bma490l.o
LOAD build/nsensor/production/_ext/1360937237/timers.o
LOAD build/nsensor/production/_ext/1360937237/sca3300.o
LOAD build/nsensor/production/_ext/1360937237/gfx.o
LOAD build/nsensor/production/_ext/1360937237/imu.o
LOAD build/nsensor/production/_ext/1360937237/pid.o
LOAD build/nsensor/production/_ext/1360937237/do_fft.o
LOAD build/nsensor/production/_ext/1360937237/fft.o
LOAD build/nsensor/production/_ext/1360937237/main.o
LOAD build/nsensor/production/_ext/1360937237/canfd.o
LOAD build/nsensor/production/_ext/1360937237/host.o
LOAD build/nsensor/production/_ext/1360937237/cmd_scanner.o
                0x0000000000000001                __MPLAB_BUILD = 0x1
                0x0000000000000400                PROVIDE (_min_stack_size = 0x400)
START GROUP
LOAD vector_offset_init.o
END GROUP
                0x0000000000000001                PROVIDE (_vector_spacing = 0x1)
                0x000000009d000000                PROVIDE (_ebase_address = 0x9d000000)
                0x00000000bfc00000                _RESET_ADDR = 0xbfc00000
                0x00000000bfc00380                _BEV_EXCPT_ADDR = 0xbfc00380
                0x00000000bfc00480                _DBG_EXCPT_ADDR = 0xbfc00480
                0x000000009d000000                _SIMPLE_TLB_REFILL_EXCPT_ADDR = (_ebase_address + 0x0)
                0x000000009d000180                _GEN_EXCPT_ADDR = (_ebase_address + 0x180)

.config_BFC03F40
 *(.config_BFC03F40)

.config_BFC03F44
 *(.config_BFC03F44)

.config_BFC03F48
 *(.config_BFC03F48)

.config_BFC03F4C
 *(.config_BFC03F4C)

.config_BFC03F5C
 *(.config_BFC03F5C)

.config_BFC03F6C
 *(.config_BFC03F6C)

.config_BFC03F70
 *(.config_BFC03F70)

.config_BFC03FC0
                0x00000000bfc03fc0        0x4
 *(.config_BFC03FC0)
 .config_BFC03FC0
                0x00000000bfc03fc0        0x4 build/nsensor/production/_ext/1856863253/initialization.o
                0x00000000bfc03fc0                __config_BFC03FC0

.config_BFC03FC4
                0x00000000bfc03fc4        0x4
 *(.config_BFC03FC4)
 .config_BFC03FC4
                0x00000000bfc03fc4        0x4 build/nsensor/production/_ext/1856863253/initialization.o
                0x00000000bfc03fc4                __config_BFC03FC4

.config_BFC03FC8
                0x00000000bfc03fc8        0x4
 *(.config_BFC03FC8)
 .config_BFC03FC8
                0x00000000bfc03fc8        0x4 build/nsensor/production/_ext/1856863253/initialization.o
                0x00000000bfc03fc8                __config_BFC03FC8

.config_BFC03FCC
                0x00000000bfc03fcc        0x4
 *(.config_BFC03FCC)
 .config_BFC03FCC
                0x00000000bfc03fcc        0x4 build/nsensor/production/_ext/1856863253/initialization.o
                0x00000000bfc03fcc                __config_BFC03FCC

.config_BFC03FDC
 *(.config_BFC03FDC)

.config_BFC03FEC
 *(.config_BFC03FEC)

.config_BFC03FF0
                0x00000000bfc03ff0        0x4
 *(.config_BFC03FF0)
 .config_BFC03FF0
                0x00000000bfc03ff0        0x4 build/nsensor/production/_ext/1856863253/initialization.o
                0x00000000bfc03ff0                __config_BFC03FF0

.config_BFC43F40
 *(.config_BFC43F40)

.config_BFC43F44
 *(.config_BFC43F44)

.config_BFC43F48
 *(.config_BFC43F48)

.config_BFC43F4C
 *(.config_BFC43F4C)

.config_BFC43F5C
 *(.config_BFC43F5C)

.config_BFC43F6C
 *(.config_BFC43F6C)

.config_BFC43F70
 *(.config_BFC43F70)

.config_BFC43FC0
 *(.config_BFC43FC0)

.config_BFC43FC4
 *(.config_BFC43FC4)

.config_BFC43FC8
 *(.config_BFC43FC8)

.config_BFC43FCC
 *(.config_BFC43FCC)

.config_BFC43FDC
 *(.config_BFC43FDC)

.config_BFC43FEC
 *(.config_BFC43FEC)

.config_BFC43FF0
 *(.config_BFC43FF0)

.config_BFC45000
 *(.config_BFC45000)

.config_BFC45004
 *(.config_BFC45004)

.config_BFC45008
 *(.config_BFC45008)

.config_BFC4500C
 *(.config_BFC4500C)

.config_BFC45010
 *(.config_BFC45010)

.config_BFC45014
 *(.config_BFC45014)

.config_BFC45018
 *(.config_BFC45018)

.config_BFC45020
 *(.config_BFC45020)

.config_BFC45024
 *(.config_BFC45024)

.config_BFC45028
 *(.config_BFC45028)

.config_BFC4502C
 *(.config_BFC4502C)

.reset          0x00000000bfc00000      0x194
 *(.reset)
 .reset         0x00000000bfc00000       0x18 C:\Users\nsasp\AppData\Local\Temp\cc26TO6z.o
                0x00000000bfc00000                _reset
 *(.reset.startup)
 .reset.startup
                0x00000000bfc00018      0x17c C:\Users\nsasp\AppData\Local\Temp\cc26TO6z.o
                0x00000000bfc00018                _startup

.bev_excpt      0x00000000bfc00380       0x10
 *(.bev_handler)
 .bev_handler   0x00000000bfc00380       0x10 C:\Users\nsasp\AppData\Local\Temp\cc26TO6z.o

.app_excpt      0x000000009d000180       0x10
 *(.gen_handler)
 .gen_handler   0x000000009d000180       0x10 C:\Users\nsasp\AppData\Local\Temp\cc26TO6z.o

.vectors        0x000000009d000200       0xc0
                0x000000009d000200                . = ALIGN (0x4)
                0x0000000000000200                __vector_offset_0 = DEFINED (__vector_dispatch_0)?(. - _ebase_address):__vector_offset_default
 *(.vector_0)
 .vector_0      0x000000009d000200        0x8 build/nsensor/production/_ext/1856863253/interrupts.o
                0x000000009d000200                __vector_dispatch_0
                0x000000009d000208                . = ALIGN (0x4)
                0x0000000000000278                __vector_offset_1 = DEFINED (__vector_dispatch_1)?(. - _ebase_address):__vector_offset_default
 *(.vector_1)
                0x000000009d000208                . = ALIGN (0x4)
                0x0000000000000278                __vector_offset_2 = DEFINED (__vector_dispatch_2)?(. - _ebase_address):__vector_offset_default
 *(.vector_2)
                0x000000009d000208                . = ALIGN (0x4)
                0x0000000000000278                __vector_offset_3 = DEFINED (__vector_dispatch_3)?(. - _ebase_address):__vector_offset_default
 *(.vector_3)
                0x000000009d000208                . = ALIGN (0x4)
                0x0000000000000278                __vector_offset_4 = DEFINED (__vector_dispatch_4)?(. - _ebase_address):__vector_offset_default
 *(.vector_4)
                0x000000009d000208                . = ALIGN (0x4)
                0x0000000000000278                __vector_offset_5 = DEFINED (__vector_dispatch_5)?(. - _ebase_address):__vector_offset_default
 *(.vector_5)
                0x000000009d000208                . = ALIGN (0x4)
                0x0000000000000278                __vector_offset_6 = DEFINED (__vector_dispatch_6)?(. - _ebase_address):__vector_offset_default
 *(.vector_6)
                0x000000009d000208                . = ALIGN (0x4)
                0x0000000000000278                __vector_offset_7 = DEFINED (__vector_dispatch_7)?(. - _ebase_address):__vector_offset_default
 *(.vector_7)
                0x000000009d000208                . = ALIGN (0x4)
                0x0000000000000278                __vector_offset_8 = DEFINED (__vector_dispatch_8)?(. - _ebase_address):__vector_offset_default
 *(.vector_8)
                0x000000009d000208                . = ALIGN (0x4)
                0x0000000000000278                __vector_offset_9 = DEFINED (__vector_dispatch_9)?(. - _ebase_address):__vector_offset_default
 *(.vector_9)
                0x000000009d000208                . = ALIGN (0x4)
                0x0000000000000278                __vector_offset_10 = DEFINED (__vector_dispatch_10)?(. - _ebase_address):__vector_offset_default
 *(.vector_10)
                0x000000009d000208                . = ALIGN (0x4)
                0x0000000000000278                __vector_offset_11 = DEFINED (__vector_dispatch_11)?(. - _ebase_address):__vector_offset_default
 *(.vector_11)
                0x000000009d000208                . = ALIGN (0x4)
                0x0000000000000278                __vector_offset_12 = DEFINED (__vector_dispatch_12)?(. - _ebase_address):__vector_offset_default
 *(.vector_12)
                0x000000009d000208                . = ALIGN (0x4)
                0x0000000000000208                __vector_offset_13 = DEFINED (__vector_dispatch_13)?(. - _ebase_address):__vector_offset_default
 *(.vector_13)
 .vector_13     0x000000009d000208        0x8 build/nsensor/production/_ext/1856863253/interrupts.o
                0x000000009d000208                __vector_dispatch_13
                0x000000009d000210                . = ALIGN (0x4)
                0x0000000000000278                __vector_offset_14 = DEFINED (__vector_dispatch_14)?(. - _ebase_address):__vector_offset_default
 *(.vector_14)
                0x000000009d000210                . = ALIGN (0x4)
                0x0000000000000278                __vector_offset_15 = DEFINED (__vector_dispatch_15)?(. - _ebase_address):__vector_offset_default
 *(.vector_15)
                0x000000009d000210                . = ALIGN (0x4)
                0x0000000000000278                __vector_offset_16 = DEFINED (__vector_dispatch_16)?(. - _ebase_address):__vector_offset_default
 *(.vector_16)
                0x000000009d000210                . = ALIGN (0x4)
                0x0000000000000278                __vector_offset_17 = DEFINED (__vector_dispatch_17)?(. - _ebase_address):__vector_offset_default
 *(.vector_17)
                0x000000009d000210                . = ALIGN (0x4)
                0x0000000000000278                __vector_offset_18 = DEFINED (__vector_dispatch_18)?(. - _ebase_address):__vector_offset_default
 *(.vector_18)
                0x000000009d000210                . = ALIGN (0x4)
                0x0000000000000278                __vector_offset_19 = DEFINED (__vector_dispatch_19)?(. - _ebase_address):__vector_offset_default
 *(.vector_19)
                0x000000009d000210                . = ALIGN (0x4)
                0x0000000000000278                __vector_offset_20 = DEFINED (__vector_dispatch_20)?(. - _ebase_address):__vector_offset_default
 *(.vector_20)
                0x000000009d000210                . = ALIGN (0x4)
                0x0000000000000278                __vector_offset_21 = DEFINED (__vector_dispatch_21)?(. - _ebase_address):__vector_offset_default
 *(.vector_21)
                0x000000009d000210                . = ALIGN (0x4)
                0x0000000000000278                __vector_offset_22 = DEFINED (__vector_dispatch_22)?(. - _ebase_address):__vector_offset_default
 *(.vector_22)
                0x000000009d000210                . = ALIGN (0x4)
                0x0000000000000278                __vector_offset_23 = DEFINED (__vector_dispatch_23)?(. - _ebase_address):__vector_offset_default
 *(.vector_23)
                0x000000009d000210                . = ALIGN (0x4)
                0x0000000000000210                __vector_offset_24 = DEFINED (__vector_dispatch_24)?(. - _ebase_address):__vector_offset_default
 *(.vector_24)
 .vector_24     0x000000009d000210        0x8 build/nsensor/production/_ext/1856863253/interrupts.o
                0x000000009d000210                __vector_dispatch_24
                0x000000009d000218                . = ALIGN (0x4)
                0x0000000000000278                __vector_offset_25 = DEFINED (__vector_dispatch_25)?(. - _ebase_address):__vector_offset_default
 *(.vector_25)
                0x000000009d000218                . = ALIGN (0x4)
                0x0000000000000278                __vector_offset_26 = DEFINED (__vector_dispatch_26)?(. - _ebase_address):__vector_offset_default
 *(.vector_26)
                0x000000009d000218                . = ALIGN (0x4)
                0x0000000000000278                __vector_offset_27 = DEFINED (__vector_dispatch_27)?(. - _ebase_address):__vector_offset_default
 *(.vector_27)
                0x000000009d000218                . = ALIGN (0x4)
                0x0000000000000278                __vector_offset_28 = DEFINED (__vector_dispatch_28)?(. - _ebase_address):__vector_offset_default
 *(.vector_28)
                0x000000009d000218                . = ALIGN (0x4)
                0x0000000000000278                __vector_offset_29 = DEFINED (__vector_dispatch_29)?(. - _ebase_address):__vector_offset_default
 *(.vector_29)
                0x000000009d000218                . = ALIGN (0x4)
                0x0000000000000218                __vector_offset_30 = DEFINED (__vector_dispatch_30)?(. - _ebase_address):__vector_offset_default
 *(.vector_30)
 .vector_30     0x000000009d000218        0x8 build/nsensor/production/_ext/1856863253/interrupts.o
                0x000000009d000218                __vector_dispatch_30
                0x000000009d000220                . = ALIGN (0x4)
                0x0000000000000278                __vector_offset_31 = DEFINED (__vector_dispatch_31)?(. - _ebase_address):__vector_offset_default
 *(.vector_31)
                0x000000009d000220                . = ALIGN (0x4)
                0x0000000000000278                __vector_offset_32 = DEFINED (__vector_dispatch_32)?(. - _ebase_address):__vector_offset_default
 *(.vector_32)
                0x000000009d000220                . = ALIGN (0x4)
                0x0000000000000278                __vector_offset_33 = DEFINED (__vector_dispatch_33)?(. - _ebase_address):__vector_offset_default
 *(.vector_33)
                0x000000009d000220                . = ALIGN (0x4)
                0x0000000000000278                __vector_offset_34 = DEFINED (__vector_dispatch_34)?(. - _ebase_address):__vector_offset_default
 *(.vector_34)
                0x000000009d000220                . = ALIGN (0x4)
                0x0000000000000278                __vector_offset_35 = DEFINED (__vector_dispatch_35)?(. - _ebase_address):__vector_offset_default
 *(.vector_35)
                0x000000009d000220                . = ALIGN (0x4)
                0x0000000000000220                __vector_offset_36 = DEFINED (__vector_dispatch_36)?(. - _ebase_address):__vector_offset_default
 *(.vector_36)
 .vector_36     0x000000009d000220        0x8 build/nsensor/production/_ext/1856863253/interrupts.o
                0x000000009d000220                __vector_dispatch_36
                0x000000009d000228                . = ALIGN (0x4)
                0x0000000000000228                __vector_offset_37 = DEFINED (__vector_dispatch_37)?(. - _ebase_address):__vector_offset_default
 *(.vector_37)
 .vector_37     0x000000009d000228        0x8 build/nsensor/production/_ext/1856863253/interrupts.o
                0x000000009d000228                __vector_dispatch_37
                0x000000009d000230                . = ALIGN (0x4)
                0x0000000000000278                __vector_offset_38 = DEFINED (__vector_dispatch_38)?(. - _ebase_address):__vector_offset_default
 *(.vector_38)
                0x000000009d000230                . = ALIGN (0x4)
                0x0000000000000278                __vector_offset_39 = DEFINED (__vector_dispatch_39)?(. - _ebase_address):__vector_offset_default
 *(.vector_39)
                0x000000009d000230                . = ALIGN (0x4)
                0x0000000000000278                __vector_offset_40 = DEFINED (__vector_dispatch_40)?(. - _ebase_address):__vector_offset_default
 *(.vector_40)
                0x000000009d000230                . = ALIGN (0x4)
                0x0000000000000278                __vector_offset_41 = DEFINED (__vector_dispatch_41)?(. - _ebase_address):__vector_offset_default
 *(.vector_41)
                0x000000009d000230                . = ALIGN (0x4)
                0x0000000000000278                __vector_offset_42 = DEFINED (__vector_dispatch_42)?(. - _ebase_address):__vector_offset_default
 *(.vector_42)
                0x000000009d000230                . = ALIGN (0x4)
                0x0000000000000278                __vector_offset_43 = DEFINED (__vector_dispatch_43)?(. - _ebase_address):__vector_offset_default
 *(.vector_43)
                0x000000009d000230                . = ALIGN (0x4)
                0x0000000000000278                __vector_offset_44 = DEFINED (__vector_dispatch_44)?(. - _ebase_address):__vector_offset_default
 *(.vector_44)
                0x000000009d000230                . = ALIGN (0x4)
                0x0000000000000278                __vector_offset_45 = DEFINED (__vector_dispatch_45)?(. - _ebase_address):__vector_offset_default
 *(.vector_45)
                0x000000009d000230                . = ALIGN (0x4)
                0x0000000000000278                __vector_offset_46 = DEFINED (__vector_dispatch_46)?(. - _ebase_address):__vector_offset_default
 *(.vector_46)
                0x000000009d000230                . = ALIGN (0x4)
                0x0000000000000278                __vector_offset_47 = DEFINED (__vector_dispatch_47)?(. - _ebase_address):__vector_offset_default
 *(.vector_47)
                0x000000009d000230                . = ALIGN (0x4)
                0x0000000000000278                __vector_offset_48 = DEFINED (__vector_dispatch_48)?(. - _ebase_address):__vector_offset_default
 *(.vector_48)
                0x000000009d000230                . = ALIGN (0x4)
                0x0000000000000278                __vector_offset_49 = DEFINED (__vector_dispatch_49)?(. - _ebase_address):__vector_offset_default
 *(.vector_49)
                0x000000009d000230                . = ALIGN (0x4)
                0x0000000000000278                __vector_offset_50 = DEFINED (__vector_dispatch_50)?(. - _ebase_address):__vector_offset_default
 *(.vector_50)
                0x000000009d000230                . = ALIGN (0x4)
                0x0000000000000278                __vector_offset_51 = DEFINED (__vector_dispatch_51)?(. - _ebase_address):__vector_offset_default
 *(.vector_51)
                0x000000009d000230                . = ALIGN (0x4)
                0x0000000000000278                __vector_offset_52 = DEFINED (__vector_dispatch_52)?(. - _ebase_address):__vector_offset_default
 *(.vector_52)
                0x000000009d000230                . = ALIGN (0x4)
                0x0000000000000278                __vector_offset_53 = DEFINED (__vector_dispatch_53)?(. - _ebase_address):__vector_offset_default
 *(.vector_53)
                0x000000009d000230                . = ALIGN (0x4)
                0x0000000000000230                __vector_offset_54 = DEFINED (__vector_dispatch_54)?(. - _ebase_address):__vector_offset_default
 *(.vector_54)
 .vector_54     0x000000009d000230        0x8 build/nsensor/production/_ext/1856863253/interrupts.o
                0x000000009d000230                __vector_dispatch_54
                0x000000009d000238                . = ALIGN (0x4)
                0x0000000000000238                __vector_offset_55 = DEFINED (__vector_dispatch_55)?(. - _ebase_address):__vector_offset_default
 *(.vector_55)
 .vector_55     0x000000009d000238        0x8 build/nsensor/production/_ext/1856863253/interrupts.o
                0x000000009d000238                __vector_dispatch_55
                0x000000009d000240                . = ALIGN (0x4)
                0x0000000000000278                __vector_offset_56 = DEFINED (__vector_dispatch_56)?(. - _ebase_address):__vector_offset_default
 *(.vector_56)
                0x000000009d000240                . = ALIGN (0x4)
                0x0000000000000278                __vector_offset_57 = DEFINED (__vector_dispatch_57)?(. - _ebase_address):__vector_offset_default
 *(.vector_57)
                0x000000009d000240                . = ALIGN (0x4)
                0x0000000000000278                __vector_offset_58 = DEFINED (__vector_dispatch_58)?(. - _ebase_address):__vector_offset_default
 *(.vector_58)
                0x000000009d000240                . = ALIGN (0x4)
                0x0000000000000278                __vector_offset_59 = DEFINED (__vector_dispatch_59)?(. - _ebase_address):__vector_offset_default
 *(.vector_59)
                0x000000009d000240                . = ALIGN (0x4)
                0x0000000000000278                __vector_offset_60 = DEFINED (__vector_dispatch_60)?(. - _ebase_address):__vector_offset_default
 *(.vector_60)
                0x000000009d000240                . = ALIGN (0x4)
                0x0000000000000278                __vector_offset_61 = DEFINED (__vector_dispatch_61)?(. - _ebase_address):__vector_offset_default
 *(.vector_61)
                0x000000009d000240                . = ALIGN (0x4)
                0x0000000000000278                __vector_offset_62 = DEFINED (__vector_dispatch_62)?(. - _ebase_address):__vector_offset_default
 *(.vector_62)
                0x000000009d000240                . = ALIGN (0x4)
                0x0000000000000278                __vector_offset_63 = DEFINED (__vector_dispatch_63)?(. - _ebase_address):__vector_offset_default
 *(.vector_63)
                0x000000009d000240                . = ALIGN (0x4)
                0x0000000000000278                __vector_offset_64 = DEFINED (__vector_dispatch_64)?(. - _ebase_address):__vector_offset_default
 *(.vector_64)
                0x000000009d000240                . = ALIGN (0x4)
                0x0000000000000278                __vector_offset_65 = DEFINED (__vector_dispatch_65)?(. - _ebase_address):__vector_offset_default
 *(.vector_65)
                0x000000009d000240                . = ALIGN (0x4)
                0x0000000000000278                __vector_offset_66 = DEFINED (__vector_dispatch_66)?(. - _ebase_address):__vector_offset_default
 *(.vector_66)
                0x000000009d000240                . = ALIGN (0x4)
                0x0000000000000278                __vector_offset_67 = DEFINED (__vector_dispatch_67)?(. - _ebase_address):__vector_offset_default
 *(.vector_67)
                0x000000009d000240                . = ALIGN (0x4)
                0x0000000000000278                __vector_offset_68 = DEFINED (__vector_dispatch_68)?(. - _ebase_address):__vector_offset_default
 *(.vector_68)
                0x000000009d000240                . = ALIGN (0x4)
                0x0000000000000278                __vector_offset_69 = DEFINED (__vector_dispatch_69)?(. - _ebase_address):__vector_offset_default
 *(.vector_69)
                0x000000009d000240                . = ALIGN (0x4)
                0x0000000000000278                __vector_offset_70 = DEFINED (__vector_dispatch_70)?(. - _ebase_address):__vector_offset_default
 *(.vector_70)
                0x000000009d000240                . = ALIGN (0x4)
                0x0000000000000278                __vector_offset_71 = DEFINED (__vector_dispatch_71)?(. - _ebase_address):__vector_offset_default
 *(.vector_71)
                0x000000009d000240                . = ALIGN (0x4)
                0x0000000000000240                __vector_offset_72 = DEFINED (__vector_dispatch_72)?(. - _ebase_address):__vector_offset_default
 *(.vector_72)
 .vector_72     0x000000009d000240        0x8 build/nsensor/production/_ext/1856863253/interrupts.o
                0x000000009d000240                __vector_dispatch_72
                0x000000009d000248                . = ALIGN (0x4)
                0x0000000000000248                __vector_offset_73 = DEFINED (__vector_dispatch_73)?(. - _ebase_address):__vector_offset_default
 *(.vector_73)
 .vector_73     0x000000009d000248        0x8 build/nsensor/production/_ext/1856863253/interrupts.o
                0x000000009d000248                __vector_dispatch_73
                0x000000009d000250                . = ALIGN (0x4)
                0x0000000000000250                __vector_offset_74 = DEFINED (__vector_dispatch_74)?(. - _ebase_address):__vector_offset_default
 *(.vector_74)
 .vector_74     0x000000009d000250        0x8 build/nsensor/production/_ext/1856863253/interrupts.o
                0x000000009d000250                __vector_dispatch_74
                0x000000009d000258                . = ALIGN (0x4)
                0x0000000000000278                __vector_offset_75 = DEFINED (__vector_dispatch_75)?(. - _ebase_address):__vector_offset_default
 *(.vector_75)
                0x000000009d000258                . = ALIGN (0x4)
                0x0000000000000258                __vector_offset_76 = DEFINED (__vector_dispatch_76)?(. - _ebase_address):__vector_offset_default
 *(.vector_76)
 .vector_76     0x000000009d000258        0x8 build/nsensor/production/_ext/1856863253/interrupts.o
                0x000000009d000258                __vector_dispatch_76
                0x000000009d000260                . = ALIGN (0x4)
                0x0000000000000278                __vector_offset_77 = DEFINED (__vector_dispatch_77)?(. - _ebase_address):__vector_offset_default
 *(.vector_77)
                0x000000009d000260                . = ALIGN (0x4)
                0x0000000000000278                __vector_offset_78 = DEFINED (__vector_dispatch_78)?(. - _ebase_address):__vector_offset_default
 *(.vector_78)
                0x000000009d000260                . = ALIGN (0x4)
                0x0000000000000278                __vector_offset_79 = DEFINED (__vector_dispatch_79)?(. - _ebase_address):__vector_offset_default
 *(.vector_79)
                0x000000009d000260                . = ALIGN (0x4)
                0x0000000000000278                __vector_offset_80 = DEFINED (__vector_dispatch_80)?(. - _ebase_address):__vector_offset_default
 *(.vector_80)
                0x000000009d000260                . = ALIGN (0x4)
                0x0000000000000278                __vector_offset_81 = DEFINED (__vector_dispatch_81)?(. - _ebase_address):__vector_offset_default
 *(.vector_81)
                0x000000009d000260                . = ALIGN (0x4)
                0x0000000000000278                __vector_offset_82 = DEFINED (__vector_dispatch_82)?(. - _ebase_address):__vector_offset_default
 *(.vector_82)
                0x000000009d000260                . = ALIGN (0x4)
                0x0000000000000278                __vector_offset_83 = DEFINED (__vector_dispatch_83)?(. - _ebase_address):__vector_offset_default
 *(.vector_83)
                0x000000009d000260                . = ALIGN (0x4)
                0x0000000000000278                __vector_offset_84 = DEFINED (__vector_dispatch_84)?(. - _ebase_address):__vector_offset_default
 *(.vector_84)
                0x000000009d000260                . = ALIGN (0x4)
                0x0000000000000278                __vector_offset_85 = DEFINED (__vector_dispatch_85)?(. - _ebase_address):__vector_offset_default
 *(.vector_85)
                0x000000009d000260                . = ALIGN (0x4)
                0x0000000000000278                __vector_offset_86 = DEFINED (__vector_dispatch_86)?(. - _ebase_address):__vector_offset_default
 *(.vector_86)
                0x000000009d000260                . = ALIGN (0x4)
                0x0000000000000278                __vector_offset_87 = DEFINED (__vector_dispatch_87)?(. - _ebase_address):__vector_offset_default
 *(.vector_87)
                0x000000009d000260                . = ALIGN (0x4)
                0x0000000000000278                __vector_offset_88 = DEFINED (__vector_dispatch_88)?(. - _ebase_address):__vector_offset_default
 *(.vector_88)
                0x000000009d000260                . = ALIGN (0x4)
                0x0000000000000278                __vector_offset_89 = DEFINED (__vector_dispatch_89)?(. - _ebase_address):__vector_offset_default
 *(.vector_89)
                0x000000009d000260                . = ALIGN (0x4)
                0x0000000000000278                __vector_offset_90 = DEFINED (__vector_dispatch_90)?(. - _ebase_address):__vector_offset_default
 *(.vector_90)
                0x000000009d000260                . = ALIGN (0x4)
                0x0000000000000278                __vector_offset_91 = DEFINED (__vector_dispatch_91)?(. - _ebase_address):__vector_offset_default
 *(.vector_91)
                0x000000009d000260                . = ALIGN (0x4)
                0x0000000000000278                __vector_offset_92 = DEFINED (__vector_dispatch_92)?(. - _ebase_address):__vector_offset_default
 *(.vector_92)
                0x000000009d000260                . = ALIGN (0x4)
                0x0000000000000278                __vector_offset_93 = DEFINED (__vector_dispatch_93)?(. - _ebase_address):__vector_offset_default
 *(.vector_93)
                0x000000009d000260                . = ALIGN (0x4)
                0x0000000000000278                __vector_offset_94 = DEFINED (__vector_dispatch_94)?(. - _ebase_address):__vector_offset_default
 *(.vector_94)
                0x000000009d000260                . = ALIGN (0x4)
                0x0000000000000278                __vector_offset_95 = DEFINED (__vector_dispatch_95)?(. - _ebase_address):__vector_offset_default
 *(.vector_95)
                0x000000009d000260                . = ALIGN (0x4)
                0x0000000000000278                __vector_offset_96 = DEFINED (__vector_dispatch_96)?(. - _ebase_address):__vector_offset_default
 *(.vector_96)
                0x000000009d000260                . = ALIGN (0x4)
                0x0000000000000278                __vector_offset_97 = DEFINED (__vector_dispatch_97)?(. - _ebase_address):__vector_offset_default
 *(.vector_97)
                0x000000009d000260                . = ALIGN (0x4)
                0x0000000000000278                __vector_offset_98 = DEFINED (__vector_dispatch_98)?(. - _ebase_address):__vector_offset_default
 *(.vector_98)
                0x000000009d000260                . = ALIGN (0x4)
                0x0000000000000278                __vector_offset_99 = DEFINED (__vector_dispatch_99)?(. - _ebase_address):__vector_offset_default
 *(.vector_99)
                0x000000009d000260                . = ALIGN (0x4)
                0x0000000000000278                __vector_offset_100 = DEFINED (__vector_dispatch_100)?(. - _ebase_address):__vector_offset_default
 *(.vector_100)
                0x000000009d000260                . = ALIGN (0x4)
                0x0000000000000278                __vector_offset_101 = DEFINED (__vector_dispatch_101)?(. - _ebase_address):__vector_offset_default
 *(.vector_101)
                0x000000009d000260                . = ALIGN (0x4)
                0x0000000000000278                __vector_offset_102 = DEFINED (__vector_dispatch_102)?(. - _ebase_address):__vector_offset_default
 *(.vector_102)
                0x000000009d000260                . = ALIGN (0x4)
                0x0000000000000278                __vector_offset_103 = DEFINED (__vector_dispatch_103)?(. - _ebase_address):__vector_offset_default
 *(.vector_103)
                0x000000009d000260                . = ALIGN (0x4)
                0x0000000000000278                __vector_offset_104 = DEFINED (__vector_dispatch_104)?(. - _ebase_address):__vector_offset_default
 *(.vector_104)
                0x000000009d000260                . = ALIGN (0x4)
                0x0000000000000278                __vector_offset_105 = DEFINED (__vector_dispatch_105)?(. - _ebase_address):__vector_offset_default
 *(.vector_105)
                0x000000009d000260                . = ALIGN (0x4)
                0x0000000000000278                __vector_offset_106 = DEFINED (__vector_dispatch_106)?(. - _ebase_address):__vector_offset_default
 *(.vector_106)
                0x000000009d000260                . = ALIGN (0x4)
                0x0000000000000278                __vector_offset_107 = DEFINED (__vector_dispatch_107)?(. - _ebase_address):__vector_offset_default
 *(.vector_107)
                0x000000009d000260                . = ALIGN (0x4)
                0x0000000000000278                __vector_offset_108 = DEFINED (__vector_dispatch_108)?(. - _ebase_address):__vector_offset_default
 *(.vector_108)
                0x000000009d000260                . = ALIGN (0x4)
                0x0000000000000278                __vector_offset_109 = DEFINED (__vector_dispatch_109)?(. - _ebase_address):__vector_offset_default
 *(.vector_109)
                0x000000009d000260                . = ALIGN (0x4)
                0x0000000000000278                __vector_offset_110 = DEFINED (__vector_dispatch_110)?(. - _ebase_address):__vector_offset_default
 *(.vector_110)
                0x000000009d000260                . = ALIGN (0x4)
                0x0000000000000278                __vector_offset_111 = DEFINED (__vector_dispatch_111)?(. - _ebase_address):__vector_offset_default
 *(.vector_111)
                0x000000009d000260                . = ALIGN (0x4)
                0x0000000000000278                __vector_offset_112 = DEFINED (__vector_dispatch_112)?(. - _ebase_address):__vector_offset_default
 *(.vector_112)
                0x000000009d000260                . = ALIGN (0x4)
                0x0000000000000278                __vector_offset_113 = DEFINED (__vector_dispatch_113)?(. - _ebase_address):__vector_offset_default
 *(.vector_113)
                0x000000009d000260                . = ALIGN (0x4)
                0x0000000000000278                __vector_offset_114 = DEFINED (__vector_dispatch_114)?(. - _ebase_address):__vector_offset_default
 *(.vector_114)
                0x000000009d000260                . = ALIGN (0x4)
                0x0000000000000278                __vector_offset_115 = DEFINED (__vector_dispatch_115)?(. - _ebase_address):__vector_offset_default
 *(.vector_115)
                0x000000009d000260                . = ALIGN (0x4)
                0x0000000000000278                __vector_offset_116 = DEFINED (__vector_dispatch_116)?(. - _ebase_address):__vector_offset_default
 *(.vector_116)
                0x000000009d000260                . = ALIGN (0x4)
                0x0000000000000278                __vector_offset_117 = DEFINED (__vector_dispatch_117)?(. - _ebase_address):__vector_offset_default
 *(.vector_117)
                0x000000009d000260                . = ALIGN (0x4)
                0x0000000000000278                __vector_offset_118 = DEFINED (__vector_dispatch_118)?(. - _ebase_address):__vector_offset_default
 *(.vector_118)
                0x000000009d000260                . = ALIGN (0x4)
                0x0000000000000278                __vector_offset_119 = DEFINED (__vector_dispatch_119)?(. - _ebase_address):__vector_offset_default
 *(.vector_119)
                0x000000009d000260                . = ALIGN (0x4)
                0x0000000000000278                __vector_offset_120 = DEFINED (__vector_dispatch_120)?(. - _ebase_address):__vector_offset_default
 *(.vector_120)
                0x000000009d000260                . = ALIGN (0x4)
                0x0000000000000278                __vector_offset_121 = DEFINED (__vector_dispatch_121)?(. - _ebase_address):__vector_offset_default
 *(.vector_121)
                0x000000009d000260                . = ALIGN (0x4)
                0x0000000000000278                __vector_offset_122 = DEFINED (__vector_dispatch_122)?(. - _ebase_address):__vector_offset_default
 *(.vector_122)
                0x000000009d000260                . = ALIGN (0x4)
                0x0000000000000278                __vector_offset_123 = DEFINED (__vector_dispatch_123)?(. - _ebase_address):__vector_offset_default
 *(.vector_123)
                0x000000009d000260                . = ALIGN (0x4)
                0x0000000000000278                __vector_offset_124 = DEFINED (__vector_dispatch_124)?(. - _ebase_address):__vector_offset_default
 *(.vector_124)
                0x000000009d000260                . = ALIGN (0x4)
                0x0000000000000278                __vector_offset_125 = DEFINED (__vector_dispatch_125)?(. - _ebase_address):__vector_offset_default
 *(.vector_125)
                0x000000009d000260                . = ALIGN (0x4)
                0x0000000000000278                __vector_offset_126 = DEFINED (__vector_dispatch_126)?(. - _ebase_address):__vector_offset_default
 *(.vector_126)
                0x000000009d000260                . = ALIGN (0x4)
                0x0000000000000278                __vector_offset_127 = DEFINED (__vector_dispatch_127)?(. - _ebase_address):__vector_offset_default
 *(.vector_127)
                0x000000009d000260                . = ALIGN (0x4)
                0x0000000000000278                __vector_offset_128 = DEFINED (__vector_dispatch_128)?(. - _ebase_address):__vector_offset_default
 *(.vector_128)
                0x000000009d000260                . = ALIGN (0x4)
                0x0000000000000278                __vector_offset_129 = DEFINED (__vector_dispatch_129)?(. - _ebase_address):__vector_offset_default
 *(.vector_129)
                0x000000009d000260                . = ALIGN (0x4)
                0x0000000000000278                __vector_offset_130 = DEFINED (__vector_dispatch_130)?(. - _ebase_address):__vector_offset_default
 *(.vector_130)
                0x000000009d000260                . = ALIGN (0x4)
                0x0000000000000278                __vector_offset_131 = DEFINED (__vector_dispatch_131)?(. - _ebase_address):__vector_offset_default
 *(.vector_131)
                0x000000009d000260                . = ALIGN (0x4)
                0x0000000000000278                __vector_offset_132 = DEFINED (__vector_dispatch_132)?(. - _ebase_address):__vector_offset_default
 *(.vector_132)
                0x000000009d000260                . = ALIGN (0x4)
                0x0000000000000278                __vector_offset_133 = DEFINED (__vector_dispatch_133)?(. - _ebase_address):__vector_offset_default
 *(.vector_133)
                0x000000009d000260                . = ALIGN (0x4)
                0x0000000000000278                __vector_offset_134 = DEFINED (__vector_dispatch_134)?(. - _ebase_address):__vector_offset_default
 *(.vector_134)
                0x000000009d000260                . = ALIGN (0x4)
                0x0000000000000278                __vector_offset_135 = DEFINED (__vector_dispatch_135)?(. - _ebase_address):__vector_offset_default
 *(.vector_135)
                0x000000009d000260                . = ALIGN (0x4)
                0x0000000000000278                __vector_offset_136 = DEFINED (__vector_dispatch_136)?(. - _ebase_address):__vector_offset_default
 *(.vector_136)
                0x000000009d000260                . = ALIGN (0x4)
                0x0000000000000278                __vector_offset_137 = DEFINED (__vector_dispatch_137)?(. - _ebase_address):__vector_offset_default
 *(.vector_137)
                0x000000009d000260                . = ALIGN (0x4)
                0x0000000000000278                __vector_offset_138 = DEFINED (__vector_dispatch_138)?(. - _ebase_address):__vector_offset_default
 *(.vector_138)
                0x000000009d000260                . = ALIGN (0x4)
                0x0000000000000278                __vector_offset_139 = DEFINED (__vector_dispatch_139)?(. - _ebase_address):__vector_offset_default
 *(.vector_139)
                0x000000009d000260                . = ALIGN (0x4)
                0x0000000000000278                __vector_offset_140 = DEFINED (__vector_dispatch_140)?(. - _ebase_address):__vector_offset_default
 *(.vector_140)
                0x000000009d000260                . = ALIGN (0x4)
                0x0000000000000278                __vector_offset_141 = DEFINED (__vector_dispatch_141)?(. - _ebase_address):__vector_offset_default
 *(.vector_141)
                0x000000009d000260                . = ALIGN (0x4)
                0x0000000000000278                __vector_offset_142 = DEFINED (__vector_dispatch_142)?(. - _ebase_address):__vector_offset_default
 *(.vector_142)
                0x000000009d000260                . = ALIGN (0x4)
                0x0000000000000278                __vector_offset_143 = DEFINED (__vector_dispatch_143)?(. - _ebase_address):__vector_offset_default
 *(.vector_143)
                0x000000009d000260                . = ALIGN (0x4)
                0x0000000000000278                __vector_offset_144 = DEFINED (__vector_dispatch_144)?(. - _ebase_address):__vector_offset_default
 *(.vector_144)
                0x000000009d000260                . = ALIGN (0x4)
                0x0000000000000278                __vector_offset_145 = DEFINED (__vector_dispatch_145)?(. - _ebase_address):__vector_offset_default
 *(.vector_145)
                0x000000009d000260                . = ALIGN (0x4)
                0x0000000000000278                __vector_offset_146 = DEFINED (__vector_dispatch_146)?(. - _ebase_address):__vector_offset_default
 *(.vector_146)
                0x000000009d000260                . = ALIGN (0x4)
                0x0000000000000278                __vector_offset_147 = DEFINED (__vector_dispatch_147)?(. - _ebase_address):__vector_offset_default
 *(.vector_147)
                0x000000009d000260                . = ALIGN (0x4)
                0x0000000000000278                __vector_offset_148 = DEFINED (__vector_dispatch_148)?(. - _ebase_address):__vector_offset_default
 *(.vector_148)
                0x000000009d000260                . = ALIGN (0x4)
                0x0000000000000278                __vector_offset_149 = DEFINED (__vector_dispatch_149)?(. - _ebase_address):__vector_offset_default
 *(.vector_149)
                0x000000009d000260                . = ALIGN (0x4)
                0x0000000000000278                __vector_offset_150 = DEFINED (__vector_dispatch_150)?(. - _ebase_address):__vector_offset_default
 *(.vector_150)
                0x000000009d000260                . = ALIGN (0x4)
                0x0000000000000278                __vector_offset_151 = DEFINED (__vector_dispatch_151)?(. - _ebase_address):__vector_offset_default
 *(.vector_151)
                0x000000009d000260                . = ALIGN (0x4)
                0x0000000000000278                __vector_offset_152 = DEFINED (__vector_dispatch_152)?(. - _ebase_address):__vector_offset_default
 *(.vector_152)
                0x000000009d000260                . = ALIGN (0x4)
                0x0000000000000278                __vector_offset_153 = DEFINED (__vector_dispatch_153)?(. - _ebase_address):__vector_offset_default
 *(.vector_153)
                0x000000009d000260                . = ALIGN (0x4)
                0x0000000000000278                __vector_offset_154 = DEFINED (__vector_dispatch_154)?(. - _ebase_address):__vector_offset_default
 *(.vector_154)
                0x000000009d000260                . = ALIGN (0x4)
                0x0000000000000278                __vector_offset_155 = DEFINED (__vector_dispatch_155)?(. - _ebase_address):__vector_offset_default
 *(.vector_155)
                0x000000009d000260                . = ALIGN (0x4)
                0x0000000000000278                __vector_offset_156 = DEFINED (__vector_dispatch_156)?(. - _ebase_address):__vector_offset_default
 *(.vector_156)
                0x000000009d000260                . = ALIGN (0x4)
                0x0000000000000278                __vector_offset_157 = DEFINED (__vector_dispatch_157)?(. - _ebase_address):__vector_offset_default
 *(.vector_157)
                0x000000009d000260                . = ALIGN (0x4)
                0x0000000000000278                __vector_offset_158 = DEFINED (__vector_dispatch_158)?(. - _ebase_address):__vector_offset_default
 *(.vector_158)
                0x000000009d000260                . = ALIGN (0x4)
                0x0000000000000278                __vector_offset_159 = DEFINED (__vector_dispatch_159)?(. - _ebase_address):__vector_offset_default
 *(.vector_159)
                0x000000009d000260                . = ALIGN (0x4)
                0x0000000000000278                __vector_offset_160 = DEFINED (__vector_dispatch_160)?(. - _ebase_address):__vector_offset_default
 *(.vector_160)
                0x000000009d000260                . = ALIGN (0x4)
                0x0000000000000278                __vector_offset_161 = DEFINED (__vector_dispatch_161)?(. - _ebase_address):__vector_offset_default
 *(.vector_161)
                0x000000009d000260                . = ALIGN (0x4)
                0x0000000000000278                __vector_offset_162 = DEFINED (__vector_dispatch_162)?(. - _ebase_address):__vector_offset_default
 *(.vector_162)
                0x000000009d000260                . = ALIGN (0x4)
                0x0000000000000278                __vector_offset_163 = DEFINED (__vector_dispatch_163)?(. - _ebase_address):__vector_offset_default
 *(.vector_163)
                0x000000009d000260                . = ALIGN (0x4)
                0x0000000000000278                __vector_offset_164 = DEFINED (__vector_dispatch_164)?(. - _ebase_address):__vector_offset_default
 *(.vector_164)
                0x000000009d000260                . = ALIGN (0x4)
                0x0000000000000278                __vector_offset_165 = DEFINED (__vector_dispatch_165)?(. - _ebase_address):__vector_offset_default
 *(.vector_165)
                0x000000009d000260                . = ALIGN (0x4)
                0x0000000000000278                __vector_offset_166 = DEFINED (__vector_dispatch_166)?(. - _ebase_address):__vector_offset_default
 *(.vector_166)
                0x000000009d000260                . = ALIGN (0x4)
                0x0000000000000260                __vector_offset_167 = DEFINED (__vector_dispatch_167)?(. - _ebase_address):__vector_offset_default
 *(.vector_167)
 .vector_167    0x000000009d000260        0x8 build/nsensor/production/_ext/1856863253/interrupts.o
                0x000000009d000260                __vector_dispatch_167
                0x000000009d000268                . = ALIGN (0x4)
                0x0000000000000278                __vector_offset_168 = DEFINED (__vector_dispatch_168)?(. - _ebase_address):__vector_offset_default
 *(.vector_168)
                0x000000009d000268                . = ALIGN (0x4)
                0x0000000000000278                __vector_offset_169 = DEFINED (__vector_dispatch_169)?(. - _ebase_address):__vector_offset_default
 *(.vector_169)
                0x000000009d000268                . = ALIGN (0x4)
                0x0000000000000268                __vector_offset_170 = DEFINED (__vector_dispatch_170)?(. - _ebase_address):__vector_offset_default
 *(.vector_170)
 .vector_170    0x000000009d000268        0x8 build/nsensor/production/_ext/1856863253/interrupts.o
                0x000000009d000268                __vector_dispatch_170
                0x000000009d000270                . = ALIGN (0x4)
                0x0000000000000278                __vector_offset_171 = DEFINED (__vector_dispatch_171)?(. - _ebase_address):__vector_offset_default
 *(.vector_171)
                0x000000009d000270                . = ALIGN (0x4)
                0x0000000000000278                __vector_offset_172 = DEFINED (__vector_dispatch_172)?(. - _ebase_address):__vector_offset_default
 *(.vector_172)
                0x000000009d000270                . = ALIGN (0x4)
                0x0000000000000278                __vector_offset_173 = DEFINED (__vector_dispatch_173)?(. - _ebase_address):__vector_offset_default
 *(.vector_173)
                0x000000009d000270                . = ALIGN (0x4)
                0x0000000000000278                __vector_offset_174 = DEFINED (__vector_dispatch_174)?(. - _ebase_address):__vector_offset_default
 *(.vector_174)
                0x000000009d000270                . = ALIGN (0x4)
                0x0000000000000278                __vector_offset_175 = DEFINED (__vector_dispatch_175)?(. - _ebase_address):__vector_offset_default
 *(.vector_175)
                0x000000009d000270                . = ALIGN (0x4)
                0x0000000000000278                __vector_offset_176 = DEFINED (__vector_dispatch_176)?(. - _ebase_address):__vector_offset_default
 *(.vector_176)
                0x000000009d000270                . = ALIGN (0x4)
                0x0000000000000278                __vector_offset_177 = DEFINED (__vector_dispatch_177)?(. - _ebase_address):__vector_offset_default
 *(.vector_177)
                0x000000009d000270                . = ALIGN (0x4)
                0x0000000000000278                __vector_offset_178 = DEFINED (__vector_dispatch_178)?(. - _ebase_address):__vector_offset_default
 *(.vector_178)
                0x000000009d000270                . = ALIGN (0x4)
                0x0000000000000278                __vector_offset_179 = DEFINED (__vector_dispatch_179)?(. - _ebase_address):__vector_offset_default
 *(.vector_179)
                0x000000009d000270                . = ALIGN (0x4)
                0x0000000000000278                __vector_offset_180 = DEFINED (__vector_dispatch_180)?(. - _ebase_address):__vector_offset_default
 *(.vector_180)
                0x000000009d000270                . = ALIGN (0x4)
                0x0000000000000278                __vector_offset_181 = DEFINED (__vector_dispatch_181)?(. - _ebase_address):__vector_offset_default
 *(.vector_181)
                0x000000009d000270                . = ALIGN (0x4)
                0x0000000000000278                __vector_offset_182 = DEFINED (__vector_dispatch_182)?(. - _ebase_address):__vector_offset_default
 *(.vector_182)
                0x000000009d000270                . = ALIGN (0x4)
                0x0000000000000278                __vector_offset_183 = DEFINED (__vector_dispatch_183)?(. - _ebase_address):__vector_offset_default
 *(.vector_183)
                0x000000009d000270                . = ALIGN (0x4)
                0x0000000000000278                __vector_offset_184 = DEFINED (__vector_dispatch_184)?(. - _ebase_address):__vector_offset_default
 *(.vector_184)
                0x000000009d000270                . = ALIGN (0x4)
                0x0000000000000270                __vector_offset_185 = DEFINED (__vector_dispatch_185)?(. - _ebase_address):__vector_offset_default
 *(.vector_185)
 .vector_185    0x000000009d000270        0x8 build/nsensor/production/_ext/1856863253/interrupts.o
                0x000000009d000270                __vector_dispatch_185
                0x000000009d000278                . = ALIGN (0x4)
                0x0000000000000278                __vector_offset_186 = DEFINED (__vector_dispatch_186)?(. - _ebase_address):__vector_offset_default
 *(.vector_186)
                0x000000009d000278                . = ALIGN (0x4)
                0x0000000000000278                __vector_offset_187 = DEFINED (__vector_dispatch_187)?(. - _ebase_address):__vector_offset_default
 *(.vector_187)
                0x000000009d000278                . = ALIGN (0x4)
                0x0000000000000278                __vector_offset_188 = DEFINED (__vector_dispatch_188)?(. - _ebase_address):__vector_offset_default
 *(.vector_188)
                0x000000009d000278                . = ALIGN (0x4)
                0x0000000000000278                __vector_offset_189 = DEFINED (__vector_dispatch_189)?(. - _ebase_address):__vector_offset_default
 *(.vector_189)
                0x000000009d000278                . = ALIGN (0x4)
                0x0000000000000278                __vector_offset_190 = DEFINED (__vector_dispatch_190)?(. - _ebase_address):__vector_offset_default
 *(.vector_190)
                0x000000009d000278                . = ALIGN (0x4)
                0x0000000000000278                __vector_offset_191 = DEFINED (__vector_dispatch_191)?(. - _ebase_address):__vector_offset_default
 *(.vector_191)
                0x000000009d000278                . = ALIGN (0x4)
                0x0000000000000278                __vector_offset_192 = DEFINED (__vector_dispatch_192)?(. - _ebase_address):__vector_offset_default
 *(.vector_192)
                0x000000009d000278                . = ALIGN (0x4)
                0x0000000000000278                __vector_offset_193 = DEFINED (__vector_dispatch_193)?(. - _ebase_address):__vector_offset_default
 *(.vector_193)
                0x000000009d000278                . = ALIGN (0x4)
                0x0000000000000278                __vector_offset_194 = DEFINED (__vector_dispatch_194)?(. - _ebase_address):__vector_offset_default
 *(.vector_194)
                0x000000009d000278                . = ALIGN (0x4)
                0x0000000000000278                __vector_offset_195 = DEFINED (__vector_dispatch_195)?(. - _ebase_address):__vector_offset_default
 *(.vector_195)
                0x000000009d000278                . = ALIGN (0x4)
                0x0000000000000278                __vector_offset_196 = DEFINED (__vector_dispatch_196)?(. - _ebase_address):__vector_offset_default
 *(.vector_196)
                0x000000009d000278                . = ALIGN (0x4)
                0x0000000000000278                __vector_offset_197 = DEFINED (__vector_dispatch_197)?(. - _ebase_address):__vector_offset_default
 *(.vector_197)
                0x000000009d000278                . = ALIGN (0x4)
                0x0000000000000278                __vector_offset_198 = DEFINED (__vector_dispatch_198)?(. - _ebase_address):__vector_offset_default
 *(.vector_198)
                0x000000009d000278                . = ALIGN (0x4)
                0x0000000000000278                __vector_offset_199 = DEFINED (__vector_dispatch_199)?(. - _ebase_address):__vector_offset_default
 *(.vector_199)
                0x000000009d000278                . = ALIGN (0x4)
                0x0000000000000278                __vector_offset_200 = DEFINED (__vector_dispatch_200)?(. - _ebase_address):__vector_offset_default
 *(.vector_200)
                0x000000009d000278                . = ALIGN (0x4)
                0x0000000000000278                __vector_offset_201 = DEFINED (__vector_dispatch_201)?(. - _ebase_address):__vector_offset_default
 *(.vector_201)
                0x000000009d000278                . = ALIGN (0x4)
                0x0000000000000278                __vector_offset_202 = DEFINED (__vector_dispatch_202)?(. - _ebase_address):__vector_offset_default
 *(.vector_202)
                0x000000009d000278                . = ALIGN (0x4)
                0x0000000000000278                __vector_offset_203 = DEFINED (__vector_dispatch_203)?(. - _ebase_address):__vector_offset_default
 *(.vector_203)
                0x000000009d000278                . = ALIGN (0x4)
                0x0000000000000278                __vector_offset_204 = DEFINED (__vector_dispatch_204)?(. - _ebase_address):__vector_offset_default
 *(.vector_204)
                0x000000009d000278                . = ALIGN (0x4)
                0x0000000000000278                __vector_offset_205 = DEFINED (__vector_dispatch_205)?(. - _ebase_address):__vector_offset_default
 *(.vector_205)
                0x000000009d000278                . = ALIGN (0x4)
                0x0000000000000278                __vector_offset_206 = DEFINED (__vector_dispatch_206)?(. - _ebase_address):__vector_offset_default
 *(.vector_206)
                0x000000009d000278                . = ALIGN (0x4)
                0x0000000000000278                __vector_offset_207 = DEFINED (__vector_dispatch_207)?(. - _ebase_address):__vector_offset_default
 *(.vector_207)
                0x000000009d000278                . = ALIGN (0x4)
                0x0000000000000278                __vector_offset_208 = DEFINED (__vector_dispatch_208)?(. - _ebase_address):__vector_offset_default
 *(.vector_208)
                0x000000009d000278                . = ALIGN (0x4)
                0x0000000000000278                __vector_offset_209 = DEFINED (__vector_dispatch_209)?(. - _ebase_address):__vector_offset_default
 *(.vector_209)
                0x000000009d000278                . = ALIGN (0x4)
                0x0000000000000278                __vector_offset_210 = DEFINED (__vector_dispatch_210)?(. - _ebase_address):__vector_offset_default
 *(.vector_210)
                0x000000009d000278                . = ALIGN (0x4)
                0x0000000000000278                __vector_offset_211 = DEFINED (__vector_dispatch_211)?(. - _ebase_address):__vector_offset_default
 *(.vector_211)
                0x000000009d000278                . = ALIGN (0x4)
                0x0000000000000278                __vector_offset_212 = DEFINED (__vector_dispatch_212)?(. - _ebase_address):__vector_offset_default
 *(.vector_212)
                0x000000009d000278                . = ALIGN (0x4)
                0x0000000000000278                __vector_offset_213 = DEFINED (__vector_dispatch_213)?(. - _ebase_address):__vector_offset_default
 *(.vector_213)
                0x000000009d000278                . = ALIGN (0x4)
                0x0000000000000278                __vector_offset_214 = DEFINED (__vector_dispatch_214)?(. - _ebase_address):__vector_offset_default
 *(.vector_214)
                0x000000009d000278                . = ALIGN (0x4)
                0x0000000000000278                __vector_offset_215 = DEFINED (__vector_dispatch_215)?(. - _ebase_address):__vector_offset_default
 *(.vector_215)
                0x000000009d000278                . = ALIGN (0x4)
                0x0000000000000278                __vector_offset_216 = DEFINED (__vector_dispatch_216)?(. - _ebase_address):__vector_offset_default
 *(.vector_216)
                0x000000009d000278                . = ALIGN (0x4)
                0x0000000000000278                __vector_offset_217 = DEFINED (__vector_dispatch_217)?(. - _ebase_address):__vector_offset_default
 *(.vector_217)
                0x000000009d000278                . = ALIGN (0x4)
                0x0000000000000278                __vector_offset_218 = DEFINED (__vector_dispatch_218)?(. - _ebase_address):__vector_offset_default
 *(.vector_218)
                0x000000009d000278                . = ALIGN (0x4)
                0x0000000000000278                __vector_offset_219 = DEFINED (__vector_dispatch_219)?(. - _ebase_address):__vector_offset_default
 *(.vector_219)
                0x000000009d000278                . = ALIGN (0x4)
                0x0000000000000278                __vector_offset_220 = DEFINED (__vector_dispatch_220)?(. - _ebase_address):__vector_offset_default
 *(.vector_220)
                0x000000009d000278                . = ALIGN (0x4)
                0x0000000000000278                __vector_offset_221 = DEFINED (__vector_dispatch_221)?(. - _ebase_address):__vector_offset_default
 *(.vector_221)
                0x000000009d000278                . = ALIGN (0x4)
                0x0000000000000278                __vector_offset_222 = DEFINED (__vector_dispatch_222)?(. - _ebase_address):__vector_offset_default
 *(.vector_222)
                0x000000009d000278                . = ALIGN (0x4)
                0x0000000000000278                __vector_offset_223 = DEFINED (__vector_dispatch_223)?(. - _ebase_address):__vector_offset_default
 *(.vector_223)
                0x000000009d000278                . = ALIGN (0x4)
                0x0000000000000278                __vector_offset_224 = DEFINED (__vector_dispatch_224)?(. - _ebase_address):__vector_offset_default
 *(.vector_224)
                0x000000009d000278                . = ALIGN (0x4)
                0x0000000000000278                __vector_offset_225 = DEFINED (__vector_dispatch_225)?(. - _ebase_address):__vector_offset_default
 *(.vector_225)
                0x000000009d000278                . = ALIGN (0x4)
                0x0000000000000278                __vector_offset_226 = DEFINED (__vector_dispatch_226)?(. - _ebase_address):__vector_offset_default
 *(.vector_226)
                0x000000009d000278                . = ALIGN (0x4)
                0x0000000000000278                __vector_offset_227 = DEFINED (__vector_dispatch_227)?(. - _ebase_address):__vector_offset_default
 *(.vector_227)
                0x000000009d000278                . = ALIGN (0x4)
                0x0000000000000278                __vector_offset_228 = DEFINED (__vector_dispatch_228)?(. - _ebase_address):__vector_offset_default
 *(.vector_228)
                0x000000009d000278                . = ALIGN (0x4)
                0x0000000000000278                __vector_offset_229 = DEFINED (__vector_dispatch_229)?(. - _ebase_address):__vector_offset_default
 *(.vector_229)
                0x000000009d000278                . = ALIGN (0x4)
                0x0000000000000278                __vector_offset_230 = DEFINED (__vector_dispatch_230)?(. - _ebase_address):__vector_offset_default
 *(.vector_230)
                0x000000009d000278                . = ALIGN (0x4)
                0x0000000000000278                __vector_offset_231 = DEFINED (__vector_dispatch_231)?(. - _ebase_address):__vector_offset_default
 *(.vector_231)
                0x000000009d000278                . = ALIGN (0x4)
                0x0000000000000278                __vector_offset_232 = DEFINED (__vector_dispatch_232)?(. - _ebase_address):__vector_offset_default
 *(.vector_232)
                0x000000009d000278                . = ALIGN (0x4)
                0x0000000000000278                __vector_offset_233 = DEFINED (__vector_dispatch_233)?(. - _ebase_address):__vector_offset_default
 *(.vector_233)
                0x000000009d000278                . = ALIGN (0x4)
                0x0000000000000278                __vector_offset_234 = DEFINED (__vector_dispatch_234)?(. - _ebase_address):__vector_offset_default
 *(.vector_234)
                0x000000009d000278                . = ALIGN (0x4)
                0x0000000000000278                __vector_offset_235 = DEFINED (__vector_dispatch_235)?(. - _ebase_address):__vector_offset_default
 *(.vector_235)
                0x000000009d000278                . = ALIGN (0x4)
                0x0000000000000278                __vector_offset_236 = DEFINED (__vector_dispatch_236)?(. - _ebase_address):__vector_offset_default
 *(.vector_236)
                0x000000009d000278                . = ALIGN (0x4)
                0x0000000000000278                __vector_offset_237 = DEFINED (__vector_dispatch_237)?(. - _ebase_address):__vector_offset_default
 *(.vector_237)
                0x000000009d000278                . = ALIGN (0x4)
                0x0000000000000278                __vector_offset_238 = DEFINED (__vector_dispatch_238)?(. - _ebase_address):__vector_offset_default
 *(.vector_238)
                0x000000009d000278                . = ALIGN (0x4)
                0x0000000000000278                __vector_offset_239 = DEFINED (__vector_dispatch_239)?(. - _ebase_address):__vector_offset_default
 *(.vector_239)
                0x000000009d000278                . = ALIGN (0x4)
                0x0000000000000278                __vector_offset_240 = DEFINED (__vector_dispatch_240)?(. - _ebase_address):__vector_offset_default
 *(.vector_240)
                0x000000009d000278                . = ALIGN (0x4)
                0x0000000000000278                __vector_offset_241 = DEFINED (__vector_dispatch_241)?(. - _ebase_address):__vector_offset_default
 *(.vector_241)
                0x000000009d000278                . = ALIGN (0x4)
                0x0000000000000278                __vector_offset_242 = DEFINED (__vector_dispatch_242)?(. - _ebase_address):__vector_offset_default
 *(.vector_242)
                0x000000009d000278                . = ALIGN (0x4)
                0x0000000000000278                __vector_offset_243 = DEFINED (__vector_dispatch_243)?(. - _ebase_address):__vector_offset_default
 *(.vector_243)
                0x000000009d000278                . = ALIGN (0x4)
                0x0000000000000278                __vector_offset_244 = DEFINED (__vector_dispatch_244)?(. - _ebase_address):__vector_offset_default
 *(.vector_244)
                0x000000009d000278                . = ALIGN (0x4)
                0x0000000000000278                __vector_offset_245 = DEFINED (__vector_dispatch_245)?(. - _ebase_address):__vector_offset_default
 *(.vector_245)
                0x000000009d000278                . = ALIGN (0x4)
                0x0000000000000278                __vector_offset_246 = DEFINED (__vector_dispatch_246)?(. - _ebase_address):__vector_offset_default
 *(.vector_246)
                0x000000009d000278                . = ALIGN (0x4)
                0x0000000000000278                __vector_offset_247 = DEFINED (__vector_dispatch_247)?(. - _ebase_address):__vector_offset_default
 *(.vector_247)
                0x000000009d000278                . = ALIGN (0x4)
                0x0000000000000278                __vector_offset_248 = DEFINED (__vector_dispatch_248)?(. - _ebase_address):__vector_offset_default
 *(.vector_248)
                0x000000009d000278                . = ALIGN (0x4)
                0x0000000000000278                __vector_offset_249 = DEFINED (__vector_dispatch_249)?(. - _ebase_address):__vector_offset_default
 *(.vector_249)
                0x000000009d000278                . = ALIGN (0x4)
                0x0000000000000278                __vector_offset_250 = DEFINED (__vector_dispatch_250)?(. - _ebase_address):__vector_offset_default
 *(.vector_250)
                0x000000009d000278                . = ALIGN (0x4)
                0x0000000000000278                __vector_offset_251 = DEFINED (__vector_dispatch_251)?(. - _ebase_address):__vector_offset_default
 *(.vector_251)
                0x000000009d000278                . = ALIGN (0x4)
                0x0000000000000278                __vector_offset_252 = DEFINED (__vector_dispatch_252)?(. - _ebase_address):__vector_offset_default
 *(.vector_252)
                0x000000009d000278                . = ALIGN (0x4)
                0x0000000000000278                __vector_offset_253 = DEFINED (__vector_dispatch_253)?(. - _ebase_address):__vector_offset_default
 *(.vector_253)
                0x000000009d000278                . = ALIGN (0x4)
                0x0000000000000278                __vector_offset_254 = DEFINED (__vector_dispatch_254)?(. - _ebase_address):__vector_offset_default
 *(.vector_254)
                0x000000009d000278                . = ALIGN (0x4)
                0x0000000000000278                __vector_offset_255 = DEFINED (__vector_dispatch_255)?(. - _ebase_address):__vector_offset_default
 *(.vector_255)
                0x000000009d000278                . = ALIGN (0x4)
                0x0000000000000278                __vector_offset_default = (. - _ebase_address)
 *(.vector_default)
 .vector_default
                0x000000009d000278       0x48 c:/program files/microchip/xc32/v4.20/bin/bin/../../lib/gcc/pic32mx/8.3.1/../../../../pic32mx/lib/fpu64\libpic32.a(defaultinterrupt.o)
                0x000000009d000278                _DefaultInterrupt

.startup
 *(.startup)

.text           0x000000009d0002c0        0x0
 *(.stub .gnu.linkonce.t.*)
 *(.text.*personality*)
 *(.mips16.fn.*)
 *(.mips16.call.*)
 *(.gnu.warning)
                0x000000009d0002c0                . = ALIGN (0x4)

.init           0x000000009d0002c0        0x0
 *crti.o(.init)
 *crtbegin.o(.init)
 *(EXCLUDE_FILE(*crtn.o *crtend?.o *crtend.o) .init)
 *crtend.o(.init)
 *crtn.o(.init)
                0x000000009d0002c0                . = ALIGN (0x4)

.fini           0x000000009d0002c0        0x0
 *(.fini)
                0x000000009d0002c0                . = ALIGN (0x4)

.preinit_array  0x000000009d0002c0        0x0
                [!provide]                        PROVIDE (__preinit_array_start = .)
 *(.preinit_array)
                [!provide]                        PROVIDE (__preinit_array_end = .)
                0x000000009d0002c0                . = ALIGN (0x4)

.init_array     0x000000009d0002c0        0x0
                [!provide]                        PROVIDE (__init_array_start = .)
 *(SORT_BY_NAME(.init_array.*))
 *(.init_array)
                [!provide]                        PROVIDE (__init_array_end = .)
                0x000000009d0002c0                . = ALIGN (0x4)

.fini_array     0x000000009d0002c0        0x0
                [!provide]                        PROVIDE (__fini_array_start = .)
 *(SORT_BY_NAME(.fini_array.*))
 *(.fini_array)
                [!provide]                        PROVIDE (__fini_array_end = .)
                0x000000009d0002c0                . = ALIGN (0x4)

.ctors          0x000000009d0002c0        0x0
 *crtbegin.o(.ctors)
 *crtbegin?.o(.ctors)
 *(EXCLUDE_FILE(*crtend?.o *crtend.o) .ctors)
 *(SORT_BY_NAME(.ctors.*))
 *(.ctors)
                0x000000009d0002c0                . = ALIGN (0x4)

.dtors          0x000000009d0002c0        0x0
 *crtbegin.o(.dtors)
 *crtbegin?.o(.dtors)
 *(EXCLUDE_FILE(*crtend?.o *crtend.o) .dtors)
 *(SORT_BY_NAME(.dtors.*))
 *(.dtors)
                0x000000009d0002c0                . = ALIGN (0x4)

.rodata         0x000000009d0002c0        0x0
 *(.gnu.linkonce.r.*)
 *(.rodata1)
                0x000000009d0002c0                . = ALIGN (0x4)

.sdata2         0x000000009d0002c0        0x0
 *(.sdata2 .sdata2.* .gnu.linkonce.s2.*)
                0x000000009d0002c0                . = ALIGN (0x4)

.sbss2          0x000000009d0002c0        0x0
 *(.sbss2 .sbss2.* .gnu.linkonce.sb2.*)
                0x000000009d0002c0                . = ALIGN (0x4)

.eh_frame_hdr
 *(.eh_frame_hdr)
                0x000000009d0002c0                . = ALIGN (0x4)

.eh_frame
 *(.eh_frame)
                0x000000009d0002c0                . = ALIGN (0x4)

.gcc_except_table
 *(.gcc_except_table .gcc_except_table.*)
                0x000000009d0002c0                . = ALIGN (0x4)

.dbg_data       0x0000000080000000        0x0
                0x0000000080000000                . = (. + DEFINED (_DEBUGGER)?0x200:0x0)
                0x0000000080000000                . = (. + DEFINED (_DEBUGGER)?0x80:0x0)
                0x0000000080000000                . = (. + DEFINED (_DEBUGGER)?0x100:0x0)

.jcr            0x0000000080000000        0x0
 *(.jcr)
                0x0000000080000000                . = ALIGN (0x4)

.eh_frame
 *(.eh_frame)
                0x0000000080000000                . = ALIGN (0x4)

.gcc_except_table
 *(.gcc_except_table .gcc_except_table.*)
                0x0000000080000000                . = ALIGN (0x4)

.persist        0x0000000080000000        0x0
                0x0000000080000000                _persist_begin = .
 *(.persist .persist.*)
                0x0000000080000000                . = ALIGN (0x4)
                0x0000000080000000                _persist_end = .

.data           0x0000000080000000        0x0
 *(.gnu.linkonce.d.*)
 *(.data1)
                0x0000000080000000                . = ALIGN (0x4)
                0x0000000080000000                . = .
                0x0000000080007ff0                _gp = (ALIGN (0x10) + 0x7ff0)

.got            0x0000000080000000        0x0
 *(.got.plt)
 *(.got)
                0x0000000080000000                . = ALIGN (0x4)

.sdata          0x0000000080000000       0x94
                0x0000000080000000                _sdata_begin = .
 *(.sdata .sdata.* .gnu.linkonce.s.*)
 .sdata         0x0000000080000000        0x4 build/nsensor/production/_ext/1684788505/OledDriver.o
 .sdata         0x0000000080000004        0xf build/nsensor/production/_ext/1360937237/bma490l.o
                0x0000000080000008                R_ST_CMD
 *fill*         0x0000000080000013        0x5 
 .sdata         0x0000000080000018       0x40 build/nsensor/production/_ext/1360937237/gfx.o
                0x0000000080000050                q0
 .sdata         0x0000000080000058        0x8 build/nsensor/production/_ext/1360937237/fft.o
                0x0000000080000058                fft_gain
 .sdata         0x0000000080000060        0x8 build/nsensor/production/_ext/1360937237/main.o
                0x0000000080000060                cpu_serial_id
                0x0000000080000064                board_serial_id
 .sdata         0x0000000080000068        0x4 build/nsensor/production/_ext/1360937237/canfd.o
 *fill*         0x000000008000006c        0x4 
 .sdata         0x0000000080000070       0x24 build/nsensor/production/_ext/1360937237/host.o
                0x0000000080000078                spid
                0x0000000080000080                host_cpu_serial_id
                0x0000000080000088                build_time
                0x000000008000008c                build_date
                0x0000000080000094                . = ALIGN (0x4)
                0x0000000080000094                _sdata_end = .

.lit8
 *(.lit8)

.lit4
 *(.lit4)
                0x0000000080000094                . = ALIGN (0x4)
                0x0000000080000094                _data_end = .
                0x0000000080000094                _bss_begin = .

.sbss           0x0000000080000094      0x194
                0x0000000080000094                _sbss_begin = .
 *(.dynsbss)
 *(.sbss .sbss.* .gnu.linkonce.sb.*)
 .sbss          0x0000000080000094        0x2 build/nsensor/production/_ext/1684788505/dogm-graphic.o
                0x0000000080000094                lcd_current_column
                0x0000000080000095                lcd_current_page
 *fill*         0x0000000080000096        0x2 
 .sbss          0x0000000080000098        0x5 build/nsensor/production/_ext/1684788505/eadog.o
 *fill*         0x000000008000009d        0x3 
 .sbss          0x00000000800000a0        0x4 build/nsensor/production/_ext/1684788505/lcd_drv.o
 .sbss          0x00000000800000a4       0x14 build/nsensor/production/_ext/1684788505/OledChar.o
                0x00000000800000a4                pbOledFontExt
                0x00000000800000a8                ychOledMax
                0x00000000800000ac                xchOledMax
                0x00000000800000b0                ychOledCur
                0x00000000800000b4                xchOledCur
 .sbss          0x00000000800000b8       0x35 build/nsensor/production/_ext/1684788505/OledDriver.o
                0x00000000800000c0                pbOledFontUser
                0x00000000800000c4                pbOledFontCur
                0x00000000800000c8                dycoOledFontCur
                0x00000000800000cc                dxcoOledFontCur
                0x00000000800000d0                fOledCharUpdate
                0x00000000800000d4                pbOledPatCur
                0x00000000800000d8                clrOledCur
                0x00000000800000dc                bnOledCur
                0x00000000800000e0                pbOledCur
                0x00000000800000e4                ycoOledCur
                0x00000000800000e8                xcoOledCur
                0x00000000800000ec                disp_frame
 *fill*         0x00000000800000ed        0x3 
 .sbss          0x00000000800000f0        0x8 build/nsensor/production/_ext/1684788505/OledGrph.o
                0x00000000800000f0                modOledCur
                0x00000000800000f4                pfnDoRop
 .sbss          0x00000000800000f8       0x14 build/nsensor/production/_ext/1965004555/plib_canfd1.o
 .sbss          0x000000008000010c        0x8 build/nsensor/production/_ext/2014902340/plib_evic.o
                0x000000008000010c                extInt2CbObj
 .sbss          0x0000000080000114        0x8 build/nsensor/production/_ext/619197180/plib_qei2.o
                0x0000000080000114                qei2Obj
 .sbss          0x000000008000011c        0x8 build/nsensor/production/_ext/2015287515/plib_rtcc.o
 .sbss          0x0000000080000124        0x8 build/nsensor/production/_ext/619200320/plib_tmr5.o
 .sbss          0x000000008000012c        0x8 build/nsensor/production/_ext/619200320/plib_tmr3.o
 .sbss          0x0000000080000134        0x8 build/nsensor/production/_ext/619200320/plib_tmr6.o
 .sbss          0x000000008000013c        0x8 build/nsensor/production/_ext/619200320/plib_tmr2.o
 *fill*         0x0000000080000144        0x4 
 .sbss          0x0000000080000148       0x54 build/nsensor/production/_ext/1360937237/gfx.o
                0x0000000080000178                q3
                0x0000000080000180                q2
                0x0000000080000188                q1
                0x0000000080000190                za
                0x0000000080000194                ya
                0x0000000080000198                xa
 *fill*         0x000000008000019c        0x4 
 .sbss          0x00000000800001a0       0x18 build/nsensor/production/_ext/1360937237/do_fft.o
 .sbss          0x00000000800001b8        0xc build/nsensor/production/_ext/1360937237/main.o
                0x00000000800001c0                host_ptr
 .sbss          0x00000000800001c4       0x2c build/nsensor/production/_ext/1360937237/canfd.o
 .sbss          0x00000000800001f0       0x34 build/nsensor/production/_ext/1360937237/host.o
                0x00000000800001f8                times
                0x00000000800001fc                txe
                0x00000000800001fd                rxe
 .sbss          0x0000000080000224        0x1 build/nsensor/production/_ext/1360937237/cmd_scanner.o
                0x0000000080000224                res
 *(.scommon)
                0x0000000080000225                _sbss_end = .
                0x0000000080000228                . = ALIGN (0x4)
 *fill*         0x0000000080000225        0x3 

.bss            0x0000000080000228        0x0
 *(.dynbss)
 *(COMMON)
                0x0000000080000228                . = ALIGN ((. != 0x0)?0x4:0x1)
                0x0000000080000228                . = ALIGN (0x4)
                0x0000000080000228                _end = .
                0x0000000080000228                _bss_end = .
                0x0000000000010000                _bmxdudba_address = LENGTH (kseg0_data_mem)
                0x0000000000010000                _bmxdupba_address = LENGTH (kseg0_data_mem)

/DISCARD/
 *(.pdr)
 *(.rel.dyn)
 *(.note.GNU-stack)
 *(.note.GNU-stack)
 *(.gnu_debuglink)
 *(.gnu.lto_*)
 *(.discard)

.gptab.sdata
 *(.gptab.data)
 *(.gptab.sdata)

.gptab.sbss
 *(.gptab.bss)
 *(.gptab.sbss)

.mdebug.abi32   0x0000000000000000        0x0
 *(.mdebug.abi32)
 .mdebug.abi32  0x0000000000000000        0x0 build/nsensor/production/_ext/1684788505/ChrFont0.o
 .mdebug.abi32  0x0000000000000000        0x0 build/nsensor/production/_ext/1684788505/dogm-graphic.o
 .mdebug.abi32  0x0000000000000000        0x0 build/nsensor/production/_ext/1684788505/eadog.o
 .mdebug.abi32  0x0000000000000000        0x0 build/nsensor/production/_ext/1684788505/FillPat.o
 .mdebug.abi32  0x0000000000000000        0x0 build/nsensor/production/_ext/1684788505/foo.o
 .mdebug.abi32  0x0000000000000000        0x0 build/nsensor/production/_ext/1684788505/lcd_drv.o
 .mdebug.abi32  0x0000000000000000        0x0 build/nsensor/production/_ext/1684788505/OledChar.o
 .mdebug.abi32  0x0000000000000000        0x0 build/nsensor/production/_ext/1684788505/OledDriver.o
 .mdebug.abi32  0x0000000000000000        0x0 build/nsensor/production/_ext/1684788505/OledGrph.o
 .mdebug.abi32  0x0000000000000000        0x0 build/nsensor/production/_ext/1966772718/plib_adchs.o
 .mdebug.abi32  0x0000000000000000        0x0 build/nsensor/production/_ext/1965004555/plib_canfd1.o
 .mdebug.abi32  0x0000000000000000        0x0 build/nsensor/production/_ext/619183945/plib_clk.o
 .mdebug.abi32  0x0000000000000000        0x0 build/nsensor/production/_ext/1664108525/plib_coretimer.o
 .mdebug.abi32  0x0000000000000000        0x0 build/nsensor/production/_ext/2014863652/plib_dmac.o
 .mdebug.abi32  0x0000000000000000        0x0 build/nsensor/production/_ext/2014902340/plib_evic.o
 .mdebug.abi32  0x0000000000000000        0x0 build/nsensor/production/_ext/2014956168/plib_gpio.o
 .mdebug.abi32  0x0000000000000000        0x0 build/nsensor/production/_ext/1955707305/plib_mcpwm.o
 .mdebug.abi32  0x0000000000000000        0x0 build/nsensor/production/_ext/619197180/plib_qei2.o
 .mdebug.abi32  0x0000000000000000        0x0 build/nsensor/production/_ext/2015287515/plib_rtcc.o
 .mdebug.abi32  0x0000000000000000        0x0 build/nsensor/production/_ext/1877210129/plib_spi1_master.o
 .mdebug.abi32  0x0000000000000000        0x0 build/nsensor/production/_ext/1877210129/plib_spi2_master.o
 .mdebug.abi32  0x0000000000000000        0x0 build/nsensor/production/_ext/619200320/plib_tmr9.o
 .mdebug.abi32  0x0000000000000000        0x0 build/nsensor/production/_ext/619200320/plib_tmr5.o
 .mdebug.abi32  0x0000000000000000        0x0 build/nsensor/production/_ext/619200320/plib_tmr3.o
 .mdebug.abi32  0x0000000000000000        0x0 build/nsensor/production/_ext/619200320/plib_tmr6.o
 .mdebug.abi32  0x0000000000000000        0x0 build/nsensor/production/_ext/619200320/plib_tmr2.o
 .mdebug.abi32  0x0000000000000000        0x0 build/nsensor/production/_ext/2015359111/plib_uart1.o
 .mdebug.abi32  0x0000000000000000        0x0 build/nsensor/production/_ext/725740559/xc32_monitor.o
 .mdebug.abi32  0x0000000000000000        0x0 build/nsensor/production/_ext/1856863253/exceptions.o
 .mdebug.abi32  0x0000000000000000        0x0 build/nsensor/production/_ext/1856863253/interrupts.o
 .mdebug.abi32  0x0000000000000000        0x0 build/nsensor/production/_ext/1856863253/initialization.o
 .mdebug.abi32  0x0000000000000000        0x0 build/nsensor/production/_ext/1360937237/bma490l.o
 .mdebug.abi32  0x0000000000000000        0x0 build/nsensor/production/_ext/1360937237/timers.o
 .mdebug.abi32  0x0000000000000000        0x0 build/nsensor/production/_ext/1360937237/sca3300.o
 .mdebug.abi32  0x0000000000000000        0x0 build/nsensor/production/_ext/1360937237/gfx.o
 .mdebug.abi32  0x0000000000000000        0x0 build/nsensor/production/_ext/1360937237/imu.o
 .mdebug.abi32  0x0000000000000000        0x0 build/nsensor/production/_ext/1360937237/pid.o
 .mdebug.abi32  0x0000000000000000        0x0 build/nsensor/production/_ext/1360937237/do_fft.o
 .mdebug.abi32  0x0000000000000000        0x0 build/nsensor/production/_ext/1360937237/fft.o
 .mdebug.abi32  0x0000000000000000        0x0 build/nsensor/production/_ext/1360937237/main.o
 .mdebug.abi32  0x0000000000000000        0x0 build/nsensor/production/_ext/1360937237/canfd.o
 .mdebug.abi32  0x0000000000000000        0x0 build/nsensor/production/_ext/1360937237/host.o
 .mdebug.abi32  0x0000000000000000        0x0 build/nsensor/production/_ext/1360937237/cmd_scanner.o
 .mdebug.abi32  0x0000000000000000        0x0 c:/program files/microchip/xc32/v4.20/bin/bin/../../lib/gcc/pic32mx/8.3.1/../../../../pic32mx/lib/fpu64\libpic32.a(default-on-reset.o)
 .mdebug.abi32  0x0000000000000000        0x0 c:/program files/microchip/xc32/v4.20/bin/bin/../../lib/gcc/pic32mx/8.3.1/../../../../pic32mx/lib/fpu64\libpic32.a(default-on-bootstrap.o)
 .mdebug.abi32  0x0000000000000000        0x0 c:/program files/microchip/xc32/v4.20/bin/bin/../../lib/gcc/pic32mx/8.3.1/../../../../pic32mx/lib/fpu64\libpic32.a(defaultinterrupt.o)
 .mdebug.abi32  0x0000000000000000        0x0 c:/program files/microchip/xc32/v4.20/bin/bin/../../lib/gcc/pic32mx/8.3.1/../../../../pic32mx/lib/fpu64\libc-musl.a(__sio_printf_s.o)
 .mdebug.abi32  0x0000000000000000        0x0 c:/program files/microchip/xc32/v4.20/bin/bin/../../lib/gcc/pic32mx/8.3.1/../../../../pic32mx/lib/fpu64\libc-musl.a(__sio_sprintf_dfosux.o)
 .mdebug.abi32  0x0000000000000000        0x0 c:/program files/microchip/xc32/v4.20/bin/bin/../../lib/gcc/pic32mx/8.3.1/../../../../pic32mx/lib/fpu64\libc-musl.a(__sio_sprintf_dosux.o)
 .mdebug.abi32  0x0000000000000000        0x0 c:/program files/microchip/xc32/v4.20/bin/bin/../../lib/gcc/pic32mx/8.3.1/../../../../pic32mx/lib/fpu64\libc-musl.a(__sio_sprintf_doux.o)
 .mdebug.abi32  0x0000000000000000        0x0 c:/program files/microchip/xc32/v4.20/bin/bin/../../lib/gcc/pic32mx/8.3.1/../../../../pic32mx/lib/fpu64\libc-musl.a(__sio_sprintf_s.o)
 .mdebug.abi32  0x0000000000000000        0x0 c:/program files/microchip/xc32/v4.20/bin/bin/../../lib/gcc/pic32mx/8.3.1/../../../../pic32mx/lib/fpu64\libc-musl.a(__fmt_d.o)
 .mdebug.abi32  0x0000000000000000        0x0 c:/program files/microchip/xc32/v4.20/bin/bin/../../lib/gcc/pic32mx/8.3.1/../../../../pic32mx/lib/fpu64\libc-musl.a(__fmt_fp.o)
 .mdebug.abi32  0x0000000000000000        0x0 c:/program files/microchip/xc32/v4.20/bin/bin/../../lib/gcc/pic32mx/8.3.1/../../../../pic32mx/lib/fpu64\libc-musl.a(__fmt_o.o)
 .mdebug.abi32  0x0000000000000000        0x0 c:/program files/microchip/xc32/v4.20/bin/bin/../../lib/gcc/pic32mx/8.3.1/../../../../pic32mx/lib/fpu64\libc-musl.a(__fmt_s.o)
 .mdebug.abi32  0x0000000000000000        0x0 c:/program files/microchip/xc32/v4.20/bin/bin/../../lib/gcc/pic32mx/8.3.1/../../../../pic32mx/lib/fpu64\libc-musl.a(__fmt_u.o)
 .mdebug.abi32  0x0000000000000000        0x0 c:/program files/microchip/xc32/v4.20/bin/bin/../../lib/gcc/pic32mx/8.3.1/../../../../pic32mx/lib/fpu64\libc-musl.a(__fmt_x.o)
 .mdebug.abi32  0x0000000000000000        0x0 c:/program files/microchip/xc32/v4.20/bin/bin/../../lib/gcc/pic32mx/8.3.1/../../../../pic32mx/lib/fpu64\libc-musl.a(__pop_float.o)
 .mdebug.abi32  0x0000000000000000        0x0 c:/program files/microchip/xc32/v4.20/bin/bin/../../lib/gcc/pic32mx/8.3.1/../../../../pic32mx/lib/fpu64\libc-musl.a(__pop_int.o)
 .mdebug.abi32  0x0000000000000000        0x0 c:/program files/microchip/xc32/v4.20/bin/bin/../../lib/gcc/pic32mx/8.3.1/../../../../pic32mx/lib/fpu64\libc-musl.a(__pop_ptr.o)
 .mdebug.abi32  0x0000000000000000        0x0 c:/program files/microchip/xc32/v4.20/bin/bin/../../lib/gcc/pic32mx/8.3.1/../../../../pic32mx/lib/fpu64\libc-musl.a(__printf_core.o)
 .mdebug.abi32  0x0000000000000000        0x0 c:/program files/microchip/xc32/v4.20/bin/bin/../../lib/gcc/pic32mx/8.3.1/../../../../pic32mx/lib/fpu64\libc-musl.a(stdout.o)
 .mdebug.abi32  0x0000000000000000        0x0 c:/program files/microchip/xc32/v4.20/bin/bin/../../lib/gcc/pic32mx/8.3.1/../../../../pic32mx/lib/fpu64\libc-musl.a(vprintf.o)
 .mdebug.abi32  0x0000000000000000        0x0 c:/program files/microchip/xc32/v4.20/bin/bin/../../lib/gcc/pic32mx/8.3.1/../../../../pic32mx/lib/fpu64\libc-musl.a(atoi.o)
 .mdebug.abi32  0x0000000000000000        0x0 c:/program files/microchip/xc32/v4.20/bin/bin/../../lib/gcc/pic32mx/8.3.1/../../../../pic32mx/lib/fpu64\libc-musl.a(memcpy.o)
 .mdebug.abi32  0x0000000000000000        0x0 c:/program files/microchip/xc32/v4.20/bin/bin/../../lib/gcc/pic32mx/8.3.1/../../../../pic32mx/lib/fpu64\libc-musl.a(strcpy.o)
 .mdebug.abi32  0x0000000000000000        0x0 c:/program files/microchip/xc32/v4.20/bin/bin/../../lib/gcc/pic32mx/8.3.1/../../../../pic32mx/lib/fpu64\libc-musl.a(strncmp.o)
 .mdebug.abi32  0x0000000000000000        0x0 c:/program files/microchip/xc32/v4.20/bin/bin/../../lib/gcc/pic32mx/8.3.1/../../../../pic32mx/lib/fpu64\libc-musl.a(tolower.o)
 .mdebug.abi32  0x0000000000000000        0x0 c:/program files/microchip/xc32/v4.20/bin/bin/../../lib/gcc/pic32mx/8.3.1/../../../../pic32mx/lib/fpu64\libc-musl.a(toupper.o)
 .mdebug.abi32  0x0000000000000000        0x0 c:/program files/microchip/xc32/v4.20/bin/bin/../../lib/gcc/pic32mx/8.3.1/../../../../pic32mx/lib/fpu64\libc-musl.a(__int_vfprintf.o)
 .mdebug.abi32  0x0000000000000000        0x0 c:/program files/microchip/xc32/v4.20/bin/bin/../../lib/gcc/pic32mx/8.3.1/../../../../pic32mx/lib/fpu64\libc-musl.a(__int_vsprintf.o)
 .mdebug.abi32  0x0000000000000000        0x0 c:/program files/microchip/xc32/v4.20/bin/bin/../../lib/gcc/pic32mx/8.3.1/../../../../pic32mx/lib/fpu64\libc-musl.a(__fopen.o)
 .mdebug.abi32  0x0000000000000000        0x0 c:/program files/microchip/xc32/v4.20/bin/bin/../../lib/gcc/pic32mx/8.3.1/../../../../pic32mx/lib/fpu64\libc-musl.a(__io_init_needed.o)
 .mdebug.abi32  0x0000000000000000        0x0 c:/program files/microchip/xc32/v4.20/bin/bin/../../lib/gcc/pic32mx/8.3.1/../../../../pic32mx/lib/fpu64\libc-musl.a(__out.o)
 .mdebug.abi32  0x0000000000000000        0x0 c:/program files/microchip/xc32/v4.20/bin/bin/../../lib/gcc/pic32mx/8.3.1/../../../../pic32mx/lib/fpu64\libc-musl.a(__stdio_close.o)
 .mdebug.abi32  0x0000000000000000        0x0 c:/program files/microchip/xc32/v4.20/bin/bin/../../lib/gcc/pic32mx/8.3.1/../../../../pic32mx/lib/fpu64\libc-musl.a(vfprintf.o)
 .mdebug.abi32  0x0000000000000000        0x0 c:/program files/microchip/xc32/v4.20/bin/bin/../../lib/gcc/pic32mx/8.3.1/../../../../pic32mx/lib/fpu64\libc-musl.a(stpcpy.o)
 .mdebug.abi32  0x0000000000000000        0x0 c:/program files/microchip/xc32/v4.20/bin/bin/../../lib/gcc/pic32mx/8.3.1/../../../../pic32mx/lib/fpu64\libc-musl.a(malloc.o)
 .mdebug.abi32  0x0000000000000000        0x0 c:/program files/microchip/xc32/v4.20/bin/bin/../../lib/gcc/pic32mx/8.3.1/../../../../pic32mx/lib/fpu64\libc-musl.a(expand_heap.o)
 .mdebug.abi32  0x0000000000000000        0x0 c:/program files/microchip/xc32/v4.20/bin/bin/../../lib/gcc/pic32mx/8.3.1/../../../../pic32mx/lib/fpu64\libc-musl.a(__int_vsnprintf.o)
 .mdebug.abi32  0x0000000000000000        0x0 c:/program files/microchip/xc32/v4.20/bin/bin/../../lib/gcc/pic32mx/8.3.1/../../../../pic32mx/lib/fpu64\libc-musl.a(__init_stdio.o)
 .mdebug.abi32  0x0000000000000000        0x0 c:/program files/microchip/xc32/v4.20/bin/bin/../../lib/gcc/pic32mx/8.3.1/../../../../pic32mx/lib/fpu64\libc-musl.a(__io_file_needed.o)
 .mdebug.abi32  0x0000000000000000        0x0 c:/program files/microchip/xc32/v4.20/bin/bin/../../lib/gcc/pic32mx/8.3.1/../../../../pic32mx/lib/fpu64\libc-musl.a(__io_fmt_needed.o)
 .mdebug.abi32  0x0000000000000000        0x0 c:/program files/microchip/xc32/v4.20/bin/bin/../../lib/gcc/pic32mx/8.3.1/../../../../pic32mx/lib/fpu64\libc-musl.a(libc.o)
 .mdebug.abi32  0x0000000000000000        0x0 c:/program files/microchip/xc32/v4.20/bin/bin/../../lib/gcc/pic32mx/8.3.1/../../../../pic32mx/lib/fpu64\libc-musl.a(__fmt_a.o)
 .mdebug.abi32  0x0000000000000000        0x0 c:/program files/microchip/xc32/v4.20/bin/bin/../../lib/gcc/pic32mx/8.3.1/../../../../pic32mx/lib/fpu64\libm-musl.a(cos.o)
 .mdebug.abi32  0x0000000000000000        0x0 c:/program files/microchip/xc32/v4.20/bin/bin/../../lib/gcc/pic32mx/8.3.1/../../../../pic32mx/lib/fpu64\libm-musl.a(floor.o)
 .mdebug.abi32  0x0000000000000000        0x0 c:/program files/microchip/xc32/v4.20/bin/bin/../../lib/gcc/pic32mx/8.3.1/../../../../pic32mx/lib/fpu64\libm-musl.a(fma.o)
 .mdebug.abi32  0x0000000000000000        0x0 c:/program files/microchip/xc32/v4.20/bin/bin/../../lib/gcc/pic32mx/8.3.1/../../../../pic32mx/lib/fpu64\libm-musl.a(scalbn.o)
 .mdebug.abi32  0x0000000000000000        0x0 c:/program files/microchip/xc32/v4.20/bin/bin/../../lib/gcc/pic32mx/8.3.1/../../../../pic32mx/lib/fpu64\libm-musl.a(sin.o)
 .mdebug.abi32  0x0000000000000000        0x0 c:/program files/microchip/xc32/v4.20/bin/bin/../../lib/gcc/pic32mx/8.3.1/../../../../pic32mx/lib/fpu64\libm-musl.a(__cos.o)
 .mdebug.abi32  0x0000000000000000        0x0 c:/program files/microchip/xc32/v4.20/bin/bin/../../lib/gcc/pic32mx/8.3.1/../../../../pic32mx/lib/fpu64\libm-musl.a(__rem_pio2.o)
 .mdebug.abi32  0x0000000000000000        0x0 c:/program files/microchip/xc32/v4.20/bin/bin/../../lib/gcc/pic32mx/8.3.1/../../../../pic32mx/lib/fpu64\libm-musl.a(__rem_pio2_large.o)
 .mdebug.abi32  0x0000000000000000        0x0 c:/program files/microchip/xc32/v4.20/bin/bin/../../lib/gcc/pic32mx/8.3.1/../../../../pic32mx/lib/fpu64\libm-musl.a(__sin.o)
 .mdebug.abi32  0x0000000000000000        0x0 c:/program files/microchip/xc32/v4.20/bin/bin/../../lib/gcc/pic32mx/8.3.1/fpu64\libgcc.a(_lshrdi3.o)
 .mdebug.abi32  0x0000000000000000        0x0 c:/program files/microchip/xc32/v4.20/bin/bin/../../lib/gcc/pic32mx/8.3.1/fpu64\libgcc.a(_ashldi3.o)
 .mdebug.abi32  0x0000000000000000        0x0 c:/program files/microchip/xc32/v4.20/bin/bin/../../lib/gcc/pic32mx/8.3.1/fpu64\libgcc.a(_udivdi3.o)
 .mdebug.abi32  0x0000000000000000        0x0 c:/program files/microchip/xc32/v4.20/bin/bin/../../lib/gcc/pic32mx/8.3.1/fpu64\libgcc.a(_umoddi3.o)
 .mdebug.abi32  0x0000000000000000        0x0 c:/program files/microchip/xc32/v4.20/bin/bin/../../lib/gcc/pic32mx/8.3.1/../../../../pic32mx/lib/fpu64\libpic32.a(sbrk.o)
 .mdebug.abi32  0x0000000000000000        0x0 c:/program files/microchip/xc32/v4.20/bin/bin/../../lib/gcc/pic32mx/8.3.1/../../../../pic32mx/lib/fpu64\libpic32.a(lseek.o)
 .mdebug.abi32  0x0000000000000000        0x0 c:/program files/microchip/xc32/v4.20/bin/bin/../../lib/gcc/pic32mx/8.3.1/../../../../pic32mx/lib/fpu64\libpic32.a(close.o)
 .mdebug.abi32  0x0000000000000000        0x0 c:/program files/microchip/xc32/v4.20/bin/bin/../../lib/gcc/pic32mx/8.3.1/../../../../pic32mx/lib/fpu64\libpic32.a(errno.o)

.mdebug.abiN32
 *(.mdebug.abiN32)

.mdebug.abi64
 *(.mdebug.abi64)

.mdebug.abiO64
 *(.mdebug.abiO64)

.mdebug.eabi32
 *(.mdebug.eabi32)

.mdebug.eabi64
 *(.mdebug.eabi64)

.gcc_compiled_long32
 *(.gcc_compiled_long32)

.gcc_compiled_long64
 *(.gcc_compiled_long64)

.stab
 *(.stab)

.stabstr
 *(.stabstr)

.stab.excl
 *(.stab.excl)

.stab.exclstr
 *(.stab.exclstr)

.stab.index
 *(.stab.index)

.stab.indexstr
 *(.stab.indexstr)

.comment        0x0000000000000000       0xa7
 *(.comment)
 .comment       0x0000000000000000       0x2b build/nsensor/production/_ext/1684788505/ChrFont0.o
                                         0x2c (size before relaxing)
 .comment       0x000000000000002b       0x2c build/nsensor/production/_ext/1684788505/dogm-graphic.o
 .comment       0x000000000000002b       0x2c build/nsensor/production/_ext/1684788505/eadog.o
 .comment       0x000000000000002b       0x2c build/nsensor/production/_ext/1684788505/FillPat.o
 .comment       0x000000000000002b       0x2c build/nsensor/production/_ext/1684788505/foo.o
 .comment       0x000000000000002b       0x2c build/nsensor/production/_ext/1684788505/lcd_drv.o
 .comment       0x000000000000002b       0x2c build/nsensor/production/_ext/1684788505/OledChar.o
 .comment       0x000000000000002b       0x2c build/nsensor/production/_ext/1684788505/OledDriver.o
 .comment       0x000000000000002b       0x2c build/nsensor/production/_ext/1684788505/OledGrph.o
 .comment       0x000000000000002b       0x2c build/nsensor/production/_ext/1966772718/plib_adchs.o
 .comment       0x000000000000002b       0x2c build/nsensor/production/_ext/1965004555/plib_canfd1.o
 .comment       0x000000000000002b       0x2c build/nsensor/production/_ext/619183945/plib_clk.o
 .comment       0x000000000000002b       0x2c build/nsensor/production/_ext/1664108525/plib_coretimer.o
 .comment       0x000000000000002b       0x2c build/nsensor/production/_ext/2014863652/plib_dmac.o
 .comment       0x000000000000002b       0x2c build/nsensor/production/_ext/2014902340/plib_evic.o
 .comment       0x000000000000002b       0x2c build/nsensor/production/_ext/2014956168/plib_gpio.o
 .comment       0x000000000000002b       0x2c build/nsensor/production/_ext/1955707305/plib_mcpwm.o
 .comment       0x000000000000002b       0x2c build/nsensor/production/_ext/619197180/plib_qei2.o
 .comment       0x000000000000002b       0x2c build/nsensor/production/_ext/2015287515/plib_rtcc.o
 .comment       0x000000000000002b       0x2c build/nsensor/production/_ext/1877210129/plib_spi1_master.o
 .comment       0x000000000000002b       0x2c build/nsensor/production/_ext/1877210129/plib_spi2_master.o
 .comment       0x000000000000002b       0x2c build/nsensor/production/_ext/619200320/plib_tmr9.o
 .comment       0x000000000000002b       0x2c build/nsensor/production/_ext/619200320/plib_tmr5.o
 .comment       0x000000000000002b       0x2c build/nsensor/production/_ext/619200320/plib_tmr3.o
 .comment       0x000000000000002b       0x2c build/nsensor/production/_ext/619200320/plib_tmr6.o
 .comment       0x000000000000002b       0x2c build/nsensor/production/_ext/619200320/plib_tmr2.o
 .comment       0x000000000000002b       0x2c build/nsensor/production/_ext/2015359111/plib_uart1.o
 .comment       0x000000000000002b       0x2c build/nsensor/production/_ext/725740559/xc32_monitor.o
 .comment       0x000000000000002b       0x2c build/nsensor/production/_ext/1856863253/exceptions.o
 .comment       0x000000000000002b       0x2c build/nsensor/production/_ext/1856863253/interrupts.o
 .comment       0x000000000000002b       0x2c build/nsensor/production/_ext/1856863253/initialization.o
 .comment       0x000000000000002b       0x2c build/nsensor/production/_ext/1360937237/bma490l.o
 .comment       0x000000000000002b       0x2c build/nsensor/production/_ext/1360937237/timers.o
 .comment       0x000000000000002b       0x2c build/nsensor/production/_ext/1360937237/sca3300.o
 .comment       0x000000000000002b       0x2c build/nsensor/production/_ext/1360937237/gfx.o
 .comment       0x000000000000002b       0x2c build/nsensor/production/_ext/1360937237/imu.o
 .comment       0x000000000000002b       0x2c build/nsensor/production/_ext/1360937237/pid.o
 .comment       0x000000000000002b       0x2c build/nsensor/production/_ext/1360937237/do_fft.o
 .comment       0x000000000000002b       0x2c build/nsensor/production/_ext/1360937237/fft.o
 .comment       0x000000000000002b       0x2c build/nsensor/production/_ext/1360937237/main.o
 .comment       0x000000000000002b       0x2c build/nsensor/production/_ext/1360937237/canfd.o
 .comment       0x000000000000002b       0x2c build/nsensor/production/_ext/1360937237/host.o
 .comment       0x000000000000002b       0x2c build/nsensor/production/_ext/1360937237/cmd_scanner.o
 .comment       0x000000000000002b       0x18 c:/program files/microchip/xc32/v4.20/bin/bin/../../lib/gcc/pic32mx/8.3.1/../../../../pic32mx/lib/fpu64\libpic32.a(memset.o)
                                         0x19 (size before relaxing)
 .comment       0x0000000000000043       0x19 c:/program files/microchip/xc32/v4.20/bin/bin/../../lib/gcc/pic32mx/8.3.1/../../../../pic32mx/lib/fpu64\libpic32.a(strlen.o)
                                         0x1a (size before relaxing)
 .comment       0x000000000000005c       0x2c c:/program files/microchip/xc32/v4.20/bin/bin/../../lib/gcc/pic32mx/8.3.1/../../../../pic32mx/lib/fpu64\libpic32.a(default-on-reset.o)
 .comment       0x000000000000005c       0x2c c:/program files/microchip/xc32/v4.20/bin/bin/../../lib/gcc/pic32mx/8.3.1/../../../../pic32mx/lib/fpu64\libpic32.a(default-on-bootstrap.o)
 .comment       0x000000000000005c       0x2c c:/program files/microchip/xc32/v4.20/bin/bin/../../lib/gcc/pic32mx/8.3.1/../../../../pic32mx/lib/fpu64\libpic32.a(defaultinterrupt.o)
 .comment       0x000000000000005c       0x2c c:/program files/microchip/xc32/v4.20/bin/bin/../../lib/gcc/pic32mx/8.3.1/../../../../pic32mx/lib/fpu64\libc-musl.a(__sio_printf_s.o)
 .comment       0x000000000000005c       0x2c c:/program files/microchip/xc32/v4.20/bin/bin/../../lib/gcc/pic32mx/8.3.1/../../../../pic32mx/lib/fpu64\libc-musl.a(__sio_sprintf_dfosux.o)
 .comment       0x000000000000005c       0x2c c:/program files/microchip/xc32/v4.20/bin/bin/../../lib/gcc/pic32mx/8.3.1/../../../../pic32mx/lib/fpu64\libc-musl.a(__sio_sprintf_dosux.o)
 .comment       0x000000000000005c       0x2c c:/program files/microchip/xc32/v4.20/bin/bin/../../lib/gcc/pic32mx/8.3.1/../../../../pic32mx/lib/fpu64\libc-musl.a(__sio_sprintf_doux.o)
 .comment       0x000000000000005c       0x2c c:/program files/microchip/xc32/v4.20/bin/bin/../../lib/gcc/pic32mx/8.3.1/../../../../pic32mx/lib/fpu64\libc-musl.a(__sio_sprintf_s.o)
 .comment       0x000000000000005c       0x2c c:/program files/microchip/xc32/v4.20/bin/bin/../../lib/gcc/pic32mx/8.3.1/../../../../pic32mx/lib/fpu64\libc-musl.a(__fmt_d.o)
 .comment       0x000000000000005c       0x2c c:/program files/microchip/xc32/v4.20/bin/bin/../../lib/gcc/pic32mx/8.3.1/../../../../pic32mx/lib/fpu64\libc-musl.a(__fmt_fp.o)
 .comment       0x000000000000005c       0x2c c:/program files/microchip/xc32/v4.20/bin/bin/../../lib/gcc/pic32mx/8.3.1/../../../../pic32mx/lib/fpu64\libc-musl.a(__fmt_o.o)
 .comment       0x000000000000005c       0x2c c:/program files/microchip/xc32/v4.20/bin/bin/../../lib/gcc/pic32mx/8.3.1/../../../../pic32mx/lib/fpu64\libc-musl.a(__fmt_s.o)
 .comment       0x000000000000005c       0x2c c:/program files/microchip/xc32/v4.20/bin/bin/../../lib/gcc/pic32mx/8.3.1/../../../../pic32mx/lib/fpu64\libc-musl.a(__fmt_u.o)
 .comment       0x000000000000005c       0x2c c:/program files/microchip/xc32/v4.20/bin/bin/../../lib/gcc/pic32mx/8.3.1/../../../../pic32mx/lib/fpu64\libc-musl.a(__fmt_x.o)
 .comment       0x000000000000005c       0x2c c:/program files/microchip/xc32/v4.20/bin/bin/../../lib/gcc/pic32mx/8.3.1/../../../../pic32mx/lib/fpu64\libc-musl.a(__pop_float.o)
 .comment       0x000000000000005c       0x2c c:/program files/microchip/xc32/v4.20/bin/bin/../../lib/gcc/pic32mx/8.3.1/../../../../pic32mx/lib/fpu64\libc-musl.a(__pop_int.o)
 .comment       0x000000000000005c       0x2c c:/program files/microchip/xc32/v4.20/bin/bin/../../lib/gcc/pic32mx/8.3.1/../../../../pic32mx/lib/fpu64\libc-musl.a(__pop_ptr.o)
 .comment       0x000000000000005c       0x2c c:/program files/microchip/xc32/v4.20/bin/bin/../../lib/gcc/pic32mx/8.3.1/../../../../pic32mx/lib/fpu64\libc-musl.a(__printf_core.o)
 .comment       0x000000000000005c       0x2c c:/program files/microchip/xc32/v4.20/bin/bin/../../lib/gcc/pic32mx/8.3.1/../../../../pic32mx/lib/fpu64\libc-musl.a(stdout.o)
 .comment       0x000000000000005c       0x2c c:/program files/microchip/xc32/v4.20/bin/bin/../../lib/gcc/pic32mx/8.3.1/../../../../pic32mx/lib/fpu64\libc-musl.a(vprintf.o)
 .comment       0x000000000000005c       0x2c c:/program files/microchip/xc32/v4.20/bin/bin/../../lib/gcc/pic32mx/8.3.1/../../../../pic32mx/lib/fpu64\libc-musl.a(atoi.o)
 .comment       0x000000000000005c       0x2c c:/program files/microchip/xc32/v4.20/bin/bin/../../lib/gcc/pic32mx/8.3.1/../../../../pic32mx/lib/fpu64\libc-musl.a(memcpy.o)
 .comment       0x000000000000005c       0x2c c:/program files/microchip/xc32/v4.20/bin/bin/../../lib/gcc/pic32mx/8.3.1/../../../../pic32mx/lib/fpu64\libc-musl.a(strcpy.o)
 .comment       0x000000000000005c       0x2c c:/program files/microchip/xc32/v4.20/bin/bin/../../lib/gcc/pic32mx/8.3.1/../../../../pic32mx/lib/fpu64\libc-musl.a(strncmp.o)
 .comment       0x000000000000005c       0x2c c:/program files/microchip/xc32/v4.20/bin/bin/../../lib/gcc/pic32mx/8.3.1/../../../../pic32mx/lib/fpu64\libc-musl.a(tolower.o)
 .comment       0x000000000000005c       0x2c c:/program files/microchip/xc32/v4.20/bin/bin/../../lib/gcc/pic32mx/8.3.1/../../../../pic32mx/lib/fpu64\libc-musl.a(toupper.o)
 .comment       0x000000000000005c       0x2c c:/program files/microchip/xc32/v4.20/bin/bin/../../lib/gcc/pic32mx/8.3.1/../../../../pic32mx/lib/fpu64\libc-musl.a(__int_vfprintf.o)
 .comment       0x000000000000005c       0x2c c:/program files/microchip/xc32/v4.20/bin/bin/../../lib/gcc/pic32mx/8.3.1/../../../../pic32mx/lib/fpu64\libc-musl.a(__int_vsprintf.o)
 .comment       0x000000000000005c       0x2c c:/program files/microchip/xc32/v4.20/bin/bin/../../lib/gcc/pic32mx/8.3.1/../../../../pic32mx/lib/fpu64\libc-musl.a(__fopen.o)
 .comment       0x000000000000005c       0x2c c:/program files/microchip/xc32/v4.20/bin/bin/../../lib/gcc/pic32mx/8.3.1/../../../../pic32mx/lib/fpu64\libc-musl.a(__io_init_needed.o)
 .comment       0x000000000000005c       0x2c c:/program files/microchip/xc32/v4.20/bin/bin/../../lib/gcc/pic32mx/8.3.1/../../../../pic32mx/lib/fpu64\libc-musl.a(__out.o)
 .comment       0x000000000000005c       0x2c c:/program files/microchip/xc32/v4.20/bin/bin/../../lib/gcc/pic32mx/8.3.1/../../../../pic32mx/lib/fpu64\libc-musl.a(__stdio_close.o)
 .comment       0x000000000000005c       0x2c c:/program files/microchip/xc32/v4.20/bin/bin/../../lib/gcc/pic32mx/8.3.1/../../../../pic32mx/lib/fpu64\libc-musl.a(vfprintf.o)
 .comment       0x000000000000005c       0x2c c:/program files/microchip/xc32/v4.20/bin/bin/../../lib/gcc/pic32mx/8.3.1/../../../../pic32mx/lib/fpu64\libc-musl.a(stpcpy.o)
 .comment       0x000000000000005c       0x2c c:/program files/microchip/xc32/v4.20/bin/bin/../../lib/gcc/pic32mx/8.3.1/../../../../pic32mx/lib/fpu64\libc-musl.a(malloc.o)
 .comment       0x000000000000005c       0x2c c:/program files/microchip/xc32/v4.20/bin/bin/../../lib/gcc/pic32mx/8.3.1/../../../../pic32mx/lib/fpu64\libc-musl.a(expand_heap.o)
 .comment       0x000000000000005c       0x2c c:/program files/microchip/xc32/v4.20/bin/bin/../../lib/gcc/pic32mx/8.3.1/../../../../pic32mx/lib/fpu64\libc-musl.a(__int_vsnprintf.o)
 .comment       0x000000000000005c       0x2c c:/program files/microchip/xc32/v4.20/bin/bin/../../lib/gcc/pic32mx/8.3.1/../../../../pic32mx/lib/fpu64\libc-musl.a(__init_stdio.o)
 .comment       0x000000000000005c       0x2c c:/program files/microchip/xc32/v4.20/bin/bin/../../lib/gcc/pic32mx/8.3.1/../../../../pic32mx/lib/fpu64\libc-musl.a(__io_file_needed.o)
 .comment       0x000000000000005c       0x2c c:/program files/microchip/xc32/v4.20/bin/bin/../../lib/gcc/pic32mx/8.3.1/../../../../pic32mx/lib/fpu64\libc-musl.a(__io_fmt_needed.o)
 .comment       0x000000000000005c       0x2c c:/program files/microchip/xc32/v4.20/bin/bin/../../lib/gcc/pic32mx/8.3.1/../../../../pic32mx/lib/fpu64\libc-musl.a(libc.o)
 .comment       0x000000000000005c       0x2c c:/program files/microchip/xc32/v4.20/bin/bin/../../lib/gcc/pic32mx/8.3.1/../../../../pic32mx/lib/fpu64\libc-musl.a(__fmt_a.o)
 .comment       0x000000000000005c       0x2c c:/program files/microchip/xc32/v4.20/bin/bin/../../lib/gcc/pic32mx/8.3.1/../../../../pic32mx/lib/fpu64\libm-musl.a(cos.o)
 .comment       0x000000000000005c       0x2c c:/program files/microchip/xc32/v4.20/bin/bin/../../lib/gcc/pic32mx/8.3.1/../../../../pic32mx/lib/fpu64\libm-musl.a(floor.o)
 .comment       0x000000000000005c       0x2c c:/program files/microchip/xc32/v4.20/bin/bin/../../lib/gcc/pic32mx/8.3.1/../../../../pic32mx/lib/fpu64\libm-musl.a(fma.o)
 .comment       0x000000000000005c       0x2c c:/program files/microchip/xc32/v4.20/bin/bin/../../lib/gcc/pic32mx/8.3.1/../../../../pic32mx/lib/fpu64\libm-musl.a(scalbn.o)
 .comment       0x000000000000005c       0x2c c:/program files/microchip/xc32/v4.20/bin/bin/../../lib/gcc/pic32mx/8.3.1/../../../../pic32mx/lib/fpu64\libm-musl.a(sin.o)
 .comment       0x000000000000005c       0x2c c:/program files/microchip/xc32/v4.20/bin/bin/../../lib/gcc/pic32mx/8.3.1/../../../../pic32mx/lib/fpu64\libm-musl.a(__cos.o)
 .comment       0x000000000000005c       0x2c c:/program files/microchip/xc32/v4.20/bin/bin/../../lib/gcc/pic32mx/8.3.1/../../../../pic32mx/lib/fpu64\libm-musl.a(__rem_pio2.o)
 .comment       0x000000000000005c       0x2c c:/program files/microchip/xc32/v4.20/bin/bin/../../lib/gcc/pic32mx/8.3.1/../../../../pic32mx/lib/fpu64\libm-musl.a(__rem_pio2_large.o)
 .comment       0x000000000000005c       0x2c c:/program files/microchip/xc32/v4.20/bin/bin/../../lib/gcc/pic32mx/8.3.1/../../../../pic32mx/lib/fpu64\libm-musl.a(__sin.o)
 .comment       0x000000000000005c       0x2c c:/program files/microchip/xc32/v4.20/bin/bin/../../lib/gcc/pic32mx/8.3.1/fpu64\libgcc.a(_lshrdi3.o)
 .comment       0x000000000000005c       0x2c c:/program files/microchip/xc32/v4.20/bin/bin/../../lib/gcc/pic32mx/8.3.1/fpu64\libgcc.a(_ashldi3.o)
 .comment       0x000000000000005c       0x2c c:/program files/microchip/xc32/v4.20/bin/bin/../../lib/gcc/pic32mx/8.3.1/fpu64\libgcc.a(_udivdi3.o)
 .comment       0x000000000000005c       0x2c c:/program files/microchip/xc32/v4.20/bin/bin/../../lib/gcc/pic32mx/8.3.1/fpu64\libgcc.a(_umoddi3.o)
 .comment       0x000000000000005c       0x4b c:/program files/microchip/xc32/v4.20/bin/bin/../../lib/gcc/pic32mx/8.3.1/../../../../pic32mx/lib/fpu64\libpic32.a(sbrk.o)
                                         0x77 (size before relaxing)
 .comment       0x00000000000000a7       0x2c c:/program files/microchip/xc32/v4.20/bin/bin/../../lib/gcc/pic32mx/8.3.1/../../../../pic32mx/lib/fpu64\libpic32.a(lseek.o)
 .comment       0x00000000000000a7       0x2c c:/program files/microchip/xc32/v4.20/bin/bin/../../lib/gcc/pic32mx/8.3.1/../../../../pic32mx/lib/fpu64\libpic32.a(close.o)
 .comment       0x00000000000000a7       0x2c c:/program files/microchip/xc32/v4.20/bin/bin/../../lib/gcc/pic32mx/8.3.1/../../../../pic32mx/lib/fpu64\libpic32.a(errno.o)

.debug
 *.elf(.debug)
 *(.debug)

.line
 *.elf(.line)
 *(.line)

.debug_srcinfo
 *.elf(.debug_srcinfo)
 *(.debug_srcinfo)

.debug_sfnames
 *.elf(.debug_sfnames)
 *(.debug_sfnames)

.debug_aranges  0x0000000000000000      0xdb0
 *.elf(.debug_aranges)
 *(.debug_aranges)
 .debug_aranges
                0x0000000000000000       0x18 build/nsensor/production/_ext/1684788505/ChrFont0.o
 .debug_aranges
                0x0000000000000018       0x20 build/nsensor/production/_ext/1684788505/dogm-graphic.o
 .debug_aranges
                0x0000000000000038       0x20 build/nsensor/production/_ext/1684788505/eadog.o
 .debug_aranges
                0x0000000000000058       0x18 build/nsensor/production/_ext/1684788505/FillPat.o
 .debug_aranges
                0x0000000000000070       0x18 build/nsensor/production/_ext/1684788505/foo.o
 .debug_aranges
                0x0000000000000088       0x20 build/nsensor/production/_ext/1684788505/lcd_drv.o
 .debug_aranges
                0x00000000000000a8       0x20 build/nsensor/production/_ext/1684788505/OledChar.o
 .debug_aranges
                0x00000000000000c8       0x20 build/nsensor/production/_ext/1684788505/OledDriver.o
 .debug_aranges
                0x00000000000000e8       0x20 build/nsensor/production/_ext/1684788505/OledGrph.o
 .debug_aranges
                0x0000000000000108       0x20 build/nsensor/production/_ext/1966772718/plib_adchs.o
 .debug_aranges
                0x0000000000000128       0x20 build/nsensor/production/_ext/1965004555/plib_canfd1.o
 .debug_aranges
                0x0000000000000148       0x20 build/nsensor/production/_ext/619183945/plib_clk.o
 .debug_aranges
                0x0000000000000168       0x20 build/nsensor/production/_ext/1664108525/plib_coretimer.o
 .debug_aranges
                0x0000000000000188       0x20 build/nsensor/production/_ext/2014863652/plib_dmac.o
 .debug_aranges
                0x00000000000001a8       0x20 build/nsensor/production/_ext/2014902340/plib_evic.o
 .debug_aranges
                0x00000000000001c8       0x20 build/nsensor/production/_ext/2014956168/plib_gpio.o
 .debug_aranges
                0x00000000000001e8       0x20 build/nsensor/production/_ext/1955707305/plib_mcpwm.o
 .debug_aranges
                0x0000000000000208       0x20 build/nsensor/production/_ext/619197180/plib_qei2.o
 .debug_aranges
                0x0000000000000228       0x20 build/nsensor/production/_ext/2015287515/plib_rtcc.o
 .debug_aranges
                0x0000000000000248       0x20 build/nsensor/production/_ext/1877210129/plib_spi1_master.o
 .debug_aranges
                0x0000000000000268       0x20 build/nsensor/production/_ext/1877210129/plib_spi2_master.o
 .debug_aranges
                0x0000000000000288       0x20 build/nsensor/production/_ext/619200320/plib_tmr9.o
 .debug_aranges
                0x00000000000002a8       0x20 build/nsensor/production/_ext/619200320/plib_tmr5.o
 .debug_aranges
                0x00000000000002c8       0x20 build/nsensor/production/_ext/619200320/plib_tmr3.o
 .debug_aranges
                0x00000000000002e8       0x20 build/nsensor/production/_ext/619200320/plib_tmr6.o
 .debug_aranges
                0x0000000000000308       0x20 build/nsensor/production/_ext/619200320/plib_tmr2.o
 .debug_aranges
                0x0000000000000328       0x20 build/nsensor/production/_ext/2015359111/plib_uart1.o
 .debug_aranges
                0x0000000000000348       0x20 build/nsensor/production/_ext/725740559/xc32_monitor.o
 .debug_aranges
                0x0000000000000368       0x20 build/nsensor/production/_ext/1856863253/exceptions.o
 .debug_aranges
                0x0000000000000388       0x20 build/nsensor/production/_ext/1856863253/interrupts.o
 .debug_aranges
                0x00000000000003a8       0x20 build/nsensor/production/_ext/1856863253/initialization.o
 .debug_aranges
                0x00000000000003c8       0x20 build/nsensor/production/_ext/1360937237/bma490l.o
 .debug_aranges
                0x00000000000003e8       0x20 build/nsensor/production/_ext/1360937237/timers.o
 .debug_aranges
                0x0000000000000408       0x20 build/nsensor/production/_ext/1360937237/sca3300.o
 .debug_aranges
                0x0000000000000428       0x20 build/nsensor/production/_ext/1360937237/gfx.o
 .debug_aranges
                0x0000000000000448       0x20 build/nsensor/production/_ext/1360937237/imu.o
 .debug_aranges
                0x0000000000000468       0x20 build/nsensor/production/_ext/1360937237/pid.o
 .debug_aranges
                0x0000000000000488       0x20 build/nsensor/production/_ext/1360937237/do_fft.o
 .debug_aranges
                0x00000000000004a8       0x20 build/nsensor/production/_ext/1360937237/fft.o
 .debug_aranges
                0x00000000000004c8       0x20 build/nsensor/production/_ext/1360937237/main.o
 .debug_aranges
                0x00000000000004e8       0x20 build/nsensor/production/_ext/1360937237/canfd.o
 .debug_aranges
                0x0000000000000508       0x20 build/nsensor/production/_ext/1360937237/host.o
 .debug_aranges
                0x0000000000000528       0x20 build/nsensor/production/_ext/1360937237/cmd_scanner.o
 .debug_aranges
                0x0000000000000548       0x20 c:/program files/microchip/xc32/v4.20/bin/bin/../../lib/gcc/pic32mx/8.3.1/../../../../pic32mx/lib/fpu64\libpic32.a(default-on-reset.o)
 .debug_aranges
                0x0000000000000568       0x20 c:/program files/microchip/xc32/v4.20/bin/bin/../../lib/gcc/pic32mx/8.3.1/../../../../pic32mx/lib/fpu64\libpic32.a(default-on-bootstrap.o)
 .debug_aranges
                0x0000000000000588       0x20 c:/program files/microchip/xc32/v4.20/bin/bin/../../lib/gcc/pic32mx/8.3.1/../../../../pic32mx/lib/fpu64\libpic32.a(defaultinterrupt.o)
 .debug_aranges
                0x00000000000005a8       0x28 c:/program files/microchip/xc32/v4.20/bin/bin/../../lib/gcc/pic32mx/8.3.1/../../../../pic32mx/lib/fpu64\libc-musl.a(__sio_printf_s.o)
 .debug_aranges
                0x00000000000005d0       0x28 c:/program files/microchip/xc32/v4.20/bin/bin/../../lib/gcc/pic32mx/8.3.1/../../../../pic32mx/lib/fpu64\libc-musl.a(__sio_sprintf_dfosux.o)
 .debug_aranges
                0x00000000000005f8       0x28 c:/program files/microchip/xc32/v4.20/bin/bin/../../lib/gcc/pic32mx/8.3.1/../../../../pic32mx/lib/fpu64\libc-musl.a(__sio_sprintf_dosux.o)
 .debug_aranges
                0x0000000000000620       0x28 c:/program files/microchip/xc32/v4.20/bin/bin/../../lib/gcc/pic32mx/8.3.1/../../../../pic32mx/lib/fpu64\libc-musl.a(__sio_sprintf_doux.o)
 .debug_aranges
                0x0000000000000648       0x28 c:/program files/microchip/xc32/v4.20/bin/bin/../../lib/gcc/pic32mx/8.3.1/../../../../pic32mx/lib/fpu64\libc-musl.a(__sio_sprintf_s.o)
 .debug_aranges
                0x0000000000000670       0x20 c:/program files/microchip/xc32/v4.20/bin/bin/../../lib/gcc/pic32mx/8.3.1/../../../../pic32mx/lib/fpu64\libc-musl.a(__fmt_d.o)
 .debug_aranges
                0x0000000000000690       0x20 c:/program files/microchip/xc32/v4.20/bin/bin/../../lib/gcc/pic32mx/8.3.1/../../../../pic32mx/lib/fpu64\libc-musl.a(__fmt_fp.o)
 .debug_aranges
                0x00000000000006b0       0x20 c:/program files/microchip/xc32/v4.20/bin/bin/../../lib/gcc/pic32mx/8.3.1/../../../../pic32mx/lib/fpu64\libc-musl.a(__fmt_o.o)
 .debug_aranges
                0x00000000000006d0       0x20 c:/program files/microchip/xc32/v4.20/bin/bin/../../lib/gcc/pic32mx/8.3.1/../../../../pic32mx/lib/fpu64\libc-musl.a(__fmt_s.o)
 .debug_aranges
                0x00000000000006f0       0x28 c:/program files/microchip/xc32/v4.20/bin/bin/../../lib/gcc/pic32mx/8.3.1/../../../../pic32mx/lib/fpu64\libc-musl.a(__fmt_u.o)
 .debug_aranges
                0x0000000000000718       0x20 c:/program files/microchip/xc32/v4.20/bin/bin/../../lib/gcc/pic32mx/8.3.1/../../../../pic32mx/lib/fpu64\libc-musl.a(__fmt_x.o)
 .debug_aranges
                0x0000000000000738       0x20 c:/program files/microchip/xc32/v4.20/bin/bin/../../lib/gcc/pic32mx/8.3.1/../../../../pic32mx/lib/fpu64\libc-musl.a(__pop_float.o)
 .debug_aranges
                0x0000000000000758       0x20 c:/program files/microchip/xc32/v4.20/bin/bin/../../lib/gcc/pic32mx/8.3.1/../../../../pic32mx/lib/fpu64\libc-musl.a(__pop_int.o)
 .debug_aranges
                0x0000000000000778       0x20 c:/program files/microchip/xc32/v4.20/bin/bin/../../lib/gcc/pic32mx/8.3.1/../../../../pic32mx/lib/fpu64\libc-musl.a(__pop_ptr.o)
 .debug_aranges
                0x0000000000000798       0x50 c:/program files/microchip/xc32/v4.20/bin/bin/../../lib/gcc/pic32mx/8.3.1/../../../../pic32mx/lib/fpu64\libc-musl.a(__printf_core.o)
 .debug_aranges
                0x00000000000007e8       0x28 c:/program files/microchip/xc32/v4.20/bin/bin/../../lib/gcc/pic32mx/8.3.1/../../../../pic32mx/lib/fpu64\libc-musl.a(stdout.o)
 .debug_aranges
                0x0000000000000810       0x20 c:/program files/microchip/xc32/v4.20/bin/bin/../../lib/gcc/pic32mx/8.3.1/../../../../pic32mx/lib/fpu64\libc-musl.a(vprintf.o)
 .debug_aranges
                0x0000000000000830       0x20 c:/program files/microchip/xc32/v4.20/bin/bin/../../lib/gcc/pic32mx/8.3.1/../../../../pic32mx/lib/fpu64\libc-musl.a(atoi.o)
 .debug_aranges
                0x0000000000000850       0x20 c:/program files/microchip/xc32/v4.20/bin/bin/../../lib/gcc/pic32mx/8.3.1/../../../../pic32mx/lib/fpu64\libc-musl.a(memcpy.o)
 .debug_aranges
                0x0000000000000870       0x20 c:/program files/microchip/xc32/v4.20/bin/bin/../../lib/gcc/pic32mx/8.3.1/../../../../pic32mx/lib/fpu64\libc-musl.a(strcpy.o)
 .debug_aranges
                0x0000000000000890       0x20 c:/program files/microchip/xc32/v4.20/bin/bin/../../lib/gcc/pic32mx/8.3.1/../../../../pic32mx/lib/fpu64\libc-musl.a(strncmp.o)
 .debug_aranges
                0x00000000000008b0       0x28 c:/program files/microchip/xc32/v4.20/bin/bin/../../lib/gcc/pic32mx/8.3.1/../../../../pic32mx/lib/fpu64\libc-musl.a(tolower.o)
 .debug_aranges
                0x00000000000008d8       0x28 c:/program files/microchip/xc32/v4.20/bin/bin/../../lib/gcc/pic32mx/8.3.1/../../../../pic32mx/lib/fpu64\libc-musl.a(toupper.o)
 .debug_aranges
                0x0000000000000900       0x20 c:/program files/microchip/xc32/v4.20/bin/bin/../../lib/gcc/pic32mx/8.3.1/../../../../pic32mx/lib/fpu64\libc-musl.a(__int_vfprintf.o)
 .debug_aranges
                0x0000000000000920       0x20 c:/program files/microchip/xc32/v4.20/bin/bin/../../lib/gcc/pic32mx/8.3.1/../../../../pic32mx/lib/fpu64\libc-musl.a(__int_vsprintf.o)
 .debug_aranges
                0x0000000000000940       0x30 c:/program files/microchip/xc32/v4.20/bin/bin/../../lib/gcc/pic32mx/8.3.1/../../../../pic32mx/lib/fpu64\libc-musl.a(__fopen.o)
 .debug_aranges
                0x0000000000000970       0x28 c:/program files/microchip/xc32/v4.20/bin/bin/../../lib/gcc/pic32mx/8.3.1/../../../../pic32mx/lib/fpu64\libc-musl.a(__io_init_needed.o)
 .debug_aranges
                0x0000000000000998       0x28 c:/program files/microchip/xc32/v4.20/bin/bin/../../lib/gcc/pic32mx/8.3.1/../../../../pic32mx/lib/fpu64\libc-musl.a(__out.o)
 .debug_aranges
                0x00000000000009c0       0x28 c:/program files/microchip/xc32/v4.20/bin/bin/../../lib/gcc/pic32mx/8.3.1/../../../../pic32mx/lib/fpu64\libc-musl.a(__stdio_close.o)
 .debug_aranges
                0x00000000000009e8       0x28 c:/program files/microchip/xc32/v4.20/bin/bin/../../lib/gcc/pic32mx/8.3.1/../../../../pic32mx/lib/fpu64\libc-musl.a(vfprintf.o)
 .debug_aranges
                0x0000000000000a10       0x20 c:/program files/microchip/xc32/v4.20/bin/bin/../../lib/gcc/pic32mx/8.3.1/../../../../pic32mx/lib/fpu64\libc-musl.a(stpcpy.o)
 .debug_aranges
                0x0000000000000a30       0x70 c:/program files/microchip/xc32/v4.20/bin/bin/../../lib/gcc/pic32mx/8.3.1/../../../../pic32mx/lib/fpu64\libc-musl.a(malloc.o)
 .debug_aranges
                0x0000000000000aa0       0x20 c:/program files/microchip/xc32/v4.20/bin/bin/../../lib/gcc/pic32mx/8.3.1/../../../../pic32mx/lib/fpu64\libc-musl.a(expand_heap.o)
 .debug_aranges
                0x0000000000000ac0       0x20 c:/program files/microchip/xc32/v4.20/bin/bin/../../lib/gcc/pic32mx/8.3.1/../../../../pic32mx/lib/fpu64\libc-musl.a(__int_vsnprintf.o)
 .debug_aranges
                0x0000000000000ae0       0x28 c:/program files/microchip/xc32/v4.20/bin/bin/../../lib/gcc/pic32mx/8.3.1/../../../../pic32mx/lib/fpu64\libc-musl.a(__init_stdio.o)
 .debug_aranges
                0x0000000000000b08       0x20 c:/program files/microchip/xc32/v4.20/bin/bin/../../lib/gcc/pic32mx/8.3.1/../../../../pic32mx/lib/fpu64\libc-musl.a(__io_file_needed.o)
 .debug_aranges
                0x0000000000000b28       0x20 c:/program files/microchip/xc32/v4.20/bin/bin/../../lib/gcc/pic32mx/8.3.1/../../../../pic32mx/lib/fpu64\libc-musl.a(__io_fmt_needed.o)
 .debug_aranges
                0x0000000000000b48       0x18 c:/program files/microchip/xc32/v4.20/bin/bin/../../lib/gcc/pic32mx/8.3.1/../../../../pic32mx/lib/fpu64\libc-musl.a(libc.o)
 .debug_aranges
                0x0000000000000b60       0x20 c:/program files/microchip/xc32/v4.20/bin/bin/../../lib/gcc/pic32mx/8.3.1/../../../../pic32mx/lib/fpu64\libc-musl.a(__fmt_a.o)
 .debug_aranges
                0x0000000000000b80       0x20 c:/program files/microchip/xc32/v4.20/bin/bin/../../lib/gcc/pic32mx/8.3.1/../../../../pic32mx/lib/fpu64\libm-musl.a(cos.o)
 .debug_aranges
                0x0000000000000ba0       0x20 c:/program files/microchip/xc32/v4.20/bin/bin/../../lib/gcc/pic32mx/8.3.1/../../../../pic32mx/lib/fpu64\libm-musl.a(floor.o)
 .debug_aranges
                0x0000000000000bc0       0x30 c:/program files/microchip/xc32/v4.20/bin/bin/../../lib/gcc/pic32mx/8.3.1/../../../../pic32mx/lib/fpu64\libm-musl.a(fma.o)
 .debug_aranges
                0x0000000000000bf0       0x20 c:/program files/microchip/xc32/v4.20/bin/bin/../../lib/gcc/pic32mx/8.3.1/../../../../pic32mx/lib/fpu64\libm-musl.a(scalbn.o)
 .debug_aranges
                0x0000000000000c10       0x20 c:/program files/microchip/xc32/v4.20/bin/bin/../../lib/gcc/pic32mx/8.3.1/../../../../pic32mx/lib/fpu64\libm-musl.a(sin.o)
 .debug_aranges
                0x0000000000000c30       0x20 c:/program files/microchip/xc32/v4.20/bin/bin/../../lib/gcc/pic32mx/8.3.1/../../../../pic32mx/lib/fpu64\libm-musl.a(__cos.o)
 .debug_aranges
                0x0000000000000c50       0x20 c:/program files/microchip/xc32/v4.20/bin/bin/../../lib/gcc/pic32mx/8.3.1/../../../../pic32mx/lib/fpu64\libm-musl.a(__rem_pio2.o)
 .debug_aranges
                0x0000000000000c70       0x20 c:/program files/microchip/xc32/v4.20/bin/bin/../../lib/gcc/pic32mx/8.3.1/../../../../pic32mx/lib/fpu64\libm-musl.a(__rem_pio2_large.o)
 .debug_aranges
                0x0000000000000c90       0x20 c:/program files/microchip/xc32/v4.20/bin/bin/../../lib/gcc/pic32mx/8.3.1/../../../../pic32mx/lib/fpu64\libm-musl.a(__sin.o)
 .debug_aranges
                0x0000000000000cb0       0x20 c:/program files/microchip/xc32/v4.20/bin/bin/../../lib/gcc/pic32mx/8.3.1/fpu64\libgcc.a(_lshrdi3.o)
 .debug_aranges
                0x0000000000000cd0       0x20 c:/program files/microchip/xc32/v4.20/bin/bin/../../lib/gcc/pic32mx/8.3.1/fpu64\libgcc.a(_ashldi3.o)
 .debug_aranges
                0x0000000000000cf0       0x20 c:/program files/microchip/xc32/v4.20/bin/bin/../../lib/gcc/pic32mx/8.3.1/fpu64\libgcc.a(_udivdi3.o)
 .debug_aranges
                0x0000000000000d10       0x20 c:/program files/microchip/xc32/v4.20/bin/bin/../../lib/gcc/pic32mx/8.3.1/fpu64\libgcc.a(_umoddi3.o)
 .debug_aranges
                0x0000000000000d30       0x40 c:/program files/microchip/xc32/v4.20/bin/bin/../../lib/gcc/pic32mx/8.3.1/../../../../pic32mx/lib/fpu64\libpic32.a(sbrk.o)
 .debug_aranges
                0x0000000000000d70       0x20 c:/program files/microchip/xc32/v4.20/bin/bin/../../lib/gcc/pic32mx/8.3.1/../../../../pic32mx/lib/fpu64\libpic32.a(lseek.o)
 .debug_aranges
                0x0000000000000d90       0x20 c:/program files/microchip/xc32/v4.20/bin/bin/../../lib/gcc/pic32mx/8.3.1/../../../../pic32mx/lib/fpu64\libpic32.a(close.o)

.debug_pubnames
 *.elf(.debug_pubnames)
 *(.debug_pubnames)

.debug_info     0x0000000000000000    0x1d68b
 *.elf(.debug_info .gnu.linkonce.wi.*)
 *(.debug_info .gnu.linkonce.wi.*)
 .debug_info    0x0000000000000000       0x97 build/nsensor/production/_ext/1684788505/ChrFont0.o
 .debug_info    0x0000000000000097      0xa50 build/nsensor/production/_ext/1684788505/dogm-graphic.o
 .debug_info    0x0000000000000ae7      0xe30 build/nsensor/production/_ext/1684788505/eadog.o
 .debug_info    0x0000000000001917       0x96 build/nsensor/production/_ext/1684788505/FillPat.o
 .debug_info    0x00000000000019ad       0xbd build/nsensor/production/_ext/1684788505/foo.o
 .debug_info    0x0000000000001a6a      0x25b build/nsensor/production/_ext/1684788505/lcd_drv.o
 .debug_info    0x0000000000001cc5      0x40e build/nsensor/production/_ext/1684788505/OledChar.o
 .debug_info    0x00000000000020d3      0xd6a build/nsensor/production/_ext/1684788505/OledDriver.o
 .debug_info    0x0000000000002e3d      0xd3a build/nsensor/production/_ext/1684788505/OledGrph.o
 .debug_info    0x0000000000003b77      0xae4 build/nsensor/production/_ext/1966772718/plib_adchs.o
 .debug_info    0x000000000000465b      0xc4f build/nsensor/production/_ext/1965004555/plib_canfd1.o
 .debug_info    0x00000000000052aa      0x32b build/nsensor/production/_ext/619183945/plib_clk.o
 .debug_info    0x00000000000055d5      0x597 build/nsensor/production/_ext/1664108525/plib_coretimer.o
 .debug_info    0x0000000000005b6c     0x11d1 build/nsensor/production/_ext/2014863652/plib_dmac.o
 .debug_info    0x0000000000006d3d      0x934 build/nsensor/production/_ext/2014902340/plib_evic.o
 .debug_info    0x0000000000007671      0x614 build/nsensor/production/_ext/2014956168/plib_gpio.o
 .debug_info    0x0000000000007c85      0x615 build/nsensor/production/_ext/1955707305/plib_mcpwm.o
 .debug_info    0x000000000000829a      0x335 build/nsensor/production/_ext/619197180/plib_qei2.o
 .debug_info    0x00000000000085cf      0x719 build/nsensor/production/_ext/2015287515/plib_rtcc.o
 .debug_info    0x0000000000008ce8      0x764 build/nsensor/production/_ext/1877210129/plib_spi1_master.o
 .debug_info    0x000000000000944c      0x764 build/nsensor/production/_ext/1877210129/plib_spi2_master.o
 .debug_info    0x0000000000009bb0      0x181 build/nsensor/production/_ext/619200320/plib_tmr9.o
 .debug_info    0x0000000000009d31      0x543 build/nsensor/production/_ext/619200320/plib_tmr5.o
 .debug_info    0x000000000000a274      0x550 build/nsensor/production/_ext/619200320/plib_tmr3.o
 .debug_info    0x000000000000a7c4      0x4de build/nsensor/production/_ext/619200320/plib_tmr6.o
 .debug_info    0x000000000000aca2      0x550 build/nsensor/production/_ext/619200320/plib_tmr2.o
 .debug_info    0x000000000000b1f2      0x655 build/nsensor/production/_ext/2015359111/plib_uart1.o
 .debug_info    0x000000000000b847      0x1c6 build/nsensor/production/_ext/725740559/xc32_monitor.o
 .debug_info    0x000000000000ba0d      0x130 build/nsensor/production/_ext/1856863253/exceptions.o
 .debug_info    0x000000000000bb3d      0x367 build/nsensor/production/_ext/1856863253/interrupts.o
 .debug_info    0x000000000000bea4      0x372 build/nsensor/production/_ext/1856863253/initialization.o
 .debug_info    0x000000000000c216      0xe14 build/nsensor/production/_ext/1360937237/bma490l.o
 .debug_info    0x000000000000d02a      0x34c build/nsensor/production/_ext/1360937237/timers.o
 .debug_info    0x000000000000d376      0xf9f build/nsensor/production/_ext/1360937237/sca3300.o
 .debug_info    0x000000000000e315      0x751 build/nsensor/production/_ext/1360937237/gfx.o
 .debug_info    0x000000000000ea66      0x828 build/nsensor/production/_ext/1360937237/imu.o
 .debug_info    0x000000000000f28e      0x1b2 build/nsensor/production/_ext/1360937237/pid.o
 .debug_info    0x000000000000f440      0x433 build/nsensor/production/_ext/1360937237/do_fft.o
 .debug_info    0x000000000000f873      0x511 build/nsensor/production/_ext/1360937237/fft.o
 .debug_info    0x000000000000fd84     0x1b78 build/nsensor/production/_ext/1360937237/main.o
 .debug_info    0x00000000000118fc      0xce2 build/nsensor/production/_ext/1360937237/canfd.o
 .debug_info    0x00000000000125de     0x1c5e build/nsensor/production/_ext/1360937237/host.o
 .debug_info    0x000000000001423c      0x485 build/nsensor/production/_ext/1360937237/cmd_scanner.o
 .debug_info    0x00000000000146c1       0x3f c:/program files/microchip/xc32/v4.20/bin/bin/../../lib/gcc/pic32mx/8.3.1/../../../../pic32mx/lib/fpu64\libpic32.a(default-on-reset.o)
 .debug_info    0x0000000000014700       0x3f c:/program files/microchip/xc32/v4.20/bin/bin/../../lib/gcc/pic32mx/8.3.1/../../../../pic32mx/lib/fpu64\libpic32.a(default-on-bootstrap.o)
 .debug_info    0x000000000001473f       0x40 c:/program files/microchip/xc32/v4.20/bin/bin/../../lib/gcc/pic32mx/8.3.1/../../../../pic32mx/lib/fpu64\libpic32.a(defaultinterrupt.o)
 .debug_info    0x000000000001477f      0x170 c:/program files/microchip/xc32/v4.20/bin/bin/../../lib/gcc/pic32mx/8.3.1/../../../../pic32mx/lib/fpu64\libc-musl.a(__sio_printf_s.o)
 .debug_info    0x00000000000148ef      0x215 c:/program files/microchip/xc32/v4.20/bin/bin/../../lib/gcc/pic32mx/8.3.1/../../../../pic32mx/lib/fpu64\libc-musl.a(__sio_sprintf_dfosux.o)
 .debug_info    0x0000000000014b04      0x1e7 c:/program files/microchip/xc32/v4.20/bin/bin/../../lib/gcc/pic32mx/8.3.1/../../../../pic32mx/lib/fpu64\libc-musl.a(__sio_sprintf_dosux.o)
 .debug_info    0x0000000000014ceb      0x1e7 c:/program files/microchip/xc32/v4.20/bin/bin/../../lib/gcc/pic32mx/8.3.1/../../../../pic32mx/lib/fpu64\libc-musl.a(__sio_sprintf_doux.o)
 .debug_info    0x0000000000014ed2      0x15d c:/program files/microchip/xc32/v4.20/bin/bin/../../lib/gcc/pic32mx/8.3.1/../../../../pic32mx/lib/fpu64\libc-musl.a(__sio_sprintf_s.o)
 .debug_info    0x000000000001502f      0x327 c:/program files/microchip/xc32/v4.20/bin/bin/../../lib/gcc/pic32mx/8.3.1/../../../../pic32mx/lib/fpu64\libc-musl.a(__fmt_d.o)
 .debug_info    0x0000000000015356      0x648 c:/program files/microchip/xc32/v4.20/bin/bin/../../lib/gcc/pic32mx/8.3.1/../../../../pic32mx/lib/fpu64\libc-musl.a(__fmt_fp.o)
 .debug_info    0x000000000001599e      0x2f8 c:/program files/microchip/xc32/v4.20/bin/bin/../../lib/gcc/pic32mx/8.3.1/../../../../pic32mx/lib/fpu64\libc-musl.a(__fmt_o.o)
 .debug_info    0x0000000000015c96      0x2a9 c:/program files/microchip/xc32/v4.20/bin/bin/../../lib/gcc/pic32mx/8.3.1/../../../../pic32mx/lib/fpu64\libc-musl.a(__fmt_s.o)
 .debug_info    0x0000000000015f3f      0x3cb c:/program files/microchip/xc32/v4.20/bin/bin/../../lib/gcc/pic32mx/8.3.1/../../../../pic32mx/lib/fpu64\libc-musl.a(__fmt_u.o)
 .debug_info    0x000000000001630a      0x322 c:/program files/microchip/xc32/v4.20/bin/bin/../../lib/gcc/pic32mx/8.3.1/../../../../pic32mx/lib/fpu64\libc-musl.a(__fmt_x.o)
 .debug_info    0x000000000001662c      0x134 c:/program files/microchip/xc32/v4.20/bin/bin/../../lib/gcc/pic32mx/8.3.1/../../../../pic32mx/lib/fpu64\libc-musl.a(__pop_float.o)
 .debug_info    0x0000000000016760      0x14e c:/program files/microchip/xc32/v4.20/bin/bin/../../lib/gcc/pic32mx/8.3.1/../../../../pic32mx/lib/fpu64\libc-musl.a(__pop_int.o)
 .debug_info    0x00000000000168ae      0x15e c:/program files/microchip/xc32/v4.20/bin/bin/../../lib/gcc/pic32mx/8.3.1/../../../../pic32mx/lib/fpu64\libc-musl.a(__pop_ptr.o)
 .debug_info    0x0000000000016a0c      0x9ee c:/program files/microchip/xc32/v4.20/bin/bin/../../lib/gcc/pic32mx/8.3.1/../../../../pic32mx/lib/fpu64\libc-musl.a(__printf_core.o)
 .debug_info    0x00000000000173fa      0x3c9 c:/program files/microchip/xc32/v4.20/bin/bin/../../lib/gcc/pic32mx/8.3.1/../../../../pic32mx/lib/fpu64\libc-musl.a(stdout.o)
 .debug_info    0x00000000000177c3      0x107 c:/program files/microchip/xc32/v4.20/bin/bin/../../lib/gcc/pic32mx/8.3.1/../../../../pic32mx/lib/fpu64\libc-musl.a(vprintf.o)
 .debug_info    0x00000000000178ca       0xee c:/program files/microchip/xc32/v4.20/bin/bin/../../lib/gcc/pic32mx/8.3.1/../../../../pic32mx/lib/fpu64\libc-musl.a(atoi.o)
 .debug_info    0x00000000000179b8       0xf1 c:/program files/microchip/xc32/v4.20/bin/bin/../../lib/gcc/pic32mx/8.3.1/../../../../pic32mx/lib/fpu64\libc-musl.a(memcpy.o)
 .debug_info    0x0000000000017aa9       0xbb c:/program files/microchip/xc32/v4.20/bin/bin/../../lib/gcc/pic32mx/8.3.1/../../../../pic32mx/lib/fpu64\libc-musl.a(strcpy.o)
 .debug_info    0x0000000000017b64       0xdd c:/program files/microchip/xc32/v4.20/bin/bin/../../lib/gcc/pic32mx/8.3.1/../../../../pic32mx/lib/fpu64\libc-musl.a(strncmp.o)
 .debug_info    0x0000000000017c41      0x11b c:/program files/microchip/xc32/v4.20/bin/bin/../../lib/gcc/pic32mx/8.3.1/../../../../pic32mx/lib/fpu64\libc-musl.a(tolower.o)
 .debug_info    0x0000000000017d5c      0x11b c:/program files/microchip/xc32/v4.20/bin/bin/../../lib/gcc/pic32mx/8.3.1/../../../../pic32mx/lib/fpu64\libc-musl.a(toupper.o)
 .debug_info    0x0000000000017e77      0x1e0 c:/program files/microchip/xc32/v4.20/bin/bin/../../lib/gcc/pic32mx/8.3.1/../../../../pic32mx/lib/fpu64\libc-musl.a(__int_vfprintf.o)
 .debug_info    0x0000000000018057      0x127 c:/program files/microchip/xc32/v4.20/bin/bin/../../lib/gcc/pic32mx/8.3.1/../../../../pic32mx/lib/fpu64\libc-musl.a(__int_vsprintf.o)
 .debug_info    0x000000000001817e      0x2d0 c:/program files/microchip/xc32/v4.20/bin/bin/../../lib/gcc/pic32mx/8.3.1/../../../../pic32mx/lib/fpu64\libc-musl.a(__fopen.o)
 .debug_info    0x000000000001844e       0xdf c:/program files/microchip/xc32/v4.20/bin/bin/../../lib/gcc/pic32mx/8.3.1/../../../../pic32mx/lib/fpu64\libc-musl.a(__io_init_needed.o)
 .debug_info    0x000000000001852d      0x29f c:/program files/microchip/xc32/v4.20/bin/bin/../../lib/gcc/pic32mx/8.3.1/../../../../pic32mx/lib/fpu64\libc-musl.a(__out.o)
 .debug_info    0x00000000000187cc      0x3f6 c:/program files/microchip/xc32/v4.20/bin/bin/../../lib/gcc/pic32mx/8.3.1/../../../../pic32mx/lib/fpu64\libc-musl.a(__stdio_close.o)
 .debug_info    0x0000000000018bc2      0x3ef c:/program files/microchip/xc32/v4.20/bin/bin/../../lib/gcc/pic32mx/8.3.1/../../../../pic32mx/lib/fpu64\libc-musl.a(vfprintf.o)
 .debug_info    0x0000000000018fb1       0xab c:/program files/microchip/xc32/v4.20/bin/bin/../../lib/gcc/pic32mx/8.3.1/../../../../pic32mx/lib/fpu64\libc-musl.a(stpcpy.o)
 .debug_info    0x000000000001905c      0xfed c:/program files/microchip/xc32/v4.20/bin/bin/../../lib/gcc/pic32mx/8.3.1/../../../../pic32mx/lib/fpu64\libc-musl.a(malloc.o)
 .debug_info    0x000000000001a049      0x105 c:/program files/microchip/xc32/v4.20/bin/bin/../../lib/gcc/pic32mx/8.3.1/../../../../pic32mx/lib/fpu64\libc-musl.a(expand_heap.o)
 .debug_info    0x000000000001a14e      0x1f5 c:/program files/microchip/xc32/v4.20/bin/bin/../../lib/gcc/pic32mx/8.3.1/../../../../pic32mx/lib/fpu64\libc-musl.a(__int_vsnprintf.o)
 .debug_info    0x000000000001a343       0xb9 c:/program files/microchip/xc32/v4.20/bin/bin/../../lib/gcc/pic32mx/8.3.1/../../../../pic32mx/lib/fpu64\libc-musl.a(__init_stdio.o)
 .debug_info    0x000000000001a3fc       0xaf c:/program files/microchip/xc32/v4.20/bin/bin/../../lib/gcc/pic32mx/8.3.1/../../../../pic32mx/lib/fpu64\libc-musl.a(__io_file_needed.o)
 .debug_info    0x000000000001a4ab      0x17e c:/program files/microchip/xc32/v4.20/bin/bin/../../lib/gcc/pic32mx/8.3.1/../../../../pic32mx/lib/fpu64\libc-musl.a(__io_fmt_needed.o)
 .debug_info    0x000000000001a629      0x276 c:/program files/microchip/xc32/v4.20/bin/bin/../../lib/gcc/pic32mx/8.3.1/../../../../pic32mx/lib/fpu64\libc-musl.a(libc.o)
 .debug_info    0x000000000001a89f      0x604 c:/program files/microchip/xc32/v4.20/bin/bin/../../lib/gcc/pic32mx/8.3.1/../../../../pic32mx/lib/fpu64\libc-musl.a(__fmt_a.o)
 .debug_info    0x000000000001aea3      0x1f8 c:/program files/microchip/xc32/v4.20/bin/bin/../../lib/gcc/pic32mx/8.3.1/../../../../pic32mx/lib/fpu64\libm-musl.a(cos.o)
 .debug_info    0x000000000001b09b      0x16d c:/program files/microchip/xc32/v4.20/bin/bin/../../lib/gcc/pic32mx/8.3.1/../../../../pic32mx/lib/fpu64\libm-musl.a(floor.o)
 .debug_info    0x000000000001b208      0x534 c:/program files/microchip/xc32/v4.20/bin/bin/../../lib/gcc/pic32mx/8.3.1/../../../../pic32mx/lib/fpu64\libm-musl.a(fma.o)
 .debug_info    0x000000000001b73c      0x109 c:/program files/microchip/xc32/v4.20/bin/bin/../../lib/gcc/pic32mx/8.3.1/../../../../pic32mx/lib/fpu64\libm-musl.a(scalbn.o)
 .debug_info    0x000000000001b845      0x1f4 c:/program files/microchip/xc32/v4.20/bin/bin/../../lib/gcc/pic32mx/8.3.1/../../../../pic32mx/lib/fpu64\libm-musl.a(sin.o)
 .debug_info    0x000000000001ba39      0x17b c:/program files/microchip/xc32/v4.20/bin/bin/../../lib/gcc/pic32mx/8.3.1/../../../../pic32mx/lib/fpu64\libm-musl.a(__cos.o)
 .debug_info    0x000000000001bbb4      0x313 c:/program files/microchip/xc32/v4.20/bin/bin/../../lib/gcc/pic32mx/8.3.1/../../../../pic32mx/lib/fpu64\libm-musl.a(__rem_pio2.o)
 .debug_info    0x000000000001bec7      0x3c6 c:/program files/microchip/xc32/v4.20/bin/bin/../../lib/gcc/pic32mx/8.3.1/../../../../pic32mx/lib/fpu64\libm-musl.a(__rem_pio2_large.o)
 .debug_info    0x000000000001c28d      0x18d c:/program files/microchip/xc32/v4.20/bin/bin/../../lib/gcc/pic32mx/8.3.1/../../../../pic32mx/lib/fpu64\libm-musl.a(__sin.o)
 .debug_info    0x000000000001c41a      0x1aa c:/program files/microchip/xc32/v4.20/bin/bin/../../lib/gcc/pic32mx/8.3.1/fpu64\libgcc.a(_lshrdi3.o)
 .debug_info    0x000000000001c5c4      0x1aa c:/program files/microchip/xc32/v4.20/bin/bin/../../lib/gcc/pic32mx/8.3.1/fpu64\libgcc.a(_ashldi3.o)
 .debug_info    0x000000000001c76e      0x6ca c:/program files/microchip/xc32/v4.20/bin/bin/../../lib/gcc/pic32mx/8.3.1/fpu64\libgcc.a(_udivdi3.o)
 .debug_info    0x000000000001ce38      0x73e c:/program files/microchip/xc32/v4.20/bin/bin/../../lib/gcc/pic32mx/8.3.1/fpu64\libgcc.a(_umoddi3.o)
 .debug_info    0x000000000001d576       0x97 c:/program files/microchip/xc32/v4.20/bin/bin/../../lib/gcc/pic32mx/8.3.1/../../../../pic32mx/lib/fpu64\libpic32.a(sbrk.o)
 .debug_info    0x000000000001d60d       0x3f c:/program files/microchip/xc32/v4.20/bin/bin/../../lib/gcc/pic32mx/8.3.1/../../../../pic32mx/lib/fpu64\libpic32.a(lseek.o)
 .debug_info    0x000000000001d64c       0x3f c:/program files/microchip/xc32/v4.20/bin/bin/../../lib/gcc/pic32mx/8.3.1/../../../../pic32mx/lib/fpu64\libpic32.a(close.o)

.debug_abbrev   0x0000000000000000     0x921e
 *.elf(.debug_abbrev)
 *(.debug_abbrev)
 .debug_abbrev  0x0000000000000000       0x61 build/nsensor/production/_ext/1684788505/ChrFont0.o
 .debug_abbrev  0x0000000000000061      0x2ca build/nsensor/production/_ext/1684788505/dogm-graphic.o
 .debug_abbrev  0x000000000000032b      0x355 build/nsensor/production/_ext/1684788505/eadog.o
 .debug_abbrev  0x0000000000000680       0x61 build/nsensor/production/_ext/1684788505/FillPat.o
 .debug_abbrev  0x00000000000006e1       0x6c build/nsensor/production/_ext/1684788505/foo.o
 .debug_abbrev  0x000000000000074d      0x156 build/nsensor/production/_ext/1684788505/lcd_drv.o
 .debug_abbrev  0x00000000000008a3      0x1b1 build/nsensor/production/_ext/1684788505/OledChar.o
 .debug_abbrev  0x0000000000000a54      0x38e build/nsensor/production/_ext/1684788505/OledDriver.o
 .debug_abbrev  0x0000000000000de2      0x35c build/nsensor/production/_ext/1684788505/OledGrph.o
 .debug_abbrev  0x000000000000113e      0x17a build/nsensor/production/_ext/1966772718/plib_adchs.o
 .debug_abbrev  0x00000000000012b8      0x3bb build/nsensor/production/_ext/1965004555/plib_canfd1.o
 .debug_abbrev  0x0000000000001673       0xcb build/nsensor/production/_ext/619183945/plib_clk.o
 .debug_abbrev  0x000000000000173e      0x1ca build/nsensor/production/_ext/1664108525/plib_coretimer.o
 .debug_abbrev  0x0000000000001908      0x2d9 build/nsensor/production/_ext/2014863652/plib_dmac.o
 .debug_abbrev  0x0000000000001be1      0x17e build/nsensor/production/_ext/2014902340/plib_evic.o
 .debug_abbrev  0x0000000000001d5f      0x12a build/nsensor/production/_ext/2014956168/plib_gpio.o
 .debug_abbrev  0x0000000000001e89      0x131 build/nsensor/production/_ext/1955707305/plib_mcpwm.o
 .debug_abbrev  0x0000000000001fba      0x163 build/nsensor/production/_ext/619197180/plib_qei2.o
 .debug_abbrev  0x000000000000211d      0x292 build/nsensor/production/_ext/2015287515/plib_rtcc.o
 .debug_abbrev  0x00000000000023af      0x2c5 build/nsensor/production/_ext/1877210129/plib_spi1_master.o
 .debug_abbrev  0x0000000000002674      0x2c5 build/nsensor/production/_ext/1877210129/plib_spi2_master.o
 .debug_abbrev  0x0000000000002939       0xc9 build/nsensor/production/_ext/619200320/plib_tmr9.o
 .debug_abbrev  0x0000000000002a02      0x1b3 build/nsensor/production/_ext/619200320/plib_tmr5.o
 .debug_abbrev  0x0000000000002bb5      0x1b3 build/nsensor/production/_ext/619200320/plib_tmr3.o
 .debug_abbrev  0x0000000000002d68      0x1b3 build/nsensor/production/_ext/619200320/plib_tmr6.o
 .debug_abbrev  0x0000000000002f1b      0x1b3 build/nsensor/production/_ext/619200320/plib_tmr2.o
 .debug_abbrev  0x00000000000030ce      0x23a build/nsensor/production/_ext/2015359111/plib_uart1.o
 .debug_abbrev  0x0000000000003308       0xd6 build/nsensor/production/_ext/725740559/xc32_monitor.o
 .debug_abbrev  0x00000000000033de       0x95 build/nsensor/production/_ext/1856863253/exceptions.o
 .debug_abbrev  0x0000000000003473       0x65 build/nsensor/production/_ext/1856863253/interrupts.o
 .debug_abbrev  0x00000000000034d8       0xe6 build/nsensor/production/_ext/1856863253/initialization.o
 .debug_abbrev  0x00000000000035be      0x383 build/nsensor/production/_ext/1360937237/bma490l.o
 .debug_abbrev  0x0000000000003941      0x1b5 build/nsensor/production/_ext/1360937237/timers.o
 .debug_abbrev  0x0000000000003af6      0x39f build/nsensor/production/_ext/1360937237/sca3300.o
 .debug_abbrev  0x0000000000003e95      0x226 build/nsensor/production/_ext/1360937237/gfx.o
 .debug_abbrev  0x00000000000040bb      0x2de build/nsensor/production/_ext/1360937237/imu.o
 .debug_abbrev  0x0000000000004399       0xe0 build/nsensor/production/_ext/1360937237/pid.o
 .debug_abbrev  0x0000000000004479      0x19e build/nsensor/production/_ext/1360937237/do_fft.o
 .debug_abbrev  0x0000000000004617      0x177 build/nsensor/production/_ext/1360937237/fft.o
 .debug_abbrev  0x000000000000478e      0x330 build/nsensor/production/_ext/1360937237/main.o
 .debug_abbrev  0x0000000000004abe      0x259 build/nsensor/production/_ext/1360937237/canfd.o
 .debug_abbrev  0x0000000000004d17      0x4f6 build/nsensor/production/_ext/1360937237/host.o
 .debug_abbrev  0x000000000000520d      0x268 build/nsensor/production/_ext/1360937237/cmd_scanner.o
 .debug_abbrev  0x0000000000005475       0x2e c:/program files/microchip/xc32/v4.20/bin/bin/../../lib/gcc/pic32mx/8.3.1/../../../../pic32mx/lib/fpu64\libpic32.a(default-on-reset.o)
 .debug_abbrev  0x00000000000054a3       0x2e c:/program files/microchip/xc32/v4.20/bin/bin/../../lib/gcc/pic32mx/8.3.1/../../../../pic32mx/lib/fpu64\libpic32.a(default-on-bootstrap.o)
 .debug_abbrev  0x00000000000054d1       0x31 c:/program files/microchip/xc32/v4.20/bin/bin/../../lib/gcc/pic32mx/8.3.1/../../../../pic32mx/lib/fpu64\libpic32.a(defaultinterrupt.o)
 .debug_abbrev  0x0000000000005502      0x12b c:/program files/microchip/xc32/v4.20/bin/bin/../../lib/gcc/pic32mx/8.3.1/../../../../pic32mx/lib/fpu64\libc-musl.a(__sio_printf_s.o)
 .debug_abbrev  0x000000000000562d      0x100 c:/program files/microchip/xc32/v4.20/bin/bin/../../lib/gcc/pic32mx/8.3.1/../../../../pic32mx/lib/fpu64\libc-musl.a(__sio_sprintf_dfosux.o)
 .debug_abbrev  0x000000000000572d      0x100 c:/program files/microchip/xc32/v4.20/bin/bin/../../lib/gcc/pic32mx/8.3.1/../../../../pic32mx/lib/fpu64\libc-musl.a(__sio_sprintf_dosux.o)
 .debug_abbrev  0x000000000000582d      0x100 c:/program files/microchip/xc32/v4.20/bin/bin/../../lib/gcc/pic32mx/8.3.1/../../../../pic32mx/lib/fpu64\libc-musl.a(__sio_sprintf_doux.o)
 .debug_abbrev  0x000000000000592d      0x100 c:/program files/microchip/xc32/v4.20/bin/bin/../../lib/gcc/pic32mx/8.3.1/../../../../pic32mx/lib/fpu64\libc-musl.a(__sio_sprintf_s.o)
 .debug_abbrev  0x0000000000005a2d      0x161 c:/program files/microchip/xc32/v4.20/bin/bin/../../lib/gcc/pic32mx/8.3.1/../../../../pic32mx/lib/fpu64\libc-musl.a(__fmt_d.o)
 .debug_abbrev  0x0000000000005b8e      0x1e3 c:/program files/microchip/xc32/v4.20/bin/bin/../../lib/gcc/pic32mx/8.3.1/../../../../pic32mx/lib/fpu64\libc-musl.a(__fmt_fp.o)
 .debug_abbrev  0x0000000000005d71      0x161 c:/program files/microchip/xc32/v4.20/bin/bin/../../lib/gcc/pic32mx/8.3.1/../../../../pic32mx/lib/fpu64\libc-musl.a(__fmt_o.o)
 .debug_abbrev  0x0000000000005ed2      0x14c c:/program files/microchip/xc32/v4.20/bin/bin/../../lib/gcc/pic32mx/8.3.1/../../../../pic32mx/lib/fpu64\libc-musl.a(__fmt_s.o)
 .debug_abbrev  0x000000000000601e      0x193 c:/program files/microchip/xc32/v4.20/bin/bin/../../lib/gcc/pic32mx/8.3.1/../../../../pic32mx/lib/fpu64\libc-musl.a(__fmt_u.o)
 .debug_abbrev  0x00000000000061b1      0x150 c:/program files/microchip/xc32/v4.20/bin/bin/../../lib/gcc/pic32mx/8.3.1/../../../../pic32mx/lib/fpu64\libc-musl.a(__fmt_x.o)
 .debug_abbrev  0x0000000000006301       0xc3 c:/program files/microchip/xc32/v4.20/bin/bin/../../lib/gcc/pic32mx/8.3.1/../../../../pic32mx/lib/fpu64\libc-musl.a(__pop_float.o)
 .debug_abbrev  0x00000000000063c4       0xc3 c:/program files/microchip/xc32/v4.20/bin/bin/../../lib/gcc/pic32mx/8.3.1/../../../../pic32mx/lib/fpu64\libc-musl.a(__pop_int.o)
 .debug_abbrev  0x0000000000006487       0xd7 c:/program files/microchip/xc32/v4.20/bin/bin/../../lib/gcc/pic32mx/8.3.1/../../../../pic32mx/lib/fpu64\libc-musl.a(__pop_ptr.o)
 .debug_abbrev  0x000000000000655e      0x318 c:/program files/microchip/xc32/v4.20/bin/bin/../../lib/gcc/pic32mx/8.3.1/../../../../pic32mx/lib/fpu64\libc-musl.a(__printf_core.o)
 .debug_abbrev  0x0000000000006876      0x17f c:/program files/microchip/xc32/v4.20/bin/bin/../../lib/gcc/pic32mx/8.3.1/../../../../pic32mx/lib/fpu64\libc-musl.a(stdout.o)
 .debug_abbrev  0x00000000000069f5       0xdc c:/program files/microchip/xc32/v4.20/bin/bin/../../lib/gcc/pic32mx/8.3.1/../../../../pic32mx/lib/fpu64\libc-musl.a(vprintf.o)
 .debug_abbrev  0x0000000000006ad1       0xc4 c:/program files/microchip/xc32/v4.20/bin/bin/../../lib/gcc/pic32mx/8.3.1/../../../../pic32mx/lib/fpu64\libc-musl.a(atoi.o)
 .debug_abbrev  0x0000000000006b95       0xbb c:/program files/microchip/xc32/v4.20/bin/bin/../../lib/gcc/pic32mx/8.3.1/../../../../pic32mx/lib/fpu64\libc-musl.a(memcpy.o)
 .debug_abbrev  0x0000000000006c50       0xa2 c:/program files/microchip/xc32/v4.20/bin/bin/../../lib/gcc/pic32mx/8.3.1/../../../../pic32mx/lib/fpu64\libc-musl.a(strcpy.o)
 .debug_abbrev  0x0000000000006cf2       0xa2 c:/program files/microchip/xc32/v4.20/bin/bin/../../lib/gcc/pic32mx/8.3.1/../../../../pic32mx/lib/fpu64\libc-musl.a(strncmp.o)
 .debug_abbrev  0x0000000000006d94       0xf1 c:/program files/microchip/xc32/v4.20/bin/bin/../../lib/gcc/pic32mx/8.3.1/../../../../pic32mx/lib/fpu64\libc-musl.a(tolower.o)
 .debug_abbrev  0x0000000000006e85       0xf1 c:/program files/microchip/xc32/v4.20/bin/bin/../../lib/gcc/pic32mx/8.3.1/../../../../pic32mx/lib/fpu64\libc-musl.a(toupper.o)
 .debug_abbrev  0x0000000000006f76      0x118 c:/program files/microchip/xc32/v4.20/bin/bin/../../lib/gcc/pic32mx/8.3.1/../../../../pic32mx/lib/fpu64\libc-musl.a(__int_vfprintf.o)
 .debug_abbrev  0x000000000000708e       0xb1 c:/program files/microchip/xc32/v4.20/bin/bin/../../lib/gcc/pic32mx/8.3.1/../../../../pic32mx/lib/fpu64\libc-musl.a(__int_vsprintf.o)
 .debug_abbrev  0x000000000000713f      0x168 c:/program files/microchip/xc32/v4.20/bin/bin/../../lib/gcc/pic32mx/8.3.1/../../../../pic32mx/lib/fpu64\libc-musl.a(__fopen.o)
 .debug_abbrev  0x00000000000072a7       0x81 c:/program files/microchip/xc32/v4.20/bin/bin/../../lib/gcc/pic32mx/8.3.1/../../../../pic32mx/lib/fpu64\libc-musl.a(__io_init_needed.o)
 .debug_abbrev  0x0000000000007328      0x17a c:/program files/microchip/xc32/v4.20/bin/bin/../../lib/gcc/pic32mx/8.3.1/../../../../pic32mx/lib/fpu64\libc-musl.a(__out.o)
 .debug_abbrev  0x00000000000074a2      0x15a c:/program files/microchip/xc32/v4.20/bin/bin/../../lib/gcc/pic32mx/8.3.1/../../../../pic32mx/lib/fpu64\libc-musl.a(__stdio_close.o)
 .debug_abbrev  0x00000000000075fc      0x178 c:/program files/microchip/xc32/v4.20/bin/bin/../../lib/gcc/pic32mx/8.3.1/../../../../pic32mx/lib/fpu64\libc-musl.a(vfprintf.o)
 .debug_abbrev  0x0000000000007774       0x6e c:/program files/microchip/xc32/v4.20/bin/bin/../../lib/gcc/pic32mx/8.3.1/../../../../pic32mx/lib/fpu64\libc-musl.a(stpcpy.o)
 .debug_abbrev  0x00000000000077e2      0x43a c:/program files/microchip/xc32/v4.20/bin/bin/../../lib/gcc/pic32mx/8.3.1/../../../../pic32mx/lib/fpu64\libc-musl.a(malloc.o)
 .debug_abbrev  0x0000000000007c1c       0xc4 c:/program files/microchip/xc32/v4.20/bin/bin/../../lib/gcc/pic32mx/8.3.1/../../../../pic32mx/lib/fpu64\libc-musl.a(expand_heap.o)
 .debug_abbrev  0x0000000000007ce0      0x13a c:/program files/microchip/xc32/v4.20/bin/bin/../../lib/gcc/pic32mx/8.3.1/../../../../pic32mx/lib/fpu64\libc-musl.a(__int_vsnprintf.o)
 .debug_abbrev  0x0000000000007e1a       0x65 c:/program files/microchip/xc32/v4.20/bin/bin/../../lib/gcc/pic32mx/8.3.1/../../../../pic32mx/lib/fpu64\libc-musl.a(__init_stdio.o)
 .debug_abbrev  0x0000000000007e7f       0x67 c:/program files/microchip/xc32/v4.20/bin/bin/../../lib/gcc/pic32mx/8.3.1/../../../../pic32mx/lib/fpu64\libc-musl.a(__io_file_needed.o)
 .debug_abbrev  0x0000000000007ee6       0x67 c:/program files/microchip/xc32/v4.20/bin/bin/../../lib/gcc/pic32mx/8.3.1/../../../../pic32mx/lib/fpu64\libc-musl.a(__io_fmt_needed.o)
 .debug_abbrev  0x0000000000007f4d       0xd4 c:/program files/microchip/xc32/v4.20/bin/bin/../../lib/gcc/pic32mx/8.3.1/../../../../pic32mx/lib/fpu64\libc-musl.a(libc.o)
 .debug_abbrev  0x0000000000008021      0x1d5 c:/program files/microchip/xc32/v4.20/bin/bin/../../lib/gcc/pic32mx/8.3.1/../../../../pic32mx/lib/fpu64\libc-musl.a(__fmt_a.o)
 .debug_abbrev  0x00000000000081f6      0x120 c:/program files/microchip/xc32/v4.20/bin/bin/../../lib/gcc/pic32mx/8.3.1/../../../../pic32mx/lib/fpu64\libm-musl.a(cos.o)
 .debug_abbrev  0x0000000000008316      0x101 c:/program files/microchip/xc32/v4.20/bin/bin/../../lib/gcc/pic32mx/8.3.1/../../../../pic32mx/lib/fpu64\libm-musl.a(floor.o)
 .debug_abbrev  0x0000000000008417      0x22d c:/program files/microchip/xc32/v4.20/bin/bin/../../lib/gcc/pic32mx/8.3.1/../../../../pic32mx/lib/fpu64\libm-musl.a(fma.o)
 .debug_abbrev  0x0000000000008644       0xac c:/program files/microchip/xc32/v4.20/bin/bin/../../lib/gcc/pic32mx/8.3.1/../../../../pic32mx/lib/fpu64\libm-musl.a(scalbn.o)
 .debug_abbrev  0x00000000000086f0      0x12b c:/program files/microchip/xc32/v4.20/bin/bin/../../lib/gcc/pic32mx/8.3.1/../../../../pic32mx/lib/fpu64\libm-musl.a(sin.o)
 .debug_abbrev  0x000000000000881b       0xa8 c:/program files/microchip/xc32/v4.20/bin/bin/../../lib/gcc/pic32mx/8.3.1/../../../../pic32mx/lib/fpu64\libm-musl.a(__cos.o)
 .debug_abbrev  0x00000000000088c3      0x140 c:/program files/microchip/xc32/v4.20/bin/bin/../../lib/gcc/pic32mx/8.3.1/../../../../pic32mx/lib/fpu64\libm-musl.a(__rem_pio2.o)
 .debug_abbrev  0x0000000000008a03      0x159 c:/program files/microchip/xc32/v4.20/bin/bin/../../lib/gcc/pic32mx/8.3.1/../../../../pic32mx/lib/fpu64\libm-musl.a(__rem_pio2_large.o)
 .debug_abbrev  0x0000000000008b5c       0xa8 c:/program files/microchip/xc32/v4.20/bin/bin/../../lib/gcc/pic32mx/8.3.1/../../../../pic32mx/lib/fpu64\libm-musl.a(__sin.o)
 .debug_abbrev  0x0000000000008c04      0x121 c:/program files/microchip/xc32/v4.20/bin/bin/../../lib/gcc/pic32mx/8.3.1/fpu64\libgcc.a(_lshrdi3.o)
 .debug_abbrev  0x0000000000008d25      0x121 c:/program files/microchip/xc32/v4.20/bin/bin/../../lib/gcc/pic32mx/8.3.1/fpu64\libgcc.a(_ashldi3.o)
 .debug_abbrev  0x0000000000008e46      0x184 c:/program files/microchip/xc32/v4.20/bin/bin/../../lib/gcc/pic32mx/8.3.1/fpu64\libgcc.a(_udivdi3.o)
 .debug_abbrev  0x0000000000008fca      0x19a c:/program files/microchip/xc32/v4.20/bin/bin/../../lib/gcc/pic32mx/8.3.1/fpu64\libgcc.a(_umoddi3.o)
 .debug_abbrev  0x0000000000009164       0x5e c:/program files/microchip/xc32/v4.20/bin/bin/../../lib/gcc/pic32mx/8.3.1/../../../../pic32mx/lib/fpu64\libpic32.a(sbrk.o)
 .debug_abbrev  0x00000000000091c2       0x2e c:/program files/microchip/xc32/v4.20/bin/bin/../../lib/gcc/pic32mx/8.3.1/../../../../pic32mx/lib/fpu64\libpic32.a(lseek.o)
 .debug_abbrev  0x00000000000091f0       0x2e c:/program files/microchip/xc32/v4.20/bin/bin/../../lib/gcc/pic32mx/8.3.1/../../../../pic32mx/lib/fpu64\libpic32.a(close.o)

.debug_line     0x0000000000000000    0x13baa
 *.elf(.debug_line)
 *(.debug_line)
 .debug_line    0x0000000000000000       0x9f build/nsensor/production/_ext/1684788505/ChrFont0.o
 .debug_line    0x000000000000009f      0x4f6 build/nsensor/production/_ext/1684788505/dogm-graphic.o
 .debug_line    0x0000000000000595      0x771 build/nsensor/production/_ext/1684788505/eadog.o
 .debug_line    0x0000000000000d06       0x9e build/nsensor/production/_ext/1684788505/FillPat.o
 .debug_line    0x0000000000000da4       0xa7 build/nsensor/production/_ext/1684788505/foo.o
 .debug_line    0x0000000000000e4b      0x1c2 build/nsensor/production/_ext/1684788505/lcd_drv.o
 .debug_line    0x000000000000100d      0x280 build/nsensor/production/_ext/1684788505/OledChar.o
 .debug_line    0x000000000000128d      0x516 build/nsensor/production/_ext/1684788505/OledDriver.o
 .debug_line    0x00000000000017a3      0xa54 build/nsensor/production/_ext/1684788505/OledGrph.o
 .debug_line    0x00000000000021f7      0x3b2 build/nsensor/production/_ext/1966772718/plib_adchs.o
 .debug_line    0x00000000000025a9      0x9c0 build/nsensor/production/_ext/1965004555/plib_canfd1.o
 .debug_line    0x0000000000002f69      0x22a build/nsensor/production/_ext/619183945/plib_clk.o
 .debug_line    0x0000000000003193      0x2d6 build/nsensor/production/_ext/1664108525/plib_coretimer.o
 .debug_line    0x0000000000003469      0xbe0 build/nsensor/production/_ext/2014863652/plib_dmac.o
 .debug_line    0x0000000000004049      0x37f build/nsensor/production/_ext/2014902340/plib_evic.o
 .debug_line    0x00000000000043c8      0x340 build/nsensor/production/_ext/2014956168/plib_gpio.o
 .debug_line    0x0000000000004708      0x2ee build/nsensor/production/_ext/1955707305/plib_mcpwm.o
 .debug_line    0x00000000000049f6      0x217 build/nsensor/production/_ext/619197180/plib_qei2.o
 .debug_line    0x0000000000004c0d      0x56f build/nsensor/production/_ext/2015287515/plib_rtcc.o
 .debug_line    0x000000000000517c      0x7cd build/nsensor/production/_ext/1877210129/plib_spi1_master.o
 .debug_line    0x0000000000005949      0x813 build/nsensor/production/_ext/1877210129/plib_spi2_master.o
 .debug_line    0x000000000000615c      0x1ac build/nsensor/production/_ext/619200320/plib_tmr9.o
 .debug_line    0x0000000000006308      0x21c build/nsensor/production/_ext/619200320/plib_tmr5.o
 .debug_line    0x0000000000006524      0x21e build/nsensor/production/_ext/619200320/plib_tmr3.o
 .debug_line    0x0000000000006742      0x21e build/nsensor/production/_ext/619200320/plib_tmr6.o
 .debug_line    0x0000000000006960      0x21e build/nsensor/production/_ext/619200320/plib_tmr2.o
 .debug_line    0x0000000000006b7e      0x4e6 build/nsensor/production/_ext/2015359111/plib_uart1.o
 .debug_line    0x0000000000007064      0x173 build/nsensor/production/_ext/725740559/xc32_monitor.o
 .debug_line    0x00000000000071d7       0x89 build/nsensor/production/_ext/1856863253/exceptions.o
 .debug_line    0x0000000000007260      0x14d build/nsensor/production/_ext/1856863253/interrupts.o
 .debug_line    0x00000000000073ad      0x5db build/nsensor/production/_ext/1856863253/initialization.o
 .debug_line    0x0000000000007988      0x61f build/nsensor/production/_ext/1360937237/bma490l.o
 .debug_line    0x0000000000007fa7      0x175 build/nsensor/production/_ext/1360937237/timers.o
 .debug_line    0x000000000000811c      0x76c build/nsensor/production/_ext/1360937237/sca3300.o
 .debug_line    0x0000000000008888      0x480 build/nsensor/production/_ext/1360937237/gfx.o
 .debug_line    0x0000000000008d08      0x2bb build/nsensor/production/_ext/1360937237/imu.o
 .debug_line    0x0000000000008fc3       0xe9 build/nsensor/production/_ext/1360937237/pid.o
 .debug_line    0x00000000000090ac      0x23b build/nsensor/production/_ext/1360937237/do_fft.o
 .debug_line    0x00000000000092e7      0x31e build/nsensor/production/_ext/1360937237/fft.o
 .debug_line    0x0000000000009605      0x995 build/nsensor/production/_ext/1360937237/main.o
 .debug_line    0x0000000000009f9a      0x556 build/nsensor/production/_ext/1360937237/canfd.o
 .debug_line    0x000000000000a4f0      0xa5e build/nsensor/production/_ext/1360937237/host.o
 .debug_line    0x000000000000af4e      0x2d0 build/nsensor/production/_ext/1360937237/cmd_scanner.o
 .debug_line    0x000000000000b21e       0xa6 c:/program files/microchip/xc32/v4.20/bin/bin/../../lib/gcc/pic32mx/8.3.1/../../../../pic32mx/lib/fpu64\libpic32.a(default-on-reset.o)
 .debug_line    0x000000000000b2c4       0xaa c:/program files/microchip/xc32/v4.20/bin/bin/../../lib/gcc/pic32mx/8.3.1/../../../../pic32mx/lib/fpu64\libpic32.a(default-on-bootstrap.o)
 .debug_line    0x000000000000b36e       0xc9 c:/program files/microchip/xc32/v4.20/bin/bin/../../lib/gcc/pic32mx/8.3.1/../../../../pic32mx/lib/fpu64\libpic32.a(defaultinterrupt.o)
 .debug_line    0x000000000000b437      0x269 c:/program files/microchip/xc32/v4.20/bin/bin/../../lib/gcc/pic32mx/8.3.1/../../../../pic32mx/lib/fpu64\libc-musl.a(__sio_printf_s.o)
 .debug_line    0x000000000000b6a0      0x200 c:/program files/microchip/xc32/v4.20/bin/bin/../../lib/gcc/pic32mx/8.3.1/../../../../pic32mx/lib/fpu64\libc-musl.a(__sio_sprintf_dfosux.o)
 .debug_line    0x000000000000b8a0      0x1fd c:/program files/microchip/xc32/v4.20/bin/bin/../../lib/gcc/pic32mx/8.3.1/../../../../pic32mx/lib/fpu64\libc-musl.a(__sio_sprintf_dosux.o)
 .debug_line    0x000000000000ba9d      0x1fc c:/program files/microchip/xc32/v4.20/bin/bin/../../lib/gcc/pic32mx/8.3.1/../../../../pic32mx/lib/fpu64\libc-musl.a(__sio_sprintf_doux.o)
 .debug_line    0x000000000000bc99      0x1ef c:/program files/microchip/xc32/v4.20/bin/bin/../../lib/gcc/pic32mx/8.3.1/../../../../pic32mx/lib/fpu64\libc-musl.a(__sio_sprintf_s.o)
 .debug_line    0x000000000000be88      0x25e c:/program files/microchip/xc32/v4.20/bin/bin/../../lib/gcc/pic32mx/8.3.1/../../../../pic32mx/lib/fpu64\libc-musl.a(__fmt_d.o)
 .debug_line    0x000000000000c0e6      0x6c8 c:/program files/microchip/xc32/v4.20/bin/bin/../../lib/gcc/pic32mx/8.3.1/../../../../pic32mx/lib/fpu64\libc-musl.a(__fmt_fp.o)
 .debug_line    0x000000000000c7ae      0x20f c:/program files/microchip/xc32/v4.20/bin/bin/../../lib/gcc/pic32mx/8.3.1/../../../../pic32mx/lib/fpu64\libc-musl.a(__fmt_o.o)
 .debug_line    0x000000000000c9bd      0x25d c:/program files/microchip/xc32/v4.20/bin/bin/../../lib/gcc/pic32mx/8.3.1/../../../../pic32mx/lib/fpu64\libc-musl.a(__fmt_s.o)
 .debug_line    0x000000000000cc1a      0x2a3 c:/program files/microchip/xc32/v4.20/bin/bin/../../lib/gcc/pic32mx/8.3.1/../../../../pic32mx/lib/fpu64\libc-musl.a(__fmt_u.o)
 .debug_line    0x000000000000cebd      0x338 c:/program files/microchip/xc32/v4.20/bin/bin/../../lib/gcc/pic32mx/8.3.1/../../../../pic32mx/lib/fpu64\libc-musl.a(__fmt_x.o)
 .debug_line    0x000000000000d1f5      0x1bb c:/program files/microchip/xc32/v4.20/bin/bin/../../lib/gcc/pic32mx/8.3.1/../../../../pic32mx/lib/fpu64\libc-musl.a(__pop_float.o)
 .debug_line    0x000000000000d3b0      0x25a c:/program files/microchip/xc32/v4.20/bin/bin/../../lib/gcc/pic32mx/8.3.1/../../../../pic32mx/lib/fpu64\libc-musl.a(__pop_int.o)
 .debug_line    0x000000000000d60a      0x213 c:/program files/microchip/xc32/v4.20/bin/bin/../../lib/gcc/pic32mx/8.3.1/../../../../pic32mx/lib/fpu64\libc-musl.a(__pop_ptr.o)
 .debug_line    0x000000000000d81d      0x71a c:/program files/microchip/xc32/v4.20/bin/bin/../../lib/gcc/pic32mx/8.3.1/../../../../pic32mx/lib/fpu64\libc-musl.a(__printf_core.o)
 .debug_line    0x000000000000df37      0x25d c:/program files/microchip/xc32/v4.20/bin/bin/../../lib/gcc/pic32mx/8.3.1/../../../../pic32mx/lib/fpu64\libc-musl.a(stdout.o)
 .debug_line    0x000000000000e194      0x19f c:/program files/microchip/xc32/v4.20/bin/bin/../../lib/gcc/pic32mx/8.3.1/../../../../pic32mx/lib/fpu64\libc-musl.a(vprintf.o)
 .debug_line    0x000000000000e333      0x17c c:/program files/microchip/xc32/v4.20/bin/bin/../../lib/gcc/pic32mx/8.3.1/../../../../pic32mx/lib/fpu64\libc-musl.a(atoi.o)
 .debug_line    0x000000000000e4af      0x140 c:/program files/microchip/xc32/v4.20/bin/bin/../../lib/gcc/pic32mx/8.3.1/../../../../pic32mx/lib/fpu64\libc-musl.a(memcpy.o)
 .debug_line    0x000000000000e5ef       0xb4 c:/program files/microchip/xc32/v4.20/bin/bin/../../lib/gcc/pic32mx/8.3.1/../../../../pic32mx/lib/fpu64\libc-musl.a(strcpy.o)
 .debug_line    0x000000000000e6a3      0x140 c:/program files/microchip/xc32/v4.20/bin/bin/../../lib/gcc/pic32mx/8.3.1/../../../../pic32mx/lib/fpu64\libc-musl.a(strncmp.o)
 .debug_line    0x000000000000e7e3      0x1c1 c:/program files/microchip/xc32/v4.20/bin/bin/../../lib/gcc/pic32mx/8.3.1/../../../../pic32mx/lib/fpu64\libc-musl.a(tolower.o)
 .debug_line    0x000000000000e9a4      0x1c1 c:/program files/microchip/xc32/v4.20/bin/bin/../../lib/gcc/pic32mx/8.3.1/../../../../pic32mx/lib/fpu64\libc-musl.a(toupper.o)
 .debug_line    0x000000000000eb65      0x1c9 c:/program files/microchip/xc32/v4.20/bin/bin/../../lib/gcc/pic32mx/8.3.1/../../../../pic32mx/lib/fpu64\libc-musl.a(__int_vfprintf.o)
 .debug_line    0x000000000000ed2e      0x1ab c:/program files/microchip/xc32/v4.20/bin/bin/../../lib/gcc/pic32mx/8.3.1/../../../../pic32mx/lib/fpu64\libc-musl.a(__int_vsprintf.o)
 .debug_line    0x000000000000eed9      0x284 c:/program files/microchip/xc32/v4.20/bin/bin/../../lib/gcc/pic32mx/8.3.1/../../../../pic32mx/lib/fpu64\libc-musl.a(__fopen.o)
 .debug_line    0x000000000000f15d      0x155 c:/program files/microchip/xc32/v4.20/bin/bin/../../lib/gcc/pic32mx/8.3.1/../../../../pic32mx/lib/fpu64\libc-musl.a(__io_init_needed.o)
 .debug_line    0x000000000000f2b2      0x2ac c:/program files/microchip/xc32/v4.20/bin/bin/../../lib/gcc/pic32mx/8.3.1/../../../../pic32mx/lib/fpu64\libc-musl.a(__out.o)
 .debug_line    0x000000000000f55e      0x2f8 c:/program files/microchip/xc32/v4.20/bin/bin/../../lib/gcc/pic32mx/8.3.1/../../../../pic32mx/lib/fpu64\libc-musl.a(__stdio_close.o)
 .debug_line    0x000000000000f856      0x25f c:/program files/microchip/xc32/v4.20/bin/bin/../../lib/gcc/pic32mx/8.3.1/../../../../pic32mx/lib/fpu64\libc-musl.a(vfprintf.o)
 .debug_line    0x000000000000fab5       0xbf c:/program files/microchip/xc32/v4.20/bin/bin/../../lib/gcc/pic32mx/8.3.1/../../../../pic32mx/lib/fpu64\libc-musl.a(stpcpy.o)
 .debug_line    0x000000000000fb74      0xb49 c:/program files/microchip/xc32/v4.20/bin/bin/../../lib/gcc/pic32mx/8.3.1/../../../../pic32mx/lib/fpu64\libc-musl.a(malloc.o)
 .debug_line    0x00000000000106bd      0x14b c:/program files/microchip/xc32/v4.20/bin/bin/../../lib/gcc/pic32mx/8.3.1/../../../../pic32mx/lib/fpu64\libc-musl.a(expand_heap.o)
 .debug_line    0x0000000000010808      0x272 c:/program files/microchip/xc32/v4.20/bin/bin/../../lib/gcc/pic32mx/8.3.1/../../../../pic32mx/lib/fpu64\libc-musl.a(__int_vsnprintf.o)
 .debug_line    0x0000000000010a7a       0xd0 c:/program files/microchip/xc32/v4.20/bin/bin/../../lib/gcc/pic32mx/8.3.1/../../../../pic32mx/lib/fpu64\libc-musl.a(__init_stdio.o)
 .debug_line    0x0000000000010b4a       0xc4 c:/program files/microchip/xc32/v4.20/bin/bin/../../lib/gcc/pic32mx/8.3.1/../../../../pic32mx/lib/fpu64\libc-musl.a(__io_file_needed.o)
 .debug_line    0x0000000000010c0e       0xd0 c:/program files/microchip/xc32/v4.20/bin/bin/../../lib/gcc/pic32mx/8.3.1/../../../../pic32mx/lib/fpu64\libc-musl.a(__io_fmt_needed.o)
 .debug_line    0x0000000000010cde      0x112 c:/program files/microchip/xc32/v4.20/bin/bin/../../lib/gcc/pic32mx/8.3.1/../../../../pic32mx/lib/fpu64\libc-musl.a(libc.o)
 .debug_line    0x0000000000010df0      0x67d c:/program files/microchip/xc32/v4.20/bin/bin/../../lib/gcc/pic32mx/8.3.1/../../../../pic32mx/lib/fpu64\libc-musl.a(__fmt_a.o)
 .debug_line    0x000000000001146d      0x22d c:/program files/microchip/xc32/v4.20/bin/bin/../../lib/gcc/pic32mx/8.3.1/../../../../pic32mx/lib/fpu64\libm-musl.a(cos.o)
 .debug_line    0x000000000001169a      0x18d c:/program files/microchip/xc32/v4.20/bin/bin/../../lib/gcc/pic32mx/8.3.1/../../../../pic32mx/lib/fpu64\libm-musl.a(floor.o)
 .debug_line    0x0000000000011827      0x697 c:/program files/microchip/xc32/v4.20/bin/bin/../../lib/gcc/pic32mx/8.3.1/../../../../pic32mx/lib/fpu64\libm-musl.a(fma.o)
 .debug_line    0x0000000000011ebe      0x18d c:/program files/microchip/xc32/v4.20/bin/bin/../../lib/gcc/pic32mx/8.3.1/../../../../pic32mx/lib/fpu64\libm-musl.a(scalbn.o)
 .debug_line    0x000000000001204b      0x236 c:/program files/microchip/xc32/v4.20/bin/bin/../../lib/gcc/pic32mx/8.3.1/../../../../pic32mx/lib/fpu64\libm-musl.a(sin.o)
 .debug_line    0x0000000000012281      0x17c c:/program files/microchip/xc32/v4.20/bin/bin/../../lib/gcc/pic32mx/8.3.1/../../../../pic32mx/lib/fpu64\libm-musl.a(__cos.o)
 .debug_line    0x00000000000123fd      0x51f c:/program files/microchip/xc32/v4.20/bin/bin/../../lib/gcc/pic32mx/8.3.1/../../../../pic32mx/lib/fpu64\libm-musl.a(__rem_pio2.o)
 .debug_line    0x000000000001291c      0x66c c:/program files/microchip/xc32/v4.20/bin/bin/../../lib/gcc/pic32mx/8.3.1/../../../../pic32mx/lib/fpu64\libm-musl.a(__rem_pio2_large.o)
 .debug_line    0x0000000000012f88      0x17c c:/program files/microchip/xc32/v4.20/bin/bin/../../lib/gcc/pic32mx/8.3.1/../../../../pic32mx/lib/fpu64\libm-musl.a(__sin.o)
 .debug_line    0x0000000000013104       0xe4 c:/program files/microchip/xc32/v4.20/bin/bin/../../lib/gcc/pic32mx/8.3.1/fpu64\libgcc.a(_lshrdi3.o)
 .debug_line    0x00000000000131e8       0xe5 c:/program files/microchip/xc32/v4.20/bin/bin/../../lib/gcc/pic32mx/8.3.1/fpu64\libgcc.a(_ashldi3.o)
 .debug_line    0x00000000000132cd      0x2e0 c:/program files/microchip/xc32/v4.20/bin/bin/../../lib/gcc/pic32mx/8.3.1/fpu64\libgcc.a(_udivdi3.o)
 .debug_line    0x00000000000135ad      0x317 c:/program files/microchip/xc32/v4.20/bin/bin/../../lib/gcc/pic32mx/8.3.1/fpu64\libgcc.a(_umoddi3.o)
 .debug_line    0x00000000000138c4      0x1b0 c:/program files/microchip/xc32/v4.20/bin/bin/../../lib/gcc/pic32mx/8.3.1/../../../../pic32mx/lib/fpu64\libpic32.a(sbrk.o)
 .debug_line    0x0000000000013a74       0x9b c:/program files/microchip/xc32/v4.20/bin/bin/../../lib/gcc/pic32mx/8.3.1/../../../../pic32mx/lib/fpu64\libpic32.a(lseek.o)
 .debug_line    0x0000000000013b0f       0x9b c:/program files/microchip/xc32/v4.20/bin/bin/../../lib/gcc/pic32mx/8.3.1/../../../../pic32mx/lib/fpu64\libpic32.a(close.o)
 .debug_line    0x0000000000013baa        0x0 c:/program files/microchip/xc32/v4.20/bin/bin/../../lib/gcc/pic32mx/8.3.1/../../../../pic32mx/lib/fpu64\libpic32.a(errno.o)

.debug_frame    0x0000000000000000     0x3818
 *.elf(.debug_frame)
 *(.debug_frame)
 .debug_frame   0x0000000000000000      0x114 build/nsensor/production/_ext/1684788505/dogm-graphic.o
 .debug_frame   0x0000000000000114      0x254 build/nsensor/production/_ext/1684788505/eadog.o
 .debug_frame   0x0000000000000368       0x34 build/nsensor/production/_ext/1684788505/lcd_drv.o
 .debug_frame   0x000000000000039c       0xc4 build/nsensor/production/_ext/1684788505/OledChar.o
 .debug_frame   0x0000000000000460      0x1d0 build/nsensor/production/_ext/1684788505/OledDriver.o
 .debug_frame   0x0000000000000630      0x26c build/nsensor/production/_ext/1684788505/OledGrph.o
 .debug_frame   0x000000000000089c       0xf0 build/nsensor/production/_ext/1966772718/plib_adchs.o
 .debug_frame   0x000000000000098c      0x138 build/nsensor/production/_ext/1965004555/plib_canfd1.o
 .debug_frame   0x0000000000000ac4       0x20 build/nsensor/production/_ext/619183945/plib_clk.o
 .debug_frame   0x0000000000000ae4       0xec build/nsensor/production/_ext/1664108525/plib_coretimer.o
 .debug_frame   0x0000000000000bd0      0x138 build/nsensor/production/_ext/2014863652/plib_dmac.o
 .debug_frame   0x0000000000000d08      0x114 build/nsensor/production/_ext/2014902340/plib_evic.o
 .debug_frame   0x0000000000000e1c       0xa0 build/nsensor/production/_ext/2014956168/plib_gpio.o
 .debug_frame   0x0000000000000ebc      0x120 build/nsensor/production/_ext/1955707305/plib_mcpwm.o
 .debug_frame   0x0000000000000fdc       0xa0 build/nsensor/production/_ext/619197180/plib_qei2.o
 .debug_frame   0x000000000000107c       0xa8 build/nsensor/production/_ext/2015287515/plib_rtcc.o
 .debug_frame   0x0000000000001124       0xe0 build/nsensor/production/_ext/1877210129/plib_spi1_master.o
 .debug_frame   0x0000000000001204       0xe0 build/nsensor/production/_ext/1877210129/plib_spi2_master.o
 .debug_frame   0x00000000000012e4       0x80 build/nsensor/production/_ext/619200320/plib_tmr9.o
 .debug_frame   0x0000000000001364       0xc0 build/nsensor/production/_ext/619200320/plib_tmr5.o
 .debug_frame   0x0000000000001424       0xc0 build/nsensor/production/_ext/619200320/plib_tmr3.o
 .debug_frame   0x00000000000014e4       0xc0 build/nsensor/production/_ext/619200320/plib_tmr6.o
 .debug_frame   0x00000000000015a4       0xc0 build/nsensor/production/_ext/619200320/plib_tmr2.o
 .debug_frame   0x0000000000001664      0x110 build/nsensor/production/_ext/2015359111/plib_uart1.o
 .debug_frame   0x0000000000001774       0x54 build/nsensor/production/_ext/725740559/xc32_monitor.o
 .debug_frame   0x00000000000017c8       0x40 build/nsensor/production/_ext/1856863253/exceptions.o
 .debug_frame   0x0000000000001808      0x8bc build/nsensor/production/_ext/1856863253/interrupts.o
 .debug_frame   0x00000000000020c4       0x2c build/nsensor/production/_ext/1856863253/initialization.o
 .debug_frame   0x00000000000020f0      0x168 build/nsensor/production/_ext/1360937237/bma490l.o
 .debug_frame   0x0000000000002258       0x60 build/nsensor/production/_ext/1360937237/timers.o
 .debug_frame   0x00000000000022b8      0x138 build/nsensor/production/_ext/1360937237/sca3300.o
 .debug_frame   0x00000000000023f0       0xb4 build/nsensor/production/_ext/1360937237/gfx.o
 .debug_frame   0x00000000000024a4       0x50 build/nsensor/production/_ext/1360937237/imu.o
 .debug_frame   0x00000000000024f4       0x30 build/nsensor/production/_ext/1360937237/pid.o
 .debug_frame   0x0000000000002524       0xc8 build/nsensor/production/_ext/1360937237/do_fft.o
 .debug_frame   0x00000000000025ec       0xa4 build/nsensor/production/_ext/1360937237/fft.o
 .debug_frame   0x0000000000002690       0x88 build/nsensor/production/_ext/1360937237/main.o
 .debug_frame   0x0000000000002718      0x108 build/nsensor/production/_ext/1360937237/canfd.o
 .debug_frame   0x0000000000002820      0x184 build/nsensor/production/_ext/1360937237/host.o
 .debug_frame   0x00000000000029a4       0xa8 build/nsensor/production/_ext/1360937237/cmd_scanner.o
 .debug_frame   0x0000000000002a4c       0x20 c:/program files/microchip/xc32/v4.20/bin/bin/../../lib/gcc/pic32mx/8.3.1/../../../../pic32mx/lib/fpu64\libpic32.a(default-on-reset.o)
 .debug_frame   0x0000000000002a6c       0x20 c:/program files/microchip/xc32/v4.20/bin/bin/../../lib/gcc/pic32mx/8.3.1/../../../../pic32mx/lib/fpu64\libpic32.a(default-on-bootstrap.o)
 .debug_frame   0x0000000000002a8c       0x20 c:/program files/microchip/xc32/v4.20/bin/bin/../../lib/gcc/pic32mx/8.3.1/../../../../pic32mx/lib/fpu64\libpic32.a(defaultinterrupt.o)
 .debug_frame   0x0000000000002aac       0x48 c:/program files/microchip/xc32/v4.20/bin/bin/../../lib/gcc/pic32mx/8.3.1/../../../../pic32mx/lib/fpu64\libc-musl.a(__sio_printf_s.o)
 .debug_frame   0x0000000000002af4       0x48 c:/program files/microchip/xc32/v4.20/bin/bin/../../lib/gcc/pic32mx/8.3.1/../../../../pic32mx/lib/fpu64\libc-musl.a(__sio_sprintf_dfosux.o)
 .debug_frame   0x0000000000002b3c       0x48 c:/program files/microchip/xc32/v4.20/bin/bin/../../lib/gcc/pic32mx/8.3.1/../../../../pic32mx/lib/fpu64\libc-musl.a(__sio_sprintf_dosux.o)
 .debug_frame   0x0000000000002b84       0x48 c:/program files/microchip/xc32/v4.20/bin/bin/../../lib/gcc/pic32mx/8.3.1/../../../../pic32mx/lib/fpu64\libc-musl.a(__sio_sprintf_doux.o)
 .debug_frame   0x0000000000002bcc       0x48 c:/program files/microchip/xc32/v4.20/bin/bin/../../lib/gcc/pic32mx/8.3.1/../../../../pic32mx/lib/fpu64\libc-musl.a(__sio_sprintf_s.o)
 .debug_frame   0x0000000000002c14       0x38 c:/program files/microchip/xc32/v4.20/bin/bin/../../lib/gcc/pic32mx/8.3.1/../../../../pic32mx/lib/fpu64\libc-musl.a(__fmt_d.o)
 .debug_frame   0x0000000000002c4c       0x50 c:/program files/microchip/xc32/v4.20/bin/bin/../../lib/gcc/pic32mx/8.3.1/../../../../pic32mx/lib/fpu64\libc-musl.a(__fmt_fp.o)
 .debug_frame   0x0000000000002c9c       0x34 c:/program files/microchip/xc32/v4.20/bin/bin/../../lib/gcc/pic32mx/8.3.1/../../../../pic32mx/lib/fpu64\libc-musl.a(__fmt_o.o)
 .debug_frame   0x0000000000002cd0       0x34 c:/program files/microchip/xc32/v4.20/bin/bin/../../lib/gcc/pic32mx/8.3.1/../../../../pic32mx/lib/fpu64\libc-musl.a(__fmt_s.o)
 .debug_frame   0x0000000000002d04       0x64 c:/program files/microchip/xc32/v4.20/bin/bin/../../lib/gcc/pic32mx/8.3.1/../../../../pic32mx/lib/fpu64\libc-musl.a(__fmt_u.o)
 .debug_frame   0x0000000000002d68       0x40 c:/program files/microchip/xc32/v4.20/bin/bin/../../lib/gcc/pic32mx/8.3.1/../../../../pic32mx/lib/fpu64\libc-musl.a(__fmt_x.o)
 .debug_frame   0x0000000000002da8       0x20 c:/program files/microchip/xc32/v4.20/bin/bin/../../lib/gcc/pic32mx/8.3.1/../../../../pic32mx/lib/fpu64\libc-musl.a(__pop_float.o)
 .debug_frame   0x0000000000002dc8       0x20 c:/program files/microchip/xc32/v4.20/bin/bin/../../lib/gcc/pic32mx/8.3.1/../../../../pic32mx/lib/fpu64\libc-musl.a(__pop_int.o)
 .debug_frame   0x0000000000002de8       0x20 c:/program files/microchip/xc32/v4.20/bin/bin/../../lib/gcc/pic32mx/8.3.1/../../../../pic32mx/lib/fpu64\libc-musl.a(__pop_ptr.o)
 .debug_frame   0x0000000000002e08       0xcc c:/program files/microchip/xc32/v4.20/bin/bin/../../lib/gcc/pic32mx/8.3.1/../../../../pic32mx/lib/fpu64\libc-musl.a(__printf_core.o)
 .debug_frame   0x0000000000002ed4       0x3c c:/program files/microchip/xc32/v4.20/bin/bin/../../lib/gcc/pic32mx/8.3.1/../../../../pic32mx/lib/fpu64\libc-musl.a(stdout.o)
 .debug_frame   0x0000000000002f10       0x2c c:/program files/microchip/xc32/v4.20/bin/bin/../../lib/gcc/pic32mx/8.3.1/../../../../pic32mx/lib/fpu64\libc-musl.a(vprintf.o)
 .debug_frame   0x0000000000002f3c       0x20 c:/program files/microchip/xc32/v4.20/bin/bin/../../lib/gcc/pic32mx/8.3.1/../../../../pic32mx/lib/fpu64\libc-musl.a(atoi.o)
 .debug_frame   0x0000000000002f5c       0x20 c:/program files/microchip/xc32/v4.20/bin/bin/../../lib/gcc/pic32mx/8.3.1/../../../../pic32mx/lib/fpu64\libc-musl.a(memcpy.o)
 .debug_frame   0x0000000000002f7c       0x2c c:/program files/microchip/xc32/v4.20/bin/bin/../../lib/gcc/pic32mx/8.3.1/../../../../pic32mx/lib/fpu64\libc-musl.a(strcpy.o)
 .debug_frame   0x0000000000002fa8       0x20 c:/program files/microchip/xc32/v4.20/bin/bin/../../lib/gcc/pic32mx/8.3.1/../../../../pic32mx/lib/fpu64\libc-musl.a(strncmp.o)
 .debug_frame   0x0000000000002fc8       0x3c c:/program files/microchip/xc32/v4.20/bin/bin/../../lib/gcc/pic32mx/8.3.1/../../../../pic32mx/lib/fpu64\libc-musl.a(tolower.o)
 .debug_frame   0x0000000000003004       0x3c c:/program files/microchip/xc32/v4.20/bin/bin/../../lib/gcc/pic32mx/8.3.1/../../../../pic32mx/lib/fpu64\libc-musl.a(toupper.o)
 .debug_frame   0x0000000000003040       0x2c c:/program files/microchip/xc32/v4.20/bin/bin/../../lib/gcc/pic32mx/8.3.1/../../../../pic32mx/lib/fpu64\libc-musl.a(__int_vfprintf.o)
 .debug_frame   0x000000000000306c       0x2c c:/program files/microchip/xc32/v4.20/bin/bin/../../lib/gcc/pic32mx/8.3.1/../../../../pic32mx/lib/fpu64\libc-musl.a(__int_vsprintf.o)
 .debug_frame   0x0000000000003098       0x58 c:/program files/microchip/xc32/v4.20/bin/bin/../../lib/gcc/pic32mx/8.3.1/../../../../pic32mx/lib/fpu64\libc-musl.a(__fopen.o)
 .debug_frame   0x00000000000030f0       0x48 c:/program files/microchip/xc32/v4.20/bin/bin/../../lib/gcc/pic32mx/8.3.1/../../../../pic32mx/lib/fpu64\libc-musl.a(__io_init_needed.o)
 .debug_frame   0x0000000000003138       0x50 c:/program files/microchip/xc32/v4.20/bin/bin/../../lib/gcc/pic32mx/8.3.1/../../../../pic32mx/lib/fpu64\libc-musl.a(__out.o)
 .debug_frame   0x0000000000003188       0x50 c:/program files/microchip/xc32/v4.20/bin/bin/../../lib/gcc/pic32mx/8.3.1/../../../../pic32mx/lib/fpu64\libc-musl.a(__stdio_close.o)
 .debug_frame   0x00000000000031d8       0x48 c:/program files/microchip/xc32/v4.20/bin/bin/../../lib/gcc/pic32mx/8.3.1/../../../../pic32mx/lib/fpu64\libc-musl.a(vfprintf.o)
 .debug_frame   0x0000000000003220       0x20 c:/program files/microchip/xc32/v4.20/bin/bin/../../lib/gcc/pic32mx/8.3.1/../../../../pic32mx/lib/fpu64\libc-musl.a(stpcpy.o)
 .debug_frame   0x0000000000003240      0x168 c:/program files/microchip/xc32/v4.20/bin/bin/../../lib/gcc/pic32mx/8.3.1/../../../../pic32mx/lib/fpu64\libc-musl.a(malloc.o)
 .debug_frame   0x00000000000033a8       0x2c c:/program files/microchip/xc32/v4.20/bin/bin/../../lib/gcc/pic32mx/8.3.1/../../../../pic32mx/lib/fpu64\libc-musl.a(expand_heap.o)
 .debug_frame   0x00000000000033d4       0x2c c:/program files/microchip/xc32/v4.20/bin/bin/../../lib/gcc/pic32mx/8.3.1/../../../../pic32mx/lib/fpu64\libc-musl.a(__int_vsnprintf.o)
 .debug_frame   0x0000000000003400       0x3c c:/program files/microchip/xc32/v4.20/bin/bin/../../lib/gcc/pic32mx/8.3.1/../../../../pic32mx/lib/fpu64\libc-musl.a(__init_stdio.o)
 .debug_frame   0x000000000000343c       0x2c c:/program files/microchip/xc32/v4.20/bin/bin/../../lib/gcc/pic32mx/8.3.1/../../../../pic32mx/lib/fpu64\libc-musl.a(__io_file_needed.o)
 .debug_frame   0x0000000000003468       0x2c c:/program files/microchip/xc32/v4.20/bin/bin/../../lib/gcc/pic32mx/8.3.1/../../../../pic32mx/lib/fpu64\libc-musl.a(__io_fmt_needed.o)
 .debug_frame   0x0000000000003494       0x58 c:/program files/microchip/xc32/v4.20/bin/bin/../../lib/gcc/pic32mx/8.3.1/../../../../pic32mx/lib/fpu64\libc-musl.a(__fmt_a.o)
 .debug_frame   0x00000000000034ec       0x2c c:/program files/microchip/xc32/v4.20/bin/bin/../../lib/gcc/pic32mx/8.3.1/../../../../pic32mx/lib/fpu64\libm-musl.a(cos.o)
 .debug_frame   0x0000000000003518       0x2c c:/program files/microchip/xc32/v4.20/bin/bin/../../lib/gcc/pic32mx/8.3.1/../../../../pic32mx/lib/fpu64\libm-musl.a(floor.o)
 .debug_frame   0x0000000000003544       0x64 c:/program files/microchip/xc32/v4.20/bin/bin/../../lib/gcc/pic32mx/8.3.1/../../../../pic32mx/lib/fpu64\libm-musl.a(fma.o)
 .debug_frame   0x00000000000035a8       0x20 c:/program files/microchip/xc32/v4.20/bin/bin/../../lib/gcc/pic32mx/8.3.1/../../../../pic32mx/lib/fpu64\libm-musl.a(scalbn.o)
 .debug_frame   0x00000000000035c8       0x2c c:/program files/microchip/xc32/v4.20/bin/bin/../../lib/gcc/pic32mx/8.3.1/../../../../pic32mx/lib/fpu64\libm-musl.a(sin.o)
 .debug_frame   0x00000000000035f4       0x20 c:/program files/microchip/xc32/v4.20/bin/bin/../../lib/gcc/pic32mx/8.3.1/../../../../pic32mx/lib/fpu64\libm-musl.a(__cos.o)
 .debug_frame   0x0000000000003614       0x30 c:/program files/microchip/xc32/v4.20/bin/bin/../../lib/gcc/pic32mx/8.3.1/../../../../pic32mx/lib/fpu64\libm-musl.a(__rem_pio2.o)
 .debug_frame   0x0000000000003644       0x58 c:/program files/microchip/xc32/v4.20/bin/bin/../../lib/gcc/pic32mx/8.3.1/../../../../pic32mx/lib/fpu64\libm-musl.a(__rem_pio2_large.o)
 .debug_frame   0x000000000000369c       0x20 c:/program files/microchip/xc32/v4.20/bin/bin/../../lib/gcc/pic32mx/8.3.1/../../../../pic32mx/lib/fpu64\libm-musl.a(__sin.o)
 .debug_frame   0x00000000000036bc       0x20 c:/program files/microchip/xc32/v4.20/bin/bin/../../lib/gcc/pic32mx/8.3.1/fpu64\libgcc.a(_lshrdi3.o)
 .debug_frame   0x00000000000036dc       0x20 c:/program files/microchip/xc32/v4.20/bin/bin/../../lib/gcc/pic32mx/8.3.1/fpu64\libgcc.a(_ashldi3.o)
 .debug_frame   0x00000000000036fc       0x20 c:/program files/microchip/xc32/v4.20/bin/bin/../../lib/gcc/pic32mx/8.3.1/fpu64\libgcc.a(_udivdi3.o)
 .debug_frame   0x000000000000371c       0x20 c:/program files/microchip/xc32/v4.20/bin/bin/../../lib/gcc/pic32mx/8.3.1/fpu64\libgcc.a(_umoddi3.o)
 .debug_frame   0x000000000000373c       0x9c c:/program files/microchip/xc32/v4.20/bin/bin/../../lib/gcc/pic32mx/8.3.1/../../../../pic32mx/lib/fpu64\libpic32.a(sbrk.o)
 .debug_frame   0x00000000000037d8       0x20 c:/program files/microchip/xc32/v4.20/bin/bin/../../lib/gcc/pic32mx/8.3.1/../../../../pic32mx/lib/fpu64\libpic32.a(lseek.o)
 .debug_frame   0x00000000000037f8       0x20 c:/program files/microchip/xc32/v4.20/bin/bin/../../lib/gcc/pic32mx/8.3.1/../../../../pic32mx/lib/fpu64\libpic32.a(close.o)

.debug_str      0x0000000000000000    0x1e3b1
 *.elf(.debug_str)
 *(.debug_str)
 .debug_str     0x0000000000000000      0x2b0 build/nsensor/production/_ext/1684788505/ChrFont0.o
 .debug_str     0x00000000000002b0      0x472 build/nsensor/production/_ext/1684788505/dogm-graphic.o
 .debug_str     0x0000000000000722      0x5a6 build/nsensor/production/_ext/1684788505/eadog.o
 .debug_str     0x0000000000000cc8      0x2ad build/nsensor/production/_ext/1684788505/FillPat.o
 .debug_str     0x0000000000000f75      0x2d8 build/nsensor/production/_ext/1684788505/foo.o
 .debug_str     0x000000000000124d      0x389 build/nsensor/production/_ext/1684788505/lcd_drv.o
 .debug_str     0x00000000000015d6      0x43b build/nsensor/production/_ext/1684788505/OledChar.o
 .debug_str     0x0000000000001a11      0x81a build/nsensor/production/_ext/1684788505/OledDriver.o
 .debug_str     0x000000000000222b      0x5e2 build/nsensor/production/_ext/1684788505/OledGrph.o
 .debug_str     0x000000000000280d      0x96a build/nsensor/production/_ext/1966772718/plib_adchs.o
 .debug_str     0x0000000000003177      0xa14 build/nsensor/production/_ext/1965004555/plib_canfd1.o
 .debug_str     0x0000000000003b8b      0x443 build/nsensor/production/_ext/619183945/plib_clk.o
 .debug_str     0x0000000000003fce      0x523 build/nsensor/production/_ext/1664108525/plib_coretimer.o
 .debug_str     0x00000000000044f1      0xa4d build/nsensor/production/_ext/2014863652/plib_dmac.o
 .debug_str     0x0000000000004f3e     0x1323 build/nsensor/production/_ext/2014902340/plib_evic.o
 .debug_str     0x0000000000006261      0x54e build/nsensor/production/_ext/2014956168/plib_gpio.o
 .debug_str     0x00000000000067af      0x640 build/nsensor/production/_ext/1955707305/plib_mcpwm.o
 .debug_str     0x0000000000006def      0x538 build/nsensor/production/_ext/619197180/plib_qei2.o
 .debug_str     0x0000000000007327      0x6a1 build/nsensor/production/_ext/2015287515/plib_rtcc.o
 .debug_str     0x00000000000079c8      0x699 build/nsensor/production/_ext/1877210129/plib_spi1_master.o
 .debug_str     0x0000000000008061      0x699 build/nsensor/production/_ext/1877210129/plib_spi2_master.o
 .debug_str     0x00000000000086fa      0x36e build/nsensor/production/_ext/619200320/plib_tmr9.o
 .debug_str     0x0000000000008a68      0x4ff build/nsensor/production/_ext/619200320/plib_tmr5.o
 .debug_str     0x0000000000008f67      0x508 build/nsensor/production/_ext/619200320/plib_tmr3.o
 .debug_str     0x000000000000946f      0x4ea build/nsensor/production/_ext/619200320/plib_tmr6.o
 .debug_str     0x0000000000009959      0x508 build/nsensor/production/_ext/619200320/plib_tmr2.o
 .debug_str     0x0000000000009e61      0x623 build/nsensor/production/_ext/2015359111/plib_uart1.o
 .debug_str     0x000000000000a484      0x32e build/nsensor/production/_ext/725740559/xc32_monitor.o
 .debug_str     0x000000000000a7b2      0x3c7 build/nsensor/production/_ext/1856863253/exceptions.o
 .debug_str     0x000000000000ab79      0x523 build/nsensor/production/_ext/1856863253/interrupts.o
 .debug_str     0x000000000000b09c      0x497 build/nsensor/production/_ext/1856863253/initialization.o
 .debug_str     0x000000000000b533      0x5f5 build/nsensor/production/_ext/1360937237/bma490l.o
 .debug_str     0x000000000000bb28      0x36e build/nsensor/production/_ext/1360937237/timers.o
 .debug_str     0x000000000000be96      0x7ec build/nsensor/production/_ext/1360937237/sca3300.o
 .debug_str     0x000000000000c682      0x36c build/nsensor/production/_ext/1360937237/gfx.o
 .debug_str     0x000000000000c9ee      0x63b build/nsensor/production/_ext/1360937237/imu.o
 .debug_str     0x000000000000d029      0x322 build/nsensor/production/_ext/1360937237/pid.o
 .debug_str     0x000000000000d34b      0x3be build/nsensor/production/_ext/1360937237/do_fft.o
 .debug_str     0x000000000000d709      0x318 build/nsensor/production/_ext/1360937237/fft.o
 .debug_str     0x000000000000da21      0xd02 build/nsensor/production/_ext/1360937237/main.o
 .debug_str     0x000000000000e723      0xa7a build/nsensor/production/_ext/1360937237/canfd.o
 .debug_str     0x000000000000f19d      0xe86 build/nsensor/production/_ext/1360937237/host.o
 .debug_str     0x0000000000010023      0x41d build/nsensor/production/_ext/1360937237/cmd_scanner.o
 .debug_str     0x0000000000010440      0x35a c:/program files/microchip/xc32/v4.20/bin/bin/../../lib/gcc/pic32mx/8.3.1/../../../../pic32mx/lib/fpu64\libpic32.a(default-on-reset.o)
 .debug_str     0x000000000001079a      0x362 c:/program files/microchip/xc32/v4.20/bin/bin/../../lib/gcc/pic32mx/8.3.1/../../../../pic32mx/lib/fpu64\libpic32.a(default-on-bootstrap.o)
 .debug_str     0x0000000000010afc      0x374 c:/program files/microchip/xc32/v4.20/bin/bin/../../lib/gcc/pic32mx/8.3.1/../../../../pic32mx/lib/fpu64\libpic32.a(defaultinterrupt.o)
 .debug_str     0x0000000000010e70      0x3d8 c:/program files/microchip/xc32/v4.20/bin/bin/../../lib/gcc/pic32mx/8.3.1/../../../../pic32mx/lib/fpu64\libc-musl.a(__sio_printf_s.o)
 .debug_str     0x0000000000011248      0x44f c:/program files/microchip/xc32/v4.20/bin/bin/../../lib/gcc/pic32mx/8.3.1/../../../../pic32mx/lib/fpu64\libc-musl.a(__sio_sprintf_dfosux.o)
 .debug_str     0x0000000000011697      0x42b c:/program files/microchip/xc32/v4.20/bin/bin/../../lib/gcc/pic32mx/8.3.1/../../../../pic32mx/lib/fpu64\libc-musl.a(__sio_sprintf_dosux.o)
 .debug_str     0x0000000000011ac2      0x429 c:/program files/microchip/xc32/v4.20/bin/bin/../../lib/gcc/pic32mx/8.3.1/../../../../pic32mx/lib/fpu64\libc-musl.a(__sio_sprintf_doux.o)
 .debug_str     0x0000000000011eeb      0x3c5 c:/program files/microchip/xc32/v4.20/bin/bin/../../lib/gcc/pic32mx/8.3.1/../../../../pic32mx/lib/fpu64\libc-musl.a(__sio_sprintf_s.o)
 .debug_str     0x00000000000122b0      0x3ee c:/program files/microchip/xc32/v4.20/bin/bin/../../lib/gcc/pic32mx/8.3.1/../../../../pic32mx/lib/fpu64\libc-musl.a(__fmt_d.o)
 .debug_str     0x000000000001269e      0x44d c:/program files/microchip/xc32/v4.20/bin/bin/../../lib/gcc/pic32mx/8.3.1/../../../../pic32mx/lib/fpu64\libc-musl.a(__fmt_fp.o)
 .debug_str     0x0000000000012aeb      0x3ee c:/program files/microchip/xc32/v4.20/bin/bin/../../lib/gcc/pic32mx/8.3.1/../../../../pic32mx/lib/fpu64\libc-musl.a(__fmt_o.o)
 .debug_str     0x0000000000012ed9      0x3da c:/program files/microchip/xc32/v4.20/bin/bin/../../lib/gcc/pic32mx/8.3.1/../../../../pic32mx/lib/fpu64\libc-musl.a(__fmt_s.o)
 .debug_str     0x00000000000132b3      0x3f3 c:/program files/microchip/xc32/v4.20/bin/bin/../../lib/gcc/pic32mx/8.3.1/../../../../pic32mx/lib/fpu64\libc-musl.a(__fmt_u.o)
 .debug_str     0x00000000000136a6      0x3ee c:/program files/microchip/xc32/v4.20/bin/bin/../../lib/gcc/pic32mx/8.3.1/../../../../pic32mx/lib/fpu64\libc-musl.a(__fmt_x.o)
 .debug_str     0x0000000000013a94      0x3bc c:/program files/microchip/xc32/v4.20/bin/bin/../../lib/gcc/pic32mx/8.3.1/../../../../pic32mx/lib/fpu64\libc-musl.a(__pop_float.o)
 .debug_str     0x0000000000013e50      0x3c7 c:/program files/microchip/xc32/v4.20/bin/bin/../../lib/gcc/pic32mx/8.3.1/../../../../pic32mx/lib/fpu64\libc-musl.a(__pop_int.o)
 .debug_str     0x0000000000014217      0x3c9 c:/program files/microchip/xc32/v4.20/bin/bin/../../lib/gcc/pic32mx/8.3.1/../../../../pic32mx/lib/fpu64\libc-musl.a(__pop_ptr.o)
 .debug_str     0x00000000000145e0      0x4d6 c:/program files/microchip/xc32/v4.20/bin/bin/../../lib/gcc/pic32mx/8.3.1/../../../../pic32mx/lib/fpu64\libc-musl.a(__printf_core.o)
 .debug_str     0x0000000000014ab6      0x484 c:/program files/microchip/xc32/v4.20/bin/bin/../../lib/gcc/pic32mx/8.3.1/../../../../pic32mx/lib/fpu64\libc-musl.a(stdout.o)
 .debug_str     0x0000000000014f3a      0x34d c:/program files/microchip/xc32/v4.20/bin/bin/../../lib/gcc/pic32mx/8.3.1/../../../../pic32mx/lib/fpu64\libc-musl.a(vprintf.o)
 .debug_str     0x0000000000015287      0x327 c:/program files/microchip/xc32/v4.20/bin/bin/../../lib/gcc/pic32mx/8.3.1/../../../../pic32mx/lib/fpu64\libc-musl.a(atoi.o)
 .debug_str     0x00000000000155ae      0x32c c:/program files/microchip/xc32/v4.20/bin/bin/../../lib/gcc/pic32mx/8.3.1/../../../../pic32mx/lib/fpu64\libc-musl.a(memcpy.o)
 .debug_str     0x00000000000158da      0x318 c:/program files/microchip/xc32/v4.20/bin/bin/../../lib/gcc/pic32mx/8.3.1/../../../../pic32mx/lib/fpu64\libc-musl.a(strcpy.o)
 .debug_str     0x0000000000015bf2      0x321 c:/program files/microchip/xc32/v4.20/bin/bin/../../lib/gcc/pic32mx/8.3.1/../../../../pic32mx/lib/fpu64\libc-musl.a(strncmp.o)
 .debug_str     0x0000000000015f13      0x354 c:/program files/microchip/xc32/v4.20/bin/bin/../../lib/gcc/pic32mx/8.3.1/../../../../pic32mx/lib/fpu64\libc-musl.a(tolower.o)
 .debug_str     0x0000000000016267      0x354 c:/program files/microchip/xc32/v4.20/bin/bin/../../lib/gcc/pic32mx/8.3.1/../../../../pic32mx/lib/fpu64\libc-musl.a(toupper.o)
 .debug_str     0x00000000000165bb      0x3e5 c:/program files/microchip/xc32/v4.20/bin/bin/../../lib/gcc/pic32mx/8.3.1/../../../../pic32mx/lib/fpu64\libc-musl.a(__int_vfprintf.o)
 .debug_str     0x00000000000169a0      0x3a2 c:/program files/microchip/xc32/v4.20/bin/bin/../../lib/gcc/pic32mx/8.3.1/../../../../pic32mx/lib/fpu64\libc-musl.a(__int_vsprintf.o)
 .debug_str     0x0000000000016d42      0x3ff c:/program files/microchip/xc32/v4.20/bin/bin/../../lib/gcc/pic32mx/8.3.1/../../../../pic32mx/lib/fpu64\libc-musl.a(__fopen.o)
 .debug_str     0x0000000000017141      0x3cd c:/program files/microchip/xc32/v4.20/bin/bin/../../lib/gcc/pic32mx/8.3.1/../../../../pic32mx/lib/fpu64\libc-musl.a(__io_init_needed.o)
 .debug_str     0x000000000001750e      0x3d3 c:/program files/microchip/xc32/v4.20/bin/bin/../../lib/gcc/pic32mx/8.3.1/../../../../pic32mx/lib/fpu64\libc-musl.a(__out.o)
 .debug_str     0x00000000000178e1      0x456 c:/program files/microchip/xc32/v4.20/bin/bin/../../lib/gcc/pic32mx/8.3.1/../../../../pic32mx/lib/fpu64\libc-musl.a(__stdio_close.o)
 .debug_str     0x0000000000017d37      0x47b c:/program files/microchip/xc32/v4.20/bin/bin/../../lib/gcc/pic32mx/8.3.1/../../../../pic32mx/lib/fpu64\libc-musl.a(vfprintf.o)
 .debug_str     0x00000000000181b2      0x328 c:/program files/microchip/xc32/v4.20/bin/bin/../../lib/gcc/pic32mx/8.3.1/../../../../pic32mx/lib/fpu64\libc-musl.a(stpcpy.o)
 .debug_str     0x00000000000184da      0x59f c:/program files/microchip/xc32/v4.20/bin/bin/../../lib/gcc/pic32mx/8.3.1/../../../../pic32mx/lib/fpu64\libc-musl.a(malloc.o)
 .debug_str     0x0000000000018a79      0x39e c:/program files/microchip/xc32/v4.20/bin/bin/../../lib/gcc/pic32mx/8.3.1/../../../../pic32mx/lib/fpu64\libc-musl.a(expand_heap.o)
 .debug_str     0x0000000000018e17      0x3ea c:/program files/microchip/xc32/v4.20/bin/bin/../../lib/gcc/pic32mx/8.3.1/../../../../pic32mx/lib/fpu64\libc-musl.a(__int_vsnprintf.o)
 .debug_str     0x0000000000019201      0x393 c:/program files/microchip/xc32/v4.20/bin/bin/../../lib/gcc/pic32mx/8.3.1/../../../../pic32mx/lib/fpu64\libc-musl.a(__init_stdio.o)
 .debug_str     0x0000000000019594      0x3a0 c:/program files/microchip/xc32/v4.20/bin/bin/../../lib/gcc/pic32mx/8.3.1/../../../../pic32mx/lib/fpu64\libc-musl.a(__io_file_needed.o)
 .debug_str     0x0000000000019934      0x42f c:/program files/microchip/xc32/v4.20/bin/bin/../../lib/gcc/pic32mx/8.3.1/../../../../pic32mx/lib/fpu64\libc-musl.a(__io_fmt_needed.o)
 .debug_str     0x0000000000019d63      0x440 c:/program files/microchip/xc32/v4.20/bin/bin/../../lib/gcc/pic32mx/8.3.1/../../../../pic32mx/lib/fpu64\libc-musl.a(libc.o)
 .debug_str     0x000000000001a1a3      0x42c c:/program files/microchip/xc32/v4.20/bin/bin/../../lib/gcc/pic32mx/8.3.1/../../../../pic32mx/lib/fpu64\libc-musl.a(__fmt_a.o)
 .debug_str     0x000000000001a5cf      0x390 c:/program files/microchip/xc32/v4.20/bin/bin/../../lib/gcc/pic32mx/8.3.1/../../../../pic32mx/lib/fpu64\libm-musl.a(cos.o)
 .debug_str     0x000000000001a95f      0x387 c:/program files/microchip/xc32/v4.20/bin/bin/../../lib/gcc/pic32mx/8.3.1/../../../../pic32mx/lib/fpu64\libm-musl.a(floor.o)
 .debug_str     0x000000000001ace6      0x3bf c:/program files/microchip/xc32/v4.20/bin/bin/../../lib/gcc/pic32mx/8.3.1/../../../../pic32mx/lib/fpu64\libm-musl.a(fma.o)
 .debug_str     0x000000000001b0a5      0x377 c:/program files/microchip/xc32/v4.20/bin/bin/../../lib/gcc/pic32mx/8.3.1/../../../../pic32mx/lib/fpu64\libm-musl.a(scalbn.o)
 .debug_str     0x000000000001b41c      0x390 c:/program files/microchip/xc32/v4.20/bin/bin/../../lib/gcc/pic32mx/8.3.1/../../../../pic32mx/lib/fpu64\libm-musl.a(sin.o)
 .debug_str     0x000000000001b7ac      0x36c c:/program files/microchip/xc32/v4.20/bin/bin/../../lib/gcc/pic32mx/8.3.1/../../../../pic32mx/lib/fpu64\libm-musl.a(__cos.o)
 .debug_str     0x000000000001bb18      0x3e8 c:/program files/microchip/xc32/v4.20/bin/bin/../../lib/gcc/pic32mx/8.3.1/../../../../pic32mx/lib/fpu64\libm-musl.a(__rem_pio2.o)
 .debug_str     0x000000000001bf00      0x3b6 c:/program files/microchip/xc32/v4.20/bin/bin/../../lib/gcc/pic32mx/8.3.1/../../../../pic32mx/lib/fpu64\libm-musl.a(__rem_pio2_large.o)
 .debug_str     0x000000000001c2b6      0x36c c:/program files/microchip/xc32/v4.20/bin/bin/../../lib/gcc/pic32mx/8.3.1/../../../../pic32mx/lib/fpu64\libm-musl.a(__sin.o)
 .debug_str     0x000000000001c622      0x3f0 c:/program files/microchip/xc32/v4.20/bin/bin/../../lib/gcc/pic32mx/8.3.1/fpu64\libgcc.a(_lshrdi3.o)
 .debug_str     0x000000000001ca12      0x3f0 c:/program files/microchip/xc32/v4.20/bin/bin/../../lib/gcc/pic32mx/8.3.1/fpu64\libgcc.a(_ashldi3.o)
 .debug_str     0x000000000001ce02      0x42d c:/program files/microchip/xc32/v4.20/bin/bin/../../lib/gcc/pic32mx/8.3.1/fpu64\libgcc.a(_udivdi3.o)
 .debug_str     0x000000000001d22f      0x42d c:/program files/microchip/xc32/v4.20/bin/bin/../../lib/gcc/pic32mx/8.3.1/fpu64\libgcc.a(_umoddi3.o)
 .debug_str     0x000000000001d65c      0x37a c:/program files/microchip/xc32/v4.20/bin/bin/../../lib/gcc/pic32mx/8.3.1/../../../../pic32mx/lib/fpu64\libpic32.a(sbrk.o)
 .debug_str     0x000000000001d9d6      0x34b c:/program files/microchip/xc32/v4.20/bin/bin/../../lib/gcc/pic32mx/8.3.1/../../../../pic32mx/lib/fpu64\libpic32.a(lseek.o)
 .debug_str     0x000000000001dd21      0x34b c:/program files/microchip/xc32/v4.20/bin/bin/../../lib/gcc/pic32mx/8.3.1/../../../../pic32mx/lib/fpu64\libpic32.a(close.o)
 .debug_str     0x000000000001e06c      0x345 c:/program files/microchip/xc32/v4.20/bin/bin/../../lib/gcc/pic32mx/8.3.1/../../../../pic32mx/lib/fpu64\libpic32.a(errno.o)

.debug_loc      0x0000000000000000    0x10012
 *.elf(.debug_loc)
 *(.debug_loc)
 .debug_loc     0x0000000000000000      0x55c build/nsensor/production/_ext/1684788505/dogm-graphic.o
 .debug_loc     0x000000000000055c      0x651 build/nsensor/production/_ext/1684788505/eadog.o
 .debug_loc     0x0000000000000bad       0x80 build/nsensor/production/_ext/1684788505/lcd_drv.o
 .debug_loc     0x0000000000000c2d      0x278 build/nsensor/production/_ext/1684788505/OledChar.o
 .debug_loc     0x0000000000000ea5      0x28e build/nsensor/production/_ext/1684788505/OledDriver.o
 .debug_loc     0x0000000000001133      0xf68 build/nsensor/production/_ext/1684788505/OledGrph.o
 .debug_loc     0x000000000000209b       0xd2 build/nsensor/production/_ext/1966772718/plib_adchs.o
 .debug_loc     0x000000000000216d      0x7f8 build/nsensor/production/_ext/1965004555/plib_canfd1.o
 .debug_loc     0x0000000000002965       0xf1 build/nsensor/production/_ext/1664108525/plib_coretimer.o
 .debug_loc     0x0000000000002a56      0xbfe build/nsensor/production/_ext/2014863652/plib_dmac.o
 .debug_loc     0x0000000000003654      0x137 build/nsensor/production/_ext/2014902340/plib_evic.o
 .debug_loc     0x000000000000378b      0x172 build/nsensor/production/_ext/2014956168/plib_gpio.o
 .debug_loc     0x00000000000038fd      0x1bc build/nsensor/production/_ext/1955707305/plib_mcpwm.o
 .debug_loc     0x0000000000003ab9       0x3b build/nsensor/production/_ext/619197180/plib_qei2.o
 .debug_loc     0x0000000000003af4      0x29f build/nsensor/production/_ext/2015287515/plib_rtcc.o
 .debug_loc     0x0000000000003d93      0x5f2 build/nsensor/production/_ext/1877210129/plib_spi1_master.o
 .debug_loc     0x0000000000004385      0x610 build/nsensor/production/_ext/1877210129/plib_spi2_master.o
 .debug_loc     0x0000000000004995      0x5e2 build/nsensor/production/_ext/2015359111/plib_uart1.o
 .debug_loc     0x0000000000004f77      0x17d build/nsensor/production/_ext/725740559/xc32_monitor.o
 .debug_loc     0x00000000000050f4       0x25 build/nsensor/production/_ext/1856863253/initialization.o
 .debug_loc     0x0000000000005119      0x856 build/nsensor/production/_ext/1360937237/bma490l.o
 .debug_loc     0x000000000000596f      0x1ad build/nsensor/production/_ext/1360937237/timers.o
 .debug_loc     0x0000000000005b1c      0xa7f build/nsensor/production/_ext/1360937237/sca3300.o
 .debug_loc     0x000000000000659b      0x3ff build/nsensor/production/_ext/1360937237/gfx.o
 .debug_loc     0x000000000000699a      0x3f6 build/nsensor/production/_ext/1360937237/imu.o
 .debug_loc     0x0000000000006d90       0x54 build/nsensor/production/_ext/1360937237/pid.o
 .debug_loc     0x0000000000006de4      0x11a build/nsensor/production/_ext/1360937237/do_fft.o
 .debug_loc     0x0000000000006efe      0x59d build/nsensor/production/_ext/1360937237/fft.o
 .debug_loc     0x000000000000749b      0x286 build/nsensor/production/_ext/1360937237/main.o
 .debug_loc     0x0000000000007721      0x20b build/nsensor/production/_ext/1360937237/canfd.o
 .debug_loc     0x000000000000792c      0x73a build/nsensor/production/_ext/1360937237/host.o
 .debug_loc     0x0000000000008066      0x1b0 build/nsensor/production/_ext/1360937237/cmd_scanner.o
 .debug_loc     0x0000000000008216       0x47 c:/program files/microchip/xc32/v4.20/bin/bin/../../lib/gcc/pic32mx/8.3.1/../../../../pic32mx/lib/fpu64\libc-musl.a(__sio_printf_s.o)
 .debug_loc     0x000000000000825d       0x5f c:/program files/microchip/xc32/v4.20/bin/bin/../../lib/gcc/pic32mx/8.3.1/../../../../pic32mx/lib/fpu64\libc-musl.a(__sio_sprintf_dfosux.o)
 .debug_loc     0x00000000000082bc       0x5f c:/program files/microchip/xc32/v4.20/bin/bin/../../lib/gcc/pic32mx/8.3.1/../../../../pic32mx/lib/fpu64\libc-musl.a(__sio_sprintf_dosux.o)
 .debug_loc     0x000000000000831b       0x5f c:/program files/microchip/xc32/v4.20/bin/bin/../../lib/gcc/pic32mx/8.3.1/../../../../pic32mx/lib/fpu64\libc-musl.a(__sio_sprintf_doux.o)
 .debug_loc     0x000000000000837a       0x5f c:/program files/microchip/xc32/v4.20/bin/bin/../../lib/gcc/pic32mx/8.3.1/../../../../pic32mx/lib/fpu64\libc-musl.a(__sio_sprintf_s.o)
 .debug_loc     0x00000000000083d9      0x241 c:/program files/microchip/xc32/v4.20/bin/bin/../../lib/gcc/pic32mx/8.3.1/../../../../pic32mx/lib/fpu64\libc-musl.a(__fmt_d.o)
 .debug_loc     0x000000000000861a      0xc99 c:/program files/microchip/xc32/v4.20/bin/bin/../../lib/gcc/pic32mx/8.3.1/../../../../pic32mx/lib/fpu64\libc-musl.a(__fmt_fp.o)
 .debug_loc     0x00000000000092b3       0xf2 c:/program files/microchip/xc32/v4.20/bin/bin/../../lib/gcc/pic32mx/8.3.1/../../../../pic32mx/lib/fpu64\libc-musl.a(__fmt_o.o)
 .debug_loc     0x00000000000093a5      0x11f c:/program files/microchip/xc32/v4.20/bin/bin/../../lib/gcc/pic32mx/8.3.1/../../../../pic32mx/lib/fpu64\libc-musl.a(__fmt_s.o)
 .debug_loc     0x00000000000094c4      0x2f0 c:/program files/microchip/xc32/v4.20/bin/bin/../../lib/gcc/pic32mx/8.3.1/../../../../pic32mx/lib/fpu64\libc-musl.a(__fmt_u.o)
 .debug_loc     0x00000000000097b4      0x2b8 c:/program files/microchip/xc32/v4.20/bin/bin/../../lib/gcc/pic32mx/8.3.1/../../../../pic32mx/lib/fpu64\libc-musl.a(__fmt_x.o)
 .debug_loc     0x0000000000009a6c       0x40 c:/program files/microchip/xc32/v4.20/bin/bin/../../lib/gcc/pic32mx/8.3.1/../../../../pic32mx/lib/fpu64\libc-musl.a(__pop_ptr.o)
 .debug_loc     0x0000000000009aac      0x51f c:/program files/microchip/xc32/v4.20/bin/bin/../../lib/gcc/pic32mx/8.3.1/../../../../pic32mx/lib/fpu64\libc-musl.a(__printf_core.o)
 .debug_loc     0x0000000000009fcb       0x64 c:/program files/microchip/xc32/v4.20/bin/bin/../../lib/gcc/pic32mx/8.3.1/../../../../pic32mx/lib/fpu64\libc-musl.a(vprintf.o)
 .debug_loc     0x000000000000a02f       0xbe c:/program files/microchip/xc32/v4.20/bin/bin/../../lib/gcc/pic32mx/8.3.1/../../../../pic32mx/lib/fpu64\libc-musl.a(atoi.o)
 .debug_loc     0x000000000000a0ed      0x118 c:/program files/microchip/xc32/v4.20/bin/bin/../../lib/gcc/pic32mx/8.3.1/../../../../pic32mx/lib/fpu64\libc-musl.a(memcpy.o)
 .debug_loc     0x000000000000a205       0x54 c:/program files/microchip/xc32/v4.20/bin/bin/../../lib/gcc/pic32mx/8.3.1/../../../../pic32mx/lib/fpu64\libc-musl.a(strcpy.o)
 .debug_loc     0x000000000000a259       0xec c:/program files/microchip/xc32/v4.20/bin/bin/../../lib/gcc/pic32mx/8.3.1/../../../../pic32mx/lib/fpu64\libc-musl.a(strncmp.o)
 .debug_loc     0x000000000000a345       0x9f c:/program files/microchip/xc32/v4.20/bin/bin/../../lib/gcc/pic32mx/8.3.1/../../../../pic32mx/lib/fpu64\libc-musl.a(__int_vfprintf.o)
 .debug_loc     0x000000000000a3e4       0x89 c:/program files/microchip/xc32/v4.20/bin/bin/../../lib/gcc/pic32mx/8.3.1/../../../../pic32mx/lib/fpu64\libc-musl.a(__int_vsprintf.o)
 .debug_loc     0x000000000000a46d       0x2f c:/program files/microchip/xc32/v4.20/bin/bin/../../lib/gcc/pic32mx/8.3.1/../../../../pic32mx/lib/fpu64\libc-musl.a(__fopen.o)
 .debug_loc     0x000000000000a49c      0x1ab c:/program files/microchip/xc32/v4.20/bin/bin/../../lib/gcc/pic32mx/8.3.1/../../../../pic32mx/lib/fpu64\libc-musl.a(__out.o)
 .debug_loc     0x000000000000a647      0x130 c:/program files/microchip/xc32/v4.20/bin/bin/../../lib/gcc/pic32mx/8.3.1/../../../../pic32mx/lib/fpu64\libc-musl.a(__stdio_close.o)
 .debug_loc     0x000000000000a777       0x9f c:/program files/microchip/xc32/v4.20/bin/bin/../../lib/gcc/pic32mx/8.3.1/../../../../pic32mx/lib/fpu64\libc-musl.a(vfprintf.o)
 .debug_loc     0x000000000000a816       0x51 c:/program files/microchip/xc32/v4.20/bin/bin/../../lib/gcc/pic32mx/8.3.1/../../../../pic32mx/lib/fpu64\libc-musl.a(stpcpy.o)
 .debug_loc     0x000000000000a867      0xbd3 c:/program files/microchip/xc32/v4.20/bin/bin/../../lib/gcc/pic32mx/8.3.1/../../../../pic32mx/lib/fpu64\libc-musl.a(malloc.o)
 .debug_loc     0x000000000000b43a       0x4f c:/program files/microchip/xc32/v4.20/bin/bin/../../lib/gcc/pic32mx/8.3.1/../../../../pic32mx/lib/fpu64\libc-musl.a(expand_heap.o)
 .debug_loc     0x000000000000b489      0x113 c:/program files/microchip/xc32/v4.20/bin/bin/../../lib/gcc/pic32mx/8.3.1/../../../../pic32mx/lib/fpu64\libc-musl.a(__int_vsnprintf.o)
 .debug_loc     0x000000000000b59c      0xb85 c:/program files/microchip/xc32/v4.20/bin/bin/../../lib/gcc/pic32mx/8.3.1/../../../../pic32mx/lib/fpu64\libc-musl.a(__fmt_a.o)
 .debug_loc     0x000000000000c121      0x11f c:/program files/microchip/xc32/v4.20/bin/bin/../../lib/gcc/pic32mx/8.3.1/../../../../pic32mx/lib/fpu64\libm-musl.a(cos.o)
 .debug_loc     0x000000000000c240       0x7e c:/program files/microchip/xc32/v4.20/bin/bin/../../lib/gcc/pic32mx/8.3.1/../../../../pic32mx/lib/fpu64\libm-musl.a(floor.o)
 .debug_loc     0x000000000000c2be      0xc8c c:/program files/microchip/xc32/v4.20/bin/bin/../../lib/gcc/pic32mx/8.3.1/../../../../pic32mx/lib/fpu64\libm-musl.a(fma.o)
 .debug_loc     0x000000000000cf4a      0x16e c:/program files/microchip/xc32/v4.20/bin/bin/../../lib/gcc/pic32mx/8.3.1/../../../../pic32mx/lib/fpu64\libm-musl.a(scalbn.o)
 .debug_loc     0x000000000000d0b8      0x164 c:/program files/microchip/xc32/v4.20/bin/bin/../../lib/gcc/pic32mx/8.3.1/../../../../pic32mx/lib/fpu64\libm-musl.a(sin.o)
 .debug_loc     0x000000000000d21c      0x320 c:/program files/microchip/xc32/v4.20/bin/bin/../../lib/gcc/pic32mx/8.3.1/../../../../pic32mx/lib/fpu64\libm-musl.a(__cos.o)
 .debug_loc     0x000000000000d53c      0x79c c:/program files/microchip/xc32/v4.20/bin/bin/../../lib/gcc/pic32mx/8.3.1/../../../../pic32mx/lib/fpu64\libm-musl.a(__rem_pio2.o)
 .debug_loc     0x000000000000dcd8      0xc12 c:/program files/microchip/xc32/v4.20/bin/bin/../../lib/gcc/pic32mx/8.3.1/../../../../pic32mx/lib/fpu64\libm-musl.a(__rem_pio2_large.o)
 .debug_loc     0x000000000000e8ea      0x21f c:/program files/microchip/xc32/v4.20/bin/bin/../../lib/gcc/pic32mx/8.3.1/../../../../pic32mx/lib/fpu64\libm-musl.a(__sin.o)
 .debug_loc     0x000000000000eb09       0x99 c:/program files/microchip/xc32/v4.20/bin/bin/../../lib/gcc/pic32mx/8.3.1/fpu64\libgcc.a(_lshrdi3.o)
 .debug_loc     0x000000000000eba2       0x75 c:/program files/microchip/xc32/v4.20/bin/bin/../../lib/gcc/pic32mx/8.3.1/fpu64\libgcc.a(_ashldi3.o)
 .debug_loc     0x000000000000ec17      0x9f5 c:/program files/microchip/xc32/v4.20/bin/bin/../../lib/gcc/pic32mx/8.3.1/fpu64\libgcc.a(_udivdi3.o)
 .debug_loc     0x000000000000f60c      0x99a c:/program files/microchip/xc32/v4.20/bin/bin/../../lib/gcc/pic32mx/8.3.1/fpu64\libgcc.a(_umoddi3.o)
 .debug_loc     0x000000000000ffa6       0x6c c:/program files/microchip/xc32/v4.20/bin/bin/../../lib/gcc/pic32mx/8.3.1/../../../../pic32mx/lib/fpu64\libpic32.a(sbrk.o)

.debug_macinfo
 *.elf(.debug_macinfo)
 *(.debug_macinfo)

.debug_weaknames
 *.elf(.debug_weaknames)
 *(.debug_weaknames)

.debug_funcnames
 *.elf(.debug_funcnames)
 *(.debug_funcnames)

.debug_typenames
 *.elf(.debug_typenames)
 *(.debug_typenames)

.debug_varnames
 *.elf(.debug_varnames)
 *(.debug_varnames)

.debug_pubtypes
 *.elf(.debug_pubtypes)
 *(.debug_pubtypes)

.debug_ranges   0x0000000000000000     0x1270
 *.elf(.debug_ranges)
 *(.debug_ranges)
 .debug_ranges  0x0000000000000000      0x1b8 build/nsensor/production/_ext/1684788505/dogm-graphic.o
 .debug_ranges  0x00000000000001b8      0x260 build/nsensor/production/_ext/1684788505/eadog.o
 .debug_ranges  0x0000000000000418       0x48 build/nsensor/production/_ext/1684788505/OledDriver.o
 .debug_ranges  0x0000000000000460       0x60 build/nsensor/production/_ext/1684788505/OledGrph.o
 .debug_ranges  0x00000000000004c0       0x50 build/nsensor/production/_ext/1965004555/plib_canfd1.o
 .debug_ranges  0x0000000000000510       0x18 build/nsensor/production/_ext/2015287515/plib_rtcc.o
 .debug_ranges  0x0000000000000528       0x38 build/nsensor/production/_ext/2015359111/plib_uart1.o
 .debug_ranges  0x0000000000000560       0x60 build/nsensor/production/_ext/1360937237/bma490l.o
 .debug_ranges  0x00000000000005c0       0x50 build/nsensor/production/_ext/1360937237/timers.o
 .debug_ranges  0x0000000000000610       0x80 build/nsensor/production/_ext/1360937237/sca3300.o
 .debug_ranges  0x0000000000000690       0x88 build/nsensor/production/_ext/1360937237/gfx.o
 .debug_ranges  0x0000000000000718       0x38 build/nsensor/production/_ext/1360937237/imu.o
 .debug_ranges  0x0000000000000750       0x30 build/nsensor/production/_ext/1360937237/main.o
 .debug_ranges  0x0000000000000780       0x20 build/nsensor/production/_ext/1360937237/canfd.o
 .debug_ranges  0x00000000000007a0      0x140 build/nsensor/production/_ext/1360937237/host.o
 .debug_ranges  0x00000000000008e0       0x40 build/nsensor/production/_ext/1360937237/cmd_scanner.o
 .debug_ranges  0x0000000000000920       0x10 c:/program files/microchip/xc32/v4.20/bin/bin/../../lib/gcc/pic32mx/8.3.1/../../../../pic32mx/lib/fpu64\libpic32.a(default-on-reset.o)
 .debug_ranges  0x0000000000000930       0x10 c:/program files/microchip/xc32/v4.20/bin/bin/../../lib/gcc/pic32mx/8.3.1/../../../../pic32mx/lib/fpu64\libpic32.a(default-on-bootstrap.o)
 .debug_ranges  0x0000000000000940       0x10 c:/program files/microchip/xc32/v4.20/bin/bin/../../lib/gcc/pic32mx/8.3.1/../../../../pic32mx/lib/fpu64\libpic32.a(defaultinterrupt.o)
 .debug_ranges  0x0000000000000950       0x18 c:/program files/microchip/xc32/v4.20/bin/bin/../../lib/gcc/pic32mx/8.3.1/../../../../pic32mx/lib/fpu64\libc-musl.a(__sio_printf_s.o)
 .debug_ranges  0x0000000000000968       0x18 c:/program files/microchip/xc32/v4.20/bin/bin/../../lib/gcc/pic32mx/8.3.1/../../../../pic32mx/lib/fpu64\libc-musl.a(__sio_sprintf_dfosux.o)
 .debug_ranges  0x0000000000000980       0x18 c:/program files/microchip/xc32/v4.20/bin/bin/../../lib/gcc/pic32mx/8.3.1/../../../../pic32mx/lib/fpu64\libc-musl.a(__sio_sprintf_dosux.o)
 .debug_ranges  0x0000000000000998       0x18 c:/program files/microchip/xc32/v4.20/bin/bin/../../lib/gcc/pic32mx/8.3.1/../../../../pic32mx/lib/fpu64\libc-musl.a(__sio_sprintf_doux.o)
 .debug_ranges  0x00000000000009b0       0x18 c:/program files/microchip/xc32/v4.20/bin/bin/../../lib/gcc/pic32mx/8.3.1/../../../../pic32mx/lib/fpu64\libc-musl.a(__sio_sprintf_s.o)
 .debug_ranges  0x00000000000009c8       0x10 c:/program files/microchip/xc32/v4.20/bin/bin/../../lib/gcc/pic32mx/8.3.1/../../../../pic32mx/lib/fpu64\libc-musl.a(__fmt_d.o)
 .debug_ranges  0x00000000000009d8       0x10 c:/program files/microchip/xc32/v4.20/bin/bin/../../lib/gcc/pic32mx/8.3.1/../../../../pic32mx/lib/fpu64\libc-musl.a(__fmt_fp.o)
 .debug_ranges  0x00000000000009e8       0x10 c:/program files/microchip/xc32/v4.20/bin/bin/../../lib/gcc/pic32mx/8.3.1/../../../../pic32mx/lib/fpu64\libc-musl.a(__fmt_o.o)
 .debug_ranges  0x00000000000009f8       0x10 c:/program files/microchip/xc32/v4.20/bin/bin/../../lib/gcc/pic32mx/8.3.1/../../../../pic32mx/lib/fpu64\libc-musl.a(__fmt_s.o)
 .debug_ranges  0x0000000000000a08       0x18 c:/program files/microchip/xc32/v4.20/bin/bin/../../lib/gcc/pic32mx/8.3.1/../../../../pic32mx/lib/fpu64\libc-musl.a(__fmt_u.o)
 .debug_ranges  0x0000000000000a20       0x10 c:/program files/microchip/xc32/v4.20/bin/bin/../../lib/gcc/pic32mx/8.3.1/../../../../pic32mx/lib/fpu64\libc-musl.a(__fmt_x.o)
 .debug_ranges  0x0000000000000a30       0x10 c:/program files/microchip/xc32/v4.20/bin/bin/../../lib/gcc/pic32mx/8.3.1/../../../../pic32mx/lib/fpu64\libc-musl.a(__pop_float.o)
 .debug_ranges  0x0000000000000a40       0x10 c:/program files/microchip/xc32/v4.20/bin/bin/../../lib/gcc/pic32mx/8.3.1/../../../../pic32mx/lib/fpu64\libc-musl.a(__pop_int.o)
 .debug_ranges  0x0000000000000a50       0x10 c:/program files/microchip/xc32/v4.20/bin/bin/../../lib/gcc/pic32mx/8.3.1/../../../../pic32mx/lib/fpu64\libc-musl.a(__pop_ptr.o)
 .debug_ranges  0x0000000000000a60       0xf8 c:/program files/microchip/xc32/v4.20/bin/bin/../../lib/gcc/pic32mx/8.3.1/../../../../pic32mx/lib/fpu64\libc-musl.a(__printf_core.o)
 .debug_ranges  0x0000000000000b58       0x18 c:/program files/microchip/xc32/v4.20/bin/bin/../../lib/gcc/pic32mx/8.3.1/../../../../pic32mx/lib/fpu64\libc-musl.a(stdout.o)
 .debug_ranges  0x0000000000000b70       0x10 c:/program files/microchip/xc32/v4.20/bin/bin/../../lib/gcc/pic32mx/8.3.1/../../../../pic32mx/lib/fpu64\libc-musl.a(vprintf.o)
 .debug_ranges  0x0000000000000b80       0x28 c:/program files/microchip/xc32/v4.20/bin/bin/../../lib/gcc/pic32mx/8.3.1/../../../../pic32mx/lib/fpu64\libc-musl.a(atoi.o)
 .debug_ranges  0x0000000000000ba8       0x10 c:/program files/microchip/xc32/v4.20/bin/bin/../../lib/gcc/pic32mx/8.3.1/../../../../pic32mx/lib/fpu64\libc-musl.a(memcpy.o)
 .debug_ranges  0x0000000000000bb8       0x10 c:/program files/microchip/xc32/v4.20/bin/bin/../../lib/gcc/pic32mx/8.3.1/../../../../pic32mx/lib/fpu64\libc-musl.a(strcpy.o)
 .debug_ranges  0x0000000000000bc8       0x10 c:/program files/microchip/xc32/v4.20/bin/bin/../../lib/gcc/pic32mx/8.3.1/../../../../pic32mx/lib/fpu64\libc-musl.a(strncmp.o)
 .debug_ranges  0x0000000000000bd8       0x18 c:/program files/microchip/xc32/v4.20/bin/bin/../../lib/gcc/pic32mx/8.3.1/../../../../pic32mx/lib/fpu64\libc-musl.a(tolower.o)
 .debug_ranges  0x0000000000000bf0       0x18 c:/program files/microchip/xc32/v4.20/bin/bin/../../lib/gcc/pic32mx/8.3.1/../../../../pic32mx/lib/fpu64\libc-musl.a(toupper.o)
 .debug_ranges  0x0000000000000c08       0x10 c:/program files/microchip/xc32/v4.20/bin/bin/../../lib/gcc/pic32mx/8.3.1/../../../../pic32mx/lib/fpu64\libc-musl.a(__int_vfprintf.o)
 .debug_ranges  0x0000000000000c18       0x10 c:/program files/microchip/xc32/v4.20/bin/bin/../../lib/gcc/pic32mx/8.3.1/../../../../pic32mx/lib/fpu64\libc-musl.a(__int_vsprintf.o)
 .debug_ranges  0x0000000000000c28       0x20 c:/program files/microchip/xc32/v4.20/bin/bin/../../lib/gcc/pic32mx/8.3.1/../../../../pic32mx/lib/fpu64\libc-musl.a(__fopen.o)
 .debug_ranges  0x0000000000000c48       0x18 c:/program files/microchip/xc32/v4.20/bin/bin/../../lib/gcc/pic32mx/8.3.1/../../../../pic32mx/lib/fpu64\libc-musl.a(__io_init_needed.o)
 .debug_ranges  0x0000000000000c60       0x30 c:/program files/microchip/xc32/v4.20/bin/bin/../../lib/gcc/pic32mx/8.3.1/../../../../pic32mx/lib/fpu64\libc-musl.a(__out.o)
 .debug_ranges  0x0000000000000c90       0x18 c:/program files/microchip/xc32/v4.20/bin/bin/../../lib/gcc/pic32mx/8.3.1/../../../../pic32mx/lib/fpu64\libc-musl.a(__stdio_close.o)
 .debug_ranges  0x0000000000000ca8       0x18 c:/program files/microchip/xc32/v4.20/bin/bin/../../lib/gcc/pic32mx/8.3.1/../../../../pic32mx/lib/fpu64\libc-musl.a(vfprintf.o)
 .debug_ranges  0x0000000000000cc0       0x10 c:/program files/microchip/xc32/v4.20/bin/bin/../../lib/gcc/pic32mx/8.3.1/../../../../pic32mx/lib/fpu64\libc-musl.a(stpcpy.o)
 .debug_ranges  0x0000000000000cd0      0x1e8 c:/program files/microchip/xc32/v4.20/bin/bin/../../lib/gcc/pic32mx/8.3.1/../../../../pic32mx/lib/fpu64\libc-musl.a(malloc.o)
 .debug_ranges  0x0000000000000eb8       0x10 c:/program files/microchip/xc32/v4.20/bin/bin/../../lib/gcc/pic32mx/8.3.1/../../../../pic32mx/lib/fpu64\libc-musl.a(expand_heap.o)
 .debug_ranges  0x0000000000000ec8       0x10 c:/program files/microchip/xc32/v4.20/bin/bin/../../lib/gcc/pic32mx/8.3.1/../../../../pic32mx/lib/fpu64\libc-musl.a(__int_vsnprintf.o)
 .debug_ranges  0x0000000000000ed8       0x18 c:/program files/microchip/xc32/v4.20/bin/bin/../../lib/gcc/pic32mx/8.3.1/../../../../pic32mx/lib/fpu64\libc-musl.a(__init_stdio.o)
 .debug_ranges  0x0000000000000ef0       0x10 c:/program files/microchip/xc32/v4.20/bin/bin/../../lib/gcc/pic32mx/8.3.1/../../../../pic32mx/lib/fpu64\libc-musl.a(__io_file_needed.o)
 .debug_ranges  0x0000000000000f00       0x10 c:/program files/microchip/xc32/v4.20/bin/bin/../../lib/gcc/pic32mx/8.3.1/../../../../pic32mx/lib/fpu64\libc-musl.a(__io_fmt_needed.o)
 .debug_ranges  0x0000000000000f10       0x10 c:/program files/microchip/xc32/v4.20/bin/bin/../../lib/gcc/pic32mx/8.3.1/../../../../pic32mx/lib/fpu64\libc-musl.a(__fmt_a.o)
 .debug_ranges  0x0000000000000f20       0x48 c:/program files/microchip/xc32/v4.20/bin/bin/../../lib/gcc/pic32mx/8.3.1/../../../../pic32mx/lib/fpu64\libm-musl.a(cos.o)
 .debug_ranges  0x0000000000000f68       0x10 c:/program files/microchip/xc32/v4.20/bin/bin/../../lib/gcc/pic32mx/8.3.1/../../../../pic32mx/lib/fpu64\libm-musl.a(floor.o)
 .debug_ranges  0x0000000000000f78       0x78 c:/program files/microchip/xc32/v4.20/bin/bin/../../lib/gcc/pic32mx/8.3.1/../../../../pic32mx/lib/fpu64\libm-musl.a(fma.o)
 .debug_ranges  0x0000000000000ff0       0x10 c:/program files/microchip/xc32/v4.20/bin/bin/../../lib/gcc/pic32mx/8.3.1/../../../../pic32mx/lib/fpu64\libm-musl.a(scalbn.o)
 .debug_ranges  0x0000000000001000       0x48 c:/program files/microchip/xc32/v4.20/bin/bin/../../lib/gcc/pic32mx/8.3.1/../../../../pic32mx/lib/fpu64\libm-musl.a(sin.o)
 .debug_ranges  0x0000000000001048       0x10 c:/program files/microchip/xc32/v4.20/bin/bin/../../lib/gcc/pic32mx/8.3.1/../../../../pic32mx/lib/fpu64\libm-musl.a(__cos.o)
 .debug_ranges  0x0000000000001058       0x10 c:/program files/microchip/xc32/v4.20/bin/bin/../../lib/gcc/pic32mx/8.3.1/../../../../pic32mx/lib/fpu64\libm-musl.a(__rem_pio2.o)
 .debug_ranges  0x0000000000001068       0x10 c:/program files/microchip/xc32/v4.20/bin/bin/../../lib/gcc/pic32mx/8.3.1/../../../../pic32mx/lib/fpu64\libm-musl.a(__rem_pio2_large.o)
 .debug_ranges  0x0000000000001078       0x10 c:/program files/microchip/xc32/v4.20/bin/bin/../../lib/gcc/pic32mx/8.3.1/../../../../pic32mx/lib/fpu64\libm-musl.a(__sin.o)
 .debug_ranges  0x0000000000001088       0xd8 c:/program files/microchip/xc32/v4.20/bin/bin/../../lib/gcc/pic32mx/8.3.1/fpu64\libgcc.a(_udivdi3.o)
 .debug_ranges  0x0000000000001160       0xc0 c:/program files/microchip/xc32/v4.20/bin/bin/../../lib/gcc/pic32mx/8.3.1/fpu64\libgcc.a(_umoddi3.o)
 .debug_ranges  0x0000000000001220       0x30 c:/program files/microchip/xc32/v4.20/bin/bin/../../lib/gcc/pic32mx/8.3.1/../../../../pic32mx/lib/fpu64\libpic32.a(sbrk.o)
 .debug_ranges  0x0000000000001250       0x10 c:/program files/microchip/xc32/v4.20/bin/bin/../../lib/gcc/pic32mx/8.3.1/../../../../pic32mx/lib/fpu64\libpic32.a(lseek.o)
 .debug_ranges  0x0000000000001260       0x10 c:/program files/microchip/xc32/v4.20/bin/bin/../../lib/gcc/pic32mx/8.3.1/../../../../pic32mx/lib/fpu64\libpic32.a(close.o)

.gnu.attributes
                0x0000000000000000       0x10
 *(.gnu.attributes)
 .gnu.attributes
                0x0000000000000000       0x10 c:/program files/microchip/xc32/v4.20/bin/bin/../../lib/gcc/pic32mx/8.3.1/../../../../pic32mx/lib/fpu64\debug-exception-return.o
 .gnu.attributes
                0x0000000000000010       0x10 build/nsensor/production/_ext/1684788505/ChrFont0.o
 .gnu.attributes
                0x0000000000000020       0x10 build/nsensor/production/_ext/1684788505/dogm-graphic.o
 .gnu.attributes
                0x0000000000000030       0x10 build/nsensor/production/_ext/1684788505/eadog.o
 .gnu.attributes
                0x0000000000000040       0x10 build/nsensor/production/_ext/1684788505/FillPat.o
 .gnu.attributes
                0x0000000000000050       0x10 build/nsensor/production/_ext/1684788505/foo.o
 .gnu.attributes
                0x0000000000000060       0x10 build/nsensor/production/_ext/1684788505/lcd_drv.o
 .gnu.attributes
                0x0000000000000070       0x10 build/nsensor/production/_ext/1684788505/OledChar.o
 .gnu.attributes
                0x0000000000000080       0x10 build/nsensor/production/_ext/1684788505/OledDriver.o
 .gnu.attributes
                0x0000000000000090       0x10 build/nsensor/production/_ext/1684788505/OledGrph.o
 .gnu.attributes
                0x00000000000000a0       0x10 build/nsensor/production/_ext/1966772718/plib_adchs.o
 .gnu.attributes
                0x00000000000000b0       0x10 build/nsensor/production/_ext/1965004555/plib_canfd1.o
 .gnu.attributes
                0x00000000000000c0       0x10 build/nsensor/production/_ext/619183945/plib_clk.o
 .gnu.attributes
                0x00000000000000d0       0x10 build/nsensor/production/_ext/1664108525/plib_coretimer.o
 .gnu.attributes
                0x00000000000000e0       0x10 build/nsensor/production/_ext/2014863652/plib_dmac.o
 .gnu.attributes
                0x00000000000000f0       0x10 build/nsensor/production/_ext/2014902340/plib_evic.o
 .gnu.attributes
                0x0000000000000100       0x10 build/nsensor/production/_ext/2014956168/plib_gpio.o
 .gnu.attributes
                0x0000000000000110       0x10 build/nsensor/production/_ext/1955707305/plib_mcpwm.o
 .gnu.attributes
                0x0000000000000120       0x10 build/nsensor/production/_ext/619197180/plib_qei2.o
 .gnu.attributes
                0x0000000000000130       0x10 build/nsensor/production/_ext/2015287515/plib_rtcc.o
 .gnu.attributes
                0x0000000000000140       0x10 build/nsensor/production/_ext/1877210129/plib_spi1_master.o
 .gnu.attributes
                0x0000000000000150       0x10 build/nsensor/production/_ext/1877210129/plib_spi2_master.o
 .gnu.attributes
                0x0000000000000160       0x10 build/nsensor/production/_ext/619200320/plib_tmr9.o
 .gnu.attributes
                0x0000000000000170       0x10 build/nsensor/production/_ext/619200320/plib_tmr5.o
 .gnu.attributes
                0x0000000000000180       0x10 build/nsensor/production/_ext/619200320/plib_tmr3.o
 .gnu.attributes
                0x0000000000000190       0x10 build/nsensor/production/_ext/619200320/plib_tmr6.o
 .gnu.attributes
                0x00000000000001a0       0x10 build/nsensor/production/_ext/619200320/plib_tmr2.o
 .gnu.attributes
                0x00000000000001b0       0x10 build/nsensor/production/_ext/2015359111/plib_uart1.o
 .gnu.attributes
                0x00000000000001c0       0x10 build/nsensor/production/_ext/725740559/xc32_monitor.o
 .gnu.attributes
                0x00000000000001d0       0x10 build/nsensor/production/_ext/1856863253/exceptions.o
 .gnu.attributes
                0x00000000000001e0       0x10 build/nsensor/production/_ext/1856863253/interrupts.o
 .gnu.attributes
                0x00000000000001f0       0x10 build/nsensor/production/_ext/1856863253/initialization.o
 .gnu.attributes
                0x0000000000000200       0x10 build/nsensor/production/_ext/1360937237/bma490l.o
 .gnu.attributes
                0x0000000000000210       0x10 build/nsensor/production/_ext/1360937237/timers.o
 .gnu.attributes
                0x0000000000000220       0x10 build/nsensor/production/_ext/1360937237/sca3300.o
 .gnu.attributes
                0x0000000000000230       0x10 build/nsensor/production/_ext/1360937237/gfx.o
 .gnu.attributes
                0x0000000000000240       0x10 build/nsensor/production/_ext/1360937237/imu.o
 .gnu.attributes
                0x0000000000000250       0x10 build/nsensor/production/_ext/1360937237/pid.o
 .gnu.attributes
                0x0000000000000260       0x10 build/nsensor/production/_ext/1360937237/do_fft.o
 .gnu.attributes
                0x0000000000000270       0x10 build/nsensor/production/_ext/1360937237/fft.o
 .gnu.attributes
                0x0000000000000280       0x10 build/nsensor/production/_ext/1360937237/main.o
 .gnu.attributes
                0x0000000000000290       0x10 build/nsensor/production/_ext/1360937237/canfd.o
 .gnu.attributes
                0x00000000000002a0       0x10 build/nsensor/production/_ext/1360937237/host.o
 .gnu.attributes
                0x00000000000002b0       0x10 build/nsensor/production/_ext/1360937237/cmd_scanner.o
 .gnu.attributes
                0x00000000000002c0       0x10 C:\Users\nsasp\AppData\Local\Temp\cc26TO6z.o
 .gnu.attributes
                0x00000000000002d0       0x10 C:\Users\nsasp\AppData\Local\Temp\ccN9JJDZ.o
 .gnu.attributes
                0x00000000000002e0       0x10 C:\Users\nsasp\AppData\Local\Temp\ccysgyWv.o
 .gnu.attributes
                0x00000000000002f0       0x10 C:\Users\nsasp\AppData\Local\Temp\ccPPgLE5.o
 .gnu.attributes
                0x0000000000000300       0x10 c:/program files/microchip/xc32/v4.20/bin/bin/../../lib/gcc/pic32mx/8.3.1/../../../../pic32mx/lib/fpu64\pic32_software_reset.o
 .gnu.attributes
                0x0000000000000310       0x10 c:/program files/microchip/xc32/v4.20/bin/bin/../../lib/gcc/pic32mx/8.3.1/../../../../pic32mx/lib/fpu64\libpic32.a(memset.o)
 .gnu.attributes
                0x0000000000000320       0x10 c:/program files/microchip/xc32/v4.20/bin/bin/../../lib/gcc/pic32mx/8.3.1/../../../../pic32mx/lib/fpu64\libpic32.a(strlen.o)
 .gnu.attributes
                0x0000000000000330       0x10 c:/program files/microchip/xc32/v4.20/bin/bin/../../lib/gcc/pic32mx/8.3.1/../../../../pic32mx/lib/fpu64\libpic32.a(default-on-reset.o)
 .gnu.attributes
                0x0000000000000340       0x10 c:/program files/microchip/xc32/v4.20/bin/bin/../../lib/gcc/pic32mx/8.3.1/../../../../pic32mx/lib/fpu64\libpic32.a(default-on-bootstrap.o)
 .gnu.attributes
                0x0000000000000350       0x10 c:/program files/microchip/xc32/v4.20/bin/bin/../../lib/gcc/pic32mx/8.3.1/../../../../pic32mx/lib/fpu64\libpic32.a(default-nmi-handler.o)
 .gnu.attributes
                0x0000000000000360       0x10 c:/program files/microchip/xc32/v4.20/bin/bin/../../lib/gcc/pic32mx/8.3.1/../../../../pic32mx/lib/fpu64\libpic32.a(pic32_data_init_wrapper.o)
 .gnu.attributes
                0x0000000000000370       0x10 c:/program files/microchip/xc32/v4.20/bin/bin/../../lib/gcc/pic32mx/8.3.1/../../../../pic32mx/lib/fpu64\libpic32.a(pic32_data_init_0_1.o)
 .gnu.attributes
                0x0000000000000380       0x10 c:/program files/microchip/xc32/v4.20/bin/bin/../../lib/gcc/pic32mx/8.3.1/../../../../pic32mx/lib/fpu64\libpic32.a(general-exception.o)
 .gnu.attributes
                0x0000000000000390       0x10 c:/program files/microchip/xc32/v4.20/bin/bin/../../lib/gcc/pic32mx/8.3.1/../../../../pic32mx/lib/fpu64\libpic32.a(defaultinterrupt.o)
 .gnu.attributes
                0x00000000000003a0       0x10 c:/program files/microchip/xc32/v4.20/bin/bin/../../lib/gcc/pic32mx/8.3.1/../../../../pic32mx/lib/fpu64\libc-musl.a(__sio_printf_s.o)
 .gnu.attributes
                0x00000000000003b0       0x10 c:/program files/microchip/xc32/v4.20/bin/bin/../../lib/gcc/pic32mx/8.3.1/../../../../pic32mx/lib/fpu64\libc-musl.a(__sio_sprintf_dfosux.o)
 .gnu.attributes
                0x00000000000003c0       0x10 c:/program files/microchip/xc32/v4.20/bin/bin/../../lib/gcc/pic32mx/8.3.1/../../../../pic32mx/lib/fpu64\libc-musl.a(__sio_sprintf_dosux.o)
 .gnu.attributes
                0x00000000000003d0       0x10 c:/program files/microchip/xc32/v4.20/bin/bin/../../lib/gcc/pic32mx/8.3.1/../../../../pic32mx/lib/fpu64\libc-musl.a(__sio_sprintf_doux.o)
 .gnu.attributes
                0x00000000000003e0       0x10 c:/program files/microchip/xc32/v4.20/bin/bin/../../lib/gcc/pic32mx/8.3.1/../../../../pic32mx/lib/fpu64\libc-musl.a(__sio_sprintf_s.o)
 .gnu.attributes
                0x00000000000003f0       0x10 c:/program files/microchip/xc32/v4.20/bin/bin/../../lib/gcc/pic32mx/8.3.1/../../../../pic32mx/lib/fpu64\libc-musl.a(__fmt_d.o)
 .gnu.attributes
                0x0000000000000400       0x10 c:/program files/microchip/xc32/v4.20/bin/bin/../../lib/gcc/pic32mx/8.3.1/../../../../pic32mx/lib/fpu64\libc-musl.a(__fmt_fp.o)
 .gnu.attributes
                0x0000000000000410       0x10 c:/program files/microchip/xc32/v4.20/bin/bin/../../lib/gcc/pic32mx/8.3.1/../../../../pic32mx/lib/fpu64\libc-musl.a(__fmt_o.o)
 .gnu.attributes
                0x0000000000000420       0x10 c:/program files/microchip/xc32/v4.20/bin/bin/../../lib/gcc/pic32mx/8.3.1/../../../../pic32mx/lib/fpu64\libc-musl.a(__fmt_s.o)
 .gnu.attributes
                0x0000000000000430       0x10 c:/program files/microchip/xc32/v4.20/bin/bin/../../lib/gcc/pic32mx/8.3.1/../../../../pic32mx/lib/fpu64\libc-musl.a(__fmt_u.o)
 .gnu.attributes
                0x0000000000000440       0x10 c:/program files/microchip/xc32/v4.20/bin/bin/../../lib/gcc/pic32mx/8.3.1/../../../../pic32mx/lib/fpu64\libc-musl.a(__fmt_x.o)
 .gnu.attributes
                0x0000000000000450       0x10 c:/program files/microchip/xc32/v4.20/bin/bin/../../lib/gcc/pic32mx/8.3.1/../../../../pic32mx/lib/fpu64\libc-musl.a(__pop_float.o)
 .gnu.attributes
                0x0000000000000460       0x10 c:/program files/microchip/xc32/v4.20/bin/bin/../../lib/gcc/pic32mx/8.3.1/../../../../pic32mx/lib/fpu64\libc-musl.a(__pop_int.o)
 .gnu.attributes
                0x0000000000000470       0x10 c:/program files/microchip/xc32/v4.20/bin/bin/../../lib/gcc/pic32mx/8.3.1/../../../../pic32mx/lib/fpu64\libc-musl.a(__pop_ptr.o)
 .gnu.attributes
                0x0000000000000480       0x10 c:/program files/microchip/xc32/v4.20/bin/bin/../../lib/gcc/pic32mx/8.3.1/../../../../pic32mx/lib/fpu64\libc-musl.a(__printf_core.o)
 .gnu.attributes
                0x0000000000000490       0x10 c:/program files/microchip/xc32/v4.20/bin/bin/../../lib/gcc/pic32mx/8.3.1/../../../../pic32mx/lib/fpu64\libc-musl.a(stdout.o)
 .gnu.attributes
                0x00000000000004a0       0x10 c:/program files/microchip/xc32/v4.20/bin/bin/../../lib/gcc/pic32mx/8.3.1/../../../../pic32mx/lib/fpu64\libc-musl.a(vprintf.o)
 .gnu.attributes
                0x00000000000004b0       0x10 c:/program files/microchip/xc32/v4.20/bin/bin/../../lib/gcc/pic32mx/8.3.1/../../../../pic32mx/lib/fpu64\libc-musl.a(atoi.o)
 .gnu.attributes
                0x00000000000004c0       0x10 c:/program files/microchip/xc32/v4.20/bin/bin/../../lib/gcc/pic32mx/8.3.1/../../../../pic32mx/lib/fpu64\libc-musl.a(memcpy.o)
 .gnu.attributes
                0x00000000000004d0       0x10 c:/program files/microchip/xc32/v4.20/bin/bin/../../lib/gcc/pic32mx/8.3.1/../../../../pic32mx/lib/fpu64\libc-musl.a(strcpy.o)
 .gnu.attributes
                0x00000000000004e0       0x10 c:/program files/microchip/xc32/v4.20/bin/bin/../../lib/gcc/pic32mx/8.3.1/../../../../pic32mx/lib/fpu64\libc-musl.a(strncmp.o)
 .gnu.attributes
                0x00000000000004f0       0x10 c:/program files/microchip/xc32/v4.20/bin/bin/../../lib/gcc/pic32mx/8.3.1/../../../../pic32mx/lib/fpu64\libc-musl.a(tolower.o)
 .gnu.attributes
                0x0000000000000500       0x10 c:/program files/microchip/xc32/v4.20/bin/bin/../../lib/gcc/pic32mx/8.3.1/../../../../pic32mx/lib/fpu64\libc-musl.a(toupper.o)
 .gnu.attributes
                0x0000000000000510       0x10 c:/program files/microchip/xc32/v4.20/bin/bin/../../lib/gcc/pic32mx/8.3.1/../../../../pic32mx/lib/fpu64\libc-musl.a(__int_vfprintf.o)
 .gnu.attributes
                0x0000000000000520       0x10 c:/program files/microchip/xc32/v4.20/bin/bin/../../lib/gcc/pic32mx/8.3.1/../../../../pic32mx/lib/fpu64\libc-musl.a(__int_vsprintf.o)
 .gnu.attributes
                0x0000000000000530       0x10 c:/program files/microchip/xc32/v4.20/bin/bin/../../lib/gcc/pic32mx/8.3.1/../../../../pic32mx/lib/fpu64\libc-musl.a(__fopen.o)
 .gnu.attributes
                0x0000000000000540       0x10 c:/program files/microchip/xc32/v4.20/bin/bin/../../lib/gcc/pic32mx/8.3.1/../../../../pic32mx/lib/fpu64\libc-musl.a(__io_init_needed.o)
 .gnu.attributes
                0x0000000000000550       0x10 c:/program files/microchip/xc32/v4.20/bin/bin/../../lib/gcc/pic32mx/8.3.1/../../../../pic32mx/lib/fpu64\libc-musl.a(__out.o)
 .gnu.attributes
                0x0000000000000560       0x10 c:/program files/microchip/xc32/v4.20/bin/bin/../../lib/gcc/pic32mx/8.3.1/../../../../pic32mx/lib/fpu64\libc-musl.a(__stdio_close.o)
 .gnu.attributes
                0x0000000000000570       0x10 c:/program files/microchip/xc32/v4.20/bin/bin/../../lib/gcc/pic32mx/8.3.1/../../../../pic32mx/lib/fpu64\libc-musl.a(vfprintf.o)
 .gnu.attributes
                0x0000000000000580       0x10 c:/program files/microchip/xc32/v4.20/bin/bin/../../lib/gcc/pic32mx/8.3.1/../../../../pic32mx/lib/fpu64\libc-musl.a(stpcpy.o)
 .gnu.attributes
                0x0000000000000590       0x10 c:/program files/microchip/xc32/v4.20/bin/bin/../../lib/gcc/pic32mx/8.3.1/../../../../pic32mx/lib/fpu64\libc-musl.a(malloc.o)
 .gnu.attributes
                0x00000000000005a0       0x10 c:/program files/microchip/xc32/v4.20/bin/bin/../../lib/gcc/pic32mx/8.3.1/../../../../pic32mx/lib/fpu64\libc-musl.a(expand_heap.o)
 .gnu.attributes
                0x00000000000005b0       0x10 c:/program files/microchip/xc32/v4.20/bin/bin/../../lib/gcc/pic32mx/8.3.1/../../../../pic32mx/lib/fpu64\libc-musl.a(__int_vsnprintf.o)
 .gnu.attributes
                0x00000000000005c0       0x10 c:/program files/microchip/xc32/v4.20/bin/bin/../../lib/gcc/pic32mx/8.3.1/../../../../pic32mx/lib/fpu64\libc-musl.a(__init_stdio.o)
 .gnu.attributes
                0x00000000000005d0       0x10 c:/program files/microchip/xc32/v4.20/bin/bin/../../lib/gcc/pic32mx/8.3.1/../../../../pic32mx/lib/fpu64\libc-musl.a(__io_file_needed.o)
 .gnu.attributes
                0x00000000000005e0       0x10 c:/program files/microchip/xc32/v4.20/bin/bin/../../lib/gcc/pic32mx/8.3.1/../../../../pic32mx/lib/fpu64\libc-musl.a(__io_fmt_needed.o)
 .gnu.attributes
                0x00000000000005f0       0x10 c:/program files/microchip/xc32/v4.20/bin/bin/../../lib/gcc/pic32mx/8.3.1/../../../../pic32mx/lib/fpu64\libc-musl.a(libc.o)
 .gnu.attributes
                0x0000000000000600       0x10 c:/program files/microchip/xc32/v4.20/bin/bin/../../lib/gcc/pic32mx/8.3.1/../../../../pic32mx/lib/fpu64\libc-musl.a(__fmt_a.o)
 .gnu.attributes
                0x0000000000000610       0x10 c:/program files/microchip/xc32/v4.20/bin/bin/../../lib/gcc/pic32mx/8.3.1/../../../../pic32mx/lib/fpu64\libm-musl.a(cos.o)
 .gnu.attributes
                0x0000000000000620       0x10 c:/program files/microchip/xc32/v4.20/bin/bin/../../lib/gcc/pic32mx/8.3.1/../../../../pic32mx/lib/fpu64\libm-musl.a(floor.o)
 .gnu.attributes
                0x0000000000000630       0x10 c:/program files/microchip/xc32/v4.20/bin/bin/../../lib/gcc/pic32mx/8.3.1/../../../../pic32mx/lib/fpu64\libm-musl.a(fma.o)
 .gnu.attributes
                0x0000000000000640       0x10 c:/program files/microchip/xc32/v4.20/bin/bin/../../lib/gcc/pic32mx/8.3.1/../../../../pic32mx/lib/fpu64\libm-musl.a(scalbn.o)
 .gnu.attributes
                0x0000000000000650       0x10 c:/program files/microchip/xc32/v4.20/bin/bin/../../lib/gcc/pic32mx/8.3.1/../../../../pic32mx/lib/fpu64\libm-musl.a(sin.o)
 .gnu.attributes
                0x0000000000000660       0x10 c:/program files/microchip/xc32/v4.20/bin/bin/../../lib/gcc/pic32mx/8.3.1/../../../../pic32mx/lib/fpu64\libm-musl.a(__cos.o)
 .gnu.attributes
                0x0000000000000670       0x10 c:/program files/microchip/xc32/v4.20/bin/bin/../../lib/gcc/pic32mx/8.3.1/../../../../pic32mx/lib/fpu64\libm-musl.a(__rem_pio2.o)
 .gnu.attributes
                0x0000000000000680       0x10 c:/program files/microchip/xc32/v4.20/bin/bin/../../lib/gcc/pic32mx/8.3.1/../../../../pic32mx/lib/fpu64\libm-musl.a(__rem_pio2_large.o)
 .gnu.attributes
                0x0000000000000690       0x10 c:/program files/microchip/xc32/v4.20/bin/bin/../../lib/gcc/pic32mx/8.3.1/../../../../pic32mx/lib/fpu64\libm-musl.a(__sin.o)
 .gnu.attributes
                0x00000000000006a0       0x10 c:/program files/microchip/xc32/v4.20/bin/bin/../../lib/gcc/pic32mx/8.3.1/fpu64\libgcc.a(_lshrdi3.o)
 .gnu.attributes
                0x00000000000006b0       0x10 c:/program files/microchip/xc32/v4.20/bin/bin/../../lib/gcc/pic32mx/8.3.1/fpu64\libgcc.a(_ashldi3.o)
 .gnu.attributes
                0x00000000000006c0       0x10 c:/program files/microchip/xc32/v4.20/bin/bin/../../lib/gcc/pic32mx/8.3.1/fpu64\libgcc.a(_udivdi3.o)
 .gnu.attributes
                0x00000000000006d0       0x10 c:/program files/microchip/xc32/v4.20/bin/bin/../../lib/gcc/pic32mx/8.3.1/fpu64\libgcc.a(_umoddi3.o)
 .gnu.attributes
                0x00000000000006e0       0x10 c:/program files/microchip/xc32/v4.20/bin/bin/../../lib/gcc/pic32mx/8.3.1/../../../../pic32mx/lib/fpu64\libpic32.a(sbrk.o)
 .gnu.attributes
                0x00000000000006f0       0x10 c:/program files/microchip/xc32/v4.20/bin/bin/../../lib/gcc/pic32mx/8.3.1/../../../../pic32mx/lib/fpu64\libpic32.a(lseek.o)
 .gnu.attributes
                0x0000000000000700       0x10 c:/program files/microchip/xc32/v4.20/bin/bin/../../lib/gcc/pic32mx/8.3.1/../../../../pic32mx/lib/fpu64\libpic32.a(close.o)
 .gnu.attributes
                0x0000000000000710       0x10 c:/program files/microchip/xc32/v4.20/bin/bin/../../lib/gcc/pic32mx/8.3.1/../../../../pic32mx/lib/fpu64\libpic32.a(errno.o)
                0x0000000000000200                _min_heap_size = 0x200
LOAD C:\Users\nsasp\AppData\Local\Temp\cc26TO6z.o
LOAD C:\Users\nsasp\AppData\Local\Temp\ccN9JJDZ.o
LOAD C:\Users\nsasp\AppData\Local\Temp\ccysgyWv.o
LOAD C:\Users\nsasp\AppData\Local\Temp\ccPPgLE5.o
LOAD c:/program files/microchip/xc32/v4.20/bin/bin/../../lib/gcc/pic32mx/8.3.1/../../../../pic32mx/lib/fpu64\pic32_software_reset.o
LOAD c:/program files/microchip/xc32/v4.20/bin/bin/../../lib/gcc/pic32mx/8.3.1/fpu64\libgcc.a
START GROUP
LOAD c:/program files/microchip/xc32/v4.20/bin/bin/../../lib/gcc/pic32mx/8.3.1/../../../../pic32mx/lib/fpu64\libpic32.a
LOAD c:/program files/microchip/xc32/v4.20/bin/bin/../../lib/gcc/pic32mx/8.3.1/../../../../pic32mx/lib/fpu64\libdebug.a
LOAD c:/program files/microchip/xc32/v4.20/bin/bin/../../lib/gcc/pic32mx/8.3.1/../../../../pic32mx/lib/fpu64\libc-musl.a
LOAD c:/program files/microchip/xc32/v4.20/bin/bin/../../lib/gcc/pic32mx/8.3.1/../../../../pic32mx/lib/fpu64\libm-musl.a
LOAD c:/program files/microchip/xc32/v4.20/bin/bin/../../lib/gcc/pic32mx/8.3.1/../../../../pic32mx/lib/fpu64\libdspr2.a
LOAD c:/program files/microchip/xc32/v4.20/bin/bin/../../lib/gcc/pic32mx/8.3.1/../../../../pic32mx/lib/fpu64\libdsp.a
LOAD c:/program files/microchip/xc32/v4.20/bin/bin/../../lib/gcc/pic32mx/8.3.1/fpu64\libgcc.a
END GROUP
LOAD c:/program files/microchip/xc32/v4.20/bin/bin/../../lib/gcc/pic32mx/8.3.1/fpu64\libgcc.a
OUTPUT(dist/nsensor/production/wfi.X.production.elf elf32-tradlittlemips)
LOAD stack
LOAD data_init

.reginfo        0x0000000000000000       0x18
 .reginfo       0x0000000000000000       0x18 c:/program files/microchip/xc32/v4.20/bin/bin/../../lib/gcc/pic32mx/8.3.1/../../../../pic32mx/lib/fpu64\debug-exception-return.o

__xc_reference_data
                0x0000000000000000      0x168
 __xc_reference_data
                0x0000000000000000       0x24 c:/program files/microchip/xc32/v4.20/bin/bin/../../lib/gcc/pic32mx/8.3.1/../../../../pic32mx/lib/fpu64\libc-musl.a(stdout.o)
                0x0000000000000000                __stdout_needs_init
 __xc_reference_data
                0x0000000000000024       0x48 c:/program files/microchip/xc32/v4.20/bin/bin/../../lib/gcc/pic32mx/8.3.1/../../../../pic32mx/lib/fpu64\libc-musl.a(__io_init_needed.o)
                0x0000000000000024                __io_init_needed
                0x0000000000000048                __io_init_needs_file
 __xc_reference_data
                0x000000000000006c       0x24 c:/program files/microchip/xc32/v4.20/bin/bin/../../lib/gcc/pic32mx/8.3.1/../../../../pic32mx/lib/fpu64\libc-musl.a(vfprintf.o)
                0x000000000000006c                __vfprintf_needs_fmt
 __xc_reference_data
                0x0000000000000090       0x24 c:/program files/microchip/xc32/v4.20/bin/bin/../../lib/gcc/pic32mx/8.3.1/../../../../pic32mx/lib/fpu64\libc-musl.a(__io_file_needed.o)
                0x0000000000000090                __io_file_needed
 __xc_reference_data
                0x00000000000000b4       0xb4 c:/program files/microchip/xc32/v4.20/bin/bin/../../lib/gcc/pic32mx/8.3.1/../../../../pic32mx/lib/fpu64\libc-musl.a(__io_fmt_needed.o)
                0x00000000000000b4                __io_fmt_needed

.stack          0x0000000080004428      0x400
 .stack         0x0000000080004428      0x400 stack

.__vector_offset_BF8106B8_data
                0x00000000bf8106b8       0x80
 .__vector_offset_BF8106B8_data
                0x00000000bf8106b8       0x80 C:\Users\nsasp\AppData\Local\Temp\ccysgyWv.o

.__vector_offset_BF810540_data
                0x00000000bf810540       0x70
 .__vector_offset_BF810540_data
                0x00000000bf810540       0x70 C:\Users\nsasp\AppData\Local\Temp\ccysgyWv.o

.__vector_offset_BF81065C_data
                0x00000000bf81065c       0x58
 .__vector_offset_BF81065C_data
                0x00000000bf81065c       0x58 C:\Users\nsasp\AppData\Local\Temp\ccysgyWv.o

.__vector_offset_BF8105CC_data
                0x00000000bf8105cc       0x40
 .__vector_offset_BF8105CC_data
                0x00000000bf8105cc       0x40 C:\Users\nsasp\AppData\Local\Temp\ccysgyWv.o

.__vector_offset_BF8107A0_data
                0x00000000bf8107a0       0x2c
 .__vector_offset_BF8107A0_data
                0x00000000bf8107a0       0x2c C:\Users\nsasp\AppData\Local\Temp\ccysgyWv.o

.__vector_offset_BF8107E4_data
                0x00000000bf8107e4       0x28
 .__vector_offset_BF8107E4_data
                0x00000000bf8107e4       0x28 C:\Users\nsasp\AppData\Local\Temp\ccysgyWv.o

.__vector_offset_BF810614_data
                0x00000000bf810614       0x24
 .__vector_offset_BF810614_data
                0x00000000bf810614       0x24 C:\Users\nsasp\AppData\Local\Temp\ccysgyWv.o

.__vector_offset_BF8105B8_data
                0x00000000bf8105b8       0x10
 .__vector_offset_BF8105B8_data
                0x00000000bf8105b8       0x10 C:\Users\nsasp\AppData\Local\Temp\ccysgyWv.o

.__vector_offset_BF810748_data
                0x00000000bf810748       0x10
 .__vector_offset_BF810748_data
                0x00000000bf810748       0x10 C:\Users\nsasp\AppData\Local\Temp\ccysgyWv.o

.__vector_offset_BF810818_data
                0x00000000bf810818       0x10
 .__vector_offset_BF810818_data
                0x00000000bf810818       0x10 C:\Users\nsasp\AppData\Local\Temp\ccysgyWv.o

.__vector_offset_BF810924_data
                0x00000000bf810924       0x10
 .__vector_offset_BF810924_data
                0x00000000bf810924       0x10 C:\Users\nsasp\AppData\Local\Temp\ccysgyWv.o

.__vector_offset_BF8108F8_data
                0x00000000bf8108f8        0xc
 .__vector_offset_BF8108F8_data
                0x00000000bf8108f8        0xc C:\Users\nsasp\AppData\Local\Temp\ccysgyWv.o

.__vector_offset_BF810914_data
                0x00000000bf810914        0xc
 .__vector_offset_BF810914_data
                0x00000000bf810914        0xc C:\Users\nsasp\AppData\Local\Temp\ccysgyWv.o

.__vector_offset_BF810788_data
                0x00000000bf810788        0x8
 .__vector_offset_BF810788_data
                0x00000000bf810788        0x8 C:\Users\nsasp\AppData\Local\Temp\ccysgyWv.o

.__vector_offset_BF810938_data
                0x00000000bf810938        0x8
 .__vector_offset_BF810938_data
                0x00000000bf810938        0x8 C:\Users\nsasp\AppData\Local\Temp\ccysgyWv.o

.rgbOledBmp_page
                0x00000000a0009ff0        0x5
 .rgbOledBmp_page
                0x00000000a0009ff0        0x5 build/nsensor/production/_ext/1684788505/OledDriver.o
                0x00000000a0009ff0                rgbOledBmp_page

.__vector_offset_BF8107DC_data
                0x00000000bf8107dc        0x4
 .__vector_offset_BF8107DC_data
                0x00000000bf8107dc        0x4 C:\Users\nsasp\AppData\Local\Temp\ccysgyWv.o

.__vector_offset_BF810834_data
                0x00000000bf810834        0x4
 .__vector_offset_BF810834_data
                0x00000000bf810834        0x4 C:\Users\nsasp\AppData\Local\Temp\ccysgyWv.o

.__vector_offset_BF8108D8_data
                0x00000000bf8108d8        0x4
 .__vector_offset_BF8108D8_data
                0x00000000bf8108d8        0x4 C:\Users\nsasp\AppData\Local\Temp\ccysgyWv.o

.data           0x0000000080000228      0x3d8
 .data          0x0000000080000228      0x248 build/nsensor/production/_ext/1360937237/main.o
                0x0000000080000228                zpid
                0x0000000080000260                ypid
                0x0000000080000298                xpid
                0x00000000800002d0                accel
                0x0000000080000350                fft0
                0x0000000080000398                imu0
 .data          0x0000000080000470      0x190 build/nsensor/production/_ext/1360937237/host.o
                0x0000000080000470                host0
                0x00000000800004c0                response_buffer
                0x0000000080000500                cmd_buffer

.data           0x0000000080000600       0xa8
 .data          0x0000000080000600       0x68 c:/program files/microchip/xc32/v4.20/bin/bin/../../lib/gcc/pic32mx/8.3.1/../../../../pic32mx/lib/fpu64\libc-musl.a(stdout.o)
                0x0000000080000600                __stdout_used
 .data          0x0000000080000668       0x40 build/nsensor/production/_ext/1360937237/bma490l.o

.data           0x00000000800006a8       0x48
 .data          0x00000000800006a8       0x28 build/nsensor/production/_ext/1360937237/cmd_scanner.o
 .data          0x00000000800006d0       0x20 build/nsensor/production/_ext/1360937237/sca3300.o
                0x00000000800006d0                sdata

.data._stdout   0x00000000800006f0        0x4
 .data._stdout  0x00000000800006f0        0x4 c:/program files/microchip/xc32/v4.20/bin/bin/../../lib/gcc/pic32mx/8.3.1/../../../../pic32mx/lib/fpu64\libc-musl.a(stdout.o)
                0x00000000800006f0                _stdout

.data%z1        0x0000000000000000        0x0
 .data          0x0000000000000000        0x0 c:/program files/microchip/xc32/v4.20/bin/bin/../../lib/gcc/pic32mx/8.3.1/../../../../pic32mx/lib/fpu64\libpic32.a(errno.o)

.data%z2        0x0000000000000000        0x0
 .data          0x0000000000000000        0x0 c:/program files/microchip/xc32/v4.20/bin/bin/../../lib/gcc/pic32mx/8.3.1/../../../../pic32mx/lib/fpu64\libpic32.a(close.o)

.data%z3        0x0000000000000000        0x0
 .data          0x0000000000000000        0x0 c:/program files/microchip/xc32/v4.20/bin/bin/../../lib/gcc/pic32mx/8.3.1/../../../../pic32mx/lib/fpu64\libpic32.a(lseek.o)

.data%z4        0x0000000000000000        0x0
 .data          0x0000000000000000        0x0 c:/program files/microchip/xc32/v4.20/bin/bin/../../lib/gcc/pic32mx/8.3.1/../../../../pic32mx/lib/fpu64\libpic32.a(sbrk.o)

.data%z5        0x0000000000000000        0x0
 .data          0x0000000000000000        0x0 c:/program files/microchip/xc32/v4.20/bin/bin/../../lib/gcc/pic32mx/8.3.1/fpu64\libgcc.a(_umoddi3.o)

.data%z6        0x0000000000000000        0x0
 .data          0x0000000000000000        0x0 c:/program files/microchip/xc32/v4.20/bin/bin/../../lib/gcc/pic32mx/8.3.1/fpu64\libgcc.a(_udivdi3.o)

.data%z7        0x0000000000000000        0x0
 .data          0x0000000000000000        0x0 c:/program files/microchip/xc32/v4.20/bin/bin/../../lib/gcc/pic32mx/8.3.1/fpu64\libgcc.a(_ashldi3.o)

.data%z8        0x0000000000000000        0x0
 .data          0x0000000000000000        0x0 c:/program files/microchip/xc32/v4.20/bin/bin/../../lib/gcc/pic32mx/8.3.1/fpu64\libgcc.a(_lshrdi3.o)

.data%z9        0x0000000000000000        0x0
 .data          0x0000000000000000        0x0 c:/program files/microchip/xc32/v4.20/bin/bin/../../lib/gcc/pic32mx/8.3.1/../../../../pic32mx/lib/fpu64\libm-musl.a(__sin.o)

.data%z10       0x0000000000000000        0x0
 .data          0x0000000000000000        0x0 c:/program files/microchip/xc32/v4.20/bin/bin/../../lib/gcc/pic32mx/8.3.1/../../../../pic32mx/lib/fpu64\libm-musl.a(__rem_pio2_large.o)

.data%z11       0x0000000000000000        0x0
 .data          0x0000000000000000        0x0 c:/program files/microchip/xc32/v4.20/bin/bin/../../lib/gcc/pic32mx/8.3.1/../../../../pic32mx/lib/fpu64\libm-musl.a(__rem_pio2.o)

.data%z12       0x0000000000000000        0x0
 .data          0x0000000000000000        0x0 c:/program files/microchip/xc32/v4.20/bin/bin/../../lib/gcc/pic32mx/8.3.1/../../../../pic32mx/lib/fpu64\libm-musl.a(__cos.o)

.data%z13       0x0000000000000000        0x0
 .data          0x0000000000000000        0x0 c:/program files/microchip/xc32/v4.20/bin/bin/../../lib/gcc/pic32mx/8.3.1/../../../../pic32mx/lib/fpu64\libm-musl.a(sin.o)

.data%z14       0x0000000000000000        0x0
 .data          0x0000000000000000        0x0 c:/program files/microchip/xc32/v4.20/bin/bin/../../lib/gcc/pic32mx/8.3.1/../../../../pic32mx/lib/fpu64\libm-musl.a(scalbn.o)

.data%z15       0x0000000000000000        0x0
 .data          0x0000000000000000        0x0 c:/program files/microchip/xc32/v4.20/bin/bin/../../lib/gcc/pic32mx/8.3.1/../../../../pic32mx/lib/fpu64\libm-musl.a(fma.o)

.data%z16       0x0000000000000000        0x0
 .data          0x0000000000000000        0x0 c:/program files/microchip/xc32/v4.20/bin/bin/../../lib/gcc/pic32mx/8.3.1/../../../../pic32mx/lib/fpu64\libm-musl.a(floor.o)

.data%z17       0x0000000000000000        0x0
 .data          0x0000000000000000        0x0 c:/program files/microchip/xc32/v4.20/bin/bin/../../lib/gcc/pic32mx/8.3.1/../../../../pic32mx/lib/fpu64\libm-musl.a(cos.o)

.data%z18       0x0000000000000000        0x0
 .data          0x0000000000000000        0x0 c:/program files/microchip/xc32/v4.20/bin/bin/../../lib/gcc/pic32mx/8.3.1/../../../../pic32mx/lib/fpu64\libc-musl.a(__fmt_a.o)

.data%z19       0x0000000000000000        0x0
 .data          0x0000000000000000        0x0 c:/program files/microchip/xc32/v4.20/bin/bin/../../lib/gcc/pic32mx/8.3.1/../../../../pic32mx/lib/fpu64\libc-musl.a(libc.o)

.data%z20       0x0000000000000000        0x0
 .data          0x0000000000000000        0x0 c:/program files/microchip/xc32/v4.20/bin/bin/../../lib/gcc/pic32mx/8.3.1/../../../../pic32mx/lib/fpu64\libc-musl.a(__io_fmt_needed.o)

.data%z21       0x0000000000000000        0x0
 .data          0x0000000000000000        0x0 c:/program files/microchip/xc32/v4.20/bin/bin/../../lib/gcc/pic32mx/8.3.1/../../../../pic32mx/lib/fpu64\libc-musl.a(__io_file_needed.o)

.data%z22       0x0000000000000000        0x0
 .data          0x0000000000000000        0x0 c:/program files/microchip/xc32/v4.20/bin/bin/../../lib/gcc/pic32mx/8.3.1/../../../../pic32mx/lib/fpu64\libc-musl.a(__init_stdio.o)

.data%z23       0x0000000000000000        0x0
 .data          0x0000000000000000        0x0 c:/program files/microchip/xc32/v4.20/bin/bin/../../lib/gcc/pic32mx/8.3.1/../../../../pic32mx/lib/fpu64\libc-musl.a(__int_vsnprintf.o)

.data%z24       0x0000000000000000        0x0
 .data          0x0000000000000000        0x0 c:/program files/microchip/xc32/v4.20/bin/bin/../../lib/gcc/pic32mx/8.3.1/../../../../pic32mx/lib/fpu64\libc-musl.a(expand_heap.o)

.data%z25       0x0000000000000000        0x0
 .data          0x0000000000000000        0x0 c:/program files/microchip/xc32/v4.20/bin/bin/../../lib/gcc/pic32mx/8.3.1/../../../../pic32mx/lib/fpu64\libc-musl.a(malloc.o)

.data%z26       0x0000000000000000        0x0
 .data          0x0000000000000000        0x0 c:/program files/microchip/xc32/v4.20/bin/bin/../../lib/gcc/pic32mx/8.3.1/../../../../pic32mx/lib/fpu64\libc-musl.a(stpcpy.o)

.data%z27       0x0000000000000000        0x0
 .data          0x0000000000000000        0x0 c:/program files/microchip/xc32/v4.20/bin/bin/../../lib/gcc/pic32mx/8.3.1/../../../../pic32mx/lib/fpu64\libc-musl.a(vfprintf.o)

.data%z28       0x0000000000000000        0x0
 .data          0x0000000000000000        0x0 c:/program files/microchip/xc32/v4.20/bin/bin/../../lib/gcc/pic32mx/8.3.1/../../../../pic32mx/lib/fpu64\libc-musl.a(__stdio_close.o)

.data%z29       0x0000000000000000        0x0
 .data          0x0000000000000000        0x0 c:/program files/microchip/xc32/v4.20/bin/bin/../../lib/gcc/pic32mx/8.3.1/../../../../pic32mx/lib/fpu64\libc-musl.a(__out.o)

.data%z30       0x0000000000000000        0x0
 .data          0x0000000000000000        0x0 c:/program files/microchip/xc32/v4.20/bin/bin/../../lib/gcc/pic32mx/8.3.1/../../../../pic32mx/lib/fpu64\libc-musl.a(__io_init_needed.o)

.data%z31       0x0000000000000000        0x0
 .data          0x0000000000000000        0x0 c:/program files/microchip/xc32/v4.20/bin/bin/../../lib/gcc/pic32mx/8.3.1/../../../../pic32mx/lib/fpu64\libc-musl.a(__fopen.o)

.data%z32       0x0000000000000000        0x0
 .data          0x0000000000000000        0x0 c:/program files/microchip/xc32/v4.20/bin/bin/../../lib/gcc/pic32mx/8.3.1/../../../../pic32mx/lib/fpu64\libc-musl.a(__int_vsprintf.o)

.data%z33       0x0000000000000000        0x0
 .data          0x0000000000000000        0x0 c:/program files/microchip/xc32/v4.20/bin/bin/../../lib/gcc/pic32mx/8.3.1/../../../../pic32mx/lib/fpu64\libc-musl.a(__int_vfprintf.o)

.data%z34       0x0000000000000000        0x0
 .data          0x0000000000000000        0x0 c:/program files/microchip/xc32/v4.20/bin/bin/../../lib/gcc/pic32mx/8.3.1/../../../../pic32mx/lib/fpu64\libc-musl.a(toupper.o)

.data%z35       0x0000000000000000        0x0
 .data          0x0000000000000000        0x0 c:/program files/microchip/xc32/v4.20/bin/bin/../../lib/gcc/pic32mx/8.3.1/../../../../pic32mx/lib/fpu64\libc-musl.a(tolower.o)

.data%z36       0x0000000000000000        0x0
 .data          0x0000000000000000        0x0 c:/program files/microchip/xc32/v4.20/bin/bin/../../lib/gcc/pic32mx/8.3.1/../../../../pic32mx/lib/fpu64\libc-musl.a(strncmp.o)

.data%z37       0x0000000000000000        0x0
 .data          0x0000000000000000        0x0 c:/program files/microchip/xc32/v4.20/bin/bin/../../lib/gcc/pic32mx/8.3.1/../../../../pic32mx/lib/fpu64\libc-musl.a(strcpy.o)

.data%z38       0x0000000000000000        0x0
 .data          0x0000000000000000        0x0 c:/program files/microchip/xc32/v4.20/bin/bin/../../lib/gcc/pic32mx/8.3.1/../../../../pic32mx/lib/fpu64\libc-musl.a(memcpy.o)

.data%z39       0x0000000000000000        0x0
 .data          0x0000000000000000        0x0 c:/program files/microchip/xc32/v4.20/bin/bin/../../lib/gcc/pic32mx/8.3.1/../../../../pic32mx/lib/fpu64\libc-musl.a(atoi.o)

.data%z40       0x0000000000000000        0x0
 .data          0x0000000000000000        0x0 c:/program files/microchip/xc32/v4.20/bin/bin/../../lib/gcc/pic32mx/8.3.1/../../../../pic32mx/lib/fpu64\libc-musl.a(vprintf.o)

.data%z41       0x0000000000000000        0x0
 .data          0x0000000000000000        0x0 c:/program files/microchip/xc32/v4.20/bin/bin/../../lib/gcc/pic32mx/8.3.1/../../../../pic32mx/lib/fpu64\libc-musl.a(__printf_core.o)

.data%z42       0x0000000000000000        0x0
 .data          0x0000000000000000        0x0 c:/program files/microchip/xc32/v4.20/bin/bin/../../lib/gcc/pic32mx/8.3.1/../../../../pic32mx/lib/fpu64\libc-musl.a(__pop_ptr.o)

.data%z43       0x0000000000000000        0x0
 .data          0x0000000000000000        0x0 c:/program files/microchip/xc32/v4.20/bin/bin/../../lib/gcc/pic32mx/8.3.1/../../../../pic32mx/lib/fpu64\libc-musl.a(__pop_int.o)

.data%z44       0x0000000000000000        0x0
 .data          0x0000000000000000        0x0 c:/program files/microchip/xc32/v4.20/bin/bin/../../lib/gcc/pic32mx/8.3.1/../../../../pic32mx/lib/fpu64\libc-musl.a(__pop_float.o)

.data%z45       0x0000000000000000        0x0
 .data          0x0000000000000000        0x0 c:/program files/microchip/xc32/v4.20/bin/bin/../../lib/gcc/pic32mx/8.3.1/../../../../pic32mx/lib/fpu64\libc-musl.a(__fmt_x.o)

.data%z46       0x0000000000000000        0x0
 .data          0x0000000000000000        0x0 c:/program files/microchip/xc32/v4.20/bin/bin/../../lib/gcc/pic32mx/8.3.1/../../../../pic32mx/lib/fpu64\libc-musl.a(__fmt_u.o)

.data%z47       0x0000000000000000        0x0
 .data          0x0000000000000000        0x0 c:/program files/microchip/xc32/v4.20/bin/bin/../../lib/gcc/pic32mx/8.3.1/../../../../pic32mx/lib/fpu64\libc-musl.a(__fmt_s.o)

.data%z48       0x0000000000000000        0x0
 .data          0x0000000000000000        0x0 c:/program files/microchip/xc32/v4.20/bin/bin/../../lib/gcc/pic32mx/8.3.1/../../../../pic32mx/lib/fpu64\libc-musl.a(__fmt_o.o)

.data%z49       0x0000000000000000        0x0
 .data          0x0000000000000000        0x0 c:/program files/microchip/xc32/v4.20/bin/bin/../../lib/gcc/pic32mx/8.3.1/../../../../pic32mx/lib/fpu64\libc-musl.a(__fmt_fp.o)

.data%z50       0x0000000000000000        0x0
 .data          0x0000000000000000        0x0 c:/program files/microchip/xc32/v4.20/bin/bin/../../lib/gcc/pic32mx/8.3.1/../../../../pic32mx/lib/fpu64\libc-musl.a(__fmt_d.o)

.data%z51       0x0000000000000000        0x0
 .data          0x0000000000000000        0x0 c:/program files/microchip/xc32/v4.20/bin/bin/../../lib/gcc/pic32mx/8.3.1/../../../../pic32mx/lib/fpu64\libc-musl.a(__sio_sprintf_s.o)

.data%z52       0x0000000000000000        0x0
 .data          0x0000000000000000        0x0 c:/program files/microchip/xc32/v4.20/bin/bin/../../lib/gcc/pic32mx/8.3.1/../../../../pic32mx/lib/fpu64\libc-musl.a(__sio_sprintf_doux.o)

.data%z53       0x0000000000000000        0x0
 .data          0x0000000000000000        0x0 c:/program files/microchip/xc32/v4.20/bin/bin/../../lib/gcc/pic32mx/8.3.1/../../../../pic32mx/lib/fpu64\libc-musl.a(__sio_sprintf_dosux.o)

.data%z54       0x0000000000000000        0x0
 .data          0x0000000000000000        0x0 c:/program files/microchip/xc32/v4.20/bin/bin/../../lib/gcc/pic32mx/8.3.1/../../../../pic32mx/lib/fpu64\libc-musl.a(__sio_sprintf_dfosux.o)

.data%z55       0x0000000000000000        0x0
 .data          0x0000000000000000        0x0 c:/program files/microchip/xc32/v4.20/bin/bin/../../lib/gcc/pic32mx/8.3.1/../../../../pic32mx/lib/fpu64\libc-musl.a(__sio_printf_s.o)

.data%z56       0x0000000000000000        0x0
 .data          0x0000000000000000        0x0 c:/program files/microchip/xc32/v4.20/bin/bin/../../lib/gcc/pic32mx/8.3.1/../../../../pic32mx/lib/fpu64\libpic32.a(defaultinterrupt.o)

.data%z57       0x0000000000000000        0x0
 .data          0x0000000000000000        0x0 c:/program files/microchip/xc32/v4.20/bin/bin/../../lib/gcc/pic32mx/8.3.1/../../../../pic32mx/lib/fpu64\libpic32.a(general-exception.o)

.data%z58       0x0000000000000000        0x0
 .data          0x0000000000000000        0x0 c:/program files/microchip/xc32/v4.20/bin/bin/../../lib/gcc/pic32mx/8.3.1/../../../../pic32mx/lib/fpu64\libpic32.a(pic32_data_init_0_1.o)

.data%z59       0x0000000000000000        0x0
 .data          0x0000000000000000        0x0 c:/program files/microchip/xc32/v4.20/bin/bin/../../lib/gcc/pic32mx/8.3.1/../../../../pic32mx/lib/fpu64\libpic32.a(pic32_data_init_wrapper.o)

.data%z60       0x0000000000000000        0x0
 .data          0x0000000000000000        0x0 c:/program files/microchip/xc32/v4.20/bin/bin/../../lib/gcc/pic32mx/8.3.1/../../../../pic32mx/lib/fpu64\libpic32.a(default-nmi-handler.o)

.data%z61       0x0000000000000000        0x0
 .data          0x0000000000000000        0x0 c:/program files/microchip/xc32/v4.20/bin/bin/../../lib/gcc/pic32mx/8.3.1/../../../../pic32mx/lib/fpu64\libpic32.a(default-on-bootstrap.o)

.data%z62       0x0000000000000000        0x0
 .data          0x0000000000000000        0x0 c:/program files/microchip/xc32/v4.20/bin/bin/../../lib/gcc/pic32mx/8.3.1/../../../../pic32mx/lib/fpu64\libpic32.a(default-on-reset.o)

.data%z63       0x0000000000000000        0x0
 .data          0x0000000000000000        0x0 c:/program files/microchip/xc32/v4.20/bin/bin/../../lib/gcc/pic32mx/8.3.1/../../../../pic32mx/lib/fpu64\libpic32.a(strlen.o)

.data%z64       0x0000000000000000        0x0
 .data          0x0000000000000000        0x0 c:/program files/microchip/xc32/v4.20/bin/bin/../../lib/gcc/pic32mx/8.3.1/../../../../pic32mx/lib/fpu64\libpic32.a(memset.o)

.data%z65       0x0000000000000000        0x0
 .data          0x0000000000000000        0x0 c:/program files/microchip/xc32/v4.20/bin/bin/../../lib/gcc/pic32mx/8.3.1/../../../../pic32mx/lib/fpu64\pic32_software_reset.o

.data%z66       0x0000000000000000        0x0
 .data          0x0000000000000000        0x0 C:\Users\nsasp\AppData\Local\Temp\ccPPgLE5.o

.data%z67       0x0000000000000000        0x0
 .data          0x0000000000000000        0x0 C:\Users\nsasp\AppData\Local\Temp\ccysgyWv.o

.data%z68       0x0000000000000000        0x0
 .data          0x0000000000000000        0x0 C:\Users\nsasp\AppData\Local\Temp\ccN9JJDZ.o

.data%z69       0x0000000000000000        0x0
 .data          0x0000000000000000        0x0 C:\Users\nsasp\AppData\Local\Temp\cc26TO6z.o

.data%z70       0x0000000000000000        0x0
 .data          0x0000000000000000        0x0 build/nsensor/production/_ext/1360937237/canfd.o

.data%z71       0x0000000000000000        0x0
 .data          0x0000000000000000        0x0 build/nsensor/production/_ext/1360937237/fft.o

.data%z72       0x0000000000000000        0x0
 .data          0x0000000000000000        0x0 build/nsensor/production/_ext/1360937237/do_fft.o

.data%z73       0x0000000000000000        0x0
 .data          0x0000000000000000        0x0 build/nsensor/production/_ext/1360937237/pid.o

.data%z74       0x0000000000000000        0x0
 .data          0x0000000000000000        0x0 build/nsensor/production/_ext/1360937237/imu.o

.data%z75       0x0000000000000000        0x0
 .data          0x0000000000000000        0x0 build/nsensor/production/_ext/1360937237/gfx.o

.data%z76       0x0000000000000000        0x0
 .data          0x0000000000000000        0x0 build/nsensor/production/_ext/1360937237/timers.o

.data%z77       0x0000000000000000        0x0
 .data          0x0000000000000000        0x0 build/nsensor/production/_ext/1856863253/initialization.o

.data%z78       0x0000000000000000        0x0
 .data          0x0000000000000000        0x0 build/nsensor/production/_ext/1856863253/interrupts.o

.data%z79       0x0000000000000000        0x0
 .data          0x0000000000000000        0x0 build/nsensor/production/_ext/1856863253/exceptions.o

.data%z80       0x0000000000000000        0x0
 .data          0x0000000000000000        0x0 build/nsensor/production/_ext/725740559/xc32_monitor.o

.data%z81       0x0000000000000000        0x0
 .data          0x0000000000000000        0x0 build/nsensor/production/_ext/2015359111/plib_uart1.o

.data%z82       0x0000000000000000        0x0
 .data          0x0000000000000000        0x0 build/nsensor/production/_ext/619200320/plib_tmr2.o

.data%z83       0x0000000000000000        0x0
 .data          0x0000000000000000        0x0 build/nsensor/production/_ext/619200320/plib_tmr6.o

.data%z84       0x0000000000000000        0x0
 .data          0x0000000000000000        0x0 build/nsensor/production/_ext/619200320/plib_tmr3.o

.data%z85       0x0000000000000000        0x0
 .data          0x0000000000000000        0x0 build/nsensor/production/_ext/619200320/plib_tmr5.o

.data%z86       0x0000000000000000        0x0
 .data          0x0000000000000000        0x0 build/nsensor/production/_ext/619200320/plib_tmr9.o

.data%z87       0x0000000000000000        0x0
 .data          0x0000000000000000        0x0 build/nsensor/production/_ext/1877210129/plib_spi2_master.o

.data%z88       0x0000000000000000        0x0
 .data          0x0000000000000000        0x0 build/nsensor/production/_ext/1877210129/plib_spi1_master.o

.data%z89       0x0000000000000000        0x0
 .data          0x0000000000000000        0x0 build/nsensor/production/_ext/2015287515/plib_rtcc.o

.data%z90       0x0000000000000000        0x0
 .data          0x0000000000000000        0x0 build/nsensor/production/_ext/619197180/plib_qei2.o

.data%z91       0x0000000000000000        0x0
 .data          0x0000000000000000        0x0 build/nsensor/production/_ext/1955707305/plib_mcpwm.o

.data%z92       0x0000000000000000        0x0
 .data          0x0000000000000000        0x0 build/nsensor/production/_ext/2014956168/plib_gpio.o

.data%z93       0x0000000000000000        0x0
 .data          0x0000000000000000        0x0 build/nsensor/production/_ext/2014902340/plib_evic.o

.data%z94       0x0000000000000000        0x0
 .data          0x0000000000000000        0x0 build/nsensor/production/_ext/2014863652/plib_dmac.o

.data%z95       0x0000000000000000        0x0
 .data          0x0000000000000000        0x0 build/nsensor/production/_ext/1664108525/plib_coretimer.o

.data%z96       0x0000000000000000        0x0
 .data          0x0000000000000000        0x0 build/nsensor/production/_ext/619183945/plib_clk.o

.data%z97       0x0000000000000000        0x0
 .data          0x0000000000000000        0x0 build/nsensor/production/_ext/1965004555/plib_canfd1.o

.data%z98       0x0000000000000000        0x0
 .data          0x0000000000000000        0x0 build/nsensor/production/_ext/1966772718/plib_adchs.o

.data%z99       0x0000000000000000        0x0
 .data          0x0000000000000000        0x0 build/nsensor/production/_ext/1684788505/OledGrph.o

.data%z100      0x0000000000000000        0x0
 .data          0x0000000000000000        0x0 build/nsensor/production/_ext/1684788505/OledDriver.o

.data%z101      0x0000000000000000        0x0
 .data          0x0000000000000000        0x0 build/nsensor/production/_ext/1684788505/OledChar.o

.data%z102      0x0000000000000000        0x0
 .data          0x0000000000000000        0x0 build/nsensor/production/_ext/1684788505/lcd_drv.o

.data%z103      0x0000000000000000        0x0
 .data          0x0000000000000000        0x0 build/nsensor/production/_ext/1684788505/foo.o

.data%z104      0x0000000000000000        0x0
 .data          0x0000000000000000        0x0 build/nsensor/production/_ext/1684788505/FillPat.o

.data%z105      0x0000000000000000        0x0
 .data          0x0000000000000000        0x0 build/nsensor/production/_ext/1684788505/eadog.o

.data%z106      0x0000000000000000        0x0
 .data          0x0000000000000000        0x0 build/nsensor/production/_ext/1684788505/dogm-graphic.o

.data%z107      0x0000000000000000        0x0
 .data          0x0000000000000000        0x0 build/nsensor/production/_ext/1684788505/ChrFont0.o

.data%z108      0x0000000000000000        0x0
 .data          0x0000000000000000        0x0 c:/program files/microchip/xc32/v4.20/bin/bin/../../lib/gcc/pic32mx/8.3.1/../../../../pic32mx/lib/fpu64\debug-exception-return.o

.bss            0x00000000800006f8     0x2300
 .bss           0x00000000800006f8     0x2300 build/nsensor/production/_ext/1360937237/fft.o
                0x00000000800006f8                ww
                0x0000000080000ef8                rev
                0x0000000080000ff8                wi
                0x00000000800013f8                wr
                0x00000000800017f8                xi
                0x0000000080001ff8                xr
                0x00000000800027f8                fft_buffer
                0x00000000800028f8                inB

.rgbOledBmp1    0x00000000a000af00      0xf00
 .rgbOledBmp1   0x00000000a000af00      0xf00 build/nsensor/production/_ext/1684788505/OledDriver.o
                0x00000000a000af00                rgbOledBmp1

.rgbOledBmp0    0x00000000a000a000      0xf00
 .rgbOledBmp0   0x00000000a000a000      0xf00 build/nsensor/production/_ext/1684788505/OledDriver.o
                0x00000000a000a000                rgbOledBmp0

.bss.can_message_buffer
                0x00000000a0002a00      0x9c8
 .bss.can_message_buffer
                0x00000000a0002a00      0x9c8 build/nsensor/production/_ext/1965004555/plib_canfd1.o

.bss            0x00000000800033c8      0x758
 .bss           0x00000000800033c8      0x518 build/nsensor/production/_ext/1965004555/plib_canfd1.o
 .bss           0x00000000800038e0      0x240 build/nsensor/production/_ext/1360937237/host.o
                0x00000000800038e0                uart_buffer

.bss            0x0000000080003b20      0x310
 .bss           0x0000000080003b20      0x210 c:/program files/microchip/xc32/v4.20/bin/bin/../../lib/gcc/pic32mx/8.3.1/../../../../pic32mx/lib/fpu64\libc-musl.a(malloc.o)
 .bss           0x0000000080003d30      0x100 build/nsensor/production/_ext/1684788505/OledChar.o
                0x0000000080003d30                rgbOledFontUser

.bss            0x0000000080003e30      0x1aa
 .bss           0x0000000080003e30      0x100 build/nsensor/production/_ext/1360937237/imu.o
                0x0000000080003e30                imu_buffer
 .bss           0x0000000080003f30       0xaa build/nsensor/production/_ext/1360937237/main.o
                0x0000000080003fd0                tickCount

.bss            0x0000000080003fdc      0x11c
 .bss           0x0000000080003fdc       0x94 build/nsensor/production/_ext/2014863652/plib_dmac.o
 .bss           0x0000000080004070       0x88 build/nsensor/production/_ext/1360937237/cmd_scanner.o
                0x0000000080004070                cli_ctx

.bss            0x00000000800040f8       0x90
 .bss           0x00000000800040f8       0x50 c:/program files/microchip/xc32/v4.20/bin/bin/../../lib/gcc/pic32mx/8.3.1/../../../../pic32mx/lib/fpu64\libc-musl.a(libc.o)
                0x00000000800040f8                __progname_full
                0x00000000800040f8                program_invocation_name
                0x00000000800040fc                program_invocation_short_name
                0x00000000800040fc                __progname
                0x0000000080004100                __sysinfo
                0x0000000080004104                __hwcap
                0x0000000080004108                __libc
 .bss           0x0000000080004148       0x40 build/nsensor/production/_ext/1360937237/canfd.o

.bss            0x0000000080004188       0x50
 .bss           0x0000000080004188       0x28 build/nsensor/production/_ext/1877210129/plib_spi1_master.o
                0x0000000080004188                spi1Obj
 .bss           0x00000000800041b0       0x28 build/nsensor/production/_ext/1877210129/plib_spi2_master.o
                0x00000000800041b0                spi2Obj

.bss            0x00000000800041d8       0x34
 .bss           0x00000000800041d8       0x24 c:/program files/microchip/xc32/v4.20/bin/bin/../../lib/gcc/pic32mx/8.3.1/../../../../pic32mx/lib/fpu64\libpic32.a(sbrk.o)
                0x00000000800041f4                _maxbrk
                0x00000000800041f8                _minbrk
 .bss           0x00000000800041fc       0x10 build/nsensor/production/_ext/1664108525/plib_coretimer.o
                0x00000000800041fc                coreTmr

.rgbOledBmp_blank
                0x00000000a0009ff8        0x4
 .rgbOledBmp_blank
                0x00000000a0009ff8        0x4 build/nsensor/production/_ext/1684788505/OledDriver.o

.bss.errno      0x00000000800006f4        0x4
 .bss.errno     0x00000000800006f4        0x4 c:/program files/microchip/xc32/v4.20/bin/bin/../../lib/gcc/pic32mx/8.3.1/../../../../pic32mx/lib/fpu64\libpic32.a(errno.o)
                0x00000000800006f4                errno

.bss%z109       0x0000000000000000        0x0
 .bss           0x0000000000000000        0x0 c:/program files/microchip/xc32/v4.20/bin/bin/../../lib/gcc/pic32mx/8.3.1/../../../../pic32mx/lib/fpu64\libpic32.a(errno.o)

.bss%z110       0x0000000000000000        0x0
 .bss           0x0000000000000000        0x0 c:/program files/microchip/xc32/v4.20/bin/bin/../../lib/gcc/pic32mx/8.3.1/../../../../pic32mx/lib/fpu64\libpic32.a(close.o)

.bss%z111       0x0000000000000000        0x0
 .bss           0x0000000000000000        0x0 c:/program files/microchip/xc32/v4.20/bin/bin/../../lib/gcc/pic32mx/8.3.1/../../../../pic32mx/lib/fpu64\libpic32.a(lseek.o)

.bss%z112       0x0000000000000000        0x0
 .bss           0x0000000000000000        0x0 c:/program files/microchip/xc32/v4.20/bin/bin/../../lib/gcc/pic32mx/8.3.1/fpu64\libgcc.a(_umoddi3.o)

.bss%z113       0x0000000000000000        0x0
 .bss           0x0000000000000000        0x0 c:/program files/microchip/xc32/v4.20/bin/bin/../../lib/gcc/pic32mx/8.3.1/fpu64\libgcc.a(_udivdi3.o)

.bss%z114       0x0000000000000000        0x0
 .bss           0x0000000000000000        0x0 c:/program files/microchip/xc32/v4.20/bin/bin/../../lib/gcc/pic32mx/8.3.1/fpu64\libgcc.a(_ashldi3.o)

.bss%z115       0x0000000000000000        0x0
 .bss           0x0000000000000000        0x0 c:/program files/microchip/xc32/v4.20/bin/bin/../../lib/gcc/pic32mx/8.3.1/fpu64\libgcc.a(_lshrdi3.o)

.bss%z116       0x0000000000000000        0x0
 .bss           0x0000000000000000        0x0 c:/program files/microchip/xc32/v4.20/bin/bin/../../lib/gcc/pic32mx/8.3.1/../../../../pic32mx/lib/fpu64\libm-musl.a(__sin.o)

.bss%z117       0x0000000000000000        0x0
 .bss           0x0000000000000000        0x0 c:/program files/microchip/xc32/v4.20/bin/bin/../../lib/gcc/pic32mx/8.3.1/../../../../pic32mx/lib/fpu64\libm-musl.a(__rem_pio2_large.o)

.bss%z118       0x0000000000000000        0x0
 .bss           0x0000000000000000        0x0 c:/program files/microchip/xc32/v4.20/bin/bin/../../lib/gcc/pic32mx/8.3.1/../../../../pic32mx/lib/fpu64\libm-musl.a(__rem_pio2.o)

.bss%z119       0x0000000000000000        0x0
 .bss           0x0000000000000000        0x0 c:/program files/microchip/xc32/v4.20/bin/bin/../../lib/gcc/pic32mx/8.3.1/../../../../pic32mx/lib/fpu64\libm-musl.a(__cos.o)

.bss%z120       0x0000000000000000        0x0
 .bss           0x0000000000000000        0x0 c:/program files/microchip/xc32/v4.20/bin/bin/../../lib/gcc/pic32mx/8.3.1/../../../../pic32mx/lib/fpu64\libm-musl.a(sin.o)

.bss%z121       0x0000000000000000        0x0
 .bss           0x0000000000000000        0x0 c:/program files/microchip/xc32/v4.20/bin/bin/../../lib/gcc/pic32mx/8.3.1/../../../../pic32mx/lib/fpu64\libm-musl.a(scalbn.o)

.bss%z122       0x0000000000000000        0x0
 .bss           0x0000000000000000        0x0 c:/program files/microchip/xc32/v4.20/bin/bin/../../lib/gcc/pic32mx/8.3.1/../../../../pic32mx/lib/fpu64\libm-musl.a(fma.o)

.bss%z123       0x0000000000000000        0x0
 .bss           0x0000000000000000        0x0 c:/program files/microchip/xc32/v4.20/bin/bin/../../lib/gcc/pic32mx/8.3.1/../../../../pic32mx/lib/fpu64\libm-musl.a(floor.o)

.bss%z124       0x0000000000000000        0x0
 .bss           0x0000000000000000        0x0 c:/program files/microchip/xc32/v4.20/bin/bin/../../lib/gcc/pic32mx/8.3.1/../../../../pic32mx/lib/fpu64\libm-musl.a(cos.o)

.bss%z125       0x0000000000000000        0x0
 .bss           0x0000000000000000        0x0 c:/program files/microchip/xc32/v4.20/bin/bin/../../lib/gcc/pic32mx/8.3.1/../../../../pic32mx/lib/fpu64\libc-musl.a(__fmt_a.o)

.bss%z126       0x0000000000000000        0x0
 .bss           0x0000000000000000        0x0 c:/program files/microchip/xc32/v4.20/bin/bin/../../lib/gcc/pic32mx/8.3.1/../../../../pic32mx/lib/fpu64\libc-musl.a(__io_fmt_needed.o)

.bss%z127       0x0000000000000000        0x0
 .bss           0x0000000000000000        0x0 c:/program files/microchip/xc32/v4.20/bin/bin/../../lib/gcc/pic32mx/8.3.1/../../../../pic32mx/lib/fpu64\libc-musl.a(__io_file_needed.o)

.bss%z128       0x0000000000000000        0x0
 .bss           0x0000000000000000        0x0 c:/program files/microchip/xc32/v4.20/bin/bin/../../lib/gcc/pic32mx/8.3.1/../../../../pic32mx/lib/fpu64\libc-musl.a(__init_stdio.o)

.bss%z129       0x0000000000000000        0x0
 .bss           0x0000000000000000        0x0 c:/program files/microchip/xc32/v4.20/bin/bin/../../lib/gcc/pic32mx/8.3.1/../../../../pic32mx/lib/fpu64\libc-musl.a(__int_vsnprintf.o)

.bss%z130       0x0000000000000000        0x0
 .bss           0x0000000000000000        0x0 c:/program files/microchip/xc32/v4.20/bin/bin/../../lib/gcc/pic32mx/8.3.1/../../../../pic32mx/lib/fpu64\libc-musl.a(expand_heap.o)

.bss%z131       0x0000000000000000        0x0
 .bss           0x0000000000000000        0x0 c:/program files/microchip/xc32/v4.20/bin/bin/../../lib/gcc/pic32mx/8.3.1/../../../../pic32mx/lib/fpu64\libc-musl.a(stpcpy.o)

.bss%z132       0x0000000000000000        0x0
 .bss           0x0000000000000000        0x0 c:/program files/microchip/xc32/v4.20/bin/bin/../../lib/gcc/pic32mx/8.3.1/../../../../pic32mx/lib/fpu64\libc-musl.a(vfprintf.o)

.bss%z133       0x0000000000000000        0x0
 .bss           0x0000000000000000        0x0 c:/program files/microchip/xc32/v4.20/bin/bin/../../lib/gcc/pic32mx/8.3.1/../../../../pic32mx/lib/fpu64\libc-musl.a(__stdio_close.o)

.bss%z134       0x0000000000000000        0x0
 .bss           0x0000000000000000        0x0 c:/program files/microchip/xc32/v4.20/bin/bin/../../lib/gcc/pic32mx/8.3.1/../../../../pic32mx/lib/fpu64\libc-musl.a(__out.o)

.bss%z135       0x0000000000000000        0x0
 .bss           0x0000000000000000        0x0 c:/program files/microchip/xc32/v4.20/bin/bin/../../lib/gcc/pic32mx/8.3.1/../../../../pic32mx/lib/fpu64\libc-musl.a(__io_init_needed.o)

.bss%z136       0x0000000000000000        0x0
 .bss           0x0000000000000000        0x0 c:/program files/microchip/xc32/v4.20/bin/bin/../../lib/gcc/pic32mx/8.3.1/../../../../pic32mx/lib/fpu64\libc-musl.a(__fopen.o)

.bss%z137       0x0000000000000000        0x0
 .bss           0x0000000000000000        0x0 c:/program files/microchip/xc32/v4.20/bin/bin/../../lib/gcc/pic32mx/8.3.1/../../../../pic32mx/lib/fpu64\libc-musl.a(__int_vsprintf.o)

.bss%z138       0x0000000000000000        0x0
 .bss           0x0000000000000000        0x0 c:/program files/microchip/xc32/v4.20/bin/bin/../../lib/gcc/pic32mx/8.3.1/../../../../pic32mx/lib/fpu64\libc-musl.a(__int_vfprintf.o)

.bss%z139       0x0000000000000000        0x0
 .bss           0x0000000000000000        0x0 c:/program files/microchip/xc32/v4.20/bin/bin/../../lib/gcc/pic32mx/8.3.1/../../../../pic32mx/lib/fpu64\libc-musl.a(toupper.o)

.bss%z140       0x0000000000000000        0x0
 .bss           0x0000000000000000        0x0 c:/program files/microchip/xc32/v4.20/bin/bin/../../lib/gcc/pic32mx/8.3.1/../../../../pic32mx/lib/fpu64\libc-musl.a(tolower.o)

.bss%z141       0x0000000000000000        0x0
 .bss           0x0000000000000000        0x0 c:/program files/microchip/xc32/v4.20/bin/bin/../../lib/gcc/pic32mx/8.3.1/../../../../pic32mx/lib/fpu64\libc-musl.a(strncmp.o)

.bss%z142       0x0000000000000000        0x0
 .bss           0x0000000000000000        0x0 c:/program files/microchip/xc32/v4.20/bin/bin/../../lib/gcc/pic32mx/8.3.1/../../../../pic32mx/lib/fpu64\libc-musl.a(strcpy.o)

.bss%z143       0x0000000000000000        0x0
 .bss           0x0000000000000000        0x0 c:/program files/microchip/xc32/v4.20/bin/bin/../../lib/gcc/pic32mx/8.3.1/../../../../pic32mx/lib/fpu64\libc-musl.a(memcpy.o)

.bss%z144       0x0000000000000000        0x0
 .bss           0x0000000000000000        0x0 c:/program files/microchip/xc32/v4.20/bin/bin/../../lib/gcc/pic32mx/8.3.1/../../../../pic32mx/lib/fpu64\libc-musl.a(atoi.o)

.bss%z145       0x0000000000000000        0x0
 .bss           0x0000000000000000        0x0 c:/program files/microchip/xc32/v4.20/bin/bin/../../lib/gcc/pic32mx/8.3.1/../../../../pic32mx/lib/fpu64\libc-musl.a(vprintf.o)

.bss%z146       0x0000000000000000        0x0
 .bss           0x0000000000000000        0x0 c:/program files/microchip/xc32/v4.20/bin/bin/../../lib/gcc/pic32mx/8.3.1/../../../../pic32mx/lib/fpu64\libc-musl.a(stdout.o)

.bss%z147       0x0000000000000000        0x0
 .bss           0x0000000000000000        0x0 c:/program files/microchip/xc32/v4.20/bin/bin/../../lib/gcc/pic32mx/8.3.1/../../../../pic32mx/lib/fpu64\libc-musl.a(__printf_core.o)

.bss%z148       0x0000000000000000        0x0
 .bss           0x0000000000000000        0x0 c:/program files/microchip/xc32/v4.20/bin/bin/../../lib/gcc/pic32mx/8.3.1/../../../../pic32mx/lib/fpu64\libc-musl.a(__pop_ptr.o)

.bss%z149       0x0000000000000000        0x0
 .bss           0x0000000000000000        0x0 c:/program files/microchip/xc32/v4.20/bin/bin/../../lib/gcc/pic32mx/8.3.1/../../../../pic32mx/lib/fpu64\libc-musl.a(__pop_int.o)

.bss%z150       0x0000000000000000        0x0
 .bss           0x0000000000000000        0x0 c:/program files/microchip/xc32/v4.20/bin/bin/../../lib/gcc/pic32mx/8.3.1/../../../../pic32mx/lib/fpu64\libc-musl.a(__pop_float.o)

.bss%z151       0x0000000000000000        0x0
 .bss           0x0000000000000000        0x0 c:/program files/microchip/xc32/v4.20/bin/bin/../../lib/gcc/pic32mx/8.3.1/../../../../pic32mx/lib/fpu64\libc-musl.a(__fmt_x.o)

.bss%z152       0x0000000000000000        0x0
 .bss           0x0000000000000000        0x0 c:/program files/microchip/xc32/v4.20/bin/bin/../../lib/gcc/pic32mx/8.3.1/../../../../pic32mx/lib/fpu64\libc-musl.a(__fmt_u.o)

.bss%z153       0x0000000000000000        0x0
 .bss           0x0000000000000000        0x0 c:/program files/microchip/xc32/v4.20/bin/bin/../../lib/gcc/pic32mx/8.3.1/../../../../pic32mx/lib/fpu64\libc-musl.a(__fmt_s.o)

.bss%z154       0x0000000000000000        0x0
 .bss           0x0000000000000000        0x0 c:/program files/microchip/xc32/v4.20/bin/bin/../../lib/gcc/pic32mx/8.3.1/../../../../pic32mx/lib/fpu64\libc-musl.a(__fmt_o.o)

.bss%z155       0x0000000000000000        0x0
 .bss           0x0000000000000000        0x0 c:/program files/microchip/xc32/v4.20/bin/bin/../../lib/gcc/pic32mx/8.3.1/../../../../pic32mx/lib/fpu64\libc-musl.a(__fmt_fp.o)

.bss%z156       0x0000000000000000        0x0
 .bss           0x0000000000000000        0x0 c:/program files/microchip/xc32/v4.20/bin/bin/../../lib/gcc/pic32mx/8.3.1/../../../../pic32mx/lib/fpu64\libc-musl.a(__fmt_d.o)

.bss%z157       0x0000000000000000        0x0
 .bss           0x0000000000000000        0x0 c:/program files/microchip/xc32/v4.20/bin/bin/../../lib/gcc/pic32mx/8.3.1/../../../../pic32mx/lib/fpu64\libc-musl.a(__sio_sprintf_s.o)

.bss%z158       0x0000000000000000        0x0
 .bss           0x0000000000000000        0x0 c:/program files/microchip/xc32/v4.20/bin/bin/../../lib/gcc/pic32mx/8.3.1/../../../../pic32mx/lib/fpu64\libc-musl.a(__sio_sprintf_doux.o)

.bss%z159       0x0000000000000000        0x0
 .bss           0x0000000000000000        0x0 c:/program files/microchip/xc32/v4.20/bin/bin/../../lib/gcc/pic32mx/8.3.1/../../../../pic32mx/lib/fpu64\libc-musl.a(__sio_sprintf_dosux.o)

.bss%z160       0x0000000000000000        0x0
 .bss           0x0000000000000000        0x0 c:/program files/microchip/xc32/v4.20/bin/bin/../../lib/gcc/pic32mx/8.3.1/../../../../pic32mx/lib/fpu64\libc-musl.a(__sio_sprintf_dfosux.o)

.bss%z161       0x0000000000000000        0x0
 .bss           0x0000000000000000        0x0 c:/program files/microchip/xc32/v4.20/bin/bin/../../lib/gcc/pic32mx/8.3.1/../../../../pic32mx/lib/fpu64\libc-musl.a(__sio_printf_s.o)

.bss%z162       0x0000000000000000        0x0
 .bss           0x0000000000000000        0x0 c:/program files/microchip/xc32/v4.20/bin/bin/../../lib/gcc/pic32mx/8.3.1/../../../../pic32mx/lib/fpu64\libpic32.a(defaultinterrupt.o)

.bss%z163       0x0000000000000000        0x0
 .bss           0x0000000000000000        0x0 c:/program files/microchip/xc32/v4.20/bin/bin/../../lib/gcc/pic32mx/8.3.1/../../../../pic32mx/lib/fpu64\libpic32.a(general-exception.o)

.bss%z164       0x0000000000000000        0x0
 .bss           0x0000000000000000        0x0 c:/program files/microchip/xc32/v4.20/bin/bin/../../lib/gcc/pic32mx/8.3.1/../../../../pic32mx/lib/fpu64\libpic32.a(pic32_data_init_0_1.o)

.bss%z165       0x0000000000000000        0x0
 .bss           0x0000000000000000        0x0 c:/program files/microchip/xc32/v4.20/bin/bin/../../lib/gcc/pic32mx/8.3.1/../../../../pic32mx/lib/fpu64\libpic32.a(pic32_data_init_wrapper.o)

.bss%z166       0x0000000000000000        0x0
 .bss           0x0000000000000000        0x0 c:/program files/microchip/xc32/v4.20/bin/bin/../../lib/gcc/pic32mx/8.3.1/../../../../pic32mx/lib/fpu64\libpic32.a(default-nmi-handler.o)

.bss%z167       0x0000000000000000        0x0
 .bss           0x0000000000000000        0x0 c:/program files/microchip/xc32/v4.20/bin/bin/../../lib/gcc/pic32mx/8.3.1/../../../../pic32mx/lib/fpu64\libpic32.a(default-on-bootstrap.o)

.bss%z168       0x0000000000000000        0x0
 .bss           0x0000000000000000        0x0 c:/program files/microchip/xc32/v4.20/bin/bin/../../lib/gcc/pic32mx/8.3.1/../../../../pic32mx/lib/fpu64\libpic32.a(default-on-reset.o)

.bss%z169       0x0000000000000000        0x0
 .bss           0x0000000000000000        0x0 c:/program files/microchip/xc32/v4.20/bin/bin/../../lib/gcc/pic32mx/8.3.1/../../../../pic32mx/lib/fpu64\libpic32.a(strlen.o)

.bss%z170       0x0000000000000000        0x0
 .bss           0x0000000000000000        0x0 c:/program files/microchip/xc32/v4.20/bin/bin/../../lib/gcc/pic32mx/8.3.1/../../../../pic32mx/lib/fpu64\libpic32.a(memset.o)

.bss%z171       0x0000000000000000        0x0
 .bss           0x0000000000000000        0x0 c:/program files/microchip/xc32/v4.20/bin/bin/../../lib/gcc/pic32mx/8.3.1/../../../../pic32mx/lib/fpu64\pic32_software_reset.o

.bss%z172       0x0000000000000000        0x0
 .bss           0x0000000000000000        0x0 C:\Users\nsasp\AppData\Local\Temp\ccPPgLE5.o

.bss%z173       0x0000000000000000        0x0
 .bss           0x0000000000000000        0x0 C:\Users\nsasp\AppData\Local\Temp\ccysgyWv.o

.bss%z174       0x0000000000000000        0x0
 .bss           0x0000000000000000        0x0 C:\Users\nsasp\AppData\Local\Temp\ccN9JJDZ.o

.bss%z175       0x0000000000000000        0x0
 .bss           0x0000000000000000        0x0 C:\Users\nsasp\AppData\Local\Temp\cc26TO6z.o

.bss%z176       0x0000000000000000        0x0
 .bss           0x0000000000000000        0x0 build/nsensor/production/_ext/1360937237/do_fft.o

.bss%z177       0x0000000000000000        0x0
 .bss           0x0000000000000000        0x0 build/nsensor/production/_ext/1360937237/pid.o

.bss%z178       0x0000000000000000        0x0
 .bss           0x0000000000000000        0x0 build/nsensor/production/_ext/1360937237/gfx.o

.bss%z179       0x0000000000000000        0x0
 .bss           0x0000000000000000        0x0 build/nsensor/production/_ext/1360937237/sca3300.o

.bss%z180       0x0000000000000000        0x0
 .bss           0x0000000000000000        0x0 build/nsensor/production/_ext/1360937237/timers.o

.bss%z181       0x0000000000000000        0x0
 .bss           0x0000000000000000        0x0 build/nsensor/production/_ext/1360937237/bma490l.o

.bss%z182       0x0000000000000000        0x0
 .bss           0x0000000000000000        0x0 build/nsensor/production/_ext/1856863253/initialization.o

.bss%z183       0x0000000000000000        0x0
 .bss           0x0000000000000000        0x0 build/nsensor/production/_ext/1856863253/interrupts.o

.bss%z184       0x0000000000000000        0x0
 .bss           0x0000000000000000        0x0 build/nsensor/production/_ext/1856863253/exceptions.o

.bss%z185       0x0000000000000000        0x0
 .bss           0x0000000000000000        0x0 build/nsensor/production/_ext/725740559/xc32_monitor.o

.bss%z186       0x0000000000000000        0x0
 .bss           0x0000000000000000        0x0 build/nsensor/production/_ext/2015359111/plib_uart1.o

.bss%z187       0x0000000000000000        0x0
 .bss           0x0000000000000000        0x0 build/nsensor/production/_ext/619200320/plib_tmr2.o

.bss%z188       0x0000000000000000        0x0
 .bss           0x0000000000000000        0x0 build/nsensor/production/_ext/619200320/plib_tmr6.o

.bss%z189       0x0000000000000000        0x0
 .bss           0x0000000000000000        0x0 build/nsensor/production/_ext/619200320/plib_tmr3.o

.bss%z190       0x0000000000000000        0x0
 .bss           0x0000000000000000        0x0 build/nsensor/production/_ext/619200320/plib_tmr5.o

.bss%z191       0x0000000000000000        0x0
 .bss           0x0000000000000000        0x0 build/nsensor/production/_ext/619200320/plib_tmr9.o

.bss%z192       0x0000000000000000        0x0
 .bss           0x0000000000000000        0x0 build/nsensor/production/_ext/2015287515/plib_rtcc.o

.bss%z193       0x0000000000000000        0x0
 .bss           0x0000000000000000        0x0 build/nsensor/production/_ext/619197180/plib_qei2.o

.bss%z194       0x0000000000000000        0x0
 .bss           0x0000000000000000        0x0 build/nsensor/production/_ext/1955707305/plib_mcpwm.o

.bss%z195       0x0000000000000000        0x0
 .bss           0x0000000000000000        0x0 build/nsensor/production/_ext/2014956168/plib_gpio.o

.bss%z196       0x0000000000000000        0x0
 .bss           0x0000000000000000        0x0 build/nsensor/production/_ext/2014902340/plib_evic.o

.bss%z197       0x0000000000000000        0x0
 .bss           0x0000000000000000        0x0 build/nsensor/production/_ext/619183945/plib_clk.o

.bss%z198       0x0000000000000000        0x0
 .bss           0x0000000000000000        0x0 build/nsensor/production/_ext/1966772718/plib_adchs.o

.bss%z199       0x0000000000000000        0x0
 .bss           0x0000000000000000        0x0 build/nsensor/production/_ext/1684788505/OledGrph.o

.bss%z200       0x0000000000000000        0x0
 .bss           0x0000000000000000        0x0 build/nsensor/production/_ext/1684788505/OledDriver.o

.bss%z201       0x0000000000000000        0x0
 .bss           0x0000000000000000        0x0 build/nsensor/production/_ext/1684788505/lcd_drv.o

.bss%z202       0x0000000000000000        0x0
 .bss           0x0000000000000000        0x0 build/nsensor/production/_ext/1684788505/foo.o

.bss%z203       0x0000000000000000        0x0
 .bss           0x0000000000000000        0x0 build/nsensor/production/_ext/1684788505/FillPat.o

.bss%z204       0x0000000000000000        0x0
 .bss           0x0000000000000000        0x0 build/nsensor/production/_ext/1684788505/eadog.o

.bss%z205       0x0000000000000000        0x0
 .bss           0x0000000000000000        0x0 build/nsensor/production/_ext/1684788505/dogm-graphic.o

.bss%z206       0x0000000000000000        0x0
 .bss           0x0000000000000000        0x0 build/nsensor/production/_ext/1684788505/ChrFont0.o

.bss%z207       0x0000000000000000        0x0
 .bss           0x0000000000000000        0x0 c:/program files/microchip/xc32/v4.20/bin/bin/../../lib/gcc/pic32mx/8.3.1/../../../../pic32mx/lib/fpu64\debug-exception-return.o

._debug_exception
                0x00000000bfc00480       0x2c
 ._debug_exception
                0x00000000bfc00480       0x2c c:/program files/microchip/xc32/v4.20/bin/bin/../../lib/gcc/pic32mx/8.3.1/../../../../pic32mx/lib/fpu64\debug-exception-return.o
                0x00000000bfc00480                __DbgExecReturn

.text           0x000000009d0002c0     0x2ad8
 .text          0x000000009d0002c0     0x1b30 build/nsensor/production/_ext/1856863253/interrupts.o
                0x000000009d0002c0                CORE_TIMER_Handler
                0x000000009d000490                EXTERNAL_2_Handler
                0x000000009d000660                TIMER_5_Handler
                0x000000009d000830                RTCC_Handler
                0x000000009d000a00                SPI1_RX_Handler
                0x000000009d000bd0                SPI1_TX_Handler
                0x000000009d000da0                SPI2_RX_Handler
                0x000000009d000f70                SPI2_TX_Handler
                0x000000009d001140                DMA0_Handler
                0x000000009d001310                DMA1_Handler
                0x000000009d0014e0                DMA2_Handler
                0x000000009d0016b0                TIMER_6_Handler
                0x000000009d001880                CAN1_Handler
                0x000000009d001a50                QEI2_Handler
                0x000000009d001c20                DMA7_Handler
 .text          0x000000009d001df0      0xfa8 build/nsensor/production/_ext/1360937237/main.o
                0x000000009d001df0                qei_index_cb
                0x000000009d001df8                main
                0x000000009d002d30                update_imu_int1
                0x000000009d002d64                delay_us

.text           0x000000009d002d98     0x1c54
 .text          0x000000009d002d98      0xf78 build/nsensor/production/_ext/1360937237/host.o
                0x000000009d002d98                UART1DmaChannelHandler_State
                0x000000009d002da4                APP_CAN_Error_Callback_h
                0x000000009d002dd0                APP_CAN_Callback_h
                0x000000009d002e64                print_menu_h
                0x000000009d002e6c                PrintFormattedData_h
                0x000000009d002e9c                UART1DmaWrite
                0x000000009d002ef8                fft_bin_total
                0x000000009d002f28                approxRollingAverage
                0x000000009d002f44                fh_show_link
                0x000000009d002f98                fh_stop_trigger
                0x000000009d002fec                fh_start_trigger
                0x000000009d003040                fh_start_AT
                0x000000009d0031cc                TP1_check
                0x000000009d003214                send_from_host
                0x000000009d0032d0                host_sm
 .text          0x000000009d003d10      0xcdc build/nsensor/production/_ext/1684788505/OledGrph.o
                0x000000009d003d10                OledRopSet
                0x000000009d003d24                OledRopOr
                0x000000009d003d30                OledRopAnd
                0x000000009d003d3c                OledRopXor
                0x000000009d003d48                OledMoveRight
                0x000000009d003d5c                OledMoveUp
                0x000000009d003dc8                OledMoveDown
                0x000000009d003e34                OledMoveLeft
                0x000000009d003e8c                OledMoveTo
                0x000000009d003f14                OledGetPos
                0x000000009d003f28                OledSetDrawColor
                0x000000009d003f34                OledGetStdPattern
                0x000000009d003f48                OledSetFillPattern
                0x000000009d003f50                OledSetDrawMode
                0x000000009d003fcc                OledGetDrawMode
                0x000000009d003fd4                OledDrawPixel
                0x000000009d004020                OledGetPixel
                0x000000009d004038                OledLineTo
                0x000000009d004214                OledDrawRect
                0x000000009d0042ac                OledFillRect
                0x000000009d004478                OledGetBmp
                0x000000009d004630                OledPutBmp
                0x000000009d0048ec                OledDrawChar
                0x000000009d004978                OledDrawString
                0x000000009d0049b4                OledClampXco
                0x000000009d0049d0                OledClampYco

.dinit          0x000000009d0049ec      0xb50
 .dinit         0x000000009d0049ec      0xb50 data_init

.text           0x000000009d00553c     0x14b8
 .text          0x000000009d00553c      0xa6c build/nsensor/production/_ext/1965004555/plib_canfd1.o
                0x000000009d00553c                CAN1_Initialize
                0x000000009d005644                CAN1_MessageTransmit
                0x000000009d0057f4                CAN1_MessageReceive
                0x000000009d0058e0                CAN1_MessageAbort
                0x000000009d00591c                CAN1_MessageAcceptanceFilterSet
                0x000000009d00597c                CAN1_MessageAcceptanceFilterGet
                0x000000009d0059c8                CAN1_MessageAcceptanceFilterMaskSet
                0x000000009d005a58                CAN1_MessageAcceptanceFilterMaskGet
                0x000000009d005aa4                CAN1_ErrorGet
                0x000000009d005aac                CAN1_ErrorCountGet
                0x000000009d005ac8                CAN1_InterruptGet
                0x000000009d005afc                CAN1_TxFIFOQueueIsFull
                0x000000009d005b3c                CAN1_AutoRTRResponseSet
                0x000000009d005c2c                CAN1_CallbackRegister
                0x000000009d005c50                CAN1_ErrorCallbackRegister
                0x000000009d005c68                CAN1_InterruptHandler
 .text          0x000000009d005fa8      0xa4c build/nsensor/production/_ext/2014863652/plib_dmac.o
                0x000000009d0060d0                DMAC_Initialize
                0x000000009d006170                DMAC_ChannelCallbackRegister
                0x000000009d00618c                DMAC_ChannelTransfer
                0x000000009d006268                DMAC_ChainTransferSetup
                0x000000009d006318                DMAC_ChannelPatternMatchSetup
                0x000000009d006360                DMAC_ChannelPatternMatchDisable
                0x000000009d006388                DMAC_ChannelDisable
                0x000000009d0063d0                DMAC_ChannelIsBusy
                0x000000009d006410                DMAC_ChannelTransferStatusGet
                0x000000009d006450                DMAC_ChannelCRCSetup
                0x000000009d0064dc                DMAC_CRCDisable
                0x000000009d0064f0                DMAC_CRCRead
                0x000000009d00654c                DMA0_InterruptHandler
                0x000000009d006670                DMA1_InterruptHandler
                0x000000009d00679c                DMA2_InterruptHandler
                0x000000009d0068c8                DMA7_InterruptHandler

.text.__rem_pio2_large
                0x000000009d0069f4      0x838
 .text.__rem_pio2_large
                0x000000009d0069f4      0x838 c:/program files/microchip/xc32/v4.20/bin/bin/../../lib/gcc/pic32mx/8.3.1/../../../../pic32mx/lib/fpu64\libm-musl.a(__rem_pio2_large.o)
                0x000000009d0069f4                __rem_pio2_large

.text           0x000000009d00722c      0xf4c
 .text          0x000000009d00722c      0x7d0 build/nsensor/production/_ext/1877210129/plib_spi2_master.o
                0x000000009d007458                SPI2_Initialize
                0x000000009d0074d0                SPI2_TransferSetup
                0x000000009d007584                SPI2_Write
                0x000000009d0075b4                SPI2_Read
                0x000000009d0075ec                SPI2_IsTransmitterBusy
                0x000000009d007600                SPI2_WriteRead
                0x000000009d007654                SPI2_IsBusy
                0x000000009d00767c                SPI2_CallbackRegister
                0x000000009d007690                SPI2_RX_InterruptHandler
                0x000000009d0078ec                SPI2_TX_InterruptHandler
 .text          0x000000009d0079fc      0x77c build/nsensor/production/_ext/1877210129/plib_spi1_master.o
                0x000000009d007c14                SPI1_Initialize
                0x000000009d007c8c                SPI1_TransferSetup
                0x000000009d007d40                SPI1_Write
                0x000000009d007d70                SPI1_Read
                0x000000009d007da8                SPI1_IsTransmitterBusy
                0x000000009d007dbc                SPI1_WriteRead
                0x000000009d007e10                SPI1_IsBusy
                0x000000009d007e38                SPI1_CallbackRegister
                0x000000009d007e4c                SPI1_RX_InterruptHandler
                0x000000009d008068                SPI1_TX_InterruptHandler

.text           0x000000009d008178      0x760
 .text          0x000000009d008178      0x760 build/nsensor/production/_ext/1360937237/sca3300.o
                0x000000009d008194                CalculateCRC
                0x000000009d0081f8                sca3300_check_crc
                0x000000009d008280                sca3300_imu_transfer
                0x000000009d008344                sca3300_getdata
                0x000000009d008578                sca3300_getserial
                0x000000009d00865c                sca3300_getid
                0x000000009d008774                sca3300_set_spimode
                0x000000009d00886c                sca3300_cs_disable
                0x000000009d008888                sca3300_version

.text.__fmt_fp  0x000000009d0088d8      0x6d0
 .text.__fmt_fp
                0x000000009d0088d8      0x6d0 c:/program files/microchip/xc32/v4.20/bin/bin/../../lib/gcc/pic32mx/8.3.1/../../../../pic32mx/lib/fpu64\libc-musl.a(__fmt_fp.o)
                0x000000009d0088d8                __fmt_fp
                0x000000009d0088d8                __fmt_f_needed

.text.fma       0x000000009d008fa8      0x678
 .text.fma      0x000000009d008fa8      0x678 c:/program files/microchip/xc32/v4.20/bin/bin/../../lib/gcc/pic32mx/8.3.1/../../../../pic32mx/lib/fpu64\libm-musl.a(fma.o)
                0x000000009d008fa8                fma

.text.__fmt_a   0x000000009d009620      0x628
 .text.__fmt_a  0x000000009d009620      0x628 c:/program files/microchip/xc32/v4.20/bin/bin/../../lib/gcc/pic32mx/8.3.1/../../../../pic32mx/lib/fpu64\libc-musl.a(__fmt_a.o)
                0x000000009d009620                __fmt_a
                0x000000009d009620                __fmt_a_needed

.text           0x000000009d009c48      0xc1c
 .text          0x000000009d009c48      0x624 build/nsensor/production/_ext/1684788505/eadog.o
                0x000000009d009e04                SPI1_Initialize_internal
                0x000000009d009e7c                ReSet_SetLow
                0x000000009d009ea4                ReSet_SetHigh
                0x000000009d009ecc                RS_SetLow
                0x000000009d009ef4                RS_SetHigh
                0x000000009d009f1c                CSB_SetLow
                0x000000009d009f44                CSB_SetHigh
                0x000000009d009f6c                SPI1_Exchange8bit
                0x000000009d009f94                SPI1_ExchangeBuffer
                0x000000009d009fbc                wdtdelay
                0x000000009d009fe8                init_display
                0x000000009d00a0b0                eaDogM_WriteChr
                0x000000009d00a0b8                eaDogM_WriteCommand
                0x000000009d00a0c0                eaDogM_SetPos
                0x000000009d00a0d4                eaDogM_ClearRow
                0x000000009d00a11c                eaDogM_WriteString
                0x000000009d00a190                eaDogM_WriteStringAtPos
                0x000000009d00a1c4                eaDogM_WriteIntAtPos
                0x000000009d00a234                eaDogM_WriteByteToCGRAM
 .text          0x000000009d00a26c      0x5f8 build/nsensor/production/_ext/2015287515/plib_rtcc.o
                0x000000009d00a26c                RTCC_Initialize
                0x000000009d00a300                RTCC_InterruptEnable
                0x000000009d00a310                RTCC_InterruptDisable
                0x000000009d00a320                RTCC_TimeSet
                0x000000009d00a534                RTCC_TimeGet
                0x000000009d00a624                RTCC_AlarmSet
                0x000000009d00a82c                RTCC_CallbackRegister
                0x000000009d00a83c                RTCC_InterruptHandler

.text.__printf_core
                0x000000009d00a864      0x580
 .text.__printf_core
                0x000000009d00a864      0x580 c:/program files/microchip/xc32/v4.20/bin/bin/../../lib/gcc/pic32mx/8.3.1/../../../../pic32mx/lib/fpu64\libc-musl.a(__printf_core.o)
                0x000000009d00a864                __printf_core

.text           0x000000009d00ade4      0x550
 .text          0x000000009d00ade4      0x550 build/nsensor/production/_ext/1360937237/bma490l.o
                0x000000009d00af68                bma490l_getdata
                0x000000009d00aff4                bma490l_getid
                0x000000009d00b0b4                imu_getis
                0x000000009d00b19c                imu_set_reg
                0x000000009d00b1b4                imu_get_reg
                0x000000009d00b1cc                bma490l_set_spimode
                0x000000009d00b2e4                bma490_version

.rodata         0x000000009d00b334      0x514
 .rodata        0x000000009d00b334      0x514 build/nsensor/production/_ext/1684788505/foo.o
                0x000000009d00b334                foo_map

.text           0x000000009d00b848      0x9c0
 .text          0x000000009d00b848      0x4e8 build/nsensor/production/_ext/1360937237/canfd.o
                0x000000009d00b848                APP_CAN_Callback
                0x000000009d00b8c4                APP_CAN_Error_Callback
                0x000000009d00b8e8                print_menu
                0x000000009d00b8f0                PrintFormattedData
                0x000000009d00b920                canfd_state
                0x000000009d00bbd8                canfd_num_tx
                0x000000009d00bbe0                canfd_num_rx
                0x000000009d00bbe8                canfd_num_stall
                0x000000009d00bbf0                canfd_set_filter
 .text          0x000000009d00bd30      0x4d8 build/nsensor/production/_ext/1684788505/OledDriver.o
                0x000000009d00bd30                CBDmaChannelHandler
                0x000000009d00bd38                SPI1DmaChannelHandler_State
                0x000000009d00be8c                OledTerm
                0x000000009d00be94                OledHostInit
                0x000000009d00be9c                OledHostTerm
                0x000000009d00bea4                OledDvrInit
                0x000000009d00bf30                OledDevInit
                0x000000009d00bf38                OledDevTerm
                0x000000009d00bf40                OledDisplayOn
                0x000000009d00bf48                OledDisplayOff
                0x000000009d00bf50                SPI1DmaChannelHandler
                0x000000009d00bf6c                wait_lcd_done
                0x000000009d00bfac                OledClearBuffer
                0x000000009d00c02c                OledUpdate
                0x000000009d00c050                OledClear
                0x000000009d00c07c                OledInit
                0x000000009d00c0e4                SPI1_to_Buffer
                0x000000009d00c1b0                OledPutBuffer
                0x000000009d00c1c4                lcd_version

.text           0x000000009d00c208      0x43c
 .text          0x000000009d00c208      0x43c build/nsensor/production/_ext/1360937237/gfx.o
                0x000000009d00c208                line_rot
                0x000000009d00c240                vector_graph
                0x000000009d00c4b0                LA_gfx
                0x000000009d00c5f4                fft_draw

.text.__rem_pio2
                0x000000009d00c644      0x430
 .text.__rem_pio2
                0x000000009d00c644      0x430 c:/program files/microchip/xc32/v4.20/bin/bin/../../lib/gcc/pic32mx/8.3.1/../../../../pic32mx/lib/fpu64\libm-musl.a(__rem_pio2.o)
                0x000000009d00c644                __rem_pio2

.text           0x000000009d00ca74      0x804
 .text          0x000000009d00ca74      0x42c build/nsensor/production/_ext/1684788505/dogm-graphic.o
                0x000000009d00ca74                lcd_inc_page
                0x000000009d00ca88                lcd_inc_column
                0x000000009d00ca9c                lcd_moveto_xy
                0x000000009d00cb80                lcd_move_xy
                0x000000009d00cbac                lcd_data
                0x000000009d00cbec                lcd_command
                0x000000009d00cc18                lcd_command_s
                0x000000009d00cc54                lcd_clear_area
                0x000000009d00cd58                lcd_clear_area_xy
                0x000000009d00cd90                lcd_set_contrast
                0x000000009d00cdd4                lcd_init
 .text          0x000000009d00cea0      0x3d8 build/nsensor/production/_ext/1360937237/fft.o
                0x000000009d00cea0                initFFT
                0x000000009d00cff4                FFT
                0x000000009d00d104                windowFFT
                0x000000009d00d164                powerScale
                0x000000009d00d234                fft_version

.text           0x000000009d00d278      0x780
 .text          0x000000009d00d278      0x3c4 build/nsensor/production/_ext/2015359111/plib_uart1.o
                0x000000009d00d2bc                UART1_Initialize
                0x000000009d00d2e8                UART1_SerialSetup
                0x000000009d00d3c4                UART1_Read
                0x000000009d00d4f4                UART1_Write
                0x000000009d00d564                UART1_ErrorGet
                0x000000009d00d5b0                UART1_AutoBaudQuery
                0x000000009d00d5c0                UART1_AutoBaudSet
                0x000000009d00d5d8                UART1_WriteByte
                0x000000009d00d5f8                UART1_TransmitterIsReady
                0x000000009d00d60c                UART1_ReadByte
                0x000000009d00d61c                UART1_ReceiverIsReady
                0x000000009d00d62c                UART1_TransmitComplete
 .text          0x000000009d00d63c      0x3bc c:/program files/microchip/xc32/v4.20/bin/bin/../../lib/gcc/pic32mx/8.3.1/fpu64\libgcc.a(_udivdi3.o)
                0x000000009d00d63c                __udivdi3

.text           0x000000009d00d9f8      0x6f0
 .text          0x000000009d00d9f8      0x3b8 c:/program files/microchip/xc32/v4.20/bin/bin/../../lib/gcc/pic32mx/8.3.1/fpu64\libgcc.a(_umoddi3.o)
                0x000000009d00d9f8                __umoddi3
 .text          0x000000009d00ddb0      0x338 build/nsensor/production/_ext/1966772718/plib_adchs.o
                0x000000009d00ddb0                ADCHS_Initialize
                0x000000009d00deb8                ADCHS_ModulesEnable
                0x000000009d00ded4                ADCHS_ModulesDisable
                0x000000009d00def4                ADCHS_ChannelResultInterruptEnable
                0x000000009d00df38                ADCHS_ChannelResultInterruptDisable
                0x000000009d00df88                ADCHS_ChannelEarlyInterruptEnable
                0x000000009d00dfcc                ADCHS_ChannelEarlyInterruptDisable
                0x000000009d00e01c                ADCHS_GlobalEdgeConversionStart
                0x000000009d00e038                ADCHS_GlobalLevelConversionStart
                0x000000009d00e054                ADCHS_GlobalLevelConversionStop
                0x000000009d00e06c                ADCHS_ChannelConversionStart
                0x000000009d00e094                ADCHS_ChannelResultIsReady
                0x000000009d00e0c0                ADCHS_ChannelResultGet
                0x000000009d00e0d8                ADCHS_EOSStatusGet

.rodata         0x000000009d00e0e8      0x300
 .rodata        0x000000009d00e0e8      0x300 build/nsensor/production/_ext/1684788505/ChrFont0.o
                0x000000009d00e0e8                rgbOledFont0

.rodata.str1.4  0x000000009d00e3e8      0x300
 .rodata.str1.4
                0x000000009d00e3e8      0x300 build/nsensor/production/_ext/1360937237/host.o

.text           0x000000009d00e6e8      0x2b8
 .text          0x000000009d00e6e8      0x2b8 build/nsensor/production/_ext/1360937237/imu.o
                0x000000009d00e6e8                get_imu_scale
                0x000000009d00e7ec                getAllData
                0x000000009d00e96c                imu_string

.text.malloc    0x000000009d00e9a0      0x290
 .text.malloc   0x000000009d00e9a0      0x290 c:/program files/microchip/xc32/v4.20/bin/bin/../../lib/gcc/pic32mx/8.3.1/../../../../pic32mx/lib/fpu64\libc-musl.a(malloc.o)
                0x000000009d00e9a0                malloc

.text           0x000000009d00ec30      0x488
 .text          0x000000009d00ec30      0x24c build/nsensor/production/_ext/1360937237/cmd_scanner.o
                0x000000009d00ec30                scmd_init
                0x000000009d00ec68                linux_getc
                0x000000009d00ecbc                linux_putc
                0x000000009d00ecc4                cli_read
                0x000000009d00ee50                dump_uart
 .text          0x000000009d00ee7c      0x23c build/nsensor/production/_ext/2014902340/plib_evic.o
                0x000000009d00ee7c                EVIC_Initialize
                0x000000009d00ef0c                EVIC_SourceEnable
                0x000000009d00ef34                EVIC_SourceDisable
                0x000000009d00ef5c                EVIC_SourceIsEnabled
                0x000000009d00ef7c                EVIC_SourceStatusGet
                0x000000009d00ef9c                EVIC_SourceStatusSet
                0x000000009d00efc4                EVIC_SourceStatusClear
                0x000000009d00efec                EVIC_INT_Enable
                0x000000009d00f004                EVIC_INT_Disable
                0x000000009d00f024                EVIC_INT_Restore
                0x000000009d00f04c                EVIC_ExternalInterruptEnable
                0x000000009d00f05c                EVIC_ExternalInterruptDisable
                0x000000009d00f06c                EVIC_ExternalInterruptCallbackRegister
                0x000000009d00f090                EXTERNAL_2_InterruptHandler

.text           0x000000009d00f0b8      0x464
 .text          0x000000009d00f0b8      0x238 build/nsensor/production/_ext/1955707305/plib_mcpwm.o
                0x000000009d00f0b8                MCPWM_Initialize
                0x000000009d00f130                MCPWM_Start
                0x000000009d00f14c                MCPWM_Stop
                0x000000009d00f164                MCPWM_PrimaryPeriodSet
                0x000000009d00f174                MCPWM_PrimaryPeriodGet
                0x000000009d00f184                MCPWM_SecondaryPeriodSet
                0x000000009d00f194                MCPWM_SecondaryPeriodGet
                0x000000009d00f1a4                MCPWM_ChannelPrimaryDutySet
                0x000000009d00f1c0                MCPWM_ChannelSecondaryDutySet
                0x000000009d00f1dc                MCPWM_ChannelDeadTimeSet
                0x000000009d00f20c                MCPWM_ChannelPrimaryTriggerSet
                0x000000009d00f228                MCPWM_ChannelSecondaryTriggerSet
                0x000000009d00f244                MCPWM_ChannelLeadingEdgeBlankingDelaySet
                0x000000009d00f260                MCPWM_ChannelPinsOverrideEnable
                0x000000009d00f284                MCPWM_ChannelPinsOverrideDisable
                0x000000009d00f2a8                MCPWM_ChannelPinsOwnershipEnable
                0x000000009d00f2cc                MCPWM_ChannelPinsOwnershipDisable
 .text          0x000000009d00f2f0      0x22c build/nsensor/production/_ext/1360937237/do_fft.o
                0x000000009d00f2f0                __delay_ms_fft
                0x000000009d00f334                __delay_us_fft
                0x000000009d00f368                do_fft
                0x000000009d00f484                do_fft_version
                0x000000009d00f4c8                do_fft_dc_x
                0x000000009d00f4e4                do_fft_dc_y
                0x000000009d00f500                do_fft_dc_z

.text           0x000000009d00f51c      0x224
 .text          0x000000009d00f51c      0x224 build/nsensor/production/_ext/1664108525/plib_coretimer.o
                0x000000009d00f51c                CORETIMER_Initialize
                0x000000009d00f55c                CORETIMER_CallbackSet
                0x000000009d00f570                CORETIMER_PeriodSet
                0x000000009d00f57c                CORETIMER_Start
                0x000000009d00f5e0                CORETIMER_Stop
                0x000000009d00f614                CORETIMER_FrequencyGet
                0x000000009d00f620                CORE_TIMER_InterruptHandler
                0x000000009d00f6c8                CORETIMER_DelayMs
                0x000000009d00f70c                CORETIMER_DelayUs

.text.__fmt_x   0x000000009d00f740      0x208
 .text.__fmt_x  0x000000009d00f740      0x208 c:/program files/microchip/xc32/v4.20/bin/bin/../../lib/gcc/pic32mx/8.3.1/../../../../pic32mx/lib/fpu64\libc-musl.a(__fmt_x.o)
                0x000000009d00f740                __fmt_x_needed
                0x000000009d00f740                __fmt_x

.text           0x000000009d00f948      0x3e4
 .text          0x000000009d00f948      0x200 build/nsensor/production/_ext/2014956168/plib_gpio.o
                0x000000009d00f948                GPIO_Initialize
                0x000000009d00fa60                GPIO_PortRead
                0x000000009d00fa78                GPIO_PortWrite
                0x000000009d00faa4                GPIO_PortLatchRead
                0x000000009d00fabc                GPIO_PortSet
                0x000000009d00fad8                GPIO_PortClear
                0x000000009d00faf4                GPIO_PortToggle
                0x000000009d00fb10                GPIO_PortInputEnable
                0x000000009d00fb2c                GPIO_PortOutputEnable
 .text          0x000000009d00fb48      0x1e4 build/nsensor/production/_ext/1684788505/OledChar.o
                0x000000009d00fb48                OledSetCursor
                0x000000009d00fb88                OledGetCursor
                0x000000009d00fb9c                OledDefUserChar
                0x000000009d00fbd8                OledSetCharUpdate
                0x000000009d00fbe4                OledGetCharUpdate
                0x000000009d00fbec                OledDrawGlyph
                0x000000009d00fc50                OledAdvanceCursor
                0x000000009d00fc9c                OledPutChar
                0x000000009d00fcd0                OledPutString

.rodata.str1.4  0x000000009d00fd2c      0x1d4
 .rodata.str1.4
                0x000000009d00fd2c      0x1d4 build/nsensor/production/_ext/1360937237/main.o

.text.free      0x000000009d00ff00      0x198
 .text.free     0x000000009d00ff00      0x198 c:/program files/microchip/xc32/v4.20/bin/bin/../../lib/gcc/pic32mx/8.3.1/../../../../pic32mx/lib/fpu64\libc-musl.a(malloc.o)
                0x000000009d00ff00                free

.text.__pop_int
                0x000000009d010098      0x188
 .text.__pop_int
                0x000000009d010098      0x188 c:/program files/microchip/xc32/v4.20/bin/bin/../../lib/gcc/pic32mx/8.3.1/../../../../pic32mx/lib/fpu64\libc-musl.a(__pop_int.o)
                0x000000009d010098                __pop_int_needed
                0x000000009d010098                __pop_int

.text           0x000000009d000000      0x168
 .text          0x000000009d000000      0x168 c:/program files/microchip/xc32/v4.20/bin/bin/../../lib/gcc/pic32mx/8.3.1/../../../../pic32mx/lib/fpu64\libpic32.a(strlen.o)
                0x000000009d000000                strlen

.rodata         0x000000009d010220      0x158
 .rodata        0x000000009d010220      0x158 c:/program files/microchip/xc32/v4.20/bin/bin/../../lib/gcc/pic32mx/8.3.1/../../../../pic32mx/lib/fpu64\libm-musl.a(__rem_pio2_large.o)

.text._sbrk_init
                0x000000009d010378      0x154
 .text._sbrk_init
                0x000000009d010378      0x154 c:/program files/microchip/xc32/v4.20/bin/bin/../../lib/gcc/pic32mx/8.3.1/../../../../pic32mx/lib/fpu64\libpic32.a(sbrk.o)
                0x000000009d010378                _sbrk_init

.text.__fmt_d   0x000000009d0104cc      0x150
 .text.__fmt_d  0x000000009d0104cc      0x150 c:/program files/microchip/xc32/v4.20/bin/bin/../../lib/gcc/pic32mx/8.3.1/../../../../pic32mx/lib/fpu64\libc-musl.a(__fmt_d.o)
                0x000000009d0104cc                __fmt_d_needed
                0x000000009d0104cc                __fmt_d

.text.__cvt_u   0x000000009d01061c      0x13c
 .text.__cvt_u  0x000000009d01061c      0x13c c:/program files/microchip/xc32/v4.20/bin/bin/../../lib/gcc/pic32mx/8.3.1/../../../../pic32mx/lib/fpu64\libc-musl.a(__fmt_u.o)
                0x000000009d01061c                __cvt_u

.text.sin       0x000000009d010758      0x120
 .text.sin      0x000000009d010758      0x120 c:/program files/microchip/xc32/v4.20/bin/bin/../../lib/gcc/pic32mx/8.3.1/../../../../pic32mx/lib/fpu64\libm-musl.a(sin.o)
                0x000000009d010758                sin

.text.realloc   0x000000009d010878      0x118
 .text.realloc  0x000000009d010878      0x118 c:/program files/microchip/xc32/v4.20/bin/bin/../../lib/gcc/pic32mx/8.3.1/../../../../pic32mx/lib/fpu64\libc-musl.a(malloc.o)
                0x000000009d010878                realloc

.text           0x000000009d010990      0x210
 .text          0x000000009d010990      0x110 build/nsensor/production/_ext/1684788505/lcd_drv.o
                0x000000009d010990                init_lcd_drv
 .text          0x000000009d010aa0      0x100 build/nsensor/production/_ext/619200320/plib_tmr5.o
                0x000000009d010aa0                TMR5_Initialize
                0x000000009d010ad4                TMR5_Start
                0x000000009d010ae8                TMR5_Stop
                0x000000009d010afc                TMR5_PeriodSet
                0x000000009d010b0c                TMR5_PeriodGet
                0x000000009d010b1c                TMR5_CounterGet
                0x000000009d010b2c                TMR5_FrequencyGet
                0x000000009d010b38                TIMER_5_InterruptHandler
                0x000000009d010b68                TMR5_InterruptEnable
                0x000000009d010b7c                TMR5_InterruptDisable
                0x000000009d010b90                TMR5_CallbackRegister

.text.__pad     0x000000009d010ba0      0x100
 .text.__pad    0x000000009d010ba0      0x100 c:/program files/microchip/xc32/v4.20/bin/bin/../../lib/gcc/pic32mx/8.3.1/../../../../pic32mx/lib/fpu64\libc-musl.a(__printf_core.o)
                0x000000009d010ba0                __pad

.text.cos       0x000000009d010ca0      0x100
 .text.cos      0x000000009d010ca0      0x100 c:/program files/microchip/xc32/v4.20/bin/bin/../../lib/gcc/pic32mx/8.3.1/../../../../pic32mx/lib/fpu64\libm-musl.a(cos.o)
                0x000000009d010ca0                cos

.text           0x000000009d010da0      0x1f8
 .text          0x000000009d010da0       0xfc build/nsensor/production/_ext/619200320/plib_tmr3.o
                0x000000009d010da0                TMR3_Initialize
                0x000000009d010dd0                TMR3_Start
                0x000000009d010de4                TMR3_Stop
                0x000000009d010df8                TMR3_PeriodSet
                0x000000009d010e08                TMR3_PeriodGet
                0x000000009d010e18                TMR3_CounterGet
                0x000000009d010e28                TMR3_FrequencyGet
                0x000000009d010e34                TIMER_3_InterruptHandler
                0x000000009d010e64                TMR3_InterruptEnable
                0x000000009d010e78                TMR3_InterruptDisable
                0x000000009d010e8c                TMR3_CallbackRegister
 .text          0x000000009d010e9c       0xfc build/nsensor/production/_ext/619200320/plib_tmr6.o
                0x000000009d010e9c                TMR6_Initialize
                0x000000009d010ecc                TMR6_Start
                0x000000009d010ee0                TMR6_Stop
                0x000000009d010ef4                TMR6_PeriodSet
                0x000000009d010f04                TMR6_PeriodGet
                0x000000009d010f14                TMR6_CounterGet
                0x000000009d010f24                TMR6_FrequencyGet
                0x000000009d010f30                TIMER_6_InterruptHandler
                0x000000009d010f60                TMR6_InterruptEnable
                0x000000009d010f74                TMR6_InterruptDisable
                0x000000009d010f88                TMR6_CallbackRegister

.text           0x000000009d010f98       0xfc
 .text          0x000000009d010f98       0xfc build/nsensor/production/_ext/619200320/plib_tmr2.o
                0x000000009d010f98                TMR2_Initialize
                0x000000009d010fc8                TMR2_Start
                0x000000009d010fdc                TMR2_Stop
                0x000000009d010ff0                TMR2_PeriodSet
                0x000000009d011000                TMR2_PeriodGet
                0x000000009d011010                TMR2_CounterGet
                0x000000009d011020                TMR2_FrequencyGet
                0x000000009d01102c                TIMER_2_InterruptHandler
                0x000000009d01105c                TMR2_InterruptEnable
                0x000000009d011070                TMR2_InterruptDisable
                0x000000009d011084                TMR2_CallbackRegister

.text.__fmt_o   0x000000009d011094       0xf4
 .text.__fmt_o  0x000000009d011094       0xf4 c:/program files/microchip/xc32/v4.20/bin/bin/../../lib/gcc/pic32mx/8.3.1/../../../../pic32mx/lib/fpu64\libc-musl.a(__fmt_o.o)
                0x000000009d011094                __fmt_o_needed
                0x000000009d011094                __fmt_o

.text           0x000000009d011188       0xe8
 .text          0x000000009d011188       0xe8 build/nsensor/production/_ext/619197180/plib_qei2.o
                0x000000009d011188                QEI2_Initialize
                0x000000009d0111bc                QEI2_Start
                0x000000009d0111d4                QEI2_Stop
                0x000000009d0111ec                QEI2_PulseIntervalGet
                0x000000009d0111fc                QEI2_PositionWindowSet
                0x000000009d011210                QEI2_PositionCountSet
                0x000000009d011220                QEI2_VelocityCountSet
                0x000000009d011230                QEI2_CallbackRegister
                0x000000009d011240                QEI2_InterruptHandler

.text.__pop_ptr
                0x000000009d011270       0xe4
 .text.__pop_ptr
                0x000000009d011270       0xe4 c:/program files/microchip/xc32/v4.20/bin/bin/../../lib/gcc/pic32mx/8.3.1/../../../../pic32mx/lib/fpu64\libc-musl.a(__pop_ptr.o)
                0x000000009d011270                __pop_ptr_needed
                0x000000009d011270                __pop_ptr

.text           0x000000009d011354       0xdc
 .text          0x000000009d011354       0xdc build/nsensor/production/_ext/1360937237/timers.o
                0x000000009d011354                StartTimer
                0x000000009d011378                TimerDone
                0x000000009d011398                WaitMs
                0x000000009d0113c0                timer_ms_tick
                0x000000009d011408                delay_ms_tick

.text.general_exception
                0x000000009d011430       0xdc
 .text.general_exception
                0x000000009d011430       0xdc c:/program files/microchip/xc32/v4.20/bin/bin/../../lib/gcc/pic32mx/8.3.1/../../../../pic32mx/lib/fpu64\libpic32.a(general-exception.o)
                0x000000009d011430                _general_exception_context

.text           0x000000009d01150c      0x1ac
 .text          0x000000009d01150c       0xd8 build/nsensor/production/_ext/619183945/plib_clk.o
                0x000000009d01150c                CLK_Initialize
 .text          0x000000009d0115e4       0xd4 build/nsensor/production/_ext/1856863253/initialization.o
                0x000000009d0115e4                SYS_Initialize

.text.__stdio_close_rw
                0x000000009d0116b8       0xc0
 .text.__stdio_close_rw
                0x000000009d0116b8       0xc0 c:/program files/microchip/xc32/v4.20/bin/bin/../../lib/gcc/pic32mx/8.3.1/../../../../pic32mx/lib/fpu64\libc-musl.a(__stdio_close.o)
                0x000000009d0116b8                __stdio_close_rw

.text.__fmt_u   0x000000009d011778       0xbc
 .text.__fmt_u  0x000000009d011778       0xbc c:/program files/microchip/xc32/v4.20/bin/bin/../../lib/gcc/pic32mx/8.3.1/../../../../pic32mx/lib/fpu64\libc-musl.a(__fmt_u.o)
                0x000000009d011778                __fmt_u_needed
                0x000000009d011778                __fmt_u

.text.floor     0x000000009d011834       0xb4
 .text.floor    0x000000009d011834       0xb4 c:/program files/microchip/xc32/v4.20/bin/bin/../../lib/gcc/pic32mx/8.3.1/../../../../pic32mx/lib/fpu64\libm-musl.a(floor.o)
                0x000000009d011834                floor

.text           0x000000009d0118e8       0xb0
 .text          0x000000009d0118e8       0xb0 build/nsensor/production/_ext/725740559/xc32_monitor.o
                0x000000009d0118e8                read
                0x000000009d011934                write

.text._sbrk     0x000000009d011998       0xb0
 .text._sbrk    0x000000009d011998       0xb0 c:/program files/microchip/xc32/v4.20/bin/bin/../../lib/gcc/pic32mx/8.3.1/../../../../pic32mx/lib/fpu64\libpic32.a(sbrk.o)
                0x000000009d011998                _sbrk

.text.unbin     0x000000009d011a48       0xac
 .text.unbin    0x000000009d011a48       0xac c:/program files/microchip/xc32/v4.20/bin/bin/../../lib/gcc/pic32mx/8.3.1/../../../../pic32mx/lib/fpu64\libc-musl.a(malloc.o)

.text           0x000000009d011af4       0xa8
 .text          0x000000009d011af4       0xa8 c:/program files/microchip/xc32/v4.20/bin/bin/../../lib/gcc/pic32mx/8.3.1/../../../../pic32mx/lib/fpu64\libpic32.a(memset.o)
                0x000000009d011af4                memset

.text.__fmt_s   0x000000009d011b9c       0xa4
 .text.__fmt_s  0x000000009d011b9c       0xa4 c:/program files/microchip/xc32/v4.20/bin/bin/../../lib/gcc/pic32mx/8.3.1/../../../../pic32mx/lib/fpu64\libc-musl.a(__fmt_s.o)
                0x000000009d011b9c                __fmt_0_needed
                0x000000009d011b9c                __fmt_s_needed
                0x000000009d011b9c                __fmt_s

.text.__stdio_close
                0x000000009d011c40       0xa0
 .text.__stdio_close
                0x000000009d011c40       0xa0 c:/program files/microchip/xc32/v4.20/bin/bin/../../lib/gcc/pic32mx/8.3.1/../../../../pic32mx/lib/fpu64\libc-musl.a(__stdio_close.o)
                0x000000009d011c40                __stdio_close

.text           0x000000009d011ce0       0x90
 .text          0x000000009d011ce0       0x90 build/nsensor/production/_ext/619200320/plib_tmr9.o
                0x000000009d011ce0                TMR9_Initialize
                0x000000009d011d0c                TMR9_Start
                0x000000009d011d20                TMR9_Stop
                0x000000009d011d34                TMR9_PeriodSet
                0x000000009d011d44                TMR9_PeriodGet
                0x000000009d011d54                TMR9_CounterGet
                0x000000009d011d64                TMR9_FrequencyGet

.text.__sin     0x000000009d011d70       0x90
 .text.__sin    0x000000009d011d70       0x90 c:/program files/microchip/xc32/v4.20/bin/bin/../../lib/gcc/pic32mx/8.3.1/../../../../pic32mx/lib/fpu64\libm-musl.a(__sin.o)
                0x000000009d011d70                __sin

.text           0x000000009d011e00       0x8c
 .text          0x000000009d011e00       0x8c build/nsensor/production/_ext/1360937237/pid.o
                0x000000009d011e00                UpdatePI
                0x000000009d011e74                ResetPI

.text.__out     0x000000009d011e8c       0x8c
 .text.__out    0x000000009d011e8c       0x8c c:/program files/microchip/xc32/v4.20/bin/bin/../../lib/gcc/pic32mx/8.3.1/../../../../pic32mx/lib/fpu64\libc-musl.a(__out.o)
                0x000000009d011e8c                __out_needed
                0x000000009d011e8c                __out

.text.normalize
                0x000000009d011f18       0x8c
 .text.normalize
                0x000000009d011f18       0x8c c:/program files/microchip/xc32/v4.20/bin/bin/../../lib/gcc/pic32mx/8.3.1/../../../../pic32mx/lib/fpu64\libm-musl.a(fma.o)

.text.scalbn    0x000000009d011fa4       0x8c
 .text.scalbn   0x000000009d011fa4       0x8c c:/program files/microchip/xc32/v4.20/bin/bin/../../lib/gcc/pic32mx/8.3.1/../../../../pic32mx/lib/fpu64\libm-musl.a(scalbn.o)
                0x000000009d011fa4                scalbn

.rodata         0x000000009d012030       0x88
 .rodata        0x000000009d012030       0x88 build/nsensor/production/_ext/1360937237/imu.o
                0x000000009d012058                imu_table

.text.__cos     0x000000009d0120b8       0x88
 .text.__cos    0x000000009d0120b8       0x88 c:/program files/microchip/xc32/v4.20/bin/bin/../../lib/gcc/pic32mx/8.3.1/../../../../pic32mx/lib/fpu64\libm-musl.a(__cos.o)
                0x000000009d0120b8                __cos

.text.dinit.startup
                0x000000009d012140       0x80
 .text.dinit.startup
                0x000000009d012140       0x80 c:/program files/microchip/xc32/v4.20/bin/bin/../../lib/gcc/pic32mx/8.3.1/../../../../pic32mx/lib/fpu64\libpic32.a(pic32_data_init_0_1.o)
                0x000000009d012140                __pic32_data_init_impl
                0x000000009d012140                __copy_needed

.text.__vsnprintf
                0x000000009d0121c0       0x80
 .text.__vsnprintf
                0x000000009d0121c0       0x80 c:/program files/microchip/xc32/v4.20/bin/bin/../../lib/gcc/pic32mx/8.3.1/../../../../pic32mx/lib/fpu64\libc-musl.a(__int_vsnprintf.o)
                0x000000009d0121c0                __vsnprintf

.text.atoi      0x000000009d012240       0x7c
 .text.atoi     0x000000009d012240       0x7c c:/program files/microchip/xc32/v4.20/bin/bin/../../lib/gcc/pic32mx/8.3.1/../../../../pic32mx/lib/fpu64\libc-musl.a(atoi.o)
                0x000000009d012240                atoi

.rodata.cst8    0x000000009d0122c0       0x78
 .rodata.cst8   0x000000009d0122c0       0x78 c:/program files/microchip/xc32/v4.20/bin/bin/../../lib/gcc/pic32mx/8.3.1/../../../../pic32mx/lib/fpu64\libm-musl.a(__rem_pio2.o)

.text.alloc_rev
                0x000000009d012338       0x74
 .text.alloc_rev
                0x000000009d012338       0x74 c:/program files/microchip/xc32/v4.20/bin/bin/../../lib/gcc/pic32mx/8.3.1/../../../../pic32mx/lib/fpu64\libc-musl.a(malloc.o)

.rodata.cst8    0x000000009d000190       0x70
 .rodata.cst8   0x000000009d000190       0x70 build/nsensor/production/_ext/1360937237/gfx.o

.text.alloc_fwd
                0x000000009d0123ac       0x70
 .text.alloc_fwd
                0x000000009d0123ac       0x70 c:/program files/microchip/xc32/v4.20/bin/bin/../../lib/gcc/pic32mx/8.3.1/../../../../pic32mx/lib/fpu64\libc-musl.a(malloc.o)

.text.a_clz_64  0x000000009d01241c       0x6c
 .text.a_clz_64
                0x000000009d01241c       0x6c c:/program files/microchip/xc32/v4.20/bin/bin/../../lib/gcc/pic32mx/8.3.1/../../../../pic32mx/lib/fpu64\libm-musl.a(fma.o)

.rodata.str1.4  0x000000009d012488       0x64
 .rodata.str1.4
                0x000000009d012488       0x64 build/nsensor/production/_ext/1360937237/bma490l.o

.text.__fopen_std
                0x000000009d0124ec       0x60
 .text.__fopen_std
                0x000000009d0124ec       0x60 c:/program files/microchip/xc32/v4.20/bin/bin/../../lib/gcc/pic32mx/8.3.1/../../../../pic32mx/lib/fpu64\libc-musl.a(__fopen.o)
                0x000000009d0124ec                __fopen_rw

.text.bin_index
                0x000000009d01254c       0x60
 .text.bin_index
                0x000000009d01254c       0x60 c:/program files/microchip/xc32/v4.20/bin/bin/../../lib/gcc/pic32mx/8.3.1/../../../../pic32mx/lib/fpu64\libc-musl.a(malloc.o)

.text.__sio_sprintf_dfosux
                0x000000009d0125ac       0x5c
 .text.__sio_sprintf_dfosux
                0x000000009d0125ac       0x5c c:/program files/microchip/xc32/v4.20/bin/bin/../../lib/gcc/pic32mx/8.3.1/../../../../pic32mx/lib/fpu64\libc-musl.a(__sio_sprintf_dfosux.o)
                0x000000009d0125ac                __sio_sprintf_dfosux

.text.__string_out
                0x000000009d012608       0x5c
 .text.__string_out
                0x000000009d012608       0x5c c:/program files/microchip/xc32/v4.20/bin/bin/../../lib/gcc/pic32mx/8.3.1/../../../../pic32mx/lib/fpu64\libc-musl.a(__printf_core.o)

.rodata         0x000000009d012664       0x5c
 .rodata        0x000000009d012664       0x5c c:/program files/microchip/xc32/v4.20/bin/bin/../../lib/gcc/pic32mx/8.3.1/../../../../pic32mx/lib/fpu64\libc-musl.a(malloc.o)

.rodata.cst8    0x000000009d0126c0       0x58
 .rodata.cst8   0x000000009d0126c0       0x58 build/nsensor/production/_ext/1360937237/imu.o

.text.__fmt_state
                0x000000009d012718       0x58
 .text.__fmt_state
                0x000000009d012718       0x58 c:/program files/microchip/xc32/v4.20/bin/bin/../../lib/gcc/pic32mx/8.3.1/../../../../pic32mx/lib/fpu64\libc-musl.a(__printf_core.o)
                0x000000009d012718                __fmt_state

.text.adjust_size
                0x000000009d012770       0x58
 .text.adjust_size
                0x000000009d012770       0x58 c:/program files/microchip/xc32/v4.20/bin/bin/../../lib/gcc/pic32mx/8.3.1/../../../../pic32mx/lib/fpu64\libc-musl.a(malloc.o)

.text.trim      0x000000009d0127c8       0x58
 .text.trim     0x000000009d0127c8       0x58 c:/program files/microchip/xc32/v4.20/bin/bin/../../lib/gcc/pic32mx/8.3.1/../../../../pic32mx/lib/fpu64\libc-musl.a(malloc.o)

.rodata.str1.4  0x000000009d012820       0xa8
 .rodata.str1.4
                0x000000009d012820       0x54 build/nsensor/production/_ext/1684788505/OledDriver.o
 .rodata.str1.4
                0x000000009d012874       0x54 build/nsensor/production/_ext/1360937237/sca3300.o

.rodata.str1.4  0x000000009d0128c8       0x54
 .rodata.str1.4
                0x000000009d0128c8       0x54 build/nsensor/production/_ext/1360937237/do_fft.o

.text.main_entry
                0x000000009d01291c       0x54
 .text.main_entry
                0x000000009d01291c       0x54 C:\Users\nsasp\AppData\Local\Temp\cc26TO6z.o
                0x000000009d012950                __crt0_exit

.text.__malloc0
                0x000000009d012970       0x50
 .text.__malloc0
                0x000000009d012970       0x50 c:/program files/microchip/xc32/v4.20/bin/bin/../../lib/gcc/pic32mx/8.3.1/../../../../pic32mx/lib/fpu64\libc-musl.a(malloc.o)
                0x000000009d012970                __malloc0

.rodata.str1.4  0x000000009d0129c0       0x4c
 .rodata.str1.4
                0x000000009d0129c0       0x4c build/nsensor/production/_ext/1360937237/fft.o

.text.__sio_sprintf_dosux
                0x000000009d012a0c       0x4c
 .text.__sio_sprintf_dosux
                0x000000009d012a0c       0x4c c:/program files/microchip/xc32/v4.20/bin/bin/../../lib/gcc/pic32mx/8.3.1/../../../../pic32mx/lib/fpu64\libc-musl.a(__sio_sprintf_dosux.o)
                0x000000009d012a0c                __sio_sprintf_dosux

.text.__sio_sprintf_doux
                0x000000009d012a58       0x4c
 .text.__sio_sprintf_doux
                0x000000009d012a58       0x4c c:/program files/microchip/xc32/v4.20/bin/bin/../../lib/gcc/pic32mx/8.3.1/../../../../pic32mx/lib/fpu64\libc-musl.a(__sio_sprintf_doux.o)
                0x000000009d012a58                __sio_sprintf_doux

.text.sbrk      0x000000009d012aa4       0x4c
 .text.sbrk     0x000000009d012aa4       0x4c c:/program files/microchip/xc32/v4.20/bin/bin/../../lib/gcc/pic32mx/8.3.1/../../../../pic32mx/lib/fpu64\libpic32.a(sbrk.o)
                0x000000009d012aa4                sbrk

.text.__pop_float
                0x000000009d012af0       0x48
 .text.__pop_float
                0x000000009d012af0       0x48 c:/program files/microchip/xc32/v4.20/bin/bin/../../lib/gcc/pic32mx/8.3.1/../../../../pic32mx/lib/fpu64\libc-musl.a(__pop_float.o)
                0x000000009d012af0                __pop_float_needed
                0x000000009d012af0                __pop_float

.text.strncmp   0x000000009d012b38       0x48
 .text.strncmp  0x000000009d012b38       0x48 c:/program files/microchip/xc32/v4.20/bin/bin/../../lib/gcc/pic32mx/8.3.1/../../../../pic32mx/lib/fpu64\libc-musl.a(strncmp.o)
                0x000000009d012b38                strncmp

.text           0x000000009d012b80       0x44
 .text          0x000000009d012b80       0x44 c:/program files/microchip/xc32/v4.20/bin/bin/../../lib/gcc/pic32mx/8.3.1/../../../../pic32mx/lib/fpu64\pic32_software_reset.o
                0x000000009d012b80                __pic32_software_reset

.rodata         0x000000009d012bc4       0x40
 .rodata        0x000000009d012bc4       0x40 build/nsensor/production/_ext/1684788505/FillPat.o
                0x000000009d012bc4                rgbFillPat

.rodata.cst8    0x000000009d012c08       0x80
 .rodata.cst8   0x000000009d012c08       0x40 c:/program files/microchip/xc32/v4.20/bin/bin/../../lib/gcc/pic32mx/8.3.1/../../../../pic32mx/lib/fpu64\libm-musl.a(__cos.o)
 .rodata.cst8   0x000000009d012c48       0x40 c:/program files/microchip/xc32/v4.20/bin/bin/../../lib/gcc/pic32mx/8.3.1/../../../../pic32mx/lib/fpu64\libm-musl.a(__sin.o)

.text.__wrap_printf
                0x000000009d012c88       0x3c
 .text.__wrap_printf
                0x000000009d012c88       0x3c c:/program files/microchip/xc32/v4.20/bin/bin/../../lib/gcc/pic32mx/8.3.1/../../../../pic32mx/lib/fpu64\libc-musl.a(__sio_printf_s.o)
                0x000000009d012c88                _dprintf_s
                0x000000009d012c88                _printf_s

.text.__vfprintf
                0x000000009d012cc4       0x3c
 .text.__vfprintf
                0x000000009d012cc4       0x3c c:/program files/microchip/xc32/v4.20/bin/bin/../../lib/gcc/pic32mx/8.3.1/../../../../pic32mx/lib/fpu64\libc-musl.a(__int_vfprintf.o)
                0x000000009d012cc4                __vfprintf

.text.vfprintf  0x000000009d012d00       0x3c
 .text.vfprintf
                0x000000009d012d00       0x3c c:/program files/microchip/xc32/v4.20/bin/bin/../../lib/gcc/pic32mx/8.3.1/../../../../pic32mx/lib/fpu64\libc-musl.a(vfprintf.o)
                0x000000009d012d00                vfprintf

.text.__expand_heap
                0x000000009d012d3c       0x3c
 .text.__expand_heap
                0x000000009d012d3c       0x3c c:/program files/microchip/xc32/v4.20/bin/bin/../../lib/gcc/pic32mx/8.3.1/../../../../pic32mx/lib/fpu64\libc-musl.a(expand_heap.o)
                0x000000009d012d3c                __expand_heap

.text           0x000000009d012d78       0x78
 .text          0x000000009d012d78       0x3c c:/program files/microchip/xc32/v4.20/bin/bin/../../lib/gcc/pic32mx/8.3.1/fpu64\libgcc.a(_lshrdi3.o)
                0x000000009d012d78                __lshrdi3
 .text          0x000000009d012db4       0x3c c:/program files/microchip/xc32/v4.20/bin/bin/../../lib/gcc/pic32mx/8.3.1/fpu64\libgcc.a(_ashldi3.o)
                0x000000009d012db4                __ashldi3

.text.lock_bin  0x000000009d012df0       0x34
 .text.lock_bin
                0x000000009d012df0       0x34 c:/program files/microchip/xc32/v4.20/bin/bin/../../lib/gcc/pic32mx/8.3.1/../../../../pic32mx/lib/fpu64\libc-musl.a(malloc.o)

.text.vprintf   0x000000009d012e24       0x30
 .text.vprintf  0x000000009d012e24       0x30 c:/program files/microchip/xc32/v4.20/bin/bin/../../lib/gcc/pic32mx/8.3.1/../../../../pic32mx/lib/fpu64\libc-musl.a(vprintf.o)
                0x000000009d012e24                vprintf

.rodata.cst8    0x000000009d012e58       0x30
 .rodata.cst8   0x000000009d012e58       0x30 c:/program files/microchip/xc32/v4.20/bin/bin/../../lib/gcc/pic32mx/8.3.1/../../../../pic32mx/lib/fpu64\libm-musl.a(__rem_pio2_large.o)

.text.memcpy    0x000000009d012e88       0x2c
 .text.memcpy   0x000000009d012e88       0x2c c:/program files/microchip/xc32/v4.20/bin/bin/../../lib/gcc/pic32mx/8.3.1/../../../../pic32mx/lib/fpu64\libc-musl.a(memcpy.o)
                0x000000009d012e88                memcpy

.text.__init_stdio
                0x000000009d012eb4       0x2c
 .text.__init_stdio
                0x000000009d012eb4       0x2c c:/program files/microchip/xc32/v4.20/bin/bin/../../lib/gcc/pic32mx/8.3.1/../../../../pic32mx/lib/fpu64\libc-musl.a(__init_stdio.o)
                0x000000009d012eb4                __init_stdio
                0x000000009d012eb4                __init_stdio_needed

.text._stub_sbd_memlayout
                0x000000009d012ee0       0x2c
 .text._stub_sbd_memlayout
                0x000000009d012ee0       0x2c c:/program files/microchip/xc32/v4.20/bin/bin/../../lib/gcc/pic32mx/8.3.1/../../../../pic32mx/lib/fpu64\libpic32.a(sbrk.o)
                0x000000009d012ee0                _sbd_memlayout
                0x000000009d012ee0                _stub_sbd_memlayout

.text           0x000000009d012f0c       0x28
 .text          0x000000009d012f0c       0x28 build/nsensor/production/_ext/1856863253/exceptions.o
                0x000000009d012f0c                _general_exception_handler
                0x000000009d012f24                _bootstrap_exception_handler

.rodata.cst8    0x000000009d012f38       0x28
 .rodata.cst8   0x000000009d012f38       0x28 build/nsensor/production/_ext/1360937237/fft.o

.text.__wrap_sprintf
                0x000000009d012f60       0x50
 .text.__wrap_sprintf
                0x000000009d012f60       0x28 c:/program files/microchip/xc32/v4.20/bin/bin/../../lib/gcc/pic32mx/8.3.1/../../../../pic32mx/lib/fpu64\libc-musl.a(__sio_sprintf_dfosux.o)
                0x000000009d012f60                _dsprintf_cdfFgGnopsuxX
                0x000000009d012f60                _sprintf_cdeEfFgGnopsuxX
                0x000000009d012f60                _dsprintf_cdfFnopsuxX
                0x000000009d012f60                _sprintf_cdfFnopsuxX
                0x000000009d012f60                _dsprintf_cdeEfFnopsuxX
                0x000000009d012f60                _sprintf_cdgGnopsuxX
                0x000000009d012f60                _dsprintf_cdeEgGnopsuxX
                0x000000009d012f60                _sprintf_cdeEgGnopsuxX
                0x000000009d012f60                _sprintf_cdeEfFnopsuxX
                0x000000009d012f60                _dsprintf_cdeEfFgGnopsuxX
                0x000000009d012f60                _dsprintf_cdeEnopsuxX
                0x000000009d012f60                _sprintf_cdeEnopsuxX
                0x000000009d012f60                _dsprintf_cdgGnopsuxX
                0x000000009d012f60                _sprintf_cdfFgGnopsuxX
 .text.__wrap_sprintf
                0x000000009d012f88       0x28 c:/program files/microchip/xc32/v4.20/bin/bin/../../lib/gcc/pic32mx/8.3.1/../../../../pic32mx/lib/fpu64\libc-musl.a(__sio_sprintf_dosux.o)
                0x000000009d012f88                _sprintf_cdnopsuxX
                0x000000009d012f88                _dsprintf_cdnopsuxX

.text.__wrap_sprintf
                0x000000009d012fb0       0x50
 .text.__wrap_sprintf
                0x000000009d012fb0       0x28 c:/program files/microchip/xc32/v4.20/bin/bin/../../lib/gcc/pic32mx/8.3.1/../../../../pic32mx/lib/fpu64\libc-musl.a(__sio_sprintf_doux.o)
                0x000000009d012fb0                _sprintf_cdnopuxX
                0x000000009d012fb0                _dsprintf_cdnopuxX
 .text.__wrap_sprintf
                0x000000009d012fd8       0x28 c:/program files/microchip/xc32/v4.20/bin/bin/../../lib/gcc/pic32mx/8.3.1/../../../../pic32mx/lib/fpu64\libc-musl.a(__sio_sprintf_s.o)
                0x000000009d012fd8                _sprintf_s
                0x000000009d012fd8                _dsprintf_s

.text.strcpy    0x000000009d013000       0x28
 .text.strcpy   0x000000009d013000       0x28 c:/program files/microchip/xc32/v4.20/bin/bin/../../lib/gcc/pic32mx/8.3.1/../../../../pic32mx/lib/fpu64\libc-musl.a(strcpy.o)
                0x000000009d013000                strcpy

.text.__vsprintf
                0x000000009d013028       0x28
 .text.__vsprintf
                0x000000009d013028       0x28 c:/program files/microchip/xc32/v4.20/bin/bin/../../lib/gcc/pic32mx/8.3.1/../../../../pic32mx/lib/fpu64\libc-musl.a(__int_vsprintf.o)
                0x000000009d013028                __vsprintf

.rodata.cst8    0x000000009d013050       0x28
 .rodata.cst8   0x000000009d013050       0x28 c:/program files/microchip/xc32/v4.20/bin/bin/../../lib/gcc/pic32mx/8.3.1/../../../../pic32mx/lib/fpu64\libc-musl.a(__fmt_a.o)

.rodata         0x000000009d013078       0x20
 .rodata        0x000000009d013078       0x20 build/nsensor/production/_ext/1360937237/sca3300.o

.rodata.cst8    0x000000009d013098       0x20
 .rodata.cst8   0x000000009d013098       0x20 build/nsensor/production/_ext/1360937237/do_fft.o

.text.dinit.startup
                0x000000009d0130b8       0x20
 .text.dinit.startup
                0x000000009d0130b8       0x20 c:/program files/microchip/xc32/v4.20/bin/bin/../../lib/gcc/pic32mx/8.3.1/../../../../pic32mx/lib/fpu64\libpic32.a(pic32_data_init_wrapper.o)
                0x000000009d0130b8                __pic32_data_init

.rodata.cst8    0x000000009d0130d8       0x20
 .rodata.cst8   0x000000009d0130d8       0x20 c:/program files/microchip/xc32/v4.20/bin/bin/../../lib/gcc/pic32mx/8.3.1/../../../../pic32mx/lib/fpu64\libc-musl.a(__fmt_fp.o)

.text.__init_stdout
                0x000000009d0130f8       0x20
 .text.__init_stdout
                0x000000009d0130f8       0x20 c:/program files/microchip/xc32/v4.20/bin/bin/../../lib/gcc/pic32mx/8.3.1/../../../../pic32mx/lib/fpu64\libc-musl.a(stdout.o)
                0x000000009d0130f8                __init_stdout

.text.__fwrite_min
                0x000000009d013118       0x20
 .text.__fwrite_min
                0x000000009d013118       0x20 c:/program files/microchip/xc32/v4.20/bin/bin/../../lib/gcc/pic32mx/8.3.1/../../../../pic32mx/lib/fpu64\libc-musl.a(__out.o)
                0x000000009d013118                __stdio_write
                0x000000009d013118                __stdio_write_unbuffered
                0x000000009d013118                __fwrite

.text.stpcpy    0x000000009d013138       0x20
 .text.stpcpy   0x000000009d013138       0x20 c:/program files/microchip/xc32/v4.20/bin/bin/../../lib/gcc/pic32mx/8.3.1/../../../../pic32mx/lib/fpu64\libc-musl.a(stpcpy.o)
                0x000000009d013138                __stpcpy
                0x000000009d013138                stpcpy

.rodata.cst8    0x000000009d013158       0x20
 .rodata.cst8   0x000000009d013158       0x20 c:/program files/microchip/xc32/v4.20/bin/bin/../../lib/gcc/pic32mx/8.3.1/../../../../pic32mx/lib/fpu64\libm-musl.a(fma.o)

.text.__sio_printf_s
                0x000000009d013178       0x1c
 .text.__sio_printf_s
                0x000000009d013178       0x1c c:/program files/microchip/xc32/v4.20/bin/bin/../../lib/gcc/pic32mx/8.3.1/../../../../pic32mx/lib/fpu64\libc-musl.a(__sio_printf_s.o)
                0x000000009d013178                __sio_printf_s

.text.__sio_sprintf_s
                0x000000009d013194       0x1c
 .text.__sio_sprintf_s
                0x000000009d013194       0x1c c:/program files/microchip/xc32/v4.20/bin/bin/../../lib/gcc/pic32mx/8.3.1/../../../../pic32mx/lib/fpu64\libc-musl.a(__sio_sprintf_s.o)
                0x000000009d013194                __sio_sprintf_s

.text.tolower   0x000000009d0131b0       0x1c
 .text.tolower  0x000000009d0131b0       0x1c c:/program files/microchip/xc32/v4.20/bin/bin/../../lib/gcc/pic32mx/8.3.1/../../../../pic32mx/lib/fpu64\libc-musl.a(tolower.o)
                0x000000009d0131b0                tolower

.text.__tolower_l
                0x000000009d0131cc       0x1c
 .text.__tolower_l
                0x000000009d0131cc       0x1c c:/program files/microchip/xc32/v4.20/bin/bin/../../lib/gcc/pic32mx/8.3.1/../../../../pic32mx/lib/fpu64\libc-musl.a(tolower.o)
                0x000000009d0131cc                tolower_l
                0x000000009d0131cc                __tolower_l

.text.toupper   0x000000009d0131e8       0x1c
 .text.toupper  0x000000009d0131e8       0x1c c:/program files/microchip/xc32/v4.20/bin/bin/../../lib/gcc/pic32mx/8.3.1/../../../../pic32mx/lib/fpu64\libc-musl.a(toupper.o)
                0x000000009d0131e8                toupper

.text.__toupper_l
                0x000000009d013204       0x1c
 .text.__toupper_l
                0x000000009d013204       0x1c c:/program files/microchip/xc32/v4.20/bin/bin/../../lib/gcc/pic32mx/8.3.1/../../../../pic32mx/lib/fpu64\libc-musl.a(toupper.o)
                0x000000009d013204                __toupper_l
                0x000000009d013204                toupper_l

.text.__fopen   0x000000009d013220       0x1c
 .text.__fopen  0x000000009d013220       0x1c c:/program files/microchip/xc32/v4.20/bin/bin/../../lib/gcc/pic32mx/8.3.1/../../../../pic32mx/lib/fpu64\libc-musl.a(__fopen.o)
                0x000000009d013220                __fopen
                0x000000009d013220                __fopen_needed

.MIPS.abiflags  0x000000009d000168       0x18
 .MIPS.abiflags
                0x000000009d000168       0x18 c:/program files/microchip/xc32/v4.20/bin/bin/../../lib/gcc/pic32mx/8.3.1/../../../../pic32mx/lib/fpu64\debug-exception-return.o

.text           0x000000009d01323c       0x18
 .text          0x000000009d01323c       0x18 c:/program files/microchip/xc32/v4.20/bin/bin/../../lib/gcc/pic32mx/8.3.1/../../../../pic32mx/lib/fpu64\libpic32.a(default-nmi-handler.o)
                0x000000009d01323c                _nmi_handler

.rodata         0x000000009d013254       0x18
 .rodata        0x000000009d013254       0x18 c:/program files/microchip/xc32/v4.20/bin/bin/../../lib/gcc/pic32mx/8.3.1/../../../../pic32mx/lib/fpu64\libc-musl.a(__printf_core.o)

.rodata.cst8    0x000000009d013270       0x18
 .rodata.cst8   0x000000009d013270       0x18 c:/program files/microchip/xc32/v4.20/bin/bin/../../lib/gcc/pic32mx/8.3.1/../../../../pic32mx/lib/fpu64\libm-musl.a(floor.o)

.rodata         0x000000009d013288       0x10
 .rodata        0x000000009d013288       0x10 build/nsensor/production/_ext/1965004555/plib_canfd1.o

.rodata.cst8    0x000000009d013298       0x20
 .rodata.cst8   0x000000009d013298       0x10 build/nsensor/production/_ext/1360937237/main.o
 .rodata.cst8   0x000000009d0132a8       0x10 build/nsensor/production/_ext/1360937237/host.o

.rodata.str1.4  0x000000009d0132b8       0x20
 .rodata.str1.4
                0x000000009d0132b8       0x10 build/nsensor/production/_ext/1360937237/cmd_scanner.o
 .rodata.str1.4
                0x000000009d0132c8       0x10 c:/program files/microchip/xc32/v4.20/bin/bin/../../lib/gcc/pic32mx/8.3.1/../../../../pic32mx/lib/fpu64\libc-musl.a(__fmt_fp.o)

.rodata.str1.4  0x000000009d0132d8       0x10
 .rodata.str1.4
                0x000000009d0132d8       0x10 c:/program files/microchip/xc32/v4.20/bin/bin/../../lib/gcc/pic32mx/8.3.1/../../../../pic32mx/lib/fpu64\libc-musl.a(__fmt_a.o)

.rodata.cst8    0x000000009d0132e8       0x20
 .rodata.cst8   0x000000009d0132e8       0x10 c:/program files/microchip/xc32/v4.20/bin/bin/../../lib/gcc/pic32mx/8.3.1/../../../../pic32mx/lib/fpu64\libm-musl.a(cos.o)
 .rodata.cst8   0x000000009d0132f8       0x10 c:/program files/microchip/xc32/v4.20/bin/bin/../../lib/gcc/pic32mx/8.3.1/../../../../pic32mx/lib/fpu64\libm-musl.a(scalbn.o)

.rodata.cst8    0x000000009d013308       0x10
 .rodata.cst8   0x000000009d013308       0x10 c:/program files/microchip/xc32/v4.20/bin/bin/../../lib/gcc/pic32mx/8.3.1/../../../../pic32mx/lib/fpu64\libm-musl.a(sin.o)

.rodata.str1.4  0x000000009d013318        0x8
 .rodata.str1.4
                0x000000009d013318        0x8 build/nsensor/production/_ext/1360937237/canfd.o

.text._on_reset
                0x000000009d013320        0x8
 .text._on_reset
                0x000000009d013320        0x8 c:/program files/microchip/xc32/v4.20/bin/bin/../../lib/gcc/pic32mx/8.3.1/../../../../pic32mx/lib/fpu64\libpic32.a(default-on-reset.o)
                0x000000009d013320                _on_reset

.text._on_bootstrap
                0x000000009d013328        0x8
 .text._on_bootstrap
                0x000000009d013328        0x8 c:/program files/microchip/xc32/v4.20/bin/bin/../../lib/gcc/pic32mx/8.3.1/../../../../pic32mx/lib/fpu64\libpic32.a(default-on-bootstrap.o)
                0x000000009d013328                _on_bootstrap

.text.__dummy_fmt3
                0x000000009d013330        0x8
 .text.__dummy_fmt3
                0x000000009d013330        0x8 c:/program files/microchip/xc32/v4.20/bin/bin/../../lib/gcc/pic32mx/8.3.1/../../../../pic32mx/lib/fpu64\libc-musl.a(__printf_core.o)

.text.__dummy_fmt4
                0x000000009d013338        0x8
 .text.__dummy_fmt4
                0x000000009d013338        0x8 c:/program files/microchip/xc32/v4.20/bin/bin/../../lib/gcc/pic32mx/8.3.1/../../../../pic32mx/lib/fpu64\libc-musl.a(__printf_core.o)

.text.__dummy_fmts
                0x000000009d013340        0x8
 .text.__dummy_fmts
                0x000000009d013340        0x8 c:/program files/microchip/xc32/v4.20/bin/bin/../../lib/gcc/pic32mx/8.3.1/../../../../pic32mx/lib/fpu64\libc-musl.a(__printf_core.o)

.rodata.str1.4  0x000000009d013348        0x8
 .rodata.str1.4
                0x000000009d013348        0x8 c:/program files/microchip/xc32/v4.20/bin/bin/../../lib/gcc/pic32mx/8.3.1/../../../../pic32mx/lib/fpu64\libc-musl.a(__printf_core.o)

.text.__dummy   0x000000009d013350       0x10
 .text.__dummy  0x000000009d013350        0x8 c:/program files/microchip/xc32/v4.20/bin/bin/../../lib/gcc/pic32mx/8.3.1/../../../../pic32mx/lib/fpu64\libc-musl.a(__fopen.o)
                0x000000009d013350                __stdio_seek
 .text.__dummy  0x000000009d013358        0x8 c:/program files/microchip/xc32/v4.20/bin/bin/../../lib/gcc/pic32mx/8.3.1/../../../../pic32mx/lib/fpu64\libc-musl.a(__init_stdio.o)
                0x000000009d013358                __init_stdin
                0x000000009d013358                __init_stderr

.text.getpagesize
                0x000000009d013360        0x8
 .text.getpagesize
                0x000000009d013360        0x8 c:/program files/microchip/xc32/v4.20/bin/bin/../../lib/gcc/pic32mx/8.3.1/../../../../pic32mx/lib/fpu64\libpic32.a(sbrk.o)
                0x000000009d013360                getpagesize

.text.lseek     0x000000009d013368        0x8
 .text.lseek    0x000000009d013368        0x8 c:/program files/microchip/xc32/v4.20/bin/bin/../../lib/gcc/pic32mx/8.3.1/../../../../pic32mx/lib/fpu64\libpic32.a(lseek.o)
                0x000000009d013368                lseek

.text.close     0x000000009d013370        0x8
 .text.close    0x000000009d013370        0x8 c:/program files/microchip/xc32/v4.20/bin/bin/../../lib/gcc/pic32mx/8.3.1/../../../../pic32mx/lib/fpu64\libpic32.a(close.o)
                0x000000009d013370                close

.rodata         0x000000009d0122bc        0x4
 .rodata        0x000000009d0122bc        0x4 build/nsensor/production/_ext/1360937237/main.o
                0x000000009d0122bc                update_delay

.text%z208      0x0000000000000000        0x0
 .text          0x0000000000000000        0x0 c:/program files/microchip/xc32/v4.20/bin/bin/../../lib/gcc/pic32mx/8.3.1/../../../../pic32mx/lib/fpu64\libpic32.a(errno.o)

.text%z209      0x0000000000000000        0x0
 .text          0x0000000000000000        0x0 c:/program files/microchip/xc32/v4.20/bin/bin/../../lib/gcc/pic32mx/8.3.1/../../../../pic32mx/lib/fpu64\libpic32.a(close.o)

.text%z210      0x0000000000000000        0x0
 .text          0x0000000000000000        0x0 c:/program files/microchip/xc32/v4.20/bin/bin/../../lib/gcc/pic32mx/8.3.1/../../../../pic32mx/lib/fpu64\libpic32.a(lseek.o)

.text%z211      0x0000000000000000        0x0
 .text          0x0000000000000000        0x0 c:/program files/microchip/xc32/v4.20/bin/bin/../../lib/gcc/pic32mx/8.3.1/../../../../pic32mx/lib/fpu64\libpic32.a(sbrk.o)

.text%z212      0x0000000000000000        0x0
 .text          0x0000000000000000        0x0 c:/program files/microchip/xc32/v4.20/bin/bin/../../lib/gcc/pic32mx/8.3.1/../../../../pic32mx/lib/fpu64\libm-musl.a(__sin.o)

.text%z213      0x0000000000000000        0x0
 .text          0x0000000000000000        0x0 c:/program files/microchip/xc32/v4.20/bin/bin/../../lib/gcc/pic32mx/8.3.1/../../../../pic32mx/lib/fpu64\libm-musl.a(__rem_pio2_large.o)

.text%z214      0x0000000000000000        0x0
 .text          0x0000000000000000        0x0 c:/program files/microchip/xc32/v4.20/bin/bin/../../lib/gcc/pic32mx/8.3.1/../../../../pic32mx/lib/fpu64\libm-musl.a(__rem_pio2.o)

.text%z215      0x0000000000000000        0x0
 .text          0x0000000000000000        0x0 c:/program files/microchip/xc32/v4.20/bin/bin/../../lib/gcc/pic32mx/8.3.1/../../../../pic32mx/lib/fpu64\libm-musl.a(__cos.o)

.text%z216      0x0000000000000000        0x0
 .text          0x0000000000000000        0x0 c:/program files/microchip/xc32/v4.20/bin/bin/../../lib/gcc/pic32mx/8.3.1/../../../../pic32mx/lib/fpu64\libm-musl.a(sin.o)

.text%z217      0x0000000000000000        0x0
 .text          0x0000000000000000        0x0 c:/program files/microchip/xc32/v4.20/bin/bin/../../lib/gcc/pic32mx/8.3.1/../../../../pic32mx/lib/fpu64\libm-musl.a(scalbn.o)

.text%z218      0x0000000000000000        0x0
 .text          0x0000000000000000        0x0 c:/program files/microchip/xc32/v4.20/bin/bin/../../lib/gcc/pic32mx/8.3.1/../../../../pic32mx/lib/fpu64\libm-musl.a(fma.o)

.text%z219      0x0000000000000000        0x0
 .text          0x0000000000000000        0x0 c:/program files/microchip/xc32/v4.20/bin/bin/../../lib/gcc/pic32mx/8.3.1/../../../../pic32mx/lib/fpu64\libm-musl.a(floor.o)

.text%z220      0x0000000000000000        0x0
 .text          0x0000000000000000        0x0 c:/program files/microchip/xc32/v4.20/bin/bin/../../lib/gcc/pic32mx/8.3.1/../../../../pic32mx/lib/fpu64\libm-musl.a(cos.o)

.text%z221      0x0000000000000000        0x0
 .text          0x0000000000000000        0x0 c:/program files/microchip/xc32/v4.20/bin/bin/../../lib/gcc/pic32mx/8.3.1/../../../../pic32mx/lib/fpu64\libc-musl.a(__fmt_a.o)

.text%z222      0x0000000000000000        0x0
 .text          0x0000000000000000        0x0 c:/program files/microchip/xc32/v4.20/bin/bin/../../lib/gcc/pic32mx/8.3.1/../../../../pic32mx/lib/fpu64\libc-musl.a(libc.o)

.text%z223      0x0000000000000000        0x0
 .text          0x0000000000000000        0x0 c:/program files/microchip/xc32/v4.20/bin/bin/../../lib/gcc/pic32mx/8.3.1/../../../../pic32mx/lib/fpu64\libc-musl.a(__io_fmt_needed.o)

.text%z224      0x0000000000000000        0x0
 .text          0x0000000000000000        0x0 c:/program files/microchip/xc32/v4.20/bin/bin/../../lib/gcc/pic32mx/8.3.1/../../../../pic32mx/lib/fpu64\libc-musl.a(__io_file_needed.o)

.text%z225      0x0000000000000000        0x0
 .text          0x0000000000000000        0x0 c:/program files/microchip/xc32/v4.20/bin/bin/../../lib/gcc/pic32mx/8.3.1/../../../../pic32mx/lib/fpu64\libc-musl.a(__init_stdio.o)

.text%z226      0x0000000000000000        0x0
 .text          0x0000000000000000        0x0 c:/program files/microchip/xc32/v4.20/bin/bin/../../lib/gcc/pic32mx/8.3.1/../../../../pic32mx/lib/fpu64\libc-musl.a(__int_vsnprintf.o)

.text%z227      0x0000000000000000        0x0
 .text          0x0000000000000000        0x0 c:/program files/microchip/xc32/v4.20/bin/bin/../../lib/gcc/pic32mx/8.3.1/../../../../pic32mx/lib/fpu64\libc-musl.a(expand_heap.o)

.text%z228      0x0000000000000000        0x0
 .text          0x0000000000000000        0x0 c:/program files/microchip/xc32/v4.20/bin/bin/../../lib/gcc/pic32mx/8.3.1/../../../../pic32mx/lib/fpu64\libc-musl.a(malloc.o)

.text%z229      0x0000000000000000        0x0
 .text          0x0000000000000000        0x0 c:/program files/microchip/xc32/v4.20/bin/bin/../../lib/gcc/pic32mx/8.3.1/../../../../pic32mx/lib/fpu64\libc-musl.a(stpcpy.o)

.text%z230      0x0000000000000000        0x0
 .text          0x0000000000000000        0x0 c:/program files/microchip/xc32/v4.20/bin/bin/../../lib/gcc/pic32mx/8.3.1/../../../../pic32mx/lib/fpu64\libc-musl.a(vfprintf.o)

.text%z231      0x0000000000000000        0x0
 .text          0x0000000000000000        0x0 c:/program files/microchip/xc32/v4.20/bin/bin/../../lib/gcc/pic32mx/8.3.1/../../../../pic32mx/lib/fpu64\libc-musl.a(__stdio_close.o)

.text%z232      0x0000000000000000        0x0
 .text          0x0000000000000000        0x0 c:/program files/microchip/xc32/v4.20/bin/bin/../../lib/gcc/pic32mx/8.3.1/../../../../pic32mx/lib/fpu64\libc-musl.a(__out.o)

.text%z233      0x0000000000000000        0x0
 .text          0x0000000000000000        0x0 c:/program files/microchip/xc32/v4.20/bin/bin/../../lib/gcc/pic32mx/8.3.1/../../../../pic32mx/lib/fpu64\libc-musl.a(__io_init_needed.o)

.text%z234      0x0000000000000000        0x0
 .text          0x0000000000000000        0x0 c:/program files/microchip/xc32/v4.20/bin/bin/../../lib/gcc/pic32mx/8.3.1/../../../../pic32mx/lib/fpu64\libc-musl.a(__fopen.o)

.text%z235      0x0000000000000000        0x0
 .text          0x0000000000000000        0x0 c:/program files/microchip/xc32/v4.20/bin/bin/../../lib/gcc/pic32mx/8.3.1/../../../../pic32mx/lib/fpu64\libc-musl.a(__int_vsprintf.o)

.text%z236      0x0000000000000000        0x0
 .text          0x0000000000000000        0x0 c:/program files/microchip/xc32/v4.20/bin/bin/../../lib/gcc/pic32mx/8.3.1/../../../../pic32mx/lib/fpu64\libc-musl.a(__int_vfprintf.o)

.text%z237      0x0000000000000000        0x0
 .text          0x0000000000000000        0x0 c:/program files/microchip/xc32/v4.20/bin/bin/../../lib/gcc/pic32mx/8.3.1/../../../../pic32mx/lib/fpu64\libc-musl.a(toupper.o)

.text%z238      0x0000000000000000        0x0
 .text          0x0000000000000000        0x0 c:/program files/microchip/xc32/v4.20/bin/bin/../../lib/gcc/pic32mx/8.3.1/../../../../pic32mx/lib/fpu64\libc-musl.a(tolower.o)

.text%z239      0x0000000000000000        0x0
 .text          0x0000000000000000        0x0 c:/program files/microchip/xc32/v4.20/bin/bin/../../lib/gcc/pic32mx/8.3.1/../../../../pic32mx/lib/fpu64\libc-musl.a(strncmp.o)

.text%z240      0x0000000000000000        0x0
 .text          0x0000000000000000        0x0 c:/program files/microchip/xc32/v4.20/bin/bin/../../lib/gcc/pic32mx/8.3.1/../../../../pic32mx/lib/fpu64\libc-musl.a(strcpy.o)

.text%z241      0x0000000000000000        0x0
 .text          0x0000000000000000        0x0 c:/program files/microchip/xc32/v4.20/bin/bin/../../lib/gcc/pic32mx/8.3.1/../../../../pic32mx/lib/fpu64\libc-musl.a(memcpy.o)

.text%z242      0x0000000000000000        0x0
 .text          0x0000000000000000        0x0 c:/program files/microchip/xc32/v4.20/bin/bin/../../lib/gcc/pic32mx/8.3.1/../../../../pic32mx/lib/fpu64\libc-musl.a(atoi.o)

.text%z243      0x0000000000000000        0x0
 .text          0x0000000000000000        0x0 c:/program files/microchip/xc32/v4.20/bin/bin/../../lib/gcc/pic32mx/8.3.1/../../../../pic32mx/lib/fpu64\libc-musl.a(vprintf.o)

.text%z244      0x0000000000000000        0x0
 .text          0x0000000000000000        0x0 c:/program files/microchip/xc32/v4.20/bin/bin/../../lib/gcc/pic32mx/8.3.1/../../../../pic32mx/lib/fpu64\libc-musl.a(stdout.o)

.text%z245      0x0000000000000000        0x0
 .text          0x0000000000000000        0x0 c:/program files/microchip/xc32/v4.20/bin/bin/../../lib/gcc/pic32mx/8.3.1/../../../../pic32mx/lib/fpu64\libc-musl.a(__printf_core.o)

.text%z246      0x0000000000000000        0x0
 .text          0x0000000000000000        0x0 c:/program files/microchip/xc32/v4.20/bin/bin/../../lib/gcc/pic32mx/8.3.1/../../../../pic32mx/lib/fpu64\libc-musl.a(__pop_ptr.o)

.text%z247      0x0000000000000000        0x0
 .text          0x0000000000000000        0x0 c:/program files/microchip/xc32/v4.20/bin/bin/../../lib/gcc/pic32mx/8.3.1/../../../../pic32mx/lib/fpu64\libc-musl.a(__pop_int.o)

.text%z248      0x0000000000000000        0x0
 .text          0x0000000000000000        0x0 c:/program files/microchip/xc32/v4.20/bin/bin/../../lib/gcc/pic32mx/8.3.1/../../../../pic32mx/lib/fpu64\libc-musl.a(__pop_float.o)

.text%z249      0x0000000000000000        0x0
 .text          0x0000000000000000        0x0 c:/program files/microchip/xc32/v4.20/bin/bin/../../lib/gcc/pic32mx/8.3.1/../../../../pic32mx/lib/fpu64\libc-musl.a(__fmt_x.o)

.text%z250      0x0000000000000000        0x0
 .text          0x0000000000000000        0x0 c:/program files/microchip/xc32/v4.20/bin/bin/../../lib/gcc/pic32mx/8.3.1/../../../../pic32mx/lib/fpu64\libc-musl.a(__fmt_u.o)

.text%z251      0x0000000000000000        0x0
 .text          0x0000000000000000        0x0 c:/program files/microchip/xc32/v4.20/bin/bin/../../lib/gcc/pic32mx/8.3.1/../../../../pic32mx/lib/fpu64\libc-musl.a(__fmt_s.o)

.text%z252      0x0000000000000000        0x0
 .text          0x0000000000000000        0x0 c:/program files/microchip/xc32/v4.20/bin/bin/../../lib/gcc/pic32mx/8.3.1/../../../../pic32mx/lib/fpu64\libc-musl.a(__fmt_o.o)

.text%z253      0x0000000000000000        0x0
 .text          0x0000000000000000        0x0 c:/program files/microchip/xc32/v4.20/bin/bin/../../lib/gcc/pic32mx/8.3.1/../../../../pic32mx/lib/fpu64\libc-musl.a(__fmt_fp.o)

.text%z254      0x0000000000000000        0x0
 .text          0x0000000000000000        0x0 c:/program files/microchip/xc32/v4.20/bin/bin/../../lib/gcc/pic32mx/8.3.1/../../../../pic32mx/lib/fpu64\libc-musl.a(__fmt_d.o)

.text%z255      0x0000000000000000        0x0
 .text          0x0000000000000000        0x0 c:/program files/microchip/xc32/v4.20/bin/bin/../../lib/gcc/pic32mx/8.3.1/../../../../pic32mx/lib/fpu64\libc-musl.a(__sio_sprintf_s.o)

.text%z256      0x0000000000000000        0x0
 .text          0x0000000000000000        0x0 c:/program files/microchip/xc32/v4.20/bin/bin/../../lib/gcc/pic32mx/8.3.1/../../../../pic32mx/lib/fpu64\libc-musl.a(__sio_sprintf_doux.o)

.text%z257      0x0000000000000000        0x0
 .text          0x0000000000000000        0x0 c:/program files/microchip/xc32/v4.20/bin/bin/../../lib/gcc/pic32mx/8.3.1/../../../../pic32mx/lib/fpu64\libc-musl.a(__sio_sprintf_dosux.o)

.text%z258      0x0000000000000000        0x0
 .text          0x0000000000000000        0x0 c:/program files/microchip/xc32/v4.20/bin/bin/../../lib/gcc/pic32mx/8.3.1/../../../../pic32mx/lib/fpu64\libc-musl.a(__sio_sprintf_dfosux.o)

.text%z259      0x0000000000000000        0x0
 .text          0x0000000000000000        0x0 c:/program files/microchip/xc32/v4.20/bin/bin/../../lib/gcc/pic32mx/8.3.1/../../../../pic32mx/lib/fpu64\libc-musl.a(__sio_printf_s.o)

.text%z260      0x0000000000000000        0x0
 .text          0x0000000000000000        0x0 c:/program files/microchip/xc32/v4.20/bin/bin/../../lib/gcc/pic32mx/8.3.1/../../../../pic32mx/lib/fpu64\libpic32.a(defaultinterrupt.o)

.text%z261      0x0000000000000000        0x0
 .text          0x0000000000000000        0x0 c:/program files/microchip/xc32/v4.20/bin/bin/../../lib/gcc/pic32mx/8.3.1/../../../../pic32mx/lib/fpu64\libpic32.a(general-exception.o)

.text%z262      0x0000000000000000        0x0
 .text          0x0000000000000000        0x0 c:/program files/microchip/xc32/v4.20/bin/bin/../../lib/gcc/pic32mx/8.3.1/../../../../pic32mx/lib/fpu64\libpic32.a(pic32_data_init_0_1.o)

.text%z263      0x0000000000000000        0x0
 .text          0x0000000000000000        0x0 c:/program files/microchip/xc32/v4.20/bin/bin/../../lib/gcc/pic32mx/8.3.1/../../../../pic32mx/lib/fpu64\libpic32.a(pic32_data_init_wrapper.o)

.text%z264      0x0000000000000000        0x0
 .text          0x0000000000000000        0x0 c:/program files/microchip/xc32/v4.20/bin/bin/../../lib/gcc/pic32mx/8.3.1/../../../../pic32mx/lib/fpu64\libpic32.a(default-on-bootstrap.o)

.text%z265      0x0000000000000000        0x0
 .text          0x0000000000000000        0x0 c:/program files/microchip/xc32/v4.20/bin/bin/../../lib/gcc/pic32mx/8.3.1/../../../../pic32mx/lib/fpu64\libpic32.a(default-on-reset.o)

.text%z266      0x0000000000000000        0x0
 .text          0x0000000000000000        0x0 C:\Users\nsasp\AppData\Local\Temp\ccPPgLE5.o

.text%z267      0x0000000000000000        0x0
 .text          0x0000000000000000        0x0 C:\Users\nsasp\AppData\Local\Temp\ccysgyWv.o

.text%z268      0x0000000000000000        0x0
 .text          0x0000000000000000        0x0 C:\Users\nsasp\AppData\Local\Temp\ccN9JJDZ.o

.text%z269      0x0000000000000000        0x0
 .text          0x0000000000000000        0x0 C:\Users\nsasp\AppData\Local\Temp\cc26TO6z.o

.text%z270      0x0000000000000000        0x0
 .text          0x0000000000000000        0x0 build/nsensor/production/_ext/1684788505/foo.o

.text%z271      0x0000000000000000        0x0
 .text          0x0000000000000000        0x0 build/nsensor/production/_ext/1684788505/FillPat.o

.text%z272      0x0000000000000000        0x0
 .text          0x0000000000000000        0x0 build/nsensor/production/_ext/1684788505/ChrFont0.o

.text%z273      0x0000000000000000        0x0
 .text          0x0000000000000000        0x0 c:/program files/microchip/xc32/v4.20/bin/bin/../../lib/gcc/pic32mx/8.3.1/../../../../pic32mx/lib/fpu64\debug-exception-return.o
