

Microchip MPLAB XC8 Assembler V2.36 build 20220127204148 
                                                                                               Fri Oct 14 07:31:40 2022

Microchip MPLAB XC8 C Compiler v2.36 (Free license) build 20220127204148 Og1 
     1                           	processor	18F47Q84
     2                           	fnconf	rparam,??,?,0
     3                           	pagewidth 120
     4                           	opt	flic
     5                           	psect	idataCOMRAM,global,class=CODE,delta=1,noexec
     6                           	psect	smallconst,global,reloc=2,class=SMALLCONST,delta=1,noexec
     7                           	psect	cinit,global,reloc=2,class=CODE,delta=1
     8                           	psect	bssCOMRAM,global,class=COMRAM,space=1,delta=1,lowdata,noexec
     9                           	psect	dataCOMRAM,global,class=COMRAM,space=1,delta=1,lowdata,noexec
    10                           	psect	cstackBANK5,global,class=BANK5,space=1,delta=1,lowdata,noexec
    11                           	psect	cstackCOMRAM,global,class=COMRAM,space=1,delta=1,lowdata,noexec
    12                           	psect	text0,global,reloc=2,class=CODE,delta=1
    13                           	psect	text1,global,reloc=2,class=CODE,delta=1
    14                           	psect	text2,global,reloc=2,class=CODE,delta=1
    15                           	psect	text3,global,reloc=2,class=CODE,delta=1
    16                           	psect	text4,global,reloc=2,class=CODE,delta=1
    17                           	psect	text5,global,reloc=2,class=CODE,delta=1
    18                           	psect	text6,global,reloc=2,class=CODE,delta=1
    19                           	psect	text7,global,reloc=2,class=CODE,delta=1
    20                           	psect	text8,global,reloc=2,class=CODE,delta=1
    21                           	psect	text9,global,reloc=2,class=CODE,delta=1
    22                           	psect	text10,global,reloc=2,class=CODE,delta=1
    23                           	psect	text11,global,reloc=2,class=CODE,delta=1
    24                           	psect	text12,global,reloc=2,class=CODE,delta=1
    25                           	psect	text13,global,reloc=2,class=CODE,delta=1
    26                           	psect	text14,global,reloc=2,class=CODE,delta=1
    27                           	psect	text15,global,reloc=2,class=CODE,delta=1
    28                           	psect	text16,global,reloc=2,class=CODE,delta=1
    29                           	psect	text17,global,reloc=2,class=CODE,delta=1
    30                           	psect	text18,global,reloc=2,class=CODE,delta=1
    31                           	psect	text19,global,reloc=2,class=CODE,delta=1
    32                           	psect	text20,global,reloc=2,class=CODE,delta=1
    33                           	psect	text21,global,reloc=2,class=CODE,delta=1
    34                           	psect	text22,global,reloc=4,class=CODE,delta=1
    35                           	psect	text23,global,reloc=2,class=CODE,delta=1
    36                           	psect	text24,global,reloc=2,class=CODE,delta=1
    37                           	psect	text25,global,reloc=2,class=CODE,delta=1
    38                           	psect	text26,global,reloc=2,class=CODE,delta=1
    39                           	psect	text27,global,reloc=2,class=CODE,delta=1
    40                           	psect	text28,global,reloc=2,class=CODE,delta=1
    41                           	psect	text29,global,reloc=2,class=CODE,delta=1
    42                           	psect	text30,global,reloc=4,class=CODE,delta=1
    43                           	psect	ivt0x8,global,reloc=2,class=CODE,delta=1,noexec,keep,optim=
    44                           	psect	intsave_regs,global,class=BIGRAM,space=1,delta=1,noexec
    45                           	psect	text31,global,reloc=4,class=CODE,delta=1
    46                           	psect	rparam,global,class=COMRAM,space=1,delta=1,noexec
    47                           	psect	idloc,global,abs,ovrld,class=IDLOC,space=5,delta=1,noexec
    48                           	psect	config,global,abs,ovrld,class=CONFIG,space=4,delta=1,noexec
    49  0000                     
    50                           ; Generated 17/06/2022 GMT
    51                           ; 
    52                           ; Copyright © 2022, Microchip Technology Inc. and its subsidiaries ("Microchip")
    53                           ; All rights reserved.
    54                           ; 
    55                           ; This software is developed by Microchip Technology Inc. and its subsidiaries ("Microch
      +                          ip").
    56                           ; 
    57                           ; Redistribution and use in source and binary forms, with or without modification, are
    58                           ; permitted provided that the following conditions are met:
    59                           ; 
    60                           ;     1. Redistributions of source code must retain the above copyright notice, this lis
      +                          t of
    61                           ;        conditions and the following disclaimer.
    62                           ; 
    63                           ;     2. Redistributions in binary form must reproduce the above copyright notice, this 
      +                          list
    64                           ;        of conditions and the following disclaimer in the documentation and/or other
    65                           ;        materials provided with the distribution. Publication is not required when
    66                           ;        this file is used in an embedded application.
    67                           ; 
    68                           ;     3. Microchip's name may not be used to endorse or promote products derived from th
      +                          is
    69                           ;        software without specific prior written permission.
    70                           ; 
    71                           ; THIS SOFTWARE IS PROVIDED BY MICROCHIP "AS IS" AND ANY EXPRESS OR IMPLIED WARRANTIES,
    72                           ; INCLUDING, BUT NOT LIMITED TO, THE IMPLIED WARRANTIES OF MERCHANTABILITY AND FITNESS F
      +                          OR
    73                           ; PURPOSE ARE DISCLAIMED.  IN NO EVENT SHALL MICROCHIP BE LIABLE FOR ANY DIRECT, INDIREC
      +                          T,
    74                           ; INCIDENTAL, SPECIAL, EXEMPLARY, OR CONSEQUENTIAL DAMAGES (INCLUDING BUT NOT LIMITED TO
    75                           ; PROCUREMENT OF SUBSTITUTE GOODS OR SERVICES; LOSS OF USE, DATA OR PROFITS; OR BUSINESS
    76                           ; INTERRUPTION) HOWSOEVER CAUSED AND ON ANY THEORY OF LIABILITY, WHETHER IN CONTRACT, ST
      +                          RICT
    77                           ; LIABILITY, OR TORT (INCLUDING NEGLIGENCE OR OTHERWISE) ARISING IN ANY WAY OUT OF THE U
      +                          SE OF
    78                           ; THIS SOFTWARE, EVEN IF ADVISED OF THE POSSIBILITY OF SUCH DAMAGE.
    79                           ; 
    80                           ; 
    81                           ; Code-generator required, PIC18F47Q84 Definitions
    82                           ; 
    83                           ; SFR Addresses
    84  0000                     
    85                           	psect	idataCOMRAM
    86  003CA4                     __pidataCOMRAM:
    87                           	callstack 0
    88                           
    89                           ;initializer for _rxFifos
    90  003CA4  02                 	db	2
    91  003CA5  00                 	db	0
    92  003CA6  03                 	db	3
    93  003CA7  00                 	db	0
    94                           
    95                           	psect	smallconst
    96  003700                     __psmallconst:
    97                           	callstack 0
    98  003700  00                 	db	0
    99  003701                     _DLC_BYTES:
   100                           	callstack 0
   101  003701  00                 	db	0
   102  003702  01                 	db	1
   103  003703  02                 	db	2
   104  003704  03                 	db	3
   105  003705  04                 	db	4
   106  003706  05                 	db	5
   107  003707  06                 	db	6
   108  003708  07                 	db	7
   109  003709  08                 	db	8
   110  00370A  0C                 	db	12
   111  00370B  10                 	db	16
   112  00370C  14                 	db	20
   113  00370D  18                 	db	24
   114  00370E  20                 	db	32
   115  00370F  30                 	db	48
   116  003710  40                 	db	64
   117  003711                     __end_of_DLC_BYTES:
   118                           	callstack 0
   119  003711  50                 	db	80
   120  003712  01                 	db	1
   121  003713                     __end_of_FIFO:
   122                           	callstack 0
   123  0000                     _OSCTUNE	set	176
   124  0000                     _OSCFRQ	set	177
   125  0000                     _OSCEN	set	179
   126  0000                     _TRISD	set	1225
   127  0000                     _TRISC	set	1224
   128  0000                     _TRISB	set	1223
   129  0000                     _LATC	set	1216
   130  0000                     _LATB	set	1215
   131  0000                     _C1CONTbits	set	259
   132  0000                     _C1CONU	set	258
   133  0000                     _PLLR	set	1424
   134  0000                     _C1INTLbits	set	284
   135  0000                     _C1INTTbits	set	287
   136  0000                     _C1CONUbits	set	258
   137  0000                     _C1INTHbits	set	285
   138  0000                     _C1CONH	set	257
   139  0000                     _IVTLOCKbits	set	1113
   140  0000                     _GIE	set	9911
   141  0000                     _PMD0	set	96
   142  0000                     _OSCCON1	set	173
   143  0000                     _C1CONL	set	256
   144  0000                     _C1CONHbits	set	257
   145  0000                     _C1NBTCFGL	set	260
   146  0000                     _C1TXQCONL	set	336
   147  0000                     _C1TXQSTALbits	set	340
   148  0000                     _C1FIFOCON1L	set	348
   149  0000                     _C1TXQCONT	set	339
   150  0000                     _C1TXQCONU	set	338
   151  0000                     _C1TXQCONH	set	337
   152  0000                     _C1FIFOCON2L	set	360
   153  0000                     _C1FIFOSTA2Lbits	set	364
   154  0000                     _C1FIFOCON3L	set	372
   155  0000                     _C1FIFOCON2T	set	363
   156  0000                     _C1FIFOCON2U	set	362
   157  0000                     _C1FIFOCON2H	set	361
   158  0000                     _RD1PPS	set	538
   159  0000                     _CANRXPPS	set	573
   160  0000                     _IPR0bits	set	866
   161  0000                     _IVTLOCK	set	1113
   162  0000                     _C1FIFOSTA3Lbits	set	376
   163  0000                     _PIE0bits	set	1182
   164  0000                     _PIR0bits	set	1198
   165  0000                     _C1FIFOCON3T	set	375
   166  0000                     _C1FIFOCON3U	set	374
   167  0000                     _C1FIFOCON3H	set	373
   168  0000                     _C1FIFOSTA1Lbits	set	352
   169  0000                     _C1FIFOCON1T	set	351
   170  0000                     _C1FIFOCON1U	set	350
   171  0000                     _C1FIFOCON1H	set	349
   172  0000                     _C1TDCH	set	269
   173  0000                     _C1DBTCFGT	set	267
   174  0000                     _C1DBTCFGU	set	266
   175  0000                     _C1DBTCFGH	set	265
   176  0000                     _C1DBTCFGL	set	264
   177  0000                     _C1NBTCFGT	set	263
   178  0000                     _C1NBTCFGU	set	262
   179  0000                     _C1NBTCFGH	set	261
   180  0000                     _C1INTL	set	284
   181  0000                     _C1TDCU	set	270
   182  0000                     _LATA	set	1214
   183  0000                     _LATD	set	1217
   184  0000                     _LATE	set	1218
   185  0000                     _INTCON0bits	set	1238
   186  0000                     _C1FIFOBA	set	332
   187  0000                     _C1TRECUbits	set	310
   188  0000                     _C1INTT	set	287
   189  0000                     _C1INTU	set	286
   190  0000                     _C1INTH	set	285
   191  0000                     _IVTBASEL	set	1117
   192  0000                     _IVTBASEH	set	1118
   193  0000                     _IVTBASEU	set	1119
   194  0000                     _ANSELA	set	1024
   195  0000                     _ANSELB	set	1032
   196  0000                     _ANSELC	set	1040
   197  0000                     _ANSELD	set	1048
   198  0000                     _TRISA	set	1222
   199  0000                     _TRISE	set	1226
   200  0000                     _INLVLD	set	1052
   201  0000                     _SLRCOND	set	1051
   202  0000                     _ODCOND	set	1050
   203  0000                     _WPUD	set	1049
   204  0000                     _ANSELE	set	1056
   205  0000                     _INLVLC	set	1044
   206  0000                     _SLRCONC	set	1043
   207  0000                     _ODCONC	set	1042
   208  0000                     _WPUC	set	1041
   209  0000                     _INLVLB	set	1036
   210  0000                     _SLRCONB	set	1035
   211  0000                     _ODCONB	set	1034
   212  0000                     _WPUB	set	1033
   213  0000                     _INLVLE	set	1060
   214  0000                     _SLRCONE	set	1059
   215  0000                     _ODCONE	set	1058
   216  0000                     _WPUE	set	1057
   217  0000                     _INLVLA	set	1028
   218  0000                     _SLRCONA	set	1027
   219  0000                     _ODCONA	set	1026
   220  0000                     _WPUA	set	1025
   221  0000                     _OSCCON3	set	175
   222  0000                     _PMD8	set	104
   223  0000                     _PMD7	set	103
   224  0000                     _PMD6	set	102
   225  0000                     _PMD5	set	101
   226  0000                     _PMD4	set	100
   227  0000                     _PMD3	set	99
   228  0000                     _PMD2	set	98
   229  0000                     _PMD1	set	97
   230  003713  00                 	db	0	; dummy byte at the end
   231  0000                     
   232                           ; #config settings
   233                           
   234                           	psect	cinit
   235  003AA6                     __pcinit:
   236                           	callstack 0
   237  003AA6                     start_initialization:
   238                           	callstack 0
   239  003AA6                     __initialization:
   240                           	callstack 0
   241                           
   242                           ; Initialize objects allocated to COMRAM (4 bytes)
   243                           ; load TBLPTR registers with __pidataCOMRAM
   244  003AA6  0EA4               	movlw	low __pidataCOMRAM
   245  003AA8  6EF6               	movwf	tblptrl,c
   246  003AAA  0E3C               	movlw	high __pidataCOMRAM
   247  003AAC  6EF7               	movwf	tblptrh,c
   248  003AAE  0E00               	movlw	low (__pidataCOMRAM shr (0+16))
   249  003AB0  6EF8               	movwf	tblptru,c
   250  003AB2  EE01  F156         	lfsr	0,__pdataCOMRAM
   251  003AB6  EE10 F004          	lfsr	1,4
   252  003ABA                     copy_data0:
   253  003ABA  0009               	tblrd		*+
   254  003ABC  C4F5 F4EE          	movff	tablat,postinc0
   255  003AC0  50E5               	movf	postdec1,w,c
   256  003AC2  50E1               	movf	fsr1l,w,c
   257  003AC4  E1FA               	bnz	copy_data0
   258                           
   259                           ; Clear objects allocated to COMRAM (85 bytes)
   260  003AC6  EE01  F101         	lfsr	0,__pbssCOMRAM
   261  003ACA  0E55               	movlw	85
   262  003ACC                     clear_0:
   263  003ACC  6AEE               	clrf	postinc0,c
   264  003ACE  06E8               	decf	wreg,f,c
   265  003AD0  E1FD               	bnz	clear_0
   266                           
   267                           ;
   268                           ; Setup IVTBASE
   269                           ;
   270  003AD2  0104               	movlb	4
   271  003AD4  0E08               	movlw	(ivt0x8_base shr 0)& (0+255)
   272  003AD6  6F5D               	movwf	93,b
   273  003AD8  0E00               	movlw	(ivt0x8_base shr (0+8))& (0+255)
   274  003ADA  6F5E               	movwf	94,b
   275  003ADC  0E00               	movlw	(ivt0x8_base shr (0+16))& (0+255)
   276  003ADE  6F5F               	movwf	95,b
   277  003AE0                     end_of_initialization:
   278                           	callstack 0
   279  003AE0                     __end_of__initialization:
   280                           	callstack 0
   281  003AE0  0100               	movlb	0
   282  003AE2  EF14  F01E         	goto	_main	;jump to C main() function
   283                           
   284                           	psect	bssCOMRAM
   285  000501                     __pbssCOMRAM:
   286                           	callstack 0
   287  000501                     _CAN1_RxBufferOverflowHandler:
   288                           	callstack 0
   289  000501                     	ds	3
   290  000504                     _CAN1_TxAttemptHandler:
   291                           	callstack 0
   292  000504                     	ds	3
   293  000507                     _CAN1_SystemErrorHandler:
   294                           	callstack 0
   295  000507                     	ds	3
   296  00050A                     _CAN1_ModeChangeHandler:
   297                           	callstack 0
   298  00050A                     	ds	3
   299  00050D                     _CAN1_BusErrorHandler:
   300                           	callstack 0
   301  00050D                     	ds	3
   302  000510                     _CAN1_BusWakeUpActivityHandler:
   303                           	callstack 0
   304  000510                     	ds	3
   305  000513                     _CAN1_InvalidMessageHandler:
   306                           	callstack 0
   307  000513                     	ds	3
   308  000516                     _rxMsgData:
   309                           	callstack 0
   310  000516                     	ds	64
   311                           
   312                           	psect	dataCOMRAM
   313  000556                     __pdataCOMRAM:
   314                           	callstack 0
   315  000556                     _rxFifos:
   316                           	callstack 0
   317  000556                     	ds	4
   318                           
   319                           	psect	cstackBANK5
   320  000560                     __pcstackBANK5:
   321                           	callstack 0
   322  000560                     CAN1_OperationModeSet@opMode:
   323                           	callstack 0
   324  000560                     CAN1_SetInvalidMessageInterruptHandler@handler:
   325                           	callstack 0
   326  000560                     CAN1_SetBusWakeUpActivityInterruptHandler@handler:
   327                           	callstack 0
   328  000560                     CAN1_SetBusErrorInterruptHandler@handler:
   329                           	callstack 0
   330  000560                     CAN1_SetModeChangeInterruptHandler@handler:
   331                           	callstack 0
   332  000560                     CAN1_SetSystemErrorInterruptHandler@handler:
   333                           	callstack 0
   334  000560                     CAN1_SetTxAttemptInterruptHandler@handler:
   335                           	callstack 0
   336  000560                     CAN1_SetRxBufferOverFlowInterruptHandler@handler:
   337                           	callstack 0
   338                           
   339                           ; 3 bytes @ 0x0
   340  000560                     	ds	1
   341  000561                     CAN1_OperationModeSet@status:
   342                           	callstack 0
   343                           
   344                           ; 1 bytes @ 0x1
   345  000561                     	ds	1
   346  000562                     CAN1_OperationModeSet@requestMode:
   347                           	callstack 0
   348                           
   349                           ; 1 bytes @ 0x2
   350  000562                     	ds	1
   351                           
   352                           	psect	cstackCOMRAM
   353  00055A                     __pcstackCOMRAM:
   354                           	callstack 0
   355  00055A                     ??_CAN1_ISR:
   356  00055A                     
   357                           ; 1 bytes @ 0x0
   358  00055A                     	ds	2
   359  00055C                     CAN1_RX_FIFO_ResetInfo@index:
   360                           	callstack 0
   361  00055C                     INTERRUPT_Initialize@state:
   362                           	callstack 0
   363                           
   364                           ; 1 bytes @ 0x2
   365  00055C                     	ds	1
   366  00055D                     
   367                           ; 1 bytes @ 0x3
   368 ;;
   369 ;;Main: autosize = 0, tempsize = 0, incstack = 0, save=0
   370 ;;
   371 ;; *************** function _main *****************
   372 ;; Defined at:
   373 ;;		line 49 in file "main.c"
   374 ;; Parameters:    Size  Location     Type
   375 ;;		None
   376 ;; Auto vars:     Size  Location     Type
   377 ;;		None
   378 ;; Return value:  Size  Location     Type
   379 ;;                  1    wreg      void 
   380 ;; Registers used:
   381 ;;		wreg, fsr2l, fsr2h, status,2, status,0, prodl, prodh, cstack
   382 ;; Tracked objects:
   383 ;;		On entry : 0/0
   384 ;;		On exit  : 0/0
   385 ;;		Unchanged: 0/0
   386 ;; Data sizes:     COMRAM   BANK5   BANK6   BANK7   BANK8   BANK9  BANK10  BANK11  BANK12  BANK13  BANK14  BANK15  BANK1
      +6  BANK17  BANK18  BANK19  BANK20  BANK21  BANK22  BANK23  BANK24  BANK25  BANK26  BANK27  BANK28  BANK29  BANK30  BANK3
      +1  BANK32  BANK33  BANK34  BANK35  BANK36  BANK37  BANK38  BANK39  BANK40  BANK41  BANK42  BANK43  BANK44  BANK45  BANK4
      +6  BANK47  BANK48  BANK49  BANK50  BANK51  BANK52  BANK53  BANK54
   387 ;;      Params:         0       0       0       0       0       0       0       0       0       0       0       0       
      +0       0       0       0       0       0       0       0       0       0       0       0       0       0       0       
      +0       0       0       0       0       0       0       0       0       0       0       0       0       0       0       
      +0       0       0       0       0       0       0       0       0
   388 ;;      Locals:         0       0       0       0       0       0       0       0       0       0       0       0       
      +0       0       0       0       0       0       0       0       0       0       0       0       0       0       0       
      +0       0       0       0       0       0       0       0       0       0       0       0       0       0       0       
      +0       0       0       0       0       0       0       0       0
   389 ;;      Temps:          0       0       0       0       0       0       0       0       0       0       0       0       
      +0       0       0       0       0       0       0       0       0       0       0       0       0       0       0       
      +0       0       0       0       0       0       0       0       0       0       0       0       0       0       0       
      +0       0       0       0       0       0       0       0       0
   390 ;;      Totals:         0       0       0       0       0       0       0       0       0       0       0       0       
      +0       0       0       0       0       0       0       0       0       0       0       0       0       0       0       
      +0       0       0       0       0       0       0       0       0       0       0       0       0       0       0       
      +0       0       0       0       0       0       0       0       0
   391 ;;Total ram usage:        0 bytes
   392 ;; Hardware stack levels required when called: 6
   393 ;; This function calls:
   394 ;;		_SYSTEM_Initialize
   395 ;; This function is called by:
   396 ;;		Startup code after reset
   397 ;; This function uses a non-reentrant model
   398 ;;
   399                           
   400                           	psect	text0
   401  003C28                     __ptext0:
   402                           	callstack 0
   403  003C28                     _main:
   404                           	callstack 121
   405  003C28                     
   406                           ;main.c: 52:     SYSTEM_Initialize();
   407  003C28  EC09  F01E         	call	_SYSTEM_Initialize	;wreg free
   408  003C2C                     
   409                           ;main.c: 59:     (INTCON0bits.GIEH = 1);
   410  003C2C  8ED6               	bsf	214,7,c	;volatile
   411  003C2E                     
   412                           ;main.c: 62:     (INTCON0bits.GIEL = 1);
   413  003C2E  8CD6               	bsf	214,6,c	;volatile
   414  003C30                     l355:
   415  003C30  EF18  F01E         	goto	l355
   416  003C34  EF85  F000         	goto	start
   417  003C38                     __end_of_main:
   418                           	callstack 0
   419                           
   420 ;; *************** function _SYSTEM_Initialize *****************
   421 ;; Defined at:
   422 ;;		line 50 in file "mcc_generated_files/mcc.c"
   423 ;; Parameters:    Size  Location     Type
   424 ;;		None
   425 ;; Auto vars:     Size  Location     Type
   426 ;;		None
   427 ;; Return value:  Size  Location     Type
   428 ;;                  1    wreg      void 
   429 ;; Registers used:
   430 ;;		wreg, fsr2l, fsr2h, status,2, status,0, prodl, prodh, cstack
   431 ;; Tracked objects:
   432 ;;		On entry : 0/0
   433 ;;		On exit  : 0/0
   434 ;;		Unchanged: 0/0
   435 ;; Data sizes:     COMRAM   BANK5   BANK6   BANK7   BANK8   BANK9  BANK10  BANK11  BANK12  BANK13  BANK14  BANK15  BANK1
      +6  BANK17  BANK18  BANK19  BANK20  BANK21  BANK22  BANK23  BANK24  BANK25  BANK26  BANK27  BANK28  BANK29  BANK30  BANK3
      +1  BANK32  BANK33  BANK34  BANK35  BANK36  BANK37  BANK38  BANK39  BANK40  BANK41  BANK42  BANK43  BANK44  BANK45  BANK4
      +6  BANK47  BANK48  BANK49  BANK50  BANK51  BANK52  BANK53  BANK54
   436 ;;      Params:         0       0       0       0       0       0       0       0       0       0       0       0       
      +0       0       0       0       0       0       0       0       0       0       0       0       0       0       0       
      +0       0       0       0       0       0       0       0       0       0       0       0       0       0       0       
      +0       0       0       0       0       0       0       0       0
   437 ;;      Locals:         0       0       0       0       0       0       0       0       0       0       0       0       
      +0       0       0       0       0       0       0       0       0       0       0       0       0       0       0       
      +0       0       0       0       0       0       0       0       0       0       0       0       0       0       0       
      +0       0       0       0       0       0       0       0       0
   438 ;;      Temps:          0       0       0       0       0       0       0       0       0       0       0       0       
      +0       0       0       0       0       0       0       0       0       0       0       0       0       0       0       
      +0       0       0       0       0       0       0       0       0       0       0       0       0       0       0       
      +0       0       0       0       0       0       0       0       0
   439 ;;      Totals:         0       0       0       0       0       0       0       0       0       0       0       0       
      +0       0       0       0       0       0       0       0       0       0       0       0       0       0       0       
      +0       0       0       0       0       0       0       0       0       0       0       0       0       0       0       
      +0       0       0       0       0       0       0       0       0
   440 ;;Total ram usage:        0 bytes
   441 ;; Hardware stack levels used: 1
   442 ;; Hardware stack levels required when called: 5
   443 ;; This function calls:
   444 ;;		_CAN1_Initialize
   445 ;;		_INTERRUPT_Initialize
   446 ;;		_OSCILLATOR_Initialize
   447 ;;		_PIN_MANAGER_Initialize
   448 ;;		_PMD_Initialize
   449 ;; This function is called by:
   450 ;;		_main
   451 ;; This function uses a non-reentrant model
   452 ;;
   453                           
   454                           	psect	text1
   455  003C12                     __ptext1:
   456                           	callstack 0
   457  003C12                     _SYSTEM_Initialize:
   458                           	callstack 121
   459  003C12                     
   460                           ;mcc_generated_files/mcc.c: 52:     INTERRUPT_Initialize();
   461  003C12  EC73  F01D         	call	_INTERRUPT_Initialize	;wreg free
   462                           
   463                           ;mcc_generated_files/mcc.c: 53:     PMD_Initialize();
   464  003C16  ECBE  F01D         	call	_PMD_Initialize	;wreg free
   465                           
   466                           ;mcc_generated_files/mcc.c: 54:     PIN_MANAGER_Initialize();
   467  003C1A  ECE8  F01C         	call	_PIN_MANAGER_Initialize	;wreg free
   468                           
   469                           ;mcc_generated_files/mcc.c: 55:     OSCILLATOR_Initialize();
   470  003C1E  ECD2  F01D         	call	_OSCILLATOR_Initialize	;wreg free
   471  003C22                     
   472                           ;mcc_generated_files/mcc.c: 56:     CAN1_Initialize();
   473  003C22  EC27  F01D         	call	_CAN1_Initialize	;wreg free
   474  003C26  0012               	return		;funcret
   475  003C28                     __end_of_SYSTEM_Initialize:
   476                           	callstack 0
   477                           
   478 ;; *************** function _PMD_Initialize *****************
   479 ;; Defined at:
   480 ;;		line 77 in file "mcc_generated_files/mcc.c"
   481 ;; Parameters:    Size  Location     Type
   482 ;;		None
   483 ;; Auto vars:     Size  Location     Type
   484 ;;		None
   485 ;; Return value:  Size  Location     Type
   486 ;;                  1    wreg      void 
   487 ;; Registers used:
   488 ;;		wreg, status,2
   489 ;; Tracked objects:
   490 ;;		On entry : 0/0
   491 ;;		On exit  : 0/0
   492 ;;		Unchanged: 0/0
   493 ;; Data sizes:     COMRAM   BANK5   BANK6   BANK7   BANK8   BANK9  BANK10  BANK11  BANK12  BANK13  BANK14  BANK15  BANK1
      +6  BANK17  BANK18  BANK19  BANK20  BANK21  BANK22  BANK23  BANK24  BANK25  BANK26  BANK27  BANK28  BANK29  BANK30  BANK3
      +1  BANK32  BANK33  BANK34  BANK35  BANK36  BANK37  BANK38  BANK39  BANK40  BANK41  BANK42  BANK43  BANK44  BANK45  BANK4
      +6  BANK47  BANK48  BANK49  BANK50  BANK51  BANK52  BANK53  BANK54
   494 ;;      Params:         0       0       0       0       0       0       0       0       0       0       0       0       
      +0       0       0       0       0       0       0       0       0       0       0       0       0       0       0       
      +0       0       0       0       0       0       0       0       0       0       0       0       0       0       0       
      +0       0       0       0       0       0       0       0       0
   495 ;;      Locals:         0       0       0       0       0       0       0       0       0       0       0       0       
      +0       0       0       0       0       0       0       0       0       0       0       0       0       0       0       
      +0       0       0       0       0       0       0       0       0       0       0       0       0       0       0       
      +0       0       0       0       0       0       0       0       0
   496 ;;      Temps:          0       0       0       0       0       0       0       0       0       0       0       0       
      +0       0       0       0       0       0       0       0       0       0       0       0       0       0       0       
      +0       0       0       0       0       0       0       0       0       0       0       0       0       0       0       
      +0       0       0       0       0       0       0       0       0
   497 ;;      Totals:         0       0       0       0       0       0       0       0       0       0       0       0       
      +0       0       0       0       0       0       0       0       0       0       0       0       0       0       0       
      +0       0       0       0       0       0       0       0       0       0       0       0       0       0       0       
      +0       0       0       0       0       0       0       0       0
   498 ;;Total ram usage:        0 bytes
   499 ;; Hardware stack levels used: 1
   500 ;; Hardware stack levels required when called: 2
   501 ;; This function calls:
   502 ;;		Nothing
   503 ;; This function is called by:
   504 ;;		_SYSTEM_Initialize
   505 ;; This function uses a non-reentrant model
   506 ;;
   507                           
   508                           	psect	text2
   509  003B7C                     __ptext2:
   510                           	callstack 0
   511  003B7C                     _PMD_Initialize:
   512                           	callstack 123
   513  003B7C                     
   514                           ;mcc_generated_files/mcc.c: 80:     PMD0 = 0x00;
   515  003B7C  0E00               	movlw	0
   516  003B7E  0100               	movlb	0	; () banked
   517  003B80  6F60               	movwf	96,b	;volatile
   518                           
   519                           ;mcc_generated_files/mcc.c: 82:     PMD1 = 0x00;
   520  003B82  0E00               	movlw	0
   521  003B84  6F61               	movwf	97,b	;volatile
   522                           
   523                           ;mcc_generated_files/mcc.c: 84:     PMD2 = 0x00;
   524  003B86  0E00               	movlw	0
   525  003B88  6F62               	movwf	98,b	;volatile
   526                           
   527                           ;mcc_generated_files/mcc.c: 86:     PMD3 = 0x00;
   528  003B8A  0E00               	movlw	0
   529  003B8C  6F63               	movwf	99,b	;volatile
   530                           
   531                           ;mcc_generated_files/mcc.c: 88:     PMD4 = 0x00;
   532  003B8E  0E00               	movlw	0
   533  003B90  6F64               	movwf	100,b	;volatile
   534                           
   535                           ;mcc_generated_files/mcc.c: 90:     PMD5 = 0x00;
   536  003B92  0E00               	movlw	0
   537  003B94  6F65               	movwf	101,b	;volatile
   538                           
   539                           ;mcc_generated_files/mcc.c: 92:     PMD6 = 0x00;
   540  003B96  0E00               	movlw	0
   541  003B98  6F66               	movwf	102,b	;volatile
   542                           
   543                           ;mcc_generated_files/mcc.c: 94:     PMD7 = 0x00;
   544  003B9A  0E00               	movlw	0
   545  003B9C  6F67               	movwf	103,b	;volatile
   546                           
   547                           ;mcc_generated_files/mcc.c: 96:     PMD8 = 0x00;
   548  003B9E  0E00               	movlw	0
   549  003BA0  6F68               	movwf	104,b	;volatile
   550  003BA2                     
   551                           ; BSR set to: 0
   552  003BA2  0012               	return		;funcret
   553  003BA4                     __end_of_PMD_Initialize:
   554                           	callstack 0
   555                           
   556 ;; *************** function _PIN_MANAGER_Initialize *****************
   557 ;; Defined at:
   558 ;;		line 55 in file "mcc_generated_files/pin_manager.c"
   559 ;; Parameters:    Size  Location     Type
   560 ;;		None
   561 ;; Auto vars:     Size  Location     Type
   562 ;;		None
   563 ;; Return value:  Size  Location     Type
   564 ;;                  1    wreg      void 
   565 ;; Registers used:
   566 ;;		wreg, status,2
   567 ;; Tracked objects:
   568 ;;		On entry : 0/0
   569 ;;		On exit  : 0/0
   570 ;;		Unchanged: 0/0
   571 ;; Data sizes:     COMRAM   BANK5   BANK6   BANK7   BANK8   BANK9  BANK10  BANK11  BANK12  BANK13  BANK14  BANK15  BANK1
      +6  BANK17  BANK18  BANK19  BANK20  BANK21  BANK22  BANK23  BANK24  BANK25  BANK26  BANK27  BANK28  BANK29  BANK30  BANK3
      +1  BANK32  BANK33  BANK34  BANK35  BANK36  BANK37  BANK38  BANK39  BANK40  BANK41  BANK42  BANK43  BANK44  BANK45  BANK4
      +6  BANK47  BANK48  BANK49  BANK50  BANK51  BANK52  BANK53  BANK54
   572 ;;      Params:         0       0       0       0       0       0       0       0       0       0       0       0       
      +0       0       0       0       0       0       0       0       0       0       0       0       0       0       0       
      +0       0       0       0       0       0       0       0       0       0       0       0       0       0       0       
      +0       0       0       0       0       0       0       0       0
   573 ;;      Locals:         0       0       0       0       0       0       0       0       0       0       0       0       
      +0       0       0       0       0       0       0       0       0       0       0       0       0       0       0       
      +0       0       0       0       0       0       0       0       0       0       0       0       0       0       0       
      +0       0       0       0       0       0       0       0       0
   574 ;;      Temps:          0       0       0       0       0       0       0       0       0       0       0       0       
      +0       0       0       0       0       0       0       0       0       0       0       0       0       0       0       
      +0       0       0       0       0       0       0       0       0       0       0       0       0       0       0       
      +0       0       0       0       0       0       0       0       0
   575 ;;      Totals:         0       0       0       0       0       0       0       0       0       0       0       0       
      +0       0       0       0       0       0       0       0       0       0       0       0       0       0       0       
      +0       0       0       0       0       0       0       0       0       0       0       0       0       0       0       
      +0       0       0       0       0       0       0       0       0
   576 ;;Total ram usage:        0 bytes
   577 ;; Hardware stack levels used: 1
   578 ;; Hardware stack levels required when called: 2
   579 ;; This function calls:
   580 ;;		Nothing
   581 ;; This function is called by:
   582 ;;		_SYSTEM_Initialize
   583 ;; This function uses a non-reentrant model
   584 ;;
   585                           
   586                           	psect	text3
   587  0039D0                     __ptext3:
   588                           	callstack 0
   589  0039D0                     _PIN_MANAGER_Initialize:
   590                           	callstack 123
   591  0039D0                     
   592                           ;mcc_generated_files/pin_manager.c: 60:     LATE = 0x00;
   593  0039D0  0E00               	movlw	0
   594  0039D2  6EC2               	movwf	194,c	;volatile
   595                           
   596                           ;mcc_generated_files/pin_manager.c: 61:     LATD = 0x00;
   597  0039D4  0E00               	movlw	0
   598  0039D6  6EC1               	movwf	193,c	;volatile
   599                           
   600                           ;mcc_generated_files/pin_manager.c: 62:     LATA = 0x00;
   601  0039D8  0E00               	movlw	0
   602  0039DA  6EBE               	movwf	190,c	;volatile
   603                           
   604                           ;mcc_generated_files/pin_manager.c: 63:     LATB = 0x00;
   605  0039DC  0E00               	movlw	0
   606  0039DE  6EBF               	movwf	191,c	;volatile
   607                           
   608                           ;mcc_generated_files/pin_manager.c: 64:     LATC = 0x00;
   609  0039E0  0E00               	movlw	0
   610  0039E2  6EC0               	movwf	192,c	;volatile
   611                           
   612                           ;mcc_generated_files/pin_manager.c: 69:     TRISE = 0x07;
   613  0039E4  0E07               	movlw	7
   614  0039E6  6ECA               	movwf	202,c	;volatile
   615  0039E8                     
   616                           ;mcc_generated_files/pin_manager.c: 70:     TRISA = 0xFF;
   617  0039E8  68C6               	setf	198,c	;volatile
   618  0039EA                     
   619                           ;mcc_generated_files/pin_manager.c: 71:     TRISB = 0xFF;
   620  0039EA  68C7               	setf	199,c	;volatile
   621  0039EC                     
   622                           ;mcc_generated_files/pin_manager.c: 72:     TRISC = 0xFF;
   623  0039EC  68C8               	setf	200,c	;volatile
   624                           
   625                           ;mcc_generated_files/pin_manager.c: 73:     TRISD = 0xFD;
   626  0039EE  0EFD               	movlw	253
   627  0039F0  6EC9               	movwf	201,c	;volatile
   628                           
   629                           ;mcc_generated_files/pin_manager.c: 78:     ANSELD = 0xFC;
   630  0039F2  0EFC               	movlw	252
   631  0039F4  0104               	movlb	4	; () banked
   632  0039F6  6F18               	movwf	24,b	;volatile
   633  0039F8                     
   634                           ; BSR set to: 4
   635                           ;mcc_generated_files/pin_manager.c: 79:     ANSELC = 0xFF;
   636  0039F8  6910               	setf	16,b	;volatile
   637  0039FA                     
   638                           ; BSR set to: 4
   639                           ;mcc_generated_files/pin_manager.c: 80:     ANSELB = 0xFF;
   640  0039FA  6908               	setf	8,b	;volatile
   641                           
   642                           ;mcc_generated_files/pin_manager.c: 81:     ANSELE = 0x07;
   643  0039FC  0E07               	movlw	7
   644  0039FE  6F20               	movwf	32,b	;volatile
   645  003A00                     
   646                           ; BSR set to: 4
   647                           ;mcc_generated_files/pin_manager.c: 82:     ANSELA = 0xFF;
   648  003A00  6900               	setf	0,b	;volatile
   649                           
   650                           ;mcc_generated_files/pin_manager.c: 87:     WPUD = 0x03;
   651  003A02  0E03               	movlw	3
   652  003A04  6F19               	movwf	25,b	;volatile
   653                           
   654                           ;mcc_generated_files/pin_manager.c: 88:     WPUE = 0x00;
   655  003A06  0E00               	movlw	0
   656  003A08  6F21               	movwf	33,b	;volatile
   657                           
   658                           ;mcc_generated_files/pin_manager.c: 89:     WPUB = 0x00;
   659  003A0A  0E00               	movlw	0
   660  003A0C  6F09               	movwf	9,b	;volatile
   661                           
   662                           ;mcc_generated_files/pin_manager.c: 90:     WPUA = 0x00;
   663  003A0E  0E00               	movlw	0
   664  003A10  6F01               	movwf	1,b	;volatile
   665                           
   666                           ;mcc_generated_files/pin_manager.c: 91:     WPUC = 0x00;
   667  003A12  0E00               	movlw	0
   668  003A14  6F11               	movwf	17,b	;volatile
   669                           
   670                           ;mcc_generated_files/pin_manager.c: 96:     ODCONE = 0x00;
   671  003A16  0E00               	movlw	0
   672  003A18  6F22               	movwf	34,b	;volatile
   673                           
   674                           ;mcc_generated_files/pin_manager.c: 97:     ODCONA = 0x00;
   675  003A1A  0E00               	movlw	0
   676  003A1C  6F02               	movwf	2,b	;volatile
   677                           
   678                           ;mcc_generated_files/pin_manager.c: 98:     ODCONB = 0x00;
   679  003A1E  0E00               	movlw	0
   680  003A20  6F0A               	movwf	10,b	;volatile
   681                           
   682                           ;mcc_generated_files/pin_manager.c: 99:     ODCONC = 0x00;
   683  003A22  0E00               	movlw	0
   684  003A24  6F12               	movwf	18,b	;volatile
   685                           
   686                           ;mcc_generated_files/pin_manager.c: 100:     ODCOND = 0x00;
   687  003A26  0E00               	movlw	0
   688  003A28  6F1A               	movwf	26,b	;volatile
   689  003A2A                     
   690                           ; BSR set to: 4
   691                           ;mcc_generated_files/pin_manager.c: 105:     SLRCONA = 0xFF;
   692  003A2A  6903               	setf	3,b	;volatile
   693  003A2C                     
   694                           ; BSR set to: 4
   695                           ;mcc_generated_files/pin_manager.c: 106:     SLRCONB = 0xFF;
   696  003A2C  690B               	setf	11,b	;volatile
   697  003A2E                     
   698                           ; BSR set to: 4
   699                           ;mcc_generated_files/pin_manager.c: 107:     SLRCONC = 0xFF;
   700  003A2E  6913               	setf	19,b	;volatile
   701  003A30                     
   702                           ; BSR set to: 4
   703                           ;mcc_generated_files/pin_manager.c: 108:     SLRCOND = 0xFF;
   704  003A30  691B               	setf	27,b	;volatile
   705                           
   706                           ;mcc_generated_files/pin_manager.c: 109:     SLRCONE = 0x07;
   707  003A32  0E07               	movlw	7
   708  003A34  6F23               	movwf	35,b	;volatile
   709  003A36                     
   710                           ; BSR set to: 4
   711                           ;mcc_generated_files/pin_manager.c: 114:     INLVLA = 0xFF;
   712  003A36  6904               	setf	4,b	;volatile
   713  003A38                     
   714                           ; BSR set to: 4
   715                           ;mcc_generated_files/pin_manager.c: 115:     INLVLB = 0xFF;
   716  003A38  690C               	setf	12,b	;volatile
   717  003A3A                     
   718                           ; BSR set to: 4
   719                           ;mcc_generated_files/pin_manager.c: 116:     INLVLC = 0xFF;
   720  003A3A  6914               	setf	20,b	;volatile
   721  003A3C                     
   722                           ; BSR set to: 4
   723                           ;mcc_generated_files/pin_manager.c: 117:     INLVLD = 0xFF;
   724  003A3C  691C               	setf	28,b	;volatile
   725                           
   726                           ;mcc_generated_files/pin_manager.c: 118:     INLVLE = 0x0F;
   727  003A3E  0E0F               	movlw	15
   728  003A40  6F24               	movwf	36,b	;volatile
   729                           
   730                           ;mcc_generated_files/pin_manager.c: 127:     CANRXPPS = 0x18;
   731  003A42  0E18               	movlw	24
   732  003A44  0102               	movlb	2	; () banked
   733  003A46  6F3D               	movwf	61,b	;volatile
   734                           
   735                           ;mcc_generated_files/pin_manager.c: 128:     RD1PPS = 0x46;
   736  003A48  0E46               	movlw	70
   737  003A4A  6F1A               	movwf	26,b	;volatile
   738  003A4C                     
   739                           ; BSR set to: 2
   740  003A4C  0012               	return		;funcret
   741  003A4E                     __end_of_PIN_MANAGER_Initialize:
   742                           	callstack 0
   743                           
   744 ;; *************** function _OSCILLATOR_Initialize *****************
   745 ;; Defined at:
   746 ;;		line 59 in file "mcc_generated_files/mcc.c"
   747 ;; Parameters:    Size  Location     Type
   748 ;;		None
   749 ;; Auto vars:     Size  Location     Type
   750 ;;		None
   751 ;; Return value:  Size  Location     Type
   752 ;;                  1    wreg      void 
   753 ;; Registers used:
   754 ;;		wreg, status,2
   755 ;; Tracked objects:
   756 ;;		On entry : 0/0
   757 ;;		On exit  : 0/0
   758 ;;		Unchanged: 0/0
   759 ;; Data sizes:     COMRAM   BANK5   BANK6   BANK7   BANK8   BANK9  BANK10  BANK11  BANK12  BANK13  BANK14  BANK15  BANK1
      +6  BANK17  BANK18  BANK19  BANK20  BANK21  BANK22  BANK23  BANK24  BANK25  BANK26  BANK27  BANK28  BANK29  BANK30  BANK3
      +1  BANK32  BANK33  BANK34  BANK35  BANK36  BANK37  BANK38  BANK39  BANK40  BANK41  BANK42  BANK43  BANK44  BANK45  BANK4
      +6  BANK47  BANK48  BANK49  BANK50  BANK51  BANK52  BANK53  BANK54
   760 ;;      Params:         0       0       0       0       0       0       0       0       0       0       0       0       
      +0       0       0       0       0       0       0       0       0       0       0       0       0       0       0       
      +0       0       0       0       0       0       0       0       0       0       0       0       0       0       0       
      +0       0       0       0       0       0       0       0       0
   761 ;;      Locals:         0       0       0       0       0       0       0       0       0       0       0       0       
      +0       0       0       0       0       0       0       0       0       0       0       0       0       0       0       
      +0       0       0       0       0       0       0       0       0       0       0       0       0       0       0       
      +0       0       0       0       0       0       0       0       0
   762 ;;      Temps:          0       0       0       0       0       0       0       0       0       0       0       0       
      +0       0       0       0       0       0       0       0       0       0       0       0       0       0       0       
      +0       0       0       0       0       0       0       0       0       0       0       0       0       0       0       
      +0       0       0       0       0       0       0       0       0
   763 ;;      Totals:         0       0       0       0       0       0       0       0       0       0       0       0       
      +0       0       0       0       0       0       0       0       0       0       0       0       0       0       0       
      +0       0       0       0       0       0       0       0       0       0       0       0       0       0       0       
      +0       0       0       0       0       0       0       0       0
   764 ;;Total ram usage:        0 bytes
   765 ;; Hardware stack levels used: 1
   766 ;; Hardware stack levels required when called: 2
   767 ;; This function calls:
   768 ;;		Nothing
   769 ;; This function is called by:
   770 ;;		_SYSTEM_Initialize
   771 ;; This function uses a non-reentrant model
   772 ;;
   773                           
   774                           	psect	text4
   775  003BA4                     __ptext4:
   776                           	callstack 0
   777  003BA4                     _OSCILLATOR_Initialize:
   778                           	callstack 123
   779  003BA4                     
   780                           ;mcc_generated_files/mcc.c: 62:     OSCCON1 = 0x20;
   781  003BA4  0E20               	movlw	32
   782  003BA6  0100               	movlb	0	; () banked
   783  003BA8  6FAD               	movwf	173,b	;volatile
   784                           
   785                           ;mcc_generated_files/mcc.c: 64:     OSCCON3 = 0x00;
   786  003BAA  0E00               	movlw	0
   787  003BAC  6FAF               	movwf	175,b	;volatile
   788                           
   789                           ;mcc_generated_files/mcc.c: 66:     OSCEN = 0x01;
   790  003BAE  0E01               	movlw	1
   791  003BB0  6FB3               	movwf	179,b	;volatile
   792                           
   793                           ;mcc_generated_files/mcc.c: 68:     OSCFRQ = 0x08;
   794  003BB2  0E08               	movlw	8
   795  003BB4  6FB1               	movwf	177,b	;volatile
   796                           
   797                           ;mcc_generated_files/mcc.c: 70:     OSCTUNE = 0x00;
   798  003BB6  0E00               	movlw	0
   799  003BB8  6FB0               	movwf	176,b	;volatile
   800  003BBA                     l484:
   801                           
   802                           ; BSR set to: 0
   803                           ;mcc_generated_files/mcc.c: 72:     while(PLLR == 0)
   804  003BBA  A1B2               	btfss	178,0,b	;volatile
   805  003BBC  EFE2  F01D         	goto	u91
   806  003BC0  EFE4  F01D         	goto	u90
   807  003BC4                     u91:
   808  003BC4  EFDD  F01D         	goto	l484
   809  003BC8                     u90:
   810  003BC8                     
   811                           ; BSR set to: 0
   812  003BC8  0012               	return		;funcret
   813  003BCA                     __end_of_OSCILLATOR_Initialize:
   814                           	callstack 0
   815                           
   816 ;; *************** function _INTERRUPT_Initialize *****************
   817 ;; Defined at:
   818 ;;		line 52 in file "mcc_generated_files/interrupt_manager.c"
   819 ;; Parameters:    Size  Location     Type
   820 ;;		None
   821 ;; Auto vars:     Size  Location     Type
   822 ;;  state           1    2[COMRAM] _Bool 
   823 ;; Return value:  Size  Location     Type
   824 ;;                  1    wreg      void 
   825 ;; Registers used:
   826 ;;		wreg, status,2
   827 ;; Tracked objects:
   828 ;;		On entry : 0/0
   829 ;;		On exit  : 0/0
   830 ;;		Unchanged: 0/0
   831 ;; Data sizes:     COMRAM   BANK5   BANK6   BANK7   BANK8   BANK9  BANK10  BANK11  BANK12  BANK13  BANK14  BANK15  BANK1
      +6  BANK17  BANK18  BANK19  BANK20  BANK21  BANK22  BANK23  BANK24  BANK25  BANK26  BANK27  BANK28  BANK29  BANK30  BANK3
      +1  BANK32  BANK33  BANK34  BANK35  BANK36  BANK37  BANK38  BANK39  BANK40  BANK41  BANK42  BANK43  BANK44  BANK45  BANK4
      +6  BANK47  BANK48  BANK49  BANK50  BANK51  BANK52  BANK53  BANK54
   832 ;;      Params:         0       0       0       0       0       0       0       0       0       0       0       0       
      +0       0       0       0       0       0       0       0       0       0       0       0       0       0       0       
      +0       0       0       0       0       0       0       0       0       0       0       0       0       0       0       
      +0       0       0       0       0       0       0       0       0
   833 ;;      Locals:         1       0       0       0       0       0       0       0       0       0       0       0       
      +0       0       0       0       0       0       0       0       0       0       0       0       0       0       0       
      +0       0       0       0       0       0       0       0       0       0       0       0       0       0       0       
      +0       0       0       0       0       0       0       0       0
   834 ;;      Temps:          0       0       0       0       0       0       0       0       0       0       0       0       
      +0       0       0       0       0       0       0       0       0       0       0       0       0       0       0       
      +0       0       0       0       0       0       0       0       0       0       0       0       0       0       0       
      +0       0       0       0       0       0       0       0       0
   835 ;;      Totals:         1       0       0       0       0       0       0       0       0       0       0       0       
      +0       0       0       0       0       0       0       0       0       0       0       0       0       0       0       
      +0       0       0       0       0       0       0       0       0       0       0       0       0       0       0       
      +0       0       0       0       0       0       0       0       0
   836 ;;Total ram usage:        1 bytes
   837 ;; Hardware stack levels used: 1
   838 ;; Hardware stack levels required when called: 2
   839 ;; This function calls:
   840 ;;		Nothing
   841 ;; This function is called by:
   842 ;;		_SYSTEM_Initialize
   843 ;; This function uses a non-reentrant model
   844 ;;
   845                           
   846                           	psect	text5
   847  003AE6                     __ptext5:
   848                           	callstack 0
   849  003AE6                     _INTERRUPT_Initialize:
   850                           	callstack 123
   851  003AE6                     
   852                           ;mcc_generated_files/interrupt_manager.c: 54:     INTCON0bits.IPEN = 1;
   853  003AE6  8AD6               	bsf	214,5,c	;volatile
   854  003AE8                     
   855                           ;mcc_generated_files/interrupt_manager.c: 56:     _Bool state = (unsigned char)GIE;
   856  003AE8  0E00               	movlw	0
   857  003AEA  BED6               	btfsc	1238,7,c	;volatile
   858  003AEC  0E01               	movlw	1
   859  003AEE  6E5C               	movwf	INTERRUPT_Initialize@state^(0+1280),c
   860  003AF0                     
   861                           ;mcc_generated_files/interrupt_manager.c: 57:     GIE = 0;
   862  003AF0  9ED6               	bcf	1238,7,c	;volatile
   863                           
   864                           ;mcc_generated_files/interrupt_manager.c: 58:     IVTLOCK = 0x55;
   865  003AF2  0E55               	movlw	85
   866  003AF4  0104               	movlb	4	; () banked
   867  003AF6  6F59               	movwf	89,b	;volatile
   868                           
   869                           ;mcc_generated_files/interrupt_manager.c: 59:     IVTLOCK = 0xAA;
   870  003AF8  0EAA               	movlw	170
   871  003AFA  6F59               	movwf	89,b	;volatile
   872  003AFC                     
   873                           ; BSR set to: 4
   874                           ;mcc_generated_files/interrupt_manager.c: 60:     IVTLOCKbits.IVTLOCKED = 0x00;
   875  003AFC  9159               	bcf	89,0,b	;volatile
   876                           
   877                           ;mcc_generated_files/interrupt_manager.c: 62:     IVTBASEU = 0;
   878  003AFE  0E00               	movlw	0
   879  003B00  6F5F               	movwf	95,b	;volatile
   880                           
   881                           ;mcc_generated_files/interrupt_manager.c: 63:     IVTBASEH = 0;
   882  003B02  0E00               	movlw	0
   883  003B04  6F5E               	movwf	94,b	;volatile
   884                           
   885                           ;mcc_generated_files/interrupt_manager.c: 64:     IVTBASEL = 8;
   886  003B06  0E08               	movlw	8
   887  003B08  6F5D               	movwf	93,b	;volatile
   888                           
   889                           ;mcc_generated_files/interrupt_manager.c: 66:     IVTLOCK = 0x55;
   890  003B0A  0E55               	movlw	85
   891  003B0C  6F59               	movwf	89,b	;volatile
   892                           
   893                           ;mcc_generated_files/interrupt_manager.c: 67:     IVTLOCK = 0xAA;
   894  003B0E  0EAA               	movlw	170
   895  003B10  6F59               	movwf	89,b	;volatile
   896  003B12                     
   897                           ; BSR set to: 4
   898                           ;mcc_generated_files/interrupt_manager.c: 68:     IVTLOCKbits.IVTLOCKED = 0x01;
   899  003B12  8159               	bsf	89,0,b	;volatile
   900  003B14                     
   901                           ; BSR set to: 4
   902                           ;mcc_generated_files/interrupt_manager.c: 70:     GIE = state;
   903  003B14  B05C               	btfsc	INTERRUPT_Initialize@state^(0+1280),0,c
   904  003B16  D002               	bra	u85
   905  003B18  9ED6               	bcf	1238,7,c	;volatile
   906  003B1A  D001               	bra	u86
   907  003B1C                     u85:
   908  003B1C  8ED6               	bsf	1238,7,c	;volatile
   909  003B1E                     u86:
   910  003B1E                     
   911                           ;mcc_generated_files/interrupt_manager.c: 73:     IPR0bits.CANIP = 1;
   912  003B1E  0103               	movlb	3	; () banked
   913  003B20  8D62               	bsf	98,6,b	;volatile
   914  003B22                     
   915                           ; BSR set to: 3
   916  003B22  0012               	return		;funcret
   917  003B24                     __end_of_INTERRUPT_Initialize:
   918                           	callstack 0
   919                           
   920 ;; *************** function _CAN1_Initialize *****************
   921 ;; Defined at:
   922 ;;		line 280 in file "mcc_generated_files/can1.c"
   923 ;; Parameters:    Size  Location     Type
   924 ;;		None
   925 ;; Auto vars:     Size  Location     Type
   926 ;;		None
   927 ;; Return value:  Size  Location     Type
   928 ;;                  1    wreg      void 
   929 ;; Registers used:
   930 ;;		wreg, fsr2l, fsr2h, status,2, status,0, prodl, prodh, cstack
   931 ;; Tracked objects:
   932 ;;		On entry : 0/0
   933 ;;		On exit  : 0/0
   934 ;;		Unchanged: 0/0
   935 ;; Data sizes:     COMRAM   BANK5   BANK6   BANK7   BANK8   BANK9  BANK10  BANK11  BANK12  BANK13  BANK14  BANK15  BANK1
      +6  BANK17  BANK18  BANK19  BANK20  BANK21  BANK22  BANK23  BANK24  BANK25  BANK26  BANK27  BANK28  BANK29  BANK30  BANK3
      +1  BANK32  BANK33  BANK34  BANK35  BANK36  BANK37  BANK38  BANK39  BANK40  BANK41  BANK42  BANK43  BANK44  BANK45  BANK4
      +6  BANK47  BANK48  BANK49  BANK50  BANK51  BANK52  BANK53  BANK54
   936 ;;      Params:         0       0       0       0       0       0       0       0       0       0       0       0       
      +0       0       0       0       0       0       0       0       0       0       0       0       0       0       0       
      +0       0       0       0       0       0       0       0       0       0       0       0       0       0       0       
      +0       0       0       0       0       0       0       0       0
   937 ;;      Locals:         0       0       0       0       0       0       0       0       0       0       0       0       
      +0       0       0       0       0       0       0       0       0       0       0       0       0       0       0       
      +0       0       0       0       0       0       0       0       0       0       0       0       0       0       0       
      +0       0       0       0       0       0       0       0       0
   938 ;;      Temps:          0       0       0       0       0       0       0       0       0       0       0       0       
      +0       0       0       0       0       0       0       0       0       0       0       0       0       0       0       
      +0       0       0       0       0       0       0       0       0       0       0       0       0       0       0       
      +0       0       0       0       0       0       0       0       0
   939 ;;      Totals:         0       0       0       0       0       0       0       0       0       0       0       0       
      +0       0       0       0       0       0       0       0       0       0       0       0       0       0       0       
      +0       0       0       0       0       0       0       0       0       0       0       0       0       0       0       
      +0       0       0       0       0       0       0       0       0
   940 ;;Total ram usage:        0 bytes
   941 ;; Hardware stack levels used: 1
   942 ;; Hardware stack levels required when called: 4
   943 ;; This function calls:
   944 ;;		_CAN1_BitRateConfiguration
   945 ;;		_CAN1_ErrorNotificationInterruptEnable
   946 ;;		_CAN1_OperationModeSet
   947 ;;		_CAN1_RX_FIFO_Configuration
   948 ;;		_CAN1_RX_FIFO_FilterMaskConfiguration
   949 ;;		_CAN1_RX_FIFO_ResetInfo
   950 ;;		_CAN1_TX_FIFO_Configuration
   951 ;; This function is called by:
   952 ;;		_SYSTEM_Initialize
   953 ;; This function uses a non-reentrant model
   954 ;;
   955                           
   956                           	psect	text6
   957  003A4E                     __ptext6:
   958                           	callstack 0
   959  003A4E                     _CAN1_Initialize:
   960                           	callstack 121
   961  003A4E                     
   962                           ;mcc_generated_files/can1.c: 283:     C1CONHbits.ON = 1;
   963  003A4E  0101               	movlb	1	; () banked
   964  003A50  8F01               	bsf	1,7,b	;volatile
   965  003A52                     
   966                           ; BSR set to: 1
   967                           ;mcc_generated_files/can1.c: 285:     if (CAN_OP_MODE_REQUEST_SUCCESS == CAN1_OperationM
      +                          odeSet(CAN_CONFIGURATION_MODE))
   968  003A52  0E04               	movlw	4
   969  003A54  EC51  F01C         	call	_CAN1_OperationModeSet
   970  003A58  0900               	iorlw	0
   971  003A5A  A4D8               	btfss	status,2,c
   972  003A5C  EF32  F01D         	goto	u831
   973  003A60  EF34  F01D         	goto	u830
   974  003A64                     u831:
   975  003A64  EF52  F01D         	goto	l181
   976  003A68                     u830:
   977  003A68                     
   978                           ;mcc_generated_files/can1.c: 286:     {;mcc_generated_files/can1.c: 288:         C1FIFOB
      +                          A = 0x3800;
   979  003A68  0E00               	movlw	0
   980  003A6A  0101               	movlb	1	; () banked
   981  003A6C  6F4C               	movwf	76,b	;volatile
   982  003A6E  0E38               	movlw	56
   983  003A70  6F4D               	movwf	77,b	;volatile
   984  003A72  0E00               	movlw	0
   985  003A74  6F4E               	movwf	78,b	;volatile
   986  003A76  0E00               	movlw	0
   987  003A78  6F4F               	movwf	79,b	;volatile
   988                           
   989                           ;mcc_generated_files/can1.c: 291:         C1CONL = 0x60;
   990  003A7A  0E60               	movlw	96
   991  003A7C  6F00               	movwf	0,b	;volatile
   992                           
   993                           ;mcc_generated_files/can1.c: 294:         C1CONH = 0x87;
   994  003A7E  0E87               	movlw	135
   995  003A80  6F01               	movwf	1,b	;volatile
   996                           
   997                           ;mcc_generated_files/can1.c: 297:         C1CONU = 0x10;
   998  003A82  0E10               	movlw	16
   999  003A84  6F02               	movwf	2,b	;volatile
  1000  003A86                     
  1001                           ; BSR set to: 1
  1002                           ;mcc_generated_files/can1.c: 299:         CAN1_BitRateConfiguration();
  1003  003A86  ECA8  F01D         	call	_CAN1_BitRateConfiguration	;wreg free
  1004  003A8A                     
  1005                           ;mcc_generated_files/can1.c: 300:         CAN1_TX_FIFO_Configuration();
  1006  003A8A  ECE5  F01D         	call	_CAN1_TX_FIFO_Configuration	;wreg free
  1007  003A8E                     
  1008                           ;mcc_generated_files/can1.c: 301:         CAN1_RX_FIFO_Configuration();
  1009  003A8E  ECF7  F01D         	call	_CAN1_RX_FIFO_Configuration	;wreg free
  1010                           
  1011                           ;mcc_generated_files/can1.c: 302:         CAN1_RX_FIFO_FilterMaskConfiguration();
  1012  003A92  EC54  F01E         	call	_CAN1_RX_FIFO_FilterMaskConfiguration	;wreg free
  1013  003A96                     
  1014                           ;mcc_generated_files/can1.c: 303:         CAN1_RX_FIFO_ResetInfo();
  1015  003A96  EC92  F01D         	call	_CAN1_RX_FIFO_ResetInfo	;wreg free
  1016  003A9A                     
  1017                           ;mcc_generated_files/can1.c: 304:         CAN1_ErrorNotificationInterruptEnable();
  1018  003A9A  EC9D  F01C         	call	_CAN1_ErrorNotificationInterruptEnable	;wreg free
  1019  003A9E                     
  1020                           ;mcc_generated_files/can1.c: 305:         CAN1_OperationModeSet(CAN_NORMAL_FD_MODE);
  1021  003A9E  0E00               	movlw	0
  1022  003AA0  EC51  F01C         	call	_CAN1_OperationModeSet
  1023  003AA4                     l181:
  1024  003AA4  0012               	return		;funcret
  1025  003AA6                     __end_of_CAN1_Initialize:
  1026                           	callstack 0
  1027                           
  1028 ;; *************** function _CAN1_TX_FIFO_Configuration *****************
  1029 ;; Defined at:
  1030 ;;		line 193 in file "mcc_generated_files/can1.c"
  1031 ;; Parameters:    Size  Location     Type
  1032 ;;		None
  1033 ;; Auto vars:     Size  Location     Type
  1034 ;;		None
  1035 ;; Return value:  Size  Location     Type
  1036 ;;                  1    wreg      void 
  1037 ;; Registers used:
  1038 ;;		wreg, status,2
  1039 ;; Tracked objects:
  1040 ;;		On entry : 0/0
  1041 ;;		On exit  : 0/0
  1042 ;;		Unchanged: 0/0
  1043 ;; Data sizes:     COMRAM   BANK5   BANK6   BANK7   BANK8   BANK9  BANK10  BANK11  BANK12  BANK13  BANK14  BANK15  BANK1
      +6  BANK17  BANK18  BANK19  BANK20  BANK21  BANK22  BANK23  BANK24  BANK25  BANK26  BANK27  BANK28  BANK29  BANK30  BANK3
      +1  BANK32  BANK33  BANK34  BANK35  BANK36  BANK37  BANK38  BANK39  BANK40  BANK41  BANK42  BANK43  BANK44  BANK45  BANK4
      +6  BANK47  BANK48  BANK49  BANK50  BANK51  BANK52  BANK53  BANK54
  1044 ;;      Params:         0       0       0       0       0       0       0       0       0       0       0       0       
      +0       0       0       0       0       0       0       0       0       0       0       0       0       0       0       
      +0       0       0       0       0       0       0       0       0       0       0       0       0       0       0       
      +0       0       0       0       0       0       0       0       0
  1045 ;;      Locals:         0       0       0       0       0       0       0       0       0       0       0       0       
      +0       0       0       0       0       0       0       0       0       0       0       0       0       0       0       
      +0       0       0       0       0       0       0       0       0       0       0       0       0       0       0       
      +0       0       0       0       0       0       0       0       0
  1046 ;;      Temps:          0       0       0       0       0       0       0       0       0       0       0       0       
      +0       0       0       0       0       0       0       0       0       0       0       0       0       0       0       
      +0       0       0       0       0       0       0       0       0       0       0       0       0       0       0       
      +0       0       0       0       0       0       0       0       0
  1047 ;;      Totals:         0       0       0       0       0       0       0       0       0       0       0       0       
      +0       0       0       0       0       0       0       0       0       0       0       0       0       0       0       
      +0       0       0       0       0       0       0       0       0       0       0       0       0       0       0       
      +0       0       0       0       0       0       0       0       0
  1048 ;;Total ram usage:        0 bytes
  1049 ;; Hardware stack levels used: 1
  1050 ;; Hardware stack levels required when called: 2
  1051 ;; This function calls:
  1052 ;;		Nothing
  1053 ;; This function is called by:
  1054 ;;		_CAN1_Initialize
  1055 ;; This function uses a non-reentrant model
  1056 ;;
  1057                           
  1058                           	psect	text7
  1059  003BCA                     __ptext7:
  1060                           	callstack 0
  1061  003BCA                     _CAN1_TX_FIFO_Configuration:
  1062                           	callstack 122
  1063  003BCA                     
  1064                           ;mcc_generated_files/can1.c: 196:     C1TXQCONL = 0x10;
  1065  003BCA  0E10               	movlw	16
  1066  003BCC  0101               	movlb	1	; () banked
  1067  003BCE  6F50               	movwf	80,b	;volatile
  1068                           
  1069                           ;mcc_generated_files/can1.c: 199:     C1TXQCONH = 0x04;
  1070  003BD0  0E04               	movlw	4
  1071  003BD2  6F51               	movwf	81,b	;volatile
  1072                           
  1073                           ;mcc_generated_files/can1.c: 202:     C1TXQCONU = 0x60;
  1074  003BD4  0E60               	movlw	96
  1075  003BD6  6F52               	movwf	82,b	;volatile
  1076                           
  1077                           ;mcc_generated_files/can1.c: 205:     C1TXQCONT = 0xE5;
  1078  003BD8  0EE5               	movlw	229
  1079  003BDA  6F53               	movwf	83,b	;volatile
  1080                           
  1081                           ;mcc_generated_files/can1.c: 208:     C1FIFOCON1L = 0x90;
  1082  003BDC  0E90               	movlw	144
  1083  003BDE  6F5C               	movwf	92,b	;volatile
  1084                           
  1085                           ;mcc_generated_files/can1.c: 211:     C1FIFOCON1H = 0x04;
  1086  003BE0  0E04               	movlw	4
  1087  003BE2  6F5D               	movwf	93,b	;volatile
  1088                           
  1089                           ;mcc_generated_files/can1.c: 214:     C1FIFOCON1U = 0x60;
  1090  003BE4  0E60               	movlw	96
  1091  003BE6  6F5E               	movwf	94,b	;volatile
  1092                           
  1093                           ;mcc_generated_files/can1.c: 217:     C1FIFOCON1T = 0xE5;
  1094  003BE8  0EE5               	movlw	229
  1095  003BEA  6F5F               	movwf	95,b	;volatile
  1096  003BEC                     
  1097                           ; BSR set to: 1
  1098  003BEC  0012               	return		;funcret
  1099  003BEE                     __end_of_CAN1_TX_FIFO_Configuration:
  1100                           	callstack 0
  1101                           
  1102 ;; *************** function _CAN1_RX_FIFO_ResetInfo *****************
  1103 ;; Defined at:
  1104 ;;		line 151 in file "mcc_generated_files/can1.c"
  1105 ;; Parameters:    Size  Location     Type
  1106 ;;		None
  1107 ;; Auto vars:     Size  Location     Type
  1108 ;;  index           1    2[COMRAM] unsigned char 
  1109 ;; Return value:  Size  Location     Type
  1110 ;;                  1    wreg      void 
  1111 ;; Registers used:
  1112 ;;		wreg, fsr2l, fsr2h, status,2, status,0, prodl, prodh
  1113 ;; Tracked objects:
  1114 ;;		On entry : 0/0
  1115 ;;		On exit  : 0/0
  1116 ;;		Unchanged: 0/0
  1117 ;; Data sizes:     COMRAM   BANK5   BANK6   BANK7   BANK8   BANK9  BANK10  BANK11  BANK12  BANK13  BANK14  BANK15  BANK1
      +6  BANK17  BANK18  BANK19  BANK20  BANK21  BANK22  BANK23  BANK24  BANK25  BANK26  BANK27  BANK28  BANK29  BANK30  BANK3
      +1  BANK32  BANK33  BANK34  BANK35  BANK36  BANK37  BANK38  BANK39  BANK40  BANK41  BANK42  BANK43  BANK44  BANK45  BANK4
      +6  BANK47  BANK48  BANK49  BANK50  BANK51  BANK52  BANK53  BANK54
  1118 ;;      Params:         0       0       0       0       0       0       0       0       0       0       0       0       
      +0       0       0       0       0       0       0       0       0       0       0       0       0       0       0       
      +0       0       0       0       0       0       0       0       0       0       0       0       0       0       0       
      +0       0       0       0       0       0       0       0       0
  1119 ;;      Locals:         1       0       0       0       0       0       0       0       0       0       0       0       
      +0       0       0       0       0       0       0       0       0       0       0       0       0       0       0       
      +0       0       0       0       0       0       0       0       0       0       0       0       0       0       0       
      +0       0       0       0       0       0       0       0       0
  1120 ;;      Temps:          0       0       0       0       0       0       0       0       0       0       0       0       
      +0       0       0       0       0       0       0       0       0       0       0       0       0       0       0       
      +0       0       0       0       0       0       0       0       0       0       0       0       0       0       0       
      +0       0       0       0       0       0       0       0       0
  1121 ;;      Totals:         1       0       0       0       0       0       0       0       0       0       0       0       
      +0       0       0       0       0       0       0       0       0       0       0       0       0       0       0       
      +0       0       0       0       0       0       0       0       0       0       0       0       0       0       0       
      +0       0       0       0       0       0       0       0       0
  1122 ;;Total ram usage:        1 bytes
  1123 ;; Hardware stack levels used: 1
  1124 ;; Hardware stack levels required when called: 2
  1125 ;; This function calls:
  1126 ;;		Nothing
  1127 ;; This function is called by:
  1128 ;;		_CAN1_Initialize
  1129 ;; This function uses a non-reentrant model
  1130 ;;
  1131                           
  1132                           	psect	text8
  1133  003B24                     __ptext8:
  1134                           	callstack 0
  1135  003B24                     _CAN1_RX_FIFO_ResetInfo:
  1136                           	callstack 122
  1137  003B24                     
  1138                           ;mcc_generated_files/can1.c: 153:     uint8_t index;;mcc_generated_files/can1.c: 155:   
      +                            for (index = 0; index < (2U); index++)
  1139  003B24  0E00               	movlw	0
  1140  003B26  6E5C               	movwf	CAN1_RX_FIFO_ResetInfo@index^(0+1280),c
  1141  003B28                     l1196:
  1142                           
  1143                           ;mcc_generated_files/can1.c: 156:     {;mcc_generated_files/can1.c: 157:         rxFifos
      +                          [index].fifoHead = 0;
  1144  003B28  505C               	movf	CAN1_RX_FIFO_ResetInfo@index^(0+1280),w,c
  1145  003B2A  0D02               	mullw	2
  1146  003B2C  0E57               	movlw	low (_rxFifos+1)
  1147  003B2E  24F3               	addwf	243,w,c
  1148  003B30  6ED9               	movwf	fsr2l,c
  1149  003B32  0E05               	movlw	high (_rxFifos+1)
  1150  003B34  20F4               	addwfc	prodh,w,c
  1151  003B36  6EDA               	movwf	fsr2h,c
  1152  003B38  0E00               	movlw	0
  1153  003B3A  6EDF               	movwf	indf2,c
  1154  003B3C                     
  1155                           ;mcc_generated_files/can1.c: 158:     }
  1156  003B3C  2A5C               	incf	CAN1_RX_FIFO_ResetInfo@index^(0+1280),f,c
  1157  003B3E  0E01               	movlw	1
  1158  003B40  645C               	cpfsgt	CAN1_RX_FIFO_ResetInfo@index^(0+1280),c
  1159  003B42  EFA5  F01D         	goto	u11
  1160  003B46  EFA7  F01D         	goto	u10
  1161  003B4A                     u11:
  1162  003B4A  EF94  F01D         	goto	l1196
  1163  003B4E                     u10:
  1164  003B4E  0012               	return		;funcret
  1165  003B50                     __end_of_CAN1_RX_FIFO_ResetInfo:
  1166                           	callstack 0
  1167                           
  1168 ;; *************** function _CAN1_RX_FIFO_FilterMaskConfiguration *****************
  1169 ;; Defined at:
  1170 ;;		line 189 in file "mcc_generated_files/can1.c"
  1171 ;; Parameters:    Size  Location     Type
  1172 ;;		None
  1173 ;; Auto vars:     Size  Location     Type
  1174 ;;		None
  1175 ;; Return value:  Size  Location     Type
  1176 ;;                  1    wreg      void 
  1177 ;; Registers used:
  1178 ;;		None
  1179 ;; Tracked objects:
  1180 ;;		On entry : 0/0
  1181 ;;		On exit  : 0/0
  1182 ;;		Unchanged: 0/0
  1183 ;; Data sizes:     COMRAM   BANK5   BANK6   BANK7   BANK8   BANK9  BANK10  BANK11  BANK12  BANK13  BANK14  BANK15  BANK1
      +6  BANK17  BANK18  BANK19  BANK20  BANK21  BANK22  BANK23  BANK24  BANK25  BANK26  BANK27  BANK28  BANK29  BANK30  BANK3
      +1  BANK32  BANK33  BANK34  BANK35  BANK36  BANK37  BANK38  BANK39  BANK40  BANK41  BANK42  BANK43  BANK44  BANK45  BANK4
      +6  BANK47  BANK48  BANK49  BANK50  BANK51  BANK52  BANK53  BANK54
  1184 ;;      Params:         0       0       0       0       0       0       0       0       0       0       0       0       
      +0       0       0       0       0       0       0       0       0       0       0       0       0       0       0       
      +0       0       0       0       0       0       0       0       0       0       0       0       0       0       0       
      +0       0       0       0       0       0       0       0       0
  1185 ;;      Locals:         0       0       0       0       0       0       0       0       0       0       0       0       
      +0       0       0       0       0       0       0       0       0       0       0       0       0       0       0       
      +0       0       0       0       0       0       0       0       0       0       0       0       0       0       0       
      +0       0       0       0       0       0       0       0       0
  1186 ;;      Temps:          0       0       0       0       0       0       0       0       0       0       0       0       
      +0       0       0       0       0       0       0       0       0       0       0       0       0       0       0       
      +0       0       0       0       0       0       0       0       0       0       0       0       0       0       0       
      +0       0       0       0       0       0       0       0       0
  1187 ;;      Totals:         0       0       0       0       0       0       0       0       0       0       0       0       
      +0       0       0       0       0       0       0       0       0       0       0       0       0       0       0       
      +0       0       0       0       0       0       0       0       0       0       0       0       0       0       0       
      +0       0       0       0       0       0       0       0       0
  1188 ;;Total ram usage:        0 bytes
  1189 ;; Hardware stack levels used: 1
  1190 ;; Hardware stack levels required when called: 2
  1191 ;; This function calls:
  1192 ;;		Nothing
  1193 ;; This function is called by:
  1194 ;;		_CAN1_Initialize
  1195 ;; This function uses a non-reentrant model
  1196 ;;
  1197                           
  1198                           	psect	text9
  1199  003CA8                     __ptext9:
  1200                           	callstack 0
  1201  003CA8                     _CAN1_RX_FIFO_FilterMaskConfiguration:
  1202                           	callstack 122
  1203  003CA8  0012               	return		;funcret
  1204  003CAA                     __end_of_CAN1_RX_FIFO_FilterMaskConfiguration:
  1205                           	callstack 0
  1206                           
  1207 ;; *************** function _CAN1_RX_FIFO_Configuration *****************
  1208 ;; Defined at:
  1209 ;;		line 161 in file "mcc_generated_files/can1.c"
  1210 ;; Parameters:    Size  Location     Type
  1211 ;;		None
  1212 ;; Auto vars:     Size  Location     Type
  1213 ;;		None
  1214 ;; Return value:  Size  Location     Type
  1215 ;;                  1    wreg      void 
  1216 ;; Registers used:
  1217 ;;		wreg, status,2
  1218 ;; Tracked objects:
  1219 ;;		On entry : 0/0
  1220 ;;		On exit  : 0/0
  1221 ;;		Unchanged: 0/0
  1222 ;; Data sizes:     COMRAM   BANK5   BANK6   BANK7   BANK8   BANK9  BANK10  BANK11  BANK12  BANK13  BANK14  BANK15  BANK1
      +6  BANK17  BANK18  BANK19  BANK20  BANK21  BANK22  BANK23  BANK24  BANK25  BANK26  BANK27  BANK28  BANK29  BANK30  BANK3
      +1  BANK32  BANK33  BANK34  BANK35  BANK36  BANK37  BANK38  BANK39  BANK40  BANK41  BANK42  BANK43  BANK44  BANK45  BANK4
      +6  BANK47  BANK48  BANK49  BANK50  BANK51  BANK52  BANK53  BANK54
  1223 ;;      Params:         0       0       0       0       0       0       0       0       0       0       0       0       
      +0       0       0       0       0       0       0       0       0       0       0       0       0       0       0       
      +0       0       0       0       0       0       0       0       0       0       0       0       0       0       0       
      +0       0       0       0       0       0       0       0       0
  1224 ;;      Locals:         0       0       0       0       0       0       0       0       0       0       0       0       
      +0       0       0       0       0       0       0       0       0       0       0       0       0       0       0       
      +0       0       0       0       0       0       0       0       0       0       0       0       0       0       0       
      +0       0       0       0       0       0       0       0       0
  1225 ;;      Temps:          0       0       0       0       0       0       0       0       0       0       0       0       
      +0       0       0       0       0       0       0       0       0       0       0       0       0       0       0       
      +0       0       0       0       0       0       0       0       0       0       0       0       0       0       0       
      +0       0       0       0       0       0       0       0       0
  1226 ;;      Totals:         0       0       0       0       0       0       0       0       0       0       0       0       
      +0       0       0       0       0       0       0       0       0       0       0       0       0       0       0       
      +0       0       0       0       0       0       0       0       0       0       0       0       0       0       0       
      +0       0       0       0       0       0       0       0       0
  1227 ;;Total ram usage:        0 bytes
  1228 ;; Hardware stack levels used: 1
  1229 ;; Hardware stack levels required when called: 2
  1230 ;; This function calls:
  1231 ;;		Nothing
  1232 ;; This function is called by:
  1233 ;;		_CAN1_Initialize
  1234 ;; This function uses a non-reentrant model
  1235 ;;
  1236                           
  1237                           	psect	text10
  1238  003BEE                     __ptext10:
  1239                           	callstack 0
  1240  003BEE                     _CAN1_RX_FIFO_Configuration:
  1241                           	callstack 122
  1242  003BEE                     
  1243                           ;mcc_generated_files/can1.c: 164:     C1FIFOCON2L = 0x08;
  1244  003BEE  0E08               	movlw	8
  1245  003BF0  0101               	movlb	1	; () banked
  1246  003BF2  6F68               	movwf	104,b	;volatile
  1247                           
  1248                           ;mcc_generated_files/can1.c: 167:     C1FIFOCON2H = 0x04;
  1249  003BF4  0E04               	movlw	4
  1250  003BF6  6F69               	movwf	105,b	;volatile
  1251                           
  1252                           ;mcc_generated_files/can1.c: 170:     C1FIFOCON2U = 0x60;
  1253  003BF8  0E60               	movlw	96
  1254  003BFA  6F6A               	movwf	106,b	;volatile
  1255                           
  1256                           ;mcc_generated_files/can1.c: 173:     C1FIFOCON2T = 0xE5;
  1257  003BFC  0EE5               	movlw	229
  1258  003BFE  6F6B               	movwf	107,b	;volatile
  1259                           
  1260                           ;mcc_generated_files/can1.c: 176:     C1FIFOCON3L = 0x08;
  1261  003C00  0E08               	movlw	8
  1262  003C02  6F74               	movwf	116,b	;volatile
  1263                           
  1264                           ;mcc_generated_files/can1.c: 179:     C1FIFOCON3H = 0x04;
  1265  003C04  0E04               	movlw	4
  1266  003C06  6F75               	movwf	117,b	;volatile
  1267                           
  1268                           ;mcc_generated_files/can1.c: 182:     C1FIFOCON3U = 0x60;
  1269  003C08  0E60               	movlw	96
  1270  003C0A  6F76               	movwf	118,b	;volatile
  1271                           
  1272                           ;mcc_generated_files/can1.c: 185:     C1FIFOCON3T = 0xE5;
  1273  003C0C  0EE5               	movlw	229
  1274  003C0E  6F77               	movwf	119,b	;volatile
  1275  003C10                     
  1276                           ; BSR set to: 1
  1277  003C10  0012               	return		;funcret
  1278  003C12                     __end_of_CAN1_RX_FIFO_Configuration:
  1279                           	callstack 0
  1280                           
  1281 ;; *************** function _CAN1_OperationModeSet *****************
  1282 ;; Defined at:
  1283 ;;		line 309 in file "mcc_generated_files/can1.c"
  1284 ;; Parameters:    Size  Location     Type
  1285 ;;  requestMode     1    wreg     const enum E22749
  1286 ;; Auto vars:     Size  Location     Type
  1287 ;;  requestMode     1    2[BANK5 ] const enum E22749
  1288 ;;  status          1    1[BANK5 ] enum E22759
  1289 ;;  opMode          1    0[BANK5 ] enum E22749
  1290 ;; Return value:  Size  Location     Type
  1291 ;;                  1    wreg      enum E22759
  1292 ;; Registers used:
  1293 ;;		wreg, status,2, status,0, cstack
  1294 ;; Tracked objects:
  1295 ;;		On entry : 0/0
  1296 ;;		On exit  : 0/0
  1297 ;;		Unchanged: 0/0
  1298 ;; Data sizes:     COMRAM   BANK5   BANK6   BANK7   BANK8   BANK9  BANK10  BANK11  BANK12  BANK13  BANK14  BANK15  BANK1
      +6  BANK17  BANK18  BANK19  BANK20  BANK21  BANK22  BANK23  BANK24  BANK25  BANK26  BANK27  BANK28  BANK29  BANK30  BANK3
      +1  BANK32  BANK33  BANK34  BANK35  BANK36  BANK37  BANK38  BANK39  BANK40  BANK41  BANK42  BANK43  BANK44  BANK45  BANK4
      +6  BANK47  BANK48  BANK49  BANK50  BANK51  BANK52  BANK53  BANK54
  1299 ;;      Params:         0       0       0       0       0       0       0       0       0       0       0       0       
      +0       0       0       0       0       0       0       0       0       0       0       0       0       0       0       
      +0       0       0       0       0       0       0       0       0       0       0       0       0       0       0       
      +0       0       0       0       0       0       0       0       0
  1300 ;;      Locals:         0       3       0       0       0       0       0       0       0       0       0       0       
      +0       0       0       0       0       0       0       0       0       0       0       0       0       0       0       
      +0       0       0       0       0       0       0       0       0       0       0       0       0       0       0       
      +0       0       0       0       0       0       0       0       0
  1301 ;;      Temps:          0       0       0       0       0       0       0       0       0       0       0       0       
      +0       0       0       0       0       0       0       0       0       0       0       0       0       0       0       
      +0       0       0       0       0       0       0       0       0       0       0       0       0       0       0       
      +0       0       0       0       0       0       0       0       0
  1302 ;;      Totals:         0       3       0       0       0       0       0       0       0       0       0       0       
      +0       0       0       0       0       0       0       0       0       0       0       0       0       0       0       
      +0       0       0       0       0       0       0       0       0       0       0       0       0       0       0       
      +0       0       0       0       0       0       0       0       0
  1303 ;;Total ram usage:        3 bytes
  1304 ;; Hardware stack levels used: 1
  1305 ;; Hardware stack levels required when called: 3
  1306 ;; This function calls:
  1307 ;;		_CAN1_OperationModeGet
  1308 ;; This function is called by:
  1309 ;;		_CAN1_Initialize
  1310 ;;		_CAN1_Sleep
  1311 ;; This function uses a non-reentrant model
  1312 ;;
  1313                           
  1314                           	psect	text11
  1315  0038A2                     __ptext11:
  1316                           	callstack 0
  1317  0038A2                     _CAN1_OperationModeSet:
  1318                           	callstack 121
  1319                           
  1320                           ; BSR set to: 1
  1321                           ;incstack = 0
  1322                           ;CAN1_OperationModeSet@requestMode stored from wreg
  1323  0038A2  0105               	movlb	5	; () banked
  1324  0038A4  6F62               	movwf	CAN1_OperationModeSet@requestMode& (0+255),b
  1325  0038A6                     
  1326                           ;mcc_generated_files/can1.c: 309: CAN_OP_MODE_STATUS CAN1_OperationModeSet(const CAN_OP_
      +                          MODES requestMode);mcc_generated_files/can1.c: 310: {;mcc_generated_files/can1.c: 311:  
      +                             CAN_OP_MODE_STATUS status = CAN_OP_MODE_REQUEST_SUCCESS;
  1327  0038A6  0E00               	movlw	0
  1328  0038A8  0105               	movlb	5	; () banked
  1329  0038AA  6F61               	movwf	CAN1_OperationModeSet@status& (0+255),b
  1330  0038AC                     
  1331                           ; BSR set to: 5
  1332                           ;mcc_generated_files/can1.c: 312:     CAN_OP_MODES opMode = CAN1_OperationModeGet();
  1333  0038AC  EC4D  F01E         	call	_CAN1_OperationModeGet	;wreg free
  1334  0038B0  0105               	movlb	5	; () banked
  1335  0038B2  6F60               	movwf	CAN1_OperationModeSet@opMode& (0+255),b
  1336  0038B4                     
  1337                           ; BSR set to: 5
  1338                           ;mcc_generated_files/can1.c: 314:     if (CAN_CONFIGURATION_MODE == opMode
  1339  0038B4  0E04               	movlw	4
  1340  0038B6  1960               	xorwf	CAN1_OperationModeSet@opMode& (0+255),w,b
  1341  0038B8  B4D8               	btfsc	status,2,c
  1342  0038BA  EF61  F01C         	goto	u781
  1343  0038BE  EF63  F01C         	goto	u780
  1344  0038C2                     u781:
  1345  0038C2  EF74  F01C         	goto	l1728
  1346  0038C6                     u780:
  1347  0038C6                     
  1348                           ; BSR set to: 5
  1349  0038C6  0562               	decf	CAN1_OperationModeSet@requestMode& (0+255),w,b
  1350  0038C8  B4D8               	btfsc	status,2,c
  1351  0038CA  EF69  F01C         	goto	u791
  1352  0038CE  EF6B  F01C         	goto	u790
  1353  0038D2                     u791:
  1354  0038D2  EF74  F01C         	goto	l1728
  1355  0038D6                     u790:
  1356  0038D6                     
  1357                           ; BSR set to: 5
  1358  0038D6  0E04               	movlw	4
  1359  0038D8  1962               	xorwf	CAN1_OperationModeSet@requestMode& (0+255),w,b
  1360  0038DA  A4D8               	btfss	status,2,c
  1361  0038DC  EF72  F01C         	goto	u801
  1362  0038E0  EF74  F01C         	goto	u800
  1363  0038E4                     u801:
  1364  0038E4  EF99  F01C         	goto	l1734
  1365  0038E8                     u800:
  1366  0038E8                     l1728:
  1367                           
  1368                           ; BSR set to: 5
  1369                           ;mcc_generated_files/can1.c: 317:     {;mcc_generated_files/can1.c: 318:         C1CONTb
      +                          its.REQOP = requestMode;
  1370  0038E8  0101               	movlb	1	; () banked
  1371  0038EA  5103               	movf	3,w,b	;volatile
  1372  0038EC  0105               	movlb	5	; () banked
  1373  0038EE  1962               	xorwf	CAN1_OperationModeSet@requestMode& (0+255),w,b
  1374  0038F0  0BF8               	andlw	-8
  1375  0038F2  1962               	xorwf	CAN1_OperationModeSet@requestMode& (0+255),w,b
  1376  0038F4  0101               	movlb	1	; () banked
  1377  0038F6  6F03               	movwf	3,b	;volatile
  1378                           
  1379                           ;mcc_generated_files/can1.c: 320:         while (C1CONUbits.OPMOD != requestMode)
  1380  0038F8  EF8B  F01C         	goto	l1732
  1381  0038FC                     l188:
  1382                           
  1383                           ; BSR set to: 5
  1384                           ;mcc_generated_files/can1.c: 321:         {;mcc_generated_files/can1.c: 323:            
      +                           if (1 == C1INTHbits.SERRIF)
  1385  0038FC  0101               	movlb	1	; () banked
  1386  0038FE  A91D               	btfss	29,4,b	;volatile
  1387  003900  EF84  F01C         	goto	u811
  1388  003904  EF86  F01C         	goto	u810
  1389  003908                     u811:
  1390  003908  EF8B  F01C         	goto	l1732
  1391  00390C                     u810:
  1392  00390C                     
  1393                           ; BSR set to: 1
  1394                           ;mcc_generated_files/can1.c: 324:             {;mcc_generated_files/can1.c: 325:        
      +                                   status = CAN_OP_MODE_SYS_ERROR_OCCURED;
  1395  00390C  0E02               	movlw	2
  1396  00390E  0105               	movlb	5	; () banked
  1397  003910  6F61               	movwf	CAN1_OperationModeSet@status& (0+255),b
  1398                           
  1399                           ;mcc_generated_files/can1.c: 326:                 break;
  1400  003912  EF9B  F01C         	goto	l191
  1401  003916                     l1732:
  1402                           
  1403                           ; BSR set to: 1
  1404                           ;mcc_generated_files/can1.c: 320:         while (C1CONUbits.OPMOD != requestMode)
  1405  003916  3902               	swapf	2,w,b	;volatile
  1406  003918  32E8               	rrcf	wreg,f,c
  1407  00391A  0B07               	andlw	7
  1408  00391C  0105               	movlb	5	; () banked
  1409  00391E  1962               	xorwf	CAN1_OperationModeSet@requestMode& (0+255),w,b
  1410  003920  A4D8               	btfss	status,2,c
  1411  003922  EF95  F01C         	goto	u821
  1412  003926  EF97  F01C         	goto	u820
  1413  00392A                     u821:
  1414  00392A  EF7E  F01C         	goto	l188
  1415  00392E                     u820:
  1416  00392E  EF9B  F01C         	goto	l191
  1417  003932                     l1734:
  1418                           
  1419                           ; BSR set to: 5
  1420                           ;mcc_generated_files/can1.c: 331:     {;mcc_generated_files/can1.c: 332:         status 
      +                          = CAN_OP_MODE_REQUEST_FAIL;
  1421  003932  0E01               	movlw	1
  1422  003934  6F61               	movwf	CAN1_OperationModeSet@status& (0+255),b
  1423  003936                     l191:
  1424                           
  1425                           ; BSR set to: 5
  1426                           ;mcc_generated_files/can1.c: 335:     return status;
  1427  003936  5161               	movf	CAN1_OperationModeSet@status& (0+255),w,b
  1428  003938                     
  1429                           ; BSR set to: 5
  1430  003938  0012               	return		;funcret
  1431  00393A                     __end_of_CAN1_OperationModeSet:
  1432                           	callstack 0
  1433                           
  1434 ;; *************** function _CAN1_OperationModeGet *****************
  1435 ;; Defined at:
  1436 ;;		line 338 in file "mcc_generated_files/can1.c"
  1437 ;; Parameters:    Size  Location     Type
  1438 ;;		None
  1439 ;; Auto vars:     Size  Location     Type
  1440 ;;		None
  1441 ;; Return value:  Size  Location     Type
  1442 ;;                  1    wreg      enum E22749
  1443 ;; Registers used:
  1444 ;;		wreg, status,2, status,0
  1445 ;; Tracked objects:
  1446 ;;		On entry : 0/0
  1447 ;;		On exit  : 0/0
  1448 ;;		Unchanged: 0/0
  1449 ;; Data sizes:     COMRAM   BANK5   BANK6   BANK7   BANK8   BANK9  BANK10  BANK11  BANK12  BANK13  BANK14  BANK15  BANK1
      +6  BANK17  BANK18  BANK19  BANK20  BANK21  BANK22  BANK23  BANK24  BANK25  BANK26  BANK27  BANK28  BANK29  BANK30  BANK3
      +1  BANK32  BANK33  BANK34  BANK35  BANK36  BANK37  BANK38  BANK39  BANK40  BANK41  BANK42  BANK43  BANK44  BANK45  BANK4
      +6  BANK47  BANK48  BANK49  BANK50  BANK51  BANK52  BANK53  BANK54
  1450 ;;      Params:         0       0       0       0       0       0       0       0       0       0       0       0       
      +0       0       0       0       0       0       0       0       0       0       0       0       0       0       0       
      +0       0       0       0       0       0       0       0       0       0       0       0       0       0       0       
      +0       0       0       0       0       0       0       0       0
  1451 ;;      Locals:         0       0       0       0       0       0       0       0       0       0       0       0       
      +0       0       0       0       0       0       0       0       0       0       0       0       0       0       0       
      +0       0       0       0       0       0       0       0       0       0       0       0       0       0       0       
      +0       0       0       0       0       0       0       0       0
  1452 ;;      Temps:          0       0       0       0       0       0       0       0       0       0       0       0       
      +0       0       0       0       0       0       0       0       0       0       0       0       0       0       0       
      +0       0       0       0       0       0       0       0       0       0       0       0       0       0       0       
      +0       0       0       0       0       0       0       0       0
  1453 ;;      Totals:         0       0       0       0       0       0       0       0       0       0       0       0       
      +0       0       0       0       0       0       0       0       0       0       0       0       0       0       0       
      +0       0       0       0       0       0       0       0       0       0       0       0       0       0       0       
      +0       0       0       0       0       0       0       0       0
  1454 ;;Total ram usage:        0 bytes
  1455 ;; Hardware stack levels used: 1
  1456 ;; Hardware stack levels required when called: 2
  1457 ;; This function calls:
  1458 ;;		Nothing
  1459 ;; This function is called by:
  1460 ;;		_CAN1_OperationModeSet
  1461 ;;		_ValidateTransmission
  1462 ;; This function uses a non-reentrant model
  1463 ;;
  1464                           
  1465                           	psect	text12
  1466  003C9A                     __ptext12:
  1467                           	callstack 0
  1468  003C9A                     _CAN1_OperationModeGet:
  1469                           	callstack 121
  1470  003C9A                     
  1471                           ;mcc_generated_files/can1.c: 340:     return C1CONUbits.OPMOD;
  1472  003C9A  0101               	movlb	1	; () banked
  1473  003C9C  3902               	swapf	2,w,b	;volatile
  1474  003C9E  32E8               	rrcf	wreg,f,c
  1475  003CA0  0B07               	andlw	7
  1476  003CA2                     
  1477                           ; BSR set to: 1
  1478  003CA2  0012               	return		;funcret
  1479  003CA4                     __end_of_CAN1_OperationModeGet:
  1480                           	callstack 0
  1481                           
  1482 ;; *************** function _CAN1_ErrorNotificationInterruptEnable *****************
  1483 ;; Defined at:
  1484 ;;		line 254 in file "mcc_generated_files/can1.c"
  1485 ;; Parameters:    Size  Location     Type
  1486 ;;		None
  1487 ;; Auto vars:     Size  Location     Type
  1488 ;;		None
  1489 ;; Return value:  Size  Location     Type
  1490 ;;                  1    wreg      void 
  1491 ;; Registers used:
  1492 ;;		wreg, status,2, status,0, cstack
  1493 ;; Tracked objects:
  1494 ;;		On entry : 0/0
  1495 ;;		On exit  : 0/0
  1496 ;;		Unchanged: 0/0
  1497 ;; Data sizes:     COMRAM   BANK5   BANK6   BANK7   BANK8   BANK9  BANK10  BANK11  BANK12  BANK13  BANK14  BANK15  BANK1
      +6  BANK17  BANK18  BANK19  BANK20  BANK21  BANK22  BANK23  BANK24  BANK25  BANK26  BANK27  BANK28  BANK29  BANK30  BANK3
      +1  BANK32  BANK33  BANK34  BANK35  BANK36  BANK37  BANK38  BANK39  BANK40  BANK41  BANK42  BANK43  BANK44  BANK45  BANK4
      +6  BANK47  BANK48  BANK49  BANK50  BANK51  BANK52  BANK53  BANK54
  1498 ;;      Params:         0       0       0       0       0       0       0       0       0       0       0       0       
      +0       0       0       0       0       0       0       0       0       0       0       0       0       0       0       
      +0       0       0       0       0       0       0       0       0       0       0       0       0       0       0       
      +0       0       0       0       0       0       0       0       0
  1499 ;;      Locals:         0       0       0       0       0       0       0       0       0       0       0       0       
      +0       0       0       0       0       0       0       0       0       0       0       0       0       0       0       
      +0       0       0       0       0       0       0       0       0       0       0       0       0       0       0       
      +0       0       0       0       0       0       0       0       0
  1500 ;;      Temps:          0       0       0       0       0       0       0       0       0       0       0       0       
      +0       0       0       0       0       0       0       0       0       0       0       0       0       0       0       
      +0       0       0       0       0       0       0       0       0       0       0       0       0       0       0       
      +0       0       0       0       0       0       0       0       0
  1501 ;;      Totals:         0       0       0       0       0       0       0       0       0       0       0       0       
      +0       0       0       0       0       0       0       0       0       0       0       0       0       0       0       
      +0       0       0       0       0       0       0       0       0       0       0       0       0       0       0       
      +0       0       0       0       0       0       0       0       0
  1502 ;;Total ram usage:        0 bytes
  1503 ;; Hardware stack levels used: 1
  1504 ;; Hardware stack levels required when called: 3
  1505 ;; This function calls:
  1506 ;;		_CAN1_SetBusErrorInterruptHandler
  1507 ;;		_CAN1_SetBusWakeUpActivityInterruptHandler
  1508 ;;		_CAN1_SetInvalidMessageInterruptHandler
  1509 ;;		_CAN1_SetModeChangeInterruptHandler
  1510 ;;		_CAN1_SetRxBufferOverFlowInterruptHandler
  1511 ;;		_CAN1_SetSystemErrorInterruptHandler
  1512 ;;		_CAN1_SetTxAttemptInterruptHandler
  1513 ;; This function is called by:
  1514 ;;		_CAN1_Initialize
  1515 ;; This function uses a non-reentrant model
  1516 ;;
  1517                           
  1518                           	psect	text13
  1519  00393A                     __ptext13:
  1520                           	callstack 0
  1521  00393A                     _CAN1_ErrorNotificationInterruptEnable:
  1522                           	callstack 121
  1523  00393A                     
  1524                           ;mcc_generated_files/can1.c: 256:     CAN1_SetInvalidMessageInterruptHandler(DefaultInva
      +                          lidMessageHandler);
  1525  00393A  0EB2               	movlw	low _DefaultInvalidMessageHandler
  1526  00393C  0105               	movlb	5	; () banked
  1527  00393E  6F60               	movwf	CAN1_SetInvalidMessageInterruptHandler@handler& (0+255),b
  1528  003940  0E3C               	movlw	high _DefaultInvalidMessageHandler
  1529  003942  6F61               	movwf	(CAN1_SetInvalidMessageInterruptHandler@handler+1)& (0+255),b
  1530  003944  0E00               	movlw	low (_DefaultInvalidMessageHandler shr (0+16))
  1531  003946  6F62               	movwf	(CAN1_SetInvalidMessageInterruptHandler@handler+2)& (0+255),b
  1532  003948  EC38  F01E         	call	_CAN1_SetInvalidMessageInterruptHandler	;wreg free
  1533                           
  1534                           ;mcc_generated_files/can1.c: 257:     CAN1_SetBusWakeUpActivityInterruptHandler(DefaultB
      +                          usWakeUpActivityHandler);
  1535  00394C  0EB4               	movlw	low _DefaultBusWakeUpActivityHandler
  1536  00394E  0105               	movlb	5	; () banked
  1537  003950  6F60               	movwf	CAN1_SetBusWakeUpActivityInterruptHandler@handler& (0+255),b
  1538  003952  0E3C               	movlw	high _DefaultBusWakeUpActivityHandler
  1539  003954  6F61               	movwf	(CAN1_SetBusWakeUpActivityInterruptHandler@handler+1)& (0+255),b
  1540  003956  0E00               	movlw	low (_DefaultBusWakeUpActivityHandler shr (0+16))
  1541  003958  6F62               	movwf	(CAN1_SetBusWakeUpActivityInterruptHandler@handler+2)& (0+255),b
  1542  00395A  EC3F  F01E         	call	_CAN1_SetBusWakeUpActivityInterruptHandler	;wreg free
  1543                           
  1544                           ;mcc_generated_files/can1.c: 258:     CAN1_SetBusErrorInterruptHandler(DefaultBusErrorHa
      +                          ndler);
  1545  00395E  0EB6               	movlw	low _DefaultBusErrorHandler
  1546  003960  0105               	movlb	5	; () banked
  1547  003962  6F60               	movwf	CAN1_SetBusErrorInterruptHandler@handler& (0+255),b
  1548  003964  0E3C               	movlw	high _DefaultBusErrorHandler
  1549  003966  6F61               	movwf	(CAN1_SetBusErrorInterruptHandler@handler+1)& (0+255),b
  1550  003968  0E00               	movlw	low (_DefaultBusErrorHandler shr (0+16))
  1551  00396A  6F62               	movwf	(CAN1_SetBusErrorInterruptHandler@handler+2)& (0+255),b
  1552  00396C  EC46  F01E         	call	_CAN1_SetBusErrorInterruptHandler	;wreg free
  1553                           
  1554                           ;mcc_generated_files/can1.c: 259:     CAN1_SetModeChangeInterruptHandler(DefaultModeChan
      +                          geHandler);
  1555  003970  0EB0               	movlw	low _DefaultModeChangeHandler
  1556  003972  0105               	movlb	5	; () banked
  1557  003974  6F60               	movwf	CAN1_SetModeChangeInterruptHandler@handler& (0+255),b
  1558  003976  0E3C               	movlw	high _DefaultModeChangeHandler
  1559  003978  6F61               	movwf	(CAN1_SetModeChangeInterruptHandler@handler+1)& (0+255),b
  1560  00397A  0E00               	movlw	low (_DefaultModeChangeHandler shr (0+16))
  1561  00397C  6F62               	movwf	(CAN1_SetModeChangeInterruptHandler@handler+2)& (0+255),b
  1562  00397E  EC31  F01E         	call	_CAN1_SetModeChangeInterruptHandler	;wreg free
  1563                           
  1564                           ;mcc_generated_files/can1.c: 260:     CAN1_SetSystemErrorInterruptHandler(DefaultSystemE
      +                          rrorHandler);
  1565  003982  0EAC               	movlw	low _DefaultSystemErrorHandler
  1566  003984  0105               	movlb	5	; () banked
  1567  003986  6F60               	movwf	CAN1_SetSystemErrorInterruptHandler@handler& (0+255),b
  1568  003988  0E3C               	movlw	high _DefaultSystemErrorHandler
  1569  00398A  6F61               	movwf	(CAN1_SetSystemErrorInterruptHandler@handler+1)& (0+255),b
  1570  00398C  0E00               	movlw	low (_DefaultSystemErrorHandler shr (0+16))
  1571  00398E  6F62               	movwf	(CAN1_SetSystemErrorInterruptHandler@handler+2)& (0+255),b
  1572  003990  EC23  F01E         	call	_CAN1_SetSystemErrorInterruptHandler	;wreg free
  1573                           
  1574                           ;mcc_generated_files/can1.c: 261:     CAN1_SetTxAttemptInterruptHandler(DefaultTxAttempt
      +                          Handler);
  1575  003994  0EAA               	movlw	low _DefaultTxAttemptHandler
  1576  003996  0105               	movlb	5	; () banked
  1577  003998  6F60               	movwf	CAN1_SetTxAttemptInterruptHandler@handler& (0+255),b
  1578  00399A  0E3C               	movlw	high _DefaultTxAttemptHandler
  1579  00399C  6F61               	movwf	(CAN1_SetTxAttemptInterruptHandler@handler+1)& (0+255),b
  1580  00399E  0E00               	movlw	low (_DefaultTxAttemptHandler shr (0+16))
  1581  0039A0  6F62               	movwf	(CAN1_SetTxAttemptInterruptHandler@handler+2)& (0+255),b
  1582  0039A2  EC1C  F01E         	call	_CAN1_SetTxAttemptInterruptHandler	;wreg free
  1583                           
  1584                           ;mcc_generated_files/can1.c: 262:     CAN1_SetRxBufferOverFlowInterruptHandler(DefaultRx
      +                          BufferOverflowHandler);
  1585  0039A6  0EAE               	movlw	low _DefaultRxBufferOverflowHandler
  1586  0039A8  0105               	movlb	5	; () banked
  1587  0039AA  6F60               	movwf	CAN1_SetRxBufferOverFlowInterruptHandler@handler& (0+255),b
  1588  0039AC  0E3C               	movlw	high _DefaultRxBufferOverflowHandler
  1589  0039AE  6F61               	movwf	(CAN1_SetRxBufferOverFlowInterruptHandler@handler+1)& (0+255),b
  1590  0039B0  0E00               	movlw	low (_DefaultRxBufferOverflowHandler shr (0+16))
  1591  0039B2  6F62               	movwf	(CAN1_SetRxBufferOverFlowInterruptHandler@handler+2)& (0+255),b
  1592  0039B4  EC2A  F01E         	call	_CAN1_SetRxBufferOverFlowInterruptHandler	;wreg free
  1593  0039B8                     
  1594                           ;mcc_generated_files/can1.c: 263:     PIR0bits.CANIF = 0;
  1595  0039B8  9CAE               	bcf	174,6,c	;volatile
  1596  0039BA                     
  1597                           ;mcc_generated_files/can1.c: 266:     C1INTL = 0x00;
  1598  0039BA  0E00               	movlw	0
  1599  0039BC  0101               	movlb	1	; () banked
  1600  0039BE  6F1C               	movwf	28,b	;volatile
  1601  0039C0                     
  1602                           ; BSR set to: 1
  1603                           ;mcc_generated_files/can1.c: 269:     C1INTH = 0x00;
  1604  0039C0  0E00               	movlw	0
  1605  0039C2  6F1D               	movwf	29,b	;volatile
  1606  0039C4                     
  1607                           ; BSR set to: 1
  1608                           ;mcc_generated_files/can1.c: 272:     C1INTU = 0x08;
  1609  0039C4  0E08               	movlw	8
  1610  0039C6  6F1E               	movwf	30,b	;volatile
  1611  0039C8                     
  1612                           ; BSR set to: 1
  1613                           ;mcc_generated_files/can1.c: 275:     C1INTT = 0xFC;
  1614  0039C8  0EFC               	movlw	252
  1615  0039CA  6F1F               	movwf	31,b	;volatile
  1616  0039CC                     
  1617                           ; BSR set to: 1
  1618                           ;mcc_generated_files/can1.c: 277:     PIE0bits.CANIE = 1;
  1619  0039CC  8C9E               	bsf	158,6,c	;volatile
  1620  0039CE                     
  1621                           ; BSR set to: 1
  1622  0039CE  0012               	return		;funcret
  1623  0039D0                     __end_of_CAN1_ErrorNotificationInterruptEnable:
  1624                           	callstack 0
  1625                           
  1626 ;; *************** function _CAN1_SetTxAttemptInterruptHandler *****************
  1627 ;; Defined at:
  1628 ;;		line 651 in file "mcc_generated_files/can1.c"
  1629 ;; Parameters:    Size  Location     Type
  1630 ;;  handler         3    0[BANK5 ] PTR FTN()void 
  1631 ;;		 -> DefaultTxAttemptHandler(1), 
  1632 ;; Auto vars:     Size  Location     Type
  1633 ;;		None
  1634 ;; Return value:  Size  Location     Type
  1635 ;;                  1    wreg      void 
  1636 ;; Registers used:
  1637 ;;		wreg, status,2, status,0
  1638 ;; Tracked objects:
  1639 ;;		On entry : 0/0
  1640 ;;		On exit  : 0/0
  1641 ;;		Unchanged: 0/0
  1642 ;; Data sizes:     COMRAM   BANK5   BANK6   BANK7   BANK8   BANK9  BANK10  BANK11  BANK12  BANK13  BANK14  BANK15  BANK1
      +6  BANK17  BANK18  BANK19  BANK20  BANK21  BANK22  BANK23  BANK24  BANK25  BANK26  BANK27  BANK28  BANK29  BANK30  BANK3
      +1  BANK32  BANK33  BANK34  BANK35  BANK36  BANK37  BANK38  BANK39  BANK40  BANK41  BANK42  BANK43  BANK44  BANK45  BANK4
      +6  BANK47  BANK48  BANK49  BANK50  BANK51  BANK52  BANK53  BANK54
  1643 ;;      Params:         0       3       0       0       0       0       0       0       0       0       0       0       
      +0       0       0       0       0       0       0       0       0       0       0       0       0       0       0       
      +0       0       0       0       0       0       0       0       0       0       0       0       0       0       0       
      +0       0       0       0       0       0       0       0       0
  1644 ;;      Locals:         0       0       0       0       0       0       0       0       0       0       0       0       
      +0       0       0       0       0       0       0       0       0       0       0       0       0       0       0       
      +0       0       0       0       0       0       0       0       0       0       0       0       0       0       0       
      +0       0       0       0       0       0       0       0       0
  1645 ;;      Temps:          0       0       0       0       0       0       0       0       0       0       0       0       
      +0       0       0       0       0       0       0       0       0       0       0       0       0       0       0       
      +0       0       0       0       0       0       0       0       0       0       0       0       0       0       0       
      +0       0       0       0       0       0       0       0       0
  1646 ;;      Totals:         0       3       0       0       0       0       0       0       0       0       0       0       
      +0       0       0       0       0       0       0       0       0       0       0       0       0       0       0       
      +0       0       0       0       0       0       0       0       0       0       0       0       0       0       0       
      +0       0       0       0       0       0       0       0       0
  1647 ;;Total ram usage:        3 bytes
  1648 ;; Hardware stack levels used: 1
  1649 ;; Hardware stack levels required when called: 2
  1650 ;; This function calls:
  1651 ;;		Nothing
  1652 ;; This function is called by:
  1653 ;;		_CAN1_ErrorNotificationInterruptEnable
  1654 ;; This function uses a non-reentrant model
  1655 ;;
  1656                           
  1657                           	psect	text14
  1658  003C38                     __ptext14:
  1659                           	callstack 0
  1660  003C38                     _CAN1_SetTxAttemptInterruptHandler:
  1661                           	callstack 121
  1662  003C38                     
  1663                           ;mcc_generated_files/can1.c: 651: void CAN1_SetTxAttemptInterruptHandler(void (*handler)
      +                          (void));mcc_generated_files/can1.c: 652: {;mcc_generated_files/can1.c: 653:     CAN1_TxA
      +                          ttemptHandler = handler;
  1664  003C38  C560  F504         	movff	CAN1_SetTxAttemptInterruptHandler@handler,_CAN1_TxAttemptHandler
  1665  003C3C  C561  F505         	movff	CAN1_SetTxAttemptInterruptHandler@handler+1,_CAN1_TxAttemptHandler+1
  1666  003C40  C562  F506         	movff	CAN1_SetTxAttemptInterruptHandler@handler+2,_CAN1_TxAttemptHandler+2
  1667  003C44  0012               	return		;funcret
  1668  003C46                     __end_of_CAN1_SetTxAttemptInterruptHandler:
  1669                           	callstack 0
  1670                           
  1671 ;; *************** function _CAN1_SetSystemErrorInterruptHandler *****************
  1672 ;; Defined at:
  1673 ;;		line 646 in file "mcc_generated_files/can1.c"
  1674 ;; Parameters:    Size  Location     Type
  1675 ;;  handler         3    0[BANK5 ] PTR FTN()void 
  1676 ;;		 -> DefaultSystemErrorHandler(1), 
  1677 ;; Auto vars:     Size  Location     Type
  1678 ;;		None
  1679 ;; Return value:  Size  Location     Type
  1680 ;;                  1    wreg      void 
  1681 ;; Registers used:
  1682 ;;		wreg, status,2, status,0
  1683 ;; Tracked objects:
  1684 ;;		On entry : 0/0
  1685 ;;		On exit  : 0/0
  1686 ;;		Unchanged: 0/0
  1687 ;; Data sizes:     COMRAM   BANK5   BANK6   BANK7   BANK8   BANK9  BANK10  BANK11  BANK12  BANK13  BANK14  BANK15  BANK1
      +6  BANK17  BANK18  BANK19  BANK20  BANK21  BANK22  BANK23  BANK24  BANK25  BANK26  BANK27  BANK28  BANK29  BANK30  BANK3
      +1  BANK32  BANK33  BANK34  BANK35  BANK36  BANK37  BANK38  BANK39  BANK40  BANK41  BANK42  BANK43  BANK44  BANK45  BANK4
      +6  BANK47  BANK48  BANK49  BANK50  BANK51  BANK52  BANK53  BANK54
  1688 ;;      Params:         0       3       0       0       0       0       0       0       0       0       0       0       
      +0       0       0       0       0       0       0       0       0       0       0       0       0       0       0       
      +0       0       0       0       0       0       0       0       0       0       0       0       0       0       0       
      +0       0       0       0       0       0       0       0       0
  1689 ;;      Locals:         0       0       0       0       0       0       0       0       0       0       0       0       
      +0       0       0       0       0       0       0       0       0       0       0       0       0       0       0       
      +0       0       0       0       0       0       0       0       0       0       0       0       0       0       0       
      +0       0       0       0       0       0       0       0       0
  1690 ;;      Temps:          0       0       0       0       0       0       0       0       0       0       0       0       
      +0       0       0       0       0       0       0       0       0       0       0       0       0       0       0       
      +0       0       0       0       0       0       0       0       0       0       0       0       0       0       0       
      +0       0       0       0       0       0       0       0       0
  1691 ;;      Totals:         0       3       0       0       0       0       0       0       0       0       0       0       
      +0       0       0       0       0       0       0       0       0       0       0       0       0       0       0       
      +0       0       0       0       0       0       0       0       0       0       0       0       0       0       0       
      +0       0       0       0       0       0       0       0       0
  1692 ;;Total ram usage:        3 bytes
  1693 ;; Hardware stack levels used: 1
  1694 ;; Hardware stack levels required when called: 2
  1695 ;; This function calls:
  1696 ;;		Nothing
  1697 ;; This function is called by:
  1698 ;;		_CAN1_ErrorNotificationInterruptEnable
  1699 ;; This function uses a non-reentrant model
  1700 ;;
  1701                           
  1702                           	psect	text15
  1703  003C46                     __ptext15:
  1704                           	callstack 0
  1705  003C46                     _CAN1_SetSystemErrorInterruptHandler:
  1706                           	callstack 121
  1707  003C46                     
  1708                           ;mcc_generated_files/can1.c: 646: void CAN1_SetSystemErrorInterruptHandler(void (*handle
      +                          r)(void));mcc_generated_files/can1.c: 647: {;mcc_generated_files/can1.c: 648:     CAN1_S
      +                          ystemErrorHandler = handler;
  1709  003C46  C560  F507         	movff	CAN1_SetSystemErrorInterruptHandler@handler,_CAN1_SystemErrorHandler
  1710  003C4A  C561  F508         	movff	CAN1_SetSystemErrorInterruptHandler@handler+1,_CAN1_SystemErrorHandler+1
  1711  003C4E  C562  F509         	movff	CAN1_SetSystemErrorInterruptHandler@handler+2,_CAN1_SystemErrorHandler+2
  1712  003C52  0012               	return		;funcret
  1713  003C54                     __end_of_CAN1_SetSystemErrorInterruptHandler:
  1714                           	callstack 0
  1715                           
  1716 ;; *************** function _CAN1_SetRxBufferOverFlowInterruptHandler *****************
  1717 ;; Defined at:
  1718 ;;		line 656 in file "mcc_generated_files/can1.c"
  1719 ;; Parameters:    Size  Location     Type
  1720 ;;  handler         3    0[BANK5 ] PTR FTN()void 
  1721 ;;		 -> DefaultRxBufferOverflowHandler(1), 
  1722 ;; Auto vars:     Size  Location     Type
  1723 ;;		None
  1724 ;; Return value:  Size  Location     Type
  1725 ;;                  1    wreg      void 
  1726 ;; Registers used:
  1727 ;;		wreg, status,2, status,0
  1728 ;; Tracked objects:
  1729 ;;		On entry : 0/0
  1730 ;;		On exit  : 0/0
  1731 ;;		Unchanged: 0/0
  1732 ;; Data sizes:     COMRAM   BANK5   BANK6   BANK7   BANK8   BANK9  BANK10  BANK11  BANK12  BANK13  BANK14  BANK15  BANK1
      +6  BANK17  BANK18  BANK19  BANK20  BANK21  BANK22  BANK23  BANK24  BANK25  BANK26  BANK27  BANK28  BANK29  BANK30  BANK3
      +1  BANK32  BANK33  BANK34  BANK35  BANK36  BANK37  BANK38  BANK39  BANK40  BANK41  BANK42  BANK43  BANK44  BANK45  BANK4
      +6  BANK47  BANK48  BANK49  BANK50  BANK51  BANK52  BANK53  BANK54
  1733 ;;      Params:         0       3       0       0       0       0       0       0       0       0       0       0       
      +0       0       0       0       0       0       0       0       0       0       0       0       0       0       0       
      +0       0       0       0       0       0       0       0       0       0       0       0       0       0       0       
      +0       0       0       0       0       0       0       0       0
  1734 ;;      Locals:         0       0       0       0       0       0       0       0       0       0       0       0       
      +0       0       0       0       0       0       0       0       0       0       0       0       0       0       0       
      +0       0       0       0       0       0       0       0       0       0       0       0       0       0       0       
      +0       0       0       0       0       0       0       0       0
  1735 ;;      Temps:          0       0       0       0       0       0       0       0       0       0       0       0       
      +0       0       0       0       0       0       0       0       0       0       0       0       0       0       0       
      +0       0       0       0       0       0       0       0       0       0       0       0       0       0       0       
      +0       0       0       0       0       0       0       0       0
  1736 ;;      Totals:         0       3       0       0       0       0       0       0       0       0       0       0       
      +0       0       0       0       0       0       0       0       0       0       0       0       0       0       0       
      +0       0       0       0       0       0       0       0       0       0       0       0       0       0       0       
      +0       0       0       0       0       0       0       0       0
  1737 ;;Total ram usage:        3 bytes
  1738 ;; Hardware stack levels used: 1
  1739 ;; Hardware stack levels required when called: 2
  1740 ;; This function calls:
  1741 ;;		Nothing
  1742 ;; This function is called by:
  1743 ;;		_CAN1_ErrorNotificationInterruptEnable
  1744 ;; This function uses a non-reentrant model
  1745 ;;
  1746                           
  1747                           	psect	text16
  1748  003C54                     __ptext16:
  1749                           	callstack 0
  1750  003C54                     _CAN1_SetRxBufferOverFlowInterruptHandler:
  1751                           	callstack 121
  1752  003C54                     
  1753                           ;mcc_generated_files/can1.c: 656: void CAN1_SetRxBufferOverFlowInterruptHandler(void (*h
      +                          andler)(void));mcc_generated_files/can1.c: 657: {;mcc_generated_files/can1.c: 658:     C
      +                          AN1_RxBufferOverflowHandler = handler;
  1754  003C54  C560  F501         	movff	CAN1_SetRxBufferOverFlowInterruptHandler@handler,_CAN1_RxBufferOverflowHandler
  1755  003C58  C561  F502         	movff	CAN1_SetRxBufferOverFlowInterruptHandler@handler+1,_CAN1_RxBufferOverflowHandler+
      +                          1
  1756  003C5C  C562  F503         	movff	CAN1_SetRxBufferOverFlowInterruptHandler@handler+2,_CAN1_RxBufferOverflowHandler+
      +                          2
  1757  003C60  0012               	return		;funcret
  1758  003C62                     __end_of_CAN1_SetRxBufferOverFlowInterruptHandler:
  1759                           	callstack 0
  1760                           
  1761 ;; *************** function _CAN1_SetModeChangeInterruptHandler *****************
  1762 ;; Defined at:
  1763 ;;		line 641 in file "mcc_generated_files/can1.c"
  1764 ;; Parameters:    Size  Location     Type
  1765 ;;  handler         3    0[BANK5 ] PTR FTN()void 
  1766 ;;		 -> DefaultModeChangeHandler(1), 
  1767 ;; Auto vars:     Size  Location     Type
  1768 ;;		None
  1769 ;; Return value:  Size  Location     Type
  1770 ;;                  1    wreg      void 
  1771 ;; Registers used:
  1772 ;;		wreg, status,2, status,0
  1773 ;; Tracked objects:
  1774 ;;		On entry : 0/0
  1775 ;;		On exit  : 0/0
  1776 ;;		Unchanged: 0/0
  1777 ;; Data sizes:     COMRAM   BANK5   BANK6   BANK7   BANK8   BANK9  BANK10  BANK11  BANK12  BANK13  BANK14  BANK15  BANK1
      +6  BANK17  BANK18  BANK19  BANK20  BANK21  BANK22  BANK23  BANK24  BANK25  BANK26  BANK27  BANK28  BANK29  BANK30  BANK3
      +1  BANK32  BANK33  BANK34  BANK35  BANK36  BANK37  BANK38  BANK39  BANK40  BANK41  BANK42  BANK43  BANK44  BANK45  BANK4
      +6  BANK47  BANK48  BANK49  BANK50  BANK51  BANK52  BANK53  BANK54
  1778 ;;      Params:         0       3       0       0       0       0       0       0       0       0       0       0       
      +0       0       0       0       0       0       0       0       0       0       0       0       0       0       0       
      +0       0       0       0       0       0       0       0       0       0       0       0       0       0       0       
      +0       0       0       0       0       0       0       0       0
  1779 ;;      Locals:         0       0       0       0       0       0       0       0       0       0       0       0       
      +0       0       0       0       0       0       0       0       0       0       0       0       0       0       0       
      +0       0       0       0       0       0       0       0       0       0       0       0       0       0       0       
      +0       0       0       0       0       0       0       0       0
  1780 ;;      Temps:          0       0       0       0       0       0       0       0       0       0       0       0       
      +0       0       0       0       0       0       0       0       0       0       0       0       0       0       0       
      +0       0       0       0       0       0       0       0       0       0       0       0       0       0       0       
      +0       0       0       0       0       0       0       0       0
  1781 ;;      Totals:         0       3       0       0       0       0       0       0       0       0       0       0       
      +0       0       0       0       0       0       0       0       0       0       0       0       0       0       0       
      +0       0       0       0       0       0       0       0       0       0       0       0       0       0       0       
      +0       0       0       0       0       0       0       0       0
  1782 ;;Total ram usage:        3 bytes
  1783 ;; Hardware stack levels used: 1
  1784 ;; Hardware stack levels required when called: 2
  1785 ;; This function calls:
  1786 ;;		Nothing
  1787 ;; This function is called by:
  1788 ;;		_CAN1_ErrorNotificationInterruptEnable
  1789 ;; This function uses a non-reentrant model
  1790 ;;
  1791                           
  1792                           	psect	text17
  1793  003C62                     __ptext17:
  1794                           	callstack 0
  1795  003C62                     _CAN1_SetModeChangeInterruptHandler:
  1796                           	callstack 121
  1797  003C62                     
  1798                           ;mcc_generated_files/can1.c: 641: void CAN1_SetModeChangeInterruptHandler(void (*handler
      +                          )(void));mcc_generated_files/can1.c: 642: {;mcc_generated_files/can1.c: 643:     CAN1_Mo
      +                          deChangeHandler = handler;
  1799  003C62  C560  F50A         	movff	CAN1_SetModeChangeInterruptHandler@handler,_CAN1_ModeChangeHandler
  1800  003C66  C561  F50B         	movff	CAN1_SetModeChangeInterruptHandler@handler+1,_CAN1_ModeChangeHandler+1
  1801  003C6A  C562  F50C         	movff	CAN1_SetModeChangeInterruptHandler@handler+2,_CAN1_ModeChangeHandler+2
  1802  003C6E  0012               	return		;funcret
  1803  003C70                     __end_of_CAN1_SetModeChangeInterruptHandler:
  1804                           	callstack 0
  1805                           
  1806 ;; *************** function _CAN1_SetInvalidMessageInterruptHandler *****************
  1807 ;; Defined at:
  1808 ;;		line 626 in file "mcc_generated_files/can1.c"
  1809 ;; Parameters:    Size  Location     Type
  1810 ;;  handler         3    0[BANK5 ] PTR FTN()void 
  1811 ;;		 -> DefaultInvalidMessageHandler(1), 
  1812 ;; Auto vars:     Size  Location     Type
  1813 ;;		None
  1814 ;; Return value:  Size  Location     Type
  1815 ;;                  1    wreg      void 
  1816 ;; Registers used:
  1817 ;;		wreg, status,2, status,0
  1818 ;; Tracked objects:
  1819 ;;		On entry : 0/0
  1820 ;;		On exit  : 0/0
  1821 ;;		Unchanged: 0/0
  1822 ;; Data sizes:     COMRAM   BANK5   BANK6   BANK7   BANK8   BANK9  BANK10  BANK11  BANK12  BANK13  BANK14  BANK15  BANK1
      +6  BANK17  BANK18  BANK19  BANK20  BANK21  BANK22  BANK23  BANK24  BANK25  BANK26  BANK27  BANK28  BANK29  BANK30  BANK3
      +1  BANK32  BANK33  BANK34  BANK35  BANK36  BANK37  BANK38  BANK39  BANK40  BANK41  BANK42  BANK43  BANK44  BANK45  BANK4
      +6  BANK47  BANK48  BANK49  BANK50  BANK51  BANK52  BANK53  BANK54
  1823 ;;      Params:         0       3       0       0       0       0       0       0       0       0       0       0       
      +0       0       0       0       0       0       0       0       0       0       0       0       0       0       0       
      +0       0       0       0       0       0       0       0       0       0       0       0       0       0       0       
      +0       0       0       0       0       0       0       0       0
  1824 ;;      Locals:         0       0       0       0       0       0       0       0       0       0       0       0       
      +0       0       0       0       0       0       0       0       0       0       0       0       0       0       0       
      +0       0       0       0       0       0       0       0       0       0       0       0       0       0       0       
      +0       0       0       0       0       0       0       0       0
  1825 ;;      Temps:          0       0       0       0       0       0       0       0       0       0       0       0       
      +0       0       0       0       0       0       0       0       0       0       0       0       0       0       0       
      +0       0       0       0       0       0       0       0       0       0       0       0       0       0       0       
      +0       0       0       0       0       0       0       0       0
  1826 ;;      Totals:         0       3       0       0       0       0       0       0       0       0       0       0       
      +0       0       0       0       0       0       0       0       0       0       0       0       0       0       0       
      +0       0       0       0       0       0       0       0       0       0       0       0       0       0       0       
      +0       0       0       0       0       0       0       0       0
  1827 ;;Total ram usage:        3 bytes
  1828 ;; Hardware stack levels used: 1
  1829 ;; Hardware stack levels required when called: 2
  1830 ;; This function calls:
  1831 ;;		Nothing
  1832 ;; This function is called by:
  1833 ;;		_CAN1_ErrorNotificationInterruptEnable
  1834 ;; This function uses a non-reentrant model
  1835 ;;
  1836                           
  1837                           	psect	text18
  1838  003C70                     __ptext18:
  1839                           	callstack 0
  1840  003C70                     _CAN1_SetInvalidMessageInterruptHandler:
  1841                           	callstack 121
  1842  003C70                     
  1843                           ;mcc_generated_files/can1.c: 626: void CAN1_SetInvalidMessageInterruptHandler(void (*han
      +                          dler)(void));mcc_generated_files/can1.c: 627: {;mcc_generated_files/can1.c: 628:     CAN
      +                          1_InvalidMessageHandler = handler;
  1844  003C70  C560  F513         	movff	CAN1_SetInvalidMessageInterruptHandler@handler,_CAN1_InvalidMessageHandler
  1845  003C74  C561  F514         	movff	CAN1_SetInvalidMessageInterruptHandler@handler+1,_CAN1_InvalidMessageHandler+1
  1846  003C78  C562  F515         	movff	CAN1_SetInvalidMessageInterruptHandler@handler+2,_CAN1_InvalidMessageHandler+2
  1847  003C7C  0012               	return		;funcret
  1848  003C7E                     __end_of_CAN1_SetInvalidMessageInterruptHandler:
  1849                           	callstack 0
  1850                           
  1851 ;; *************** function _CAN1_SetBusWakeUpActivityInterruptHandler *****************
  1852 ;; Defined at:
  1853 ;;		line 631 in file "mcc_generated_files/can1.c"
  1854 ;; Parameters:    Size  Location     Type
  1855 ;;  handler         3    0[BANK5 ] PTR FTN()void 
  1856 ;;		 -> DefaultBusWakeUpActivityHandler(1), 
  1857 ;; Auto vars:     Size  Location     Type
  1858 ;;		None
  1859 ;; Return value:  Size  Location     Type
  1860 ;;                  1    wreg      void 
  1861 ;; Registers used:
  1862 ;;		wreg, status,2, status,0
  1863 ;; Tracked objects:
  1864 ;;		On entry : 0/0
  1865 ;;		On exit  : 0/0
  1866 ;;		Unchanged: 0/0
  1867 ;; Data sizes:     COMRAM   BANK5   BANK6   BANK7   BANK8   BANK9  BANK10  BANK11  BANK12  BANK13  BANK14  BANK15  BANK1
      +6  BANK17  BANK18  BANK19  BANK20  BANK21  BANK22  BANK23  BANK24  BANK25  BANK26  BANK27  BANK28  BANK29  BANK30  BANK3
      +1  BANK32  BANK33  BANK34  BANK35  BANK36  BANK37  BANK38  BANK39  BANK40  BANK41  BANK42  BANK43  BANK44  BANK45  BANK4
      +6  BANK47  BANK48  BANK49  BANK50  BANK51  BANK52  BANK53  BANK54
  1868 ;;      Params:         0       3       0       0       0       0       0       0       0       0       0       0       
      +0       0       0       0       0       0       0       0       0       0       0       0       0       0       0       
      +0       0       0       0       0       0       0       0       0       0       0       0       0       0       0       
      +0       0       0       0       0       0       0       0       0
  1869 ;;      Locals:         0       0       0       0       0       0       0       0       0       0       0       0       
      +0       0       0       0       0       0       0       0       0       0       0       0       0       0       0       
      +0       0       0       0       0       0       0       0       0       0       0       0       0       0       0       
      +0       0       0       0       0       0       0       0       0
  1870 ;;      Temps:          0       0       0       0       0       0       0       0       0       0       0       0       
      +0       0       0       0       0       0       0       0       0       0       0       0       0       0       0       
      +0       0       0       0       0       0       0       0       0       0       0       0       0       0       0       
      +0       0       0       0       0       0       0       0       0
  1871 ;;      Totals:         0       3       0       0       0       0       0       0       0       0       0       0       
      +0       0       0       0       0       0       0       0       0       0       0       0       0       0       0       
      +0       0       0       0       0       0       0       0       0       0       0       0       0       0       0       
      +0       0       0       0       0       0       0       0       0
  1872 ;;Total ram usage:        3 bytes
  1873 ;; Hardware stack levels used: 1
  1874 ;; Hardware stack levels required when called: 2
  1875 ;; This function calls:
  1876 ;;		Nothing
  1877 ;; This function is called by:
  1878 ;;		_CAN1_ErrorNotificationInterruptEnable
  1879 ;; This function uses a non-reentrant model
  1880 ;;
  1881                           
  1882                           	psect	text19
  1883  003C7E                     __ptext19:
  1884                           	callstack 0
  1885  003C7E                     _CAN1_SetBusWakeUpActivityInterruptHandler:
  1886                           	callstack 121
  1887  003C7E                     
  1888                           ;mcc_generated_files/can1.c: 631: void CAN1_SetBusWakeUpActivityInterruptHandler(void (*
      +                          handler)(void));mcc_generated_files/can1.c: 632: {;mcc_generated_files/can1.c: 633:     
      +                          CAN1_BusWakeUpActivityHandler = handler;
  1889  003C7E  C560  F510         	movff	CAN1_SetBusWakeUpActivityInterruptHandler@handler,_CAN1_BusWakeUpActivityHandler
  1890  003C82  C561  F511         	movff	CAN1_SetBusWakeUpActivityInterruptHandler@handler+1,_CAN1_BusWakeUpActivityHandle
      +                          r+1
  1891  003C86  C562  F512         	movff	CAN1_SetBusWakeUpActivityInterruptHandler@handler+2,_CAN1_BusWakeUpActivityHandle
      +                          r+2
  1892  003C8A  0012               	return		;funcret
  1893  003C8C                     __end_of_CAN1_SetBusWakeUpActivityInterruptHandler:
  1894                           	callstack 0
  1895                           
  1896 ;; *************** function _CAN1_SetBusErrorInterruptHandler *****************
  1897 ;; Defined at:
  1898 ;;		line 636 in file "mcc_generated_files/can1.c"
  1899 ;; Parameters:    Size  Location     Type
  1900 ;;  handler         3    0[BANK5 ] PTR FTN()void 
  1901 ;;		 -> DefaultBusErrorHandler(1), 
  1902 ;; Auto vars:     Size  Location     Type
  1903 ;;		None
  1904 ;; Return value:  Size  Location     Type
  1905 ;;                  1    wreg      void 
  1906 ;; Registers used:
  1907 ;;		wreg, status,2, status,0
  1908 ;; Tracked objects:
  1909 ;;		On entry : 0/0
  1910 ;;		On exit  : 0/0
  1911 ;;		Unchanged: 0/0
  1912 ;; Data sizes:     COMRAM   BANK5   BANK6   BANK7   BANK8   BANK9  BANK10  BANK11  BANK12  BANK13  BANK14  BANK15  BANK1
      +6  BANK17  BANK18  BANK19  BANK20  BANK21  BANK22  BANK23  BANK24  BANK25  BANK26  BANK27  BANK28  BANK29  BANK30  BANK3
      +1  BANK32  BANK33  BANK34  BANK35  BANK36  BANK37  BANK38  BANK39  BANK40  BANK41  BANK42  BANK43  BANK44  BANK45  BANK4
      +6  BANK47  BANK48  BANK49  BANK50  BANK51  BANK52  BANK53  BANK54
  1913 ;;      Params:         0       3       0       0       0       0       0       0       0       0       0       0       
      +0       0       0       0       0       0       0       0       0       0       0       0       0       0       0       
      +0       0       0       0       0       0       0       0       0       0       0       0       0       0       0       
      +0       0       0       0       0       0       0       0       0
  1914 ;;      Locals:         0       0       0       0       0       0       0       0       0       0       0       0       
      +0       0       0       0       0       0       0       0       0       0       0       0       0       0       0       
      +0       0       0       0       0       0       0       0       0       0       0       0       0       0       0       
      +0       0       0       0       0       0       0       0       0
  1915 ;;      Temps:          0       0       0       0       0       0       0       0       0       0       0       0       
      +0       0       0       0       0       0       0       0       0       0       0       0       0       0       0       
      +0       0       0       0       0       0       0       0       0       0       0       0       0       0       0       
      +0       0       0       0       0       0       0       0       0
  1916 ;;      Totals:         0       3       0       0       0       0       0       0       0       0       0       0       
      +0       0       0       0       0       0       0       0       0       0       0       0       0       0       0       
      +0       0       0       0       0       0       0       0       0       0       0       0       0       0       0       
      +0       0       0       0       0       0       0       0       0
  1917 ;;Total ram usage:        3 bytes
  1918 ;; Hardware stack levels used: 1
  1919 ;; Hardware stack levels required when called: 2
  1920 ;; This function calls:
  1921 ;;		Nothing
  1922 ;; This function is called by:
  1923 ;;		_CAN1_ErrorNotificationInterruptEnable
  1924 ;; This function uses a non-reentrant model
  1925 ;;
  1926                           
  1927                           	psect	text20
  1928  003C8C                     __ptext20:
  1929                           	callstack 0
  1930  003C8C                     _CAN1_SetBusErrorInterruptHandler:
  1931                           	callstack 121
  1932  003C8C                     
  1933                           ;mcc_generated_files/can1.c: 636: void CAN1_SetBusErrorInterruptHandler(void (*handler)(
      +                          void));mcc_generated_files/can1.c: 637: {;mcc_generated_files/can1.c: 638:     CAN1_BusE
      +                          rrorHandler = handler;
  1934  003C8C  C560  F50D         	movff	CAN1_SetBusErrorInterruptHandler@handler,_CAN1_BusErrorHandler
  1935  003C90  C561  F50E         	movff	CAN1_SetBusErrorInterruptHandler@handler+1,_CAN1_BusErrorHandler+1
  1936  003C94  C562  F50F         	movff	CAN1_SetBusErrorInterruptHandler@handler+2,_CAN1_BusErrorHandler+2
  1937  003C98  0012               	return		;funcret
  1938  003C9A                     __end_of_CAN1_SetBusErrorInterruptHandler:
  1939                           	callstack 0
  1940                           
  1941 ;; *************** function _CAN1_BitRateConfiguration *****************
  1942 ;; Defined at:
  1943 ;;		line 221 in file "mcc_generated_files/can1.c"
  1944 ;; Parameters:    Size  Location     Type
  1945 ;;		None
  1946 ;; Auto vars:     Size  Location     Type
  1947 ;;		None
  1948 ;; Return value:  Size  Location     Type
  1949 ;;                  1    wreg      void 
  1950 ;; Registers used:
  1951 ;;		wreg, status,2
  1952 ;; Tracked objects:
  1953 ;;		On entry : 0/0
  1954 ;;		On exit  : 0/0
  1955 ;;		Unchanged: 0/0
  1956 ;; Data sizes:     COMRAM   BANK5   BANK6   BANK7   BANK8   BANK9  BANK10  BANK11  BANK12  BANK13  BANK14  BANK15  BANK1
      +6  BANK17  BANK18  BANK19  BANK20  BANK21  BANK22  BANK23  BANK24  BANK25  BANK26  BANK27  BANK28  BANK29  BANK30  BANK3
      +1  BANK32  BANK33  BANK34  BANK35  BANK36  BANK37  BANK38  BANK39  BANK40  BANK41  BANK42  BANK43  BANK44  BANK45  BANK4
      +6  BANK47  BANK48  BANK49  BANK50  BANK51  BANK52  BANK53  BANK54
  1957 ;;      Params:         0       0       0       0       0       0       0       0       0       0       0       0       
      +0       0       0       0       0       0       0       0       0       0       0       0       0       0       0       
      +0       0       0       0       0       0       0       0       0       0       0       0       0       0       0       
      +0       0       0       0       0       0       0       0       0
  1958 ;;      Locals:         0       0       0       0       0       0       0       0       0       0       0       0       
      +0       0       0       0       0       0       0       0       0       0       0       0       0       0       0       
      +0       0       0       0       0       0       0       0       0       0       0       0       0       0       0       
      +0       0       0       0       0       0       0       0       0
  1959 ;;      Temps:          0       0       0       0       0       0       0       0       0       0       0       0       
      +0       0       0       0       0       0       0       0       0       0       0       0       0       0       0       
      +0       0       0       0       0       0       0       0       0       0       0       0       0       0       0       
      +0       0       0       0       0       0       0       0       0
  1960 ;;      Totals:         0       0       0       0       0       0       0       0       0       0       0       0       
      +0       0       0       0       0       0       0       0       0       0       0       0       0       0       0       
      +0       0       0       0       0       0       0       0       0       0       0       0       0       0       0       
      +0       0       0       0       0       0       0       0       0
  1961 ;;Total ram usage:        0 bytes
  1962 ;; Hardware stack levels used: 1
  1963 ;; Hardware stack levels required when called: 2
  1964 ;; This function calls:
  1965 ;;		Nothing
  1966 ;; This function is called by:
  1967 ;;		_CAN1_Initialize
  1968 ;; This function uses a non-reentrant model
  1969 ;;
  1970                           
  1971                           	psect	text21
  1972  003B50                     __ptext21:
  1973                           	callstack 0
  1974  003B50                     _CAN1_BitRateConfiguration:
  1975                           	callstack 122
  1976  003B50                     
  1977                           ;mcc_generated_files/can1.c: 224:     C1NBTCFGL = 0x07;
  1978  003B50  0E07               	movlw	7
  1979  003B52  0101               	movlb	1	; () banked
  1980  003B54  6F04               	movwf	4,b	;volatile
  1981                           
  1982                           ;mcc_generated_files/can1.c: 227:     C1NBTCFGH = 0x07;
  1983  003B56  0E07               	movlw	7
  1984  003B58  6F05               	movwf	5,b	;volatile
  1985                           
  1986                           ;mcc_generated_files/can1.c: 230:     C1NBTCFGU = 0x1E;
  1987  003B5A  0E1E               	movlw	30
  1988  003B5C  6F06               	movwf	6,b	;volatile
  1989                           
  1990                           ;mcc_generated_files/can1.c: 233:     C1NBTCFGT = 0x00;
  1991  003B5E  0E00               	movlw	0
  1992  003B60  6F07               	movwf	7,b	;volatile
  1993                           
  1994                           ;mcc_generated_files/can1.c: 236:     C1DBTCFGL = 0x03;
  1995  003B62  0E03               	movlw	3
  1996  003B64  6F08               	movwf	8,b	;volatile
  1997                           
  1998                           ;mcc_generated_files/can1.c: 239:     C1DBTCFGH = 0x03;
  1999  003B66  0E03               	movlw	3
  2000  003B68  6F09               	movwf	9,b	;volatile
  2001                           
  2002                           ;mcc_generated_files/can1.c: 242:     C1DBTCFGU = 0x0E;
  2003  003B6A  0E0E               	movlw	14
  2004  003B6C  6F0A               	movwf	10,b	;volatile
  2005                           
  2006                           ;mcc_generated_files/can1.c: 245:     C1DBTCFGT = 0x00;
  2007  003B6E  0E00               	movlw	0
  2008  003B70  6F0B               	movwf	11,b	;volatile
  2009                           
  2010                           ;mcc_generated_files/can1.c: 248:     C1TDCH = 0x0F;
  2011  003B72  0E0F               	movlw	15
  2012  003B74  6F0D               	movwf	13,b	;volatile
  2013                           
  2014                           ;mcc_generated_files/can1.c: 251:     C1TDCU = 0x02;
  2015  003B76  0E02               	movlw	2
  2016  003B78  6F0E               	movwf	14,b	;volatile
  2017  003B7A                     
  2018                           ; BSR set to: 1
  2019  003B7A  0012               	return		;funcret
  2020  003B7C                     __end_of_CAN1_BitRateConfiguration:
  2021                           	callstack 0
  2022                           
  2023 ;; *************** function _CAN1_ISR *****************
  2024 ;; Defined at:
  2025 ;;		line 661 in file "mcc_generated_files/can1.c"
  2026 ;; Parameters:    Size  Location     Type
  2027 ;;		None
  2028 ;; Auto vars:     Size  Location     Type
  2029 ;;		None
  2030 ;; Return value:  Size  Location     Type
  2031 ;;                  1    wreg      void 
  2032 ;; Registers used:
  2033 ;;		wreg, pcl, pclath, pclatu, tosl, cstack
  2034 ;; Tracked objects:
  2035 ;;		On entry : 0/0
  2036 ;;		On exit  : 0/0
  2037 ;;		Unchanged: 0/0
  2038 ;; Data sizes:     COMRAM   BANK5   BANK6   BANK7   BANK8   BANK9  BANK10  BANK11  BANK12  BANK13  BANK14  BANK15  BANK1
      +6  BANK17  BANK18  BANK19  BANK20  BANK21  BANK22  BANK23  BANK24  BANK25  BANK26  BANK27  BANK28  BANK29  BANK30  BANK3
      +1  BANK32  BANK33  BANK34  BANK35  BANK36  BANK37  BANK38  BANK39  BANK40  BANK41  BANK42  BANK43  BANK44  BANK45  BANK4
      +6  BANK47  BANK48  BANK49  BANK50  BANK51  BANK52  BANK53  BANK54
  2039 ;;      Params:         0       0       0       0       0       0       0       0       0       0       0       0       
      +0       0       0       0       0       0       0       0       0       0       0       0       0       0       0       
      +0       0       0       0       0       0       0       0       0       0       0       0       0       0       0       
      +0       0       0       0       0       0       0       0       0
  2040 ;;      Locals:         0       0       0       0       0       0       0       0       0       0       0       0       
      +0       0       0       0       0       0       0       0       0       0       0       0       0       0       0       
      +0       0       0       0       0       0       0       0       0       0       0       0       0       0       0       
      +0       0       0       0       0       0       0       0       0
  2041 ;;      Temps:          2       0       0       0       0       0       0       0       0       0       0       0       
      +0       0       0       0       0       0       0       0       0       0       0       0       0       0       0       
      +0       0       0       0       0       0       0       0       0       0       0       0       0       0       0       
      +0       0       0       0       0       0       0       0       0
  2042 ;;      Totals:         2       0       0       0       0       0       0       0       0       0       0       0       
      +0       0       0       0       0       0       0       0       0       0       0       0       0       0       0       
      +0       0       0       0       0       0       0       0       0       0       0       0       0       0       0       
      +0       0       0       0       0       0       0       0       0
  2043 ;;Total ram usage:        2 bytes
  2044 ;; Hardware stack levels used: 1
  2045 ;; Hardware stack levels required when called: 1
  2046 ;; This function calls:
  2047 ;;		Absolute function
  2048 ;;		_DefaultBusErrorHandler
  2049 ;;		_DefaultBusWakeUpActivityHandler
  2050 ;;		_DefaultInvalidMessageHandler
  2051 ;;		_DefaultModeChangeHandler
  2052 ;;		_DefaultRxBufferOverflowHandler
  2053 ;;		_DefaultSystemErrorHandler
  2054 ;;		_DefaultTxAttemptHandler
  2055 ;; This function is called by:
  2056 ;;		Interrupt level 2
  2057 ;; This function uses a non-reentrant model
  2058 ;;
  2059                           
  2060                           	psect	text22
  2061  003714                     __ptext22:
  2062                           	callstack 0
  2063  003714                     _CAN1_ISR:
  2064                           	callstack 121
  2065                           
  2066                           ; BSR set to: 1
  2067                           ;incstack = 0
  2068  003714  0061 F3E8  F55A    	movff	pclath,??_CAN1_ISR
  2069  00371A  0061 F3EC  F55B    	movff	pclatu,??_CAN1_ISR+1
  2070  003720                     
  2071                           ;mcc_generated_files/can1.c: 663:     if (1 == C1INTHbits.IVMIF)
  2072  003720  0101               	movlb	1	; () banked
  2073  003722  AF1D               	btfss	29,7,b	;volatile
  2074  003724  EF96  F01B         	goto	i2u59_41
  2075  003728  EF98  F01B         	goto	i2u59_40
  2076  00372C                     i2u59_41:
  2077  00372C  EFA7  F01B         	goto	i2l1582
  2078  003730                     i2u59_40:
  2079  003730                     
  2080                           ; BSR set to: 1
  2081                           ;mcc_generated_files/can1.c: 664:     {;mcc_generated_files/can1.c: 665:         CAN1_In
      +                          validMessageHandler();
  2082  003730  D802               	call	i2u60_48
  2083  003732  EFA5  F01B         	goto	i2u60_49
  2084  003736                     i2u60_48:
  2085  003736  0005               	push	
  2086  003738  6EFA               	movwf	pclath,c
  2087  00373A  5013               	movf	_CAN1_InvalidMessageHandler^(0+1280),w,c
  2088  00373C  6EFD               	movwf	tosl,c
  2089  00373E  5014               	movf	(_CAN1_InvalidMessageHandler+1)^(0+1280),w,c
  2090  003740  6EFE               	movwf	tosh,c
  2091  003742  5015               	movf	(_CAN1_InvalidMessageHandler+2)^(0+1280),w,c
  2092  003744  6EFF               	movwf	tosu,c
  2093  003746  50FA               	movf	pclath,w,c
  2094  003748  0012               	return		;indir
  2095  00374A                     i2u60_49:
  2096  00374A                     
  2097                           ;mcc_generated_files/can1.c: 666:         C1INTHbits.IVMIF = 0;
  2098  00374A  0101               	movlb	1	; () banked
  2099  00374C  9F1D               	bcf	29,7,b	;volatile
  2100  00374E                     i2l1582:
  2101                           
  2102                           ; BSR set to: 1
  2103                           ;mcc_generated_files/can1.c: 669:     if (1 == C1INTHbits.WAKIF)
  2104  00374E  AD1D               	btfss	29,6,b	;volatile
  2105  003750  EFAC  F01B         	goto	i2u61_41
  2106  003754  EFAE  F01B         	goto	i2u61_40
  2107  003758                     i2u61_41:
  2108  003758  EFBD  F01B         	goto	i2l1588
  2109  00375C                     i2u61_40:
  2110  00375C                     
  2111                           ; BSR set to: 1
  2112                           ;mcc_generated_files/can1.c: 670:     {;mcc_generated_files/can1.c: 671:         CAN1_Bu
      +                          sWakeUpActivityHandler();
  2113  00375C  D802               	call	i2u62_48
  2114  00375E  EFBB  F01B         	goto	i2u62_49
  2115  003762                     i2u62_48:
  2116  003762  0005               	push	
  2117  003764  6EFA               	movwf	pclath,c
  2118  003766  5010               	movf	_CAN1_BusWakeUpActivityHandler^(0+1280),w,c
  2119  003768  6EFD               	movwf	tosl,c
  2120  00376A  5011               	movf	(_CAN1_BusWakeUpActivityHandler+1)^(0+1280),w,c
  2121  00376C  6EFE               	movwf	tosh,c
  2122  00376E  5012               	movf	(_CAN1_BusWakeUpActivityHandler+2)^(0+1280),w,c
  2123  003770  6EFF               	movwf	tosu,c
  2124  003772  50FA               	movf	pclath,w,c
  2125  003774  0012               	return		;indir
  2126  003776                     i2u62_49:
  2127  003776                     
  2128                           ;mcc_generated_files/can1.c: 672:         C1INTHbits.WAKIF = 0;
  2129  003776  0101               	movlb	1	; () banked
  2130  003778  9D1D               	bcf	29,6,b	;volatile
  2131  00377A                     i2l1588:
  2132                           
  2133                           ; BSR set to: 1
  2134                           ;mcc_generated_files/can1.c: 675:     if (1 == C1INTHbits.CERRIF)
  2135  00377A  AB1D               	btfss	29,5,b	;volatile
  2136  00377C  EFC2  F01B         	goto	i2u63_41
  2137  003780  EFC4  F01B         	goto	i2u63_40
  2138  003784                     i2u63_41:
  2139  003784  EFD3  F01B         	goto	i2l1594
  2140  003788                     i2u63_40:
  2141  003788                     
  2142                           ; BSR set to: 1
  2143                           ;mcc_generated_files/can1.c: 676:     {;mcc_generated_files/can1.c: 677:         CAN1_Bu
      +                          sErrorHandler();
  2144  003788  D802               	call	i2u64_48
  2145  00378A  EFD1  F01B         	goto	i2u64_49
  2146  00378E                     i2u64_48:
  2147  00378E  0005               	push	
  2148  003790  6EFA               	movwf	pclath,c
  2149  003792  500D               	movf	_CAN1_BusErrorHandler^(0+1280),w,c
  2150  003794  6EFD               	movwf	tosl,c
  2151  003796  500E               	movf	(_CAN1_BusErrorHandler+1)^(0+1280),w,c
  2152  003798  6EFE               	movwf	tosh,c
  2153  00379A  500F               	movf	(_CAN1_BusErrorHandler+2)^(0+1280),w,c
  2154  00379C  6EFF               	movwf	tosu,c
  2155  00379E  50FA               	movf	pclath,w,c
  2156  0037A0  0012               	return		;indir
  2157  0037A2                     i2u64_49:
  2158  0037A2                     
  2159                           ;mcc_generated_files/can1.c: 678:         C1INTHbits.CERRIF = 0;
  2160  0037A2  0101               	movlb	1	; () banked
  2161  0037A4  9B1D               	bcf	29,5,b	;volatile
  2162  0037A6                     i2l1594:
  2163                           
  2164                           ; BSR set to: 1
  2165                           ;mcc_generated_files/can1.c: 681:     if (1 == C1INTLbits.MODIF)
  2166  0037A6  A71C               	btfss	28,3,b	;volatile
  2167  0037A8  EFD8  F01B         	goto	i2u65_41
  2168  0037AC  EFDA  F01B         	goto	i2u65_40
  2169  0037B0                     i2u65_41:
  2170  0037B0  EFE9  F01B         	goto	i2l1600
  2171  0037B4                     i2u65_40:
  2172  0037B4                     
  2173                           ; BSR set to: 1
  2174                           ;mcc_generated_files/can1.c: 682:     {;mcc_generated_files/can1.c: 683:         CAN1_Mo
      +                          deChangeHandler();
  2175  0037B4  D802               	call	i2u66_48
  2176  0037B6  EFE7  F01B         	goto	i2u66_49
  2177  0037BA                     i2u66_48:
  2178  0037BA  0005               	push	
  2179  0037BC  6EFA               	movwf	pclath,c
  2180  0037BE  500A               	movf	_CAN1_ModeChangeHandler^(0+1280),w,c
  2181  0037C0  6EFD               	movwf	tosl,c
  2182  0037C2  500B               	movf	(_CAN1_ModeChangeHandler+1)^(0+1280),w,c
  2183  0037C4  6EFE               	movwf	tosh,c
  2184  0037C6  500C               	movf	(_CAN1_ModeChangeHandler+2)^(0+1280),w,c
  2185  0037C8  6EFF               	movwf	tosu,c
  2186  0037CA  50FA               	movf	pclath,w,c
  2187  0037CC  0012               	return		;indir
  2188  0037CE                     i2u66_49:
  2189  0037CE                     
  2190                           ;mcc_generated_files/can1.c: 684:         C1INTLbits.MODIF = 0;
  2191  0037CE  0101               	movlb	1	; () banked
  2192  0037D0  971C               	bcf	28,3,b	;volatile
  2193  0037D2                     i2l1600:
  2194                           
  2195                           ; BSR set to: 1
  2196                           ;mcc_generated_files/can1.c: 687:     if (1 == C1INTHbits.SERRIF)
  2197  0037D2  A91D               	btfss	29,4,b	;volatile
  2198  0037D4  EFEE  F01B         	goto	i2u67_41
  2199  0037D8  EFF0  F01B         	goto	i2u67_40
  2200  0037DC                     i2u67_41:
  2201  0037DC  EFFF  F01B         	goto	i2l1606
  2202  0037E0                     i2u67_40:
  2203  0037E0                     
  2204                           ; BSR set to: 1
  2205                           ;mcc_generated_files/can1.c: 688:     {;mcc_generated_files/can1.c: 689:         CAN1_Sy
      +                          stemErrorHandler();
  2206  0037E0  D802               	call	i2u68_48
  2207  0037E2  EFFD  F01B         	goto	i2u68_49
  2208  0037E6                     i2u68_48:
  2209  0037E6  0005               	push	
  2210  0037E8  6EFA               	movwf	pclath,c
  2211  0037EA  5007               	movf	_CAN1_SystemErrorHandler^(0+1280),w,c
  2212  0037EC  6EFD               	movwf	tosl,c
  2213  0037EE  5008               	movf	(_CAN1_SystemErrorHandler+1)^(0+1280),w,c
  2214  0037F0  6EFE               	movwf	tosh,c
  2215  0037F2  5009               	movf	(_CAN1_SystemErrorHandler+2)^(0+1280),w,c
  2216  0037F4  6EFF               	movwf	tosu,c
  2217  0037F6  50FA               	movf	pclath,w,c
  2218  0037F8  0012               	return		;indir
  2219  0037FA                     i2u68_49:
  2220  0037FA                     
  2221                           ;mcc_generated_files/can1.c: 690:         C1INTHbits.SERRIF = 0;
  2222  0037FA  0101               	movlb	1	; () banked
  2223  0037FC  991D               	bcf	29,4,b	;volatile
  2224  0037FE                     i2l1606:
  2225                           
  2226                           ; BSR set to: 1
  2227                           ;mcc_generated_files/can1.c: 693:     if (1 == C1INTHbits.TXATIF)
  2228  0037FE  A51D               	btfss	29,2,b	;volatile
  2229  003800  EF04  F01C         	goto	i2u69_41
  2230  003804  EF06  F01C         	goto	i2u69_40
  2231  003808                     i2u69_41:
  2232  003808  EF24  F01C         	goto	i2l316
  2233  00380C                     i2u69_40:
  2234  00380C                     
  2235                           ; BSR set to: 1
  2236                           ;mcc_generated_files/can1.c: 694:     {;mcc_generated_files/can1.c: 695:         CAN1_Tx
      +                          AttemptHandler();
  2237  00380C  D802               	call	i2u70_48
  2238  00380E  EF13  F01C         	goto	i2u70_49
  2239  003812                     i2u70_48:
  2240  003812  0005               	push	
  2241  003814  6EFA               	movwf	pclath,c
  2242  003816  5004               	movf	_CAN1_TxAttemptHandler^(0+1280),w,c
  2243  003818  6EFD               	movwf	tosl,c
  2244  00381A  5005               	movf	(_CAN1_TxAttemptHandler+1)^(0+1280),w,c
  2245  00381C  6EFE               	movwf	tosh,c
  2246  00381E  5006               	movf	(_CAN1_TxAttemptHandler+2)^(0+1280),w,c
  2247  003820  6EFF               	movwf	tosu,c
  2248  003822  50FA               	movf	pclath,w,c
  2249  003824  0012               	return		;indir
  2250  003826                     i2u70_49:
  2251  003826                     
  2252                           ;mcc_generated_files/can1.c: 696:         if (1 == C1TXQSTALbits.TXATIF)
  2253  003826  0101               	movlb	1	; () banked
  2254  003828  A954               	btfss	84,4,b	;volatile
  2255  00382A  EF19  F01C         	goto	i2u71_41
  2256  00382E  EF1B  F01C         	goto	i2u71_40
  2257  003832                     i2u71_41:
  2258  003832  EF1C  F01C         	goto	i2l317
  2259  003836                     i2u71_40:
  2260  003836                     
  2261                           ; BSR set to: 1
  2262                           ;mcc_generated_files/can1.c: 697:         {;mcc_generated_files/can1.c: 698:            
      +                           C1TXQSTALbits.TXATIF = 0;
  2263  003836  9954               	bcf	84,4,b	;volatile
  2264  003838                     i2l317:
  2265                           
  2266                           ; BSR set to: 1
  2267                           ;mcc_generated_files/can1.c: 700:         if (1 == C1FIFOSTA1Lbits.TXATIF)
  2268  003838  A960               	btfss	96,4,b	;volatile
  2269  00383A  EF21  F01C         	goto	i2u72_41
  2270  00383E  EF23  F01C         	goto	i2u72_40
  2271  003842                     i2u72_41:
  2272  003842  EF24  F01C         	goto	i2l316
  2273  003846                     i2u72_40:
  2274  003846                     
  2275                           ; BSR set to: 1
  2276                           ;mcc_generated_files/can1.c: 701:         {;mcc_generated_files/can1.c: 702:            
      +                           C1FIFOSTA1Lbits.TXATIF = 0;
  2277  003846  9960               	bcf	96,4,b	;volatile
  2278  003848                     i2l316:
  2279                           
  2280                           ; BSR set to: 1
  2281                           ;mcc_generated_files/can1.c: 706:     if (1 == C1INTHbits.RXOVIF)
  2282  003848  A71D               	btfss	29,3,b	;volatile
  2283  00384A  EF29  F01C         	goto	i2u73_41
  2284  00384E  EF2B  F01C         	goto	i2u73_40
  2285  003852                     i2u73_41:
  2286  003852  EF49  F01C         	goto	i2l319
  2287  003856                     i2u73_40:
  2288  003856                     
  2289                           ; BSR set to: 1
  2290                           ;mcc_generated_files/can1.c: 707:     {;mcc_generated_files/can1.c: 708:         CAN1_Rx
      +                          BufferOverflowHandler();
  2291  003856  D802               	call	i2u74_48
  2292  003858  EF38  F01C         	goto	i2u74_49
  2293  00385C                     i2u74_48:
  2294  00385C  0005               	push	
  2295  00385E  6EFA               	movwf	pclath,c
  2296  003860  5001               	movf	_CAN1_RxBufferOverflowHandler^(0+1280),w,c
  2297  003862  6EFD               	movwf	tosl,c
  2298  003864  5002               	movf	(_CAN1_RxBufferOverflowHandler+1)^(0+1280),w,c
  2299  003866  6EFE               	movwf	tosh,c
  2300  003868  5003               	movf	(_CAN1_RxBufferOverflowHandler+2)^(0+1280),w,c
  2301  00386A  6EFF               	movwf	tosu,c
  2302  00386C  50FA               	movf	pclath,w,c
  2303  00386E  0012               	return		;indir
  2304  003870                     i2u74_49:
  2305  003870                     
  2306                           ;mcc_generated_files/can1.c: 709:         if (1 == C1FIFOSTA2Lbits.RXOVIF)
  2307  003870  0101               	movlb	1	; () banked
  2308  003872  A76C               	btfss	108,3,b	;volatile
  2309  003874  EF3E  F01C         	goto	i2u75_41
  2310  003878  EF40  F01C         	goto	i2u75_40
  2311  00387C                     i2u75_41:
  2312  00387C  EF41  F01C         	goto	i2l320
  2313  003880                     i2u75_40:
  2314  003880                     
  2315                           ; BSR set to: 1
  2316                           ;mcc_generated_files/can1.c: 710:         {;mcc_generated_files/can1.c: 711:            
      +                           C1FIFOSTA2Lbits.RXOVIF = 0;
  2317  003880  976C               	bcf	108,3,b	;volatile
  2318  003882                     i2l320:
  2319                           
  2320                           ; BSR set to: 1
  2321                           ;mcc_generated_files/can1.c: 713:         if (1 == C1FIFOSTA3Lbits.RXOVIF)
  2322  003882  A778               	btfss	120,3,b	;volatile
  2323  003884  EF46  F01C         	goto	i2u76_41
  2324  003888  EF48  F01C         	goto	i2u76_40
  2325  00388C                     i2u76_41:
  2326  00388C  EF49  F01C         	goto	i2l319
  2327  003890                     i2u76_40:
  2328  003890                     
  2329                           ; BSR set to: 1
  2330                           ;mcc_generated_files/can1.c: 714:         {;mcc_generated_files/can1.c: 715:            
      +                           C1FIFOSTA3Lbits.RXOVIF = 0;
  2331  003890  9778               	bcf	120,3,b	;volatile
  2332  003892                     i2l319:
  2333                           
  2334                           ; BSR set to: 1
  2335                           ;mcc_generated_files/can1.c: 719:     PIR0bits.CANIF = 0;
  2336  003892  9CAE               	bcf	174,6,c	;volatile
  2337  003894                     
  2338                           ; BSR set to: 1
  2339  003894  0061  F56C  F4FB   	movff	??_CAN1_ISR+1,pclatu
  2340  00389A  0061  F568  F4FA   	movff	??_CAN1_ISR,pclath
  2341  0038A0  0011               	retfie		f
  2342  0038A2                     __end_of_CAN1_ISR:
  2343                           	callstack 0
  2344                           
  2345 ;; *************** function _DefaultTxAttemptHandler *****************
  2346 ;; Defined at:
  2347 ;;		line 143 in file "mcc_generated_files/can1.c"
  2348 ;; Parameters:    Size  Location     Type
  2349 ;;		None
  2350 ;; Auto vars:     Size  Location     Type
  2351 ;;		None
  2352 ;; Return value:  Size  Location     Type
  2353 ;;                  1    wreg      void 
  2354 ;; Registers used:
  2355 ;;		None
  2356 ;; Tracked objects:
  2357 ;;		On entry : 0/0
  2358 ;;		On exit  : 0/0
  2359 ;;		Unchanged: 0/0
  2360 ;; Data sizes:     COMRAM   BANK5   BANK6   BANK7   BANK8   BANK9  BANK10  BANK11  BANK12  BANK13  BANK14  BANK15  BANK1
      +6  BANK17  BANK18  BANK19  BANK20  BANK21  BANK22  BANK23  BANK24  BANK25  BANK26  BANK27  BANK28  BANK29  BANK30  BANK3
      +1  BANK32  BANK33  BANK34  BANK35  BANK36  BANK37  BANK38  BANK39  BANK40  BANK41  BANK42  BANK43  BANK44  BANK45  BANK4
      +6  BANK47  BANK48  BANK49  BANK50  BANK51  BANK52  BANK53  BANK54
  2361 ;;      Params:         0       0       0       0       0       0       0       0       0       0       0       0       
      +0       0       0       0       0       0       0       0       0       0       0       0       0       0       0       
      +0       0       0       0       0       0       0       0       0       0       0       0       0       0       0       
      +0       0       0       0       0       0       0       0       0
  2362 ;;      Locals:         0       0       0       0       0       0       0       0       0       0       0       0       
      +0       0       0       0       0       0       0       0       0       0       0       0       0       0       0       
      +0       0       0       0       0       0       0       0       0       0       0       0       0       0       0       
      +0       0       0       0       0       0       0       0       0
  2363 ;;      Temps:          0       0       0       0       0       0       0       0       0       0       0       0       
      +0       0       0       0       0       0       0       0       0       0       0       0       0       0       0       
      +0       0       0       0       0       0       0       0       0       0       0       0       0       0       0       
      +0       0       0       0       0       0       0       0       0
  2364 ;;      Totals:         0       0       0       0       0       0       0       0       0       0       0       0       
      +0       0       0       0       0       0       0       0       0       0       0       0       0       0       0       
      +0       0       0       0       0       0       0       0       0       0       0       0       0       0       0       
      +0       0       0       0       0       0       0       0       0
  2365 ;;Total ram usage:        0 bytes
  2366 ;; Hardware stack levels used: 1
  2367 ;; This function calls:
  2368 ;;		Nothing
  2369 ;; This function is called by:
  2370 ;;		_CAN1_ErrorNotificationInterruptEnable
  2371 ;;		_CAN1_ISR
  2372 ;; This function uses a non-reentrant model
  2373 ;;
  2374                           
  2375                           	psect	text23
  2376  003CAA                     __ptext23:
  2377                           	callstack 0
  2378  003CAA                     _DefaultTxAttemptHandler:
  2379                           	callstack 121
  2380  003CAA  0012               	return		;funcret
  2381  003CAC                     __end_of_DefaultTxAttemptHandler:
  2382                           	callstack 0
  2383                           
  2384 ;; *************** function _DefaultSystemErrorHandler *****************
  2385 ;; Defined at:
  2386 ;;		line 139 in file "mcc_generated_files/can1.c"
  2387 ;; Parameters:    Size  Location     Type
  2388 ;;		None
  2389 ;; Auto vars:     Size  Location     Type
  2390 ;;		None
  2391 ;; Return value:  Size  Location     Type
  2392 ;;                  1    wreg      void 
  2393 ;; Registers used:
  2394 ;;		None
  2395 ;; Tracked objects:
  2396 ;;		On entry : 0/0
  2397 ;;		On exit  : 0/0
  2398 ;;		Unchanged: 0/0
  2399 ;; Data sizes:     COMRAM   BANK5   BANK6   BANK7   BANK8   BANK9  BANK10  BANK11  BANK12  BANK13  BANK14  BANK15  BANK1
      +6  BANK17  BANK18  BANK19  BANK20  BANK21  BANK22  BANK23  BANK24  BANK25  BANK26  BANK27  BANK28  BANK29  BANK30  BANK3
      +1  BANK32  BANK33  BANK34  BANK35  BANK36  BANK37  BANK38  BANK39  BANK40  BANK41  BANK42  BANK43  BANK44  BANK45  BANK4
      +6  BANK47  BANK48  BANK49  BANK50  BANK51  BANK52  BANK53  BANK54
  2400 ;;      Params:         0       0       0       0       0       0       0       0       0       0       0       0       
      +0       0       0       0       0       0       0       0       0       0       0       0       0       0       0       
      +0       0       0       0       0       0       0       0       0       0       0       0       0       0       0       
      +0       0       0       0       0       0       0       0       0
  2401 ;;      Locals:         0       0       0       0       0       0       0       0       0       0       0       0       
      +0       0       0       0       0       0       0       0       0       0       0       0       0       0       0       
      +0       0       0       0       0       0       0       0       0       0       0       0       0       0       0       
      +0       0       0       0       0       0       0       0       0
  2402 ;;      Temps:          0       0       0       0       0       0       0       0       0       0       0       0       
      +0       0       0       0       0       0       0       0       0       0       0       0       0       0       0       
      +0       0       0       0       0       0       0       0       0       0       0       0       0       0       0       
      +0       0       0       0       0       0       0       0       0
  2403 ;;      Totals:         0       0       0       0       0       0       0       0       0       0       0       0       
      +0       0       0       0       0       0       0       0       0       0       0       0       0       0       0       
      +0       0       0       0       0       0       0       0       0       0       0       0       0       0       0       
      +0       0       0       0       0       0       0       0       0
  2404 ;;Total ram usage:        0 bytes
  2405 ;; Hardware stack levels used: 1
  2406 ;; This function calls:
  2407 ;;		Nothing
  2408 ;; This function is called by:
  2409 ;;		_CAN1_ErrorNotificationInterruptEnable
  2410 ;;		_CAN1_ISR
  2411 ;; This function uses a non-reentrant model
  2412 ;;
  2413                           
  2414                           	psect	text24
  2415  003CAC                     __ptext24:
  2416                           	callstack 0
  2417  003CAC                     _DefaultSystemErrorHandler:
  2418                           	callstack 121
  2419  003CAC  0012               	return		;funcret
  2420  003CAE                     __end_of_DefaultSystemErrorHandler:
  2421                           	callstack 0
  2422                           
  2423 ;; *************** function _DefaultRxBufferOverflowHandler *****************
  2424 ;; Defined at:
  2425 ;;		line 147 in file "mcc_generated_files/can1.c"
  2426 ;; Parameters:    Size  Location     Type
  2427 ;;		None
  2428 ;; Auto vars:     Size  Location     Type
  2429 ;;		None
  2430 ;; Return value:  Size  Location     Type
  2431 ;;                  1    wreg      void 
  2432 ;; Registers used:
  2433 ;;		None
  2434 ;; Tracked objects:
  2435 ;;		On entry : 0/0
  2436 ;;		On exit  : 0/0
  2437 ;;		Unchanged: 0/0
  2438 ;; Data sizes:     COMRAM   BANK5   BANK6   BANK7   BANK8   BANK9  BANK10  BANK11  BANK12  BANK13  BANK14  BANK15  BANK1
      +6  BANK17  BANK18  BANK19  BANK20  BANK21  BANK22  BANK23  BANK24  BANK25  BANK26  BANK27  BANK28  BANK29  BANK30  BANK3
      +1  BANK32  BANK33  BANK34  BANK35  BANK36  BANK37  BANK38  BANK39  BANK40  BANK41  BANK42  BANK43  BANK44  BANK45  BANK4
      +6  BANK47  BANK48  BANK49  BANK50  BANK51  BANK52  BANK53  BANK54
  2439 ;;      Params:         0       0       0       0       0       0       0       0       0       0       0       0       
      +0       0       0       0       0       0       0       0       0       0       0       0       0       0       0       
      +0       0       0       0       0       0       0       0       0       0       0       0       0       0       0       
      +0       0       0       0       0       0       0       0       0
  2440 ;;      Locals:         0       0       0       0       0       0       0       0       0       0       0       0       
      +0       0       0       0       0       0       0       0       0       0       0       0       0       0       0       
      +0       0       0       0       0       0       0       0       0       0       0       0       0       0       0       
      +0       0       0       0       0       0       0       0       0
  2441 ;;      Temps:          0       0       0       0       0       0       0       0       0       0       0       0       
      +0       0       0       0       0       0       0       0       0       0       0       0       0       0       0       
      +0       0       0       0       0       0       0       0       0       0       0       0       0       0       0       
      +0       0       0       0       0       0       0       0       0
  2442 ;;      Totals:         0       0       0       0       0       0       0       0       0       0       0       0       
      +0       0       0       0       0       0       0       0       0       0       0       0       0       0       0       
      +0       0       0       0       0       0       0       0       0       0       0       0       0       0       0       
      +0       0       0       0       0       0       0       0       0
  2443 ;;Total ram usage:        0 bytes
  2444 ;; Hardware stack levels used: 1
  2445 ;; This function calls:
  2446 ;;		Nothing
  2447 ;; This function is called by:
  2448 ;;		_CAN1_ErrorNotificationInterruptEnable
  2449 ;;		_CAN1_ISR
  2450 ;; This function uses a non-reentrant model
  2451 ;;
  2452                           
  2453                           	psect	text25
  2454  003CAE                     __ptext25:
  2455                           	callstack 0
  2456  003CAE                     _DefaultRxBufferOverflowHandler:
  2457                           	callstack 121
  2458  003CAE  0012               	return		;funcret
  2459  003CB0                     __end_of_DefaultRxBufferOverflowHandler:
  2460                           	callstack 0
  2461                           
  2462 ;; *************** function _DefaultModeChangeHandler *****************
  2463 ;; Defined at:
  2464 ;;		line 135 in file "mcc_generated_files/can1.c"
  2465 ;; Parameters:    Size  Location     Type
  2466 ;;		None
  2467 ;; Auto vars:     Size  Location     Type
  2468 ;;		None
  2469 ;; Return value:  Size  Location     Type
  2470 ;;                  1    wreg      void 
  2471 ;; Registers used:
  2472 ;;		None
  2473 ;; Tracked objects:
  2474 ;;		On entry : 0/0
  2475 ;;		On exit  : 0/0
  2476 ;;		Unchanged: 0/0
  2477 ;; Data sizes:     COMRAM   BANK5   BANK6   BANK7   BANK8   BANK9  BANK10  BANK11  BANK12  BANK13  BANK14  BANK15  BANK1
      +6  BANK17  BANK18  BANK19  BANK20  BANK21  BANK22  BANK23  BANK24  BANK25  BANK26  BANK27  BANK28  BANK29  BANK30  BANK3
      +1  BANK32  BANK33  BANK34  BANK35  BANK36  BANK37  BANK38  BANK39  BANK40  BANK41  BANK42  BANK43  BANK44  BANK45  BANK4
      +6  BANK47  BANK48  BANK49  BANK50  BANK51  BANK52  BANK53  BANK54
  2478 ;;      Params:         0       0       0       0       0       0       0       0       0       0       0       0       
      +0       0       0       0       0       0       0       0       0       0       0       0       0       0       0       
      +0       0       0       0       0       0       0       0       0       0       0       0       0       0       0       
      +0       0       0       0       0       0       0       0       0
  2479 ;;      Locals:         0       0       0       0       0       0       0       0       0       0       0       0       
      +0       0       0       0       0       0       0       0       0       0       0       0       0       0       0       
      +0       0       0       0       0       0       0       0       0       0       0       0       0       0       0       
      +0       0       0       0       0       0       0       0       0
  2480 ;;      Temps:          0       0       0       0       0       0       0       0       0       0       0       0       
      +0       0       0       0       0       0       0       0       0       0       0       0       0       0       0       
      +0       0       0       0       0       0       0       0       0       0       0       0       0       0       0       
      +0       0       0       0       0       0       0       0       0
  2481 ;;      Totals:         0       0       0       0       0       0       0       0       0       0       0       0       
      +0       0       0       0       0       0       0       0       0       0       0       0       0       0       0       
      +0       0       0       0       0       0       0       0       0       0       0       0       0       0       0       
      +0       0       0       0       0       0       0       0       0
  2482 ;;Total ram usage:        0 bytes
  2483 ;; Hardware stack levels used: 1
  2484 ;; This function calls:
  2485 ;;		Nothing
  2486 ;; This function is called by:
  2487 ;;		_CAN1_ErrorNotificationInterruptEnable
  2488 ;;		_CAN1_ISR
  2489 ;; This function uses a non-reentrant model
  2490 ;;
  2491                           
  2492                           	psect	text26
  2493  003CB0                     __ptext26:
  2494                           	callstack 0
  2495  003CB0                     _DefaultModeChangeHandler:
  2496                           	callstack 121
  2497  003CB0  0012               	return		;funcret
  2498  003CB2                     __end_of_DefaultModeChangeHandler:
  2499                           	callstack 0
  2500                           
  2501 ;; *************** function _DefaultInvalidMessageHandler *****************
  2502 ;; Defined at:
  2503 ;;		line 123 in file "mcc_generated_files/can1.c"
  2504 ;; Parameters:    Size  Location     Type
  2505 ;;		None
  2506 ;; Auto vars:     Size  Location     Type
  2507 ;;		None
  2508 ;; Return value:  Size  Location     Type
  2509 ;;                  1    wreg      void 
  2510 ;; Registers used:
  2511 ;;		None
  2512 ;; Tracked objects:
  2513 ;;		On entry : 0/0
  2514 ;;		On exit  : 0/0
  2515 ;;		Unchanged: 0/0
  2516 ;; Data sizes:     COMRAM   BANK5   BANK6   BANK7   BANK8   BANK9  BANK10  BANK11  BANK12  BANK13  BANK14  BANK15  BANK1
      +6  BANK17  BANK18  BANK19  BANK20  BANK21  BANK22  BANK23  BANK24  BANK25  BANK26  BANK27  BANK28  BANK29  BANK30  BANK3
      +1  BANK32  BANK33  BANK34  BANK35  BANK36  BANK37  BANK38  BANK39  BANK40  BANK41  BANK42  BANK43  BANK44  BANK45  BANK4
      +6  BANK47  BANK48  BANK49  BANK50  BANK51  BANK52  BANK53  BANK54
  2517 ;;      Params:         0       0       0       0       0       0       0       0       0       0       0       0       
      +0       0       0       0       0       0       0       0       0       0       0       0       0       0       0       
      +0       0       0       0       0       0       0       0       0       0       0       0       0       0       0       
      +0       0       0       0       0       0       0       0       0
  2518 ;;      Locals:         0       0       0       0       0       0       0       0       0       0       0       0       
      +0       0       0       0       0       0       0       0       0       0       0       0       0       0       0       
      +0       0       0       0       0       0       0       0       0       0       0       0       0       0       0       
      +0       0       0       0       0       0       0       0       0
  2519 ;;      Temps:          0       0       0       0       0       0       0       0       0       0       0       0       
      +0       0       0       0       0       0       0       0       0       0       0       0       0       0       0       
      +0       0       0       0       0       0       0       0       0       0       0       0       0       0       0       
      +0       0       0       0       0       0       0       0       0
  2520 ;;      Totals:         0       0       0       0       0       0       0       0       0       0       0       0       
      +0       0       0       0       0       0       0       0       0       0       0       0       0       0       0       
      +0       0       0       0       0       0       0       0       0       0       0       0       0       0       0       
      +0       0       0       0       0       0       0       0       0
  2521 ;;Total ram usage:        0 bytes
  2522 ;; Hardware stack levels used: 1
  2523 ;; This function calls:
  2524 ;;		Nothing
  2525 ;; This function is called by:
  2526 ;;		_CAN1_ErrorNotificationInterruptEnable
  2527 ;;		_CAN1_ISR
  2528 ;; This function uses a non-reentrant model
  2529 ;;
  2530                           
  2531                           	psect	text27
  2532  003CB2                     __ptext27:
  2533                           	callstack 0
  2534  003CB2                     _DefaultInvalidMessageHandler:
  2535                           	callstack 121
  2536  003CB2  0012               	return		;funcret
  2537  003CB4                     __end_of_DefaultInvalidMessageHandler:
  2538                           	callstack 0
  2539                           
  2540 ;; *************** function _DefaultBusWakeUpActivityHandler *****************
  2541 ;; Defined at:
  2542 ;;		line 127 in file "mcc_generated_files/can1.c"
  2543 ;; Parameters:    Size  Location     Type
  2544 ;;		None
  2545 ;; Auto vars:     Size  Location     Type
  2546 ;;		None
  2547 ;; Return value:  Size  Location     Type
  2548 ;;                  1    wreg      void 
  2549 ;; Registers used:
  2550 ;;		None
  2551 ;; Tracked objects:
  2552 ;;		On entry : 0/0
  2553 ;;		On exit  : 0/0
  2554 ;;		Unchanged: 0/0
  2555 ;; Data sizes:     COMRAM   BANK5   BANK6   BANK7   BANK8   BANK9  BANK10  BANK11  BANK12  BANK13  BANK14  BANK15  BANK1
      +6  BANK17  BANK18  BANK19  BANK20  BANK21  BANK22  BANK23  BANK24  BANK25  BANK26  BANK27  BANK28  BANK29  BANK30  BANK3
      +1  BANK32  BANK33  BANK34  BANK35  BANK36  BANK37  BANK38  BANK39  BANK40  BANK41  BANK42  BANK43  BANK44  BANK45  BANK4
      +6  BANK47  BANK48  BANK49  BANK50  BANK51  BANK52  BANK53  BANK54
  2556 ;;      Params:         0       0       0       0       0       0       0       0       0       0       0       0       
      +0       0       0       0       0       0       0       0       0       0       0       0       0       0       0       
      +0       0       0       0       0       0       0       0       0       0       0       0       0       0       0       
      +0       0       0       0       0       0       0       0       0
  2557 ;;      Locals:         0       0       0       0       0       0       0       0       0       0       0       0       
      +0       0       0       0       0       0       0       0       0       0       0       0       0       0       0       
      +0       0       0       0       0       0       0       0       0       0       0       0       0       0       0       
      +0       0       0       0       0       0       0       0       0
  2558 ;;      Temps:          0       0       0       0       0       0       0       0       0       0       0       0       
      +0       0       0       0       0       0       0       0       0       0       0       0       0       0       0       
      +0       0       0       0       0       0       0       0       0       0       0       0       0       0       0       
      +0       0       0       0       0       0       0       0       0
  2559 ;;      Totals:         0       0       0       0       0       0       0       0       0       0       0       0       
      +0       0       0       0       0       0       0       0       0       0       0       0       0       0       0       
      +0       0       0       0       0       0       0       0       0       0       0       0       0       0       0       
      +0       0       0       0       0       0       0       0       0
  2560 ;;Total ram usage:        0 bytes
  2561 ;; Hardware stack levels used: 1
  2562 ;; This function calls:
  2563 ;;		Nothing
  2564 ;; This function is called by:
  2565 ;;		_CAN1_ErrorNotificationInterruptEnable
  2566 ;;		_CAN1_ISR
  2567 ;; This function uses a non-reentrant model
  2568 ;;
  2569                           
  2570                           	psect	text28
  2571  003CB4                     __ptext28:
  2572                           	callstack 0
  2573  003CB4                     _DefaultBusWakeUpActivityHandler:
  2574                           	callstack 121
  2575  003CB4  0012               	return		;funcret
  2576  003CB6                     __end_of_DefaultBusWakeUpActivityHandler:
  2577                           	callstack 0
  2578                           
  2579 ;; *************** function _DefaultBusErrorHandler *****************
  2580 ;; Defined at:
  2581 ;;		line 131 in file "mcc_generated_files/can1.c"
  2582 ;; Parameters:    Size  Location     Type
  2583 ;;		None
  2584 ;; Auto vars:     Size  Location     Type
  2585 ;;		None
  2586 ;; Return value:  Size  Location     Type
  2587 ;;                  1    wreg      void 
  2588 ;; Registers used:
  2589 ;;		None
  2590 ;; Tracked objects:
  2591 ;;		On entry : 0/0
  2592 ;;		On exit  : 0/0
  2593 ;;		Unchanged: 0/0
  2594 ;; Data sizes:     COMRAM   BANK5   BANK6   BANK7   BANK8   BANK9  BANK10  BANK11  BANK12  BANK13  BANK14  BANK15  BANK1
      +6  BANK17  BANK18  BANK19  BANK20  BANK21  BANK22  BANK23  BANK24  BANK25  BANK26  BANK27  BANK28  BANK29  BANK30  BANK3
      +1  BANK32  BANK33  BANK34  BANK35  BANK36  BANK37  BANK38  BANK39  BANK40  BANK41  BANK42  BANK43  BANK44  BANK45  BANK4
      +6  BANK47  BANK48  BANK49  BANK50  BANK51  BANK52  BANK53  BANK54
  2595 ;;      Params:         0       0       0       0       0       0       0       0       0       0       0       0       
      +0       0       0       0       0       0       0       0       0       0       0       0       0       0       0       
      +0       0       0       0       0       0       0       0       0       0       0       0       0       0       0       
      +0       0       0       0       0       0       0       0       0
  2596 ;;      Locals:         0       0       0       0       0       0       0       0       0       0       0       0       
      +0       0       0       0       0       0       0       0       0       0       0       0       0       0       0       
      +0       0       0       0       0       0       0       0       0       0       0       0       0       0       0       
      +0       0       0       0       0       0       0       0       0
  2597 ;;      Temps:          0       0       0       0       0       0       0       0       0       0       0       0       
      +0       0       0       0       0       0       0       0       0       0       0       0       0       0       0       
      +0       0       0       0       0       0       0       0       0       0       0       0       0       0       0       
      +0       0       0       0       0       0       0       0       0
  2598 ;;      Totals:         0       0       0       0       0       0       0       0       0       0       0       0       
      +0       0       0       0       0       0       0       0       0       0       0       0       0       0       0       
      +0       0       0       0       0       0       0       0       0       0       0       0       0       0       0       
      +0       0       0       0       0       0       0       0       0
  2599 ;;Total ram usage:        0 bytes
  2600 ;; Hardware stack levels used: 1
  2601 ;; This function calls:
  2602 ;;		Nothing
  2603 ;; This function is called by:
  2604 ;;		_CAN1_ErrorNotificationInterruptEnable
  2605 ;;		_CAN1_ISR
  2606 ;; This function uses a non-reentrant model
  2607 ;;
  2608                           
  2609                           	psect	text29
  2610  003CB6                     __ptext29:
  2611                           	callstack 0
  2612  003CB6                     _DefaultBusErrorHandler:
  2613                           	callstack 121
  2614  003CB6  0012               	return		;funcret
  2615  003CB8                     __end_of_DefaultBusErrorHandler:
  2616                           	callstack 0
  2617                           
  2618 ;; *************** function _Default_ISR *****************
  2619 ;; Defined at:
  2620 ;;		line 76 in file "mcc_generated_files/interrupt_manager.c"
  2621 ;; Parameters:    Size  Location     Type
  2622 ;;		None
  2623 ;; Auto vars:     Size  Location     Type
  2624 ;;		None
  2625 ;; Return value:  Size  Location     Type
  2626 ;;                  1    wreg      void 
  2627 ;; Registers used:
  2628 ;;		None
  2629 ;; Tracked objects:
  2630 ;;		On entry : 0/0
  2631 ;;		On exit  : 0/0
  2632 ;;		Unchanged: 0/0
  2633 ;; Data sizes:     COMRAM   BANK5   BANK6   BANK7   BANK8   BANK9  BANK10  BANK11  BANK12  BANK13  BANK14  BANK15  BANK1
      +6  BANK17  BANK18  BANK19  BANK20  BANK21  BANK22  BANK23  BANK24  BANK25  BANK26  BANK27  BANK28  BANK29  BANK30  BANK3
      +1  BANK32  BANK33  BANK34  BANK35  BANK36  BANK37  BANK38  BANK39  BANK40  BANK41  BANK42  BANK43  BANK44  BANK45  BANK4
      +6  BANK47  BANK48  BANK49  BANK50  BANK51  BANK52  BANK53  BANK54
  2634 ;;      Params:         0       0       0       0       0       0       0       0       0       0       0       0       
      +0       0       0       0       0       0       0       0       0       0       0       0       0       0       0       
      +0       0       0       0       0       0       0       0       0       0       0       0       0       0       0       
      +0       0       0       0       0       0       0       0       0
  2635 ;;      Locals:         0       0       0       0       0       0       0       0       0       0       0       0       
      +0       0       0       0       0       0       0       0       0       0       0       0       0       0       0       
      +0       0       0       0       0       0       0       0       0       0       0       0       0       0       0       
      +0       0       0       0       0       0       0       0       0
  2636 ;;      Temps:          0       0       0       0       0       0       0       0       0       0       0       0       
      +0       0       0       0       0       0       0       0       0       0       0       0       0       0       0       
      +0       0       0       0       0       0       0       0       0       0       0       0       0       0       0       
      +0       0       0       0       0       0       0       0       0
  2637 ;;      Totals:         0       0       0       0       0       0       0       0       0       0       0       0       
      +0       0       0       0       0       0       0       0       0       0       0       0       0       0       0       
      +0       0       0       0       0       0       0       0       0       0       0       0       0       0       0       
      +0       0       0       0       0       0       0       0       0
  2638 ;;Total ram usage:        0 bytes
  2639 ;; Hardware stack levels used: 1
  2640 ;; This function calls:
  2641 ;;		Nothing
  2642 ;; This function is called by:
  2643 ;;		Interrupt level 2
  2644 ;; This function uses a non-reentrant model
  2645 ;;
  2646                           
  2647                           	psect	text30
  2648  003CB8                     __ptext30:
  2649                           	callstack 0
  2650  003CB8                     _Default_ISR:
  2651                           	callstack 122
  2652  003CB8  0011               	retfie		f
  2653  003CBA                     __end_of_Default_ISR:
  2654                           	callstack 0
  2655                           
  2656                           ;
  2657                           ; Interrupt Vector Table @ 0x8
  2658                           ;
  2659                           
  2660                           	psect	ivt0x8
  2661  000008                     __pivt0x8:
  2662                           	callstack 0
  2663  000008                     ivt0x8_base:
  2664                           	callstack 0
  2665                           
  2666                           ; Vector 0 : SWINT
  2667  000008  0F2E               	dw	_Default_ISR shr (0+2)
  2668                           
  2669                           ; Vector 1 : HLVD
  2670  00000A  0F2E               	dw	_Default_ISR shr (0+2)
  2671                           
  2672                           ; Vector 2 : OSF
  2673  00000C  0F2E               	dw	_Default_ISR shr (0+2)
  2674                           
  2675                           ; Vector 3 : CSW
  2676  00000E  0F2E               	dw	_Default_ISR shr (0+2)
  2677                           
  2678                           ; Vector 4 : TU16A
  2679  000010  0F2E               	dw	_Default_ISR shr (0+2)
  2680                           
  2681                           ; Vector 5 : CLC1
  2682  000012  0F2E               	dw	_Default_ISR shr (0+2)
  2683                           
  2684                           ; Vector 6 : CAN
  2685  000014  0DC5               	dw	_CAN1_ISR shr (0+2)
  2686                           
  2687                           ; Vector 7 : IOC
  2688  000016  0F2E               	dw	_Default_ISR shr (0+2)
  2689                           
  2690                           ; Vector 8 : INT0
  2691  000018  0F2E               	dw	_Default_ISR shr (0+2)
  2692                           
  2693                           ; Vector 9 : ZCD
  2694  00001A  0F2E               	dw	_Default_ISR shr (0+2)
  2695                           
  2696                           ; Vector 10 : AD
  2697  00001C  0F2E               	dw	_Default_ISR shr (0+2)
  2698                           
  2699                           ; Vector 11 : ACT
  2700  00001E  0F2E               	dw	_Default_ISR shr (0+2)
  2701                           
  2702                           ; Vector 12 : CM1
  2703  000020  0F2E               	dw	_Default_ISR shr (0+2)
  2704                           
  2705                           ; Vector 13 : SMT1
  2706  000022  0F2E               	dw	_Default_ISR shr (0+2)
  2707                           
  2708                           ; Vector 14 : SMT1PRA
  2709  000024  0F2E               	dw	_Default_ISR shr (0+2)
  2710                           
  2711                           ; Vector 15 : SMT1PWA
  2712  000026  0F2E               	dw	_Default_ISR shr (0+2)
  2713                           
  2714                           ; Vector 16 : ADCH1
  2715  000028  0F2E               	dw	_Default_ISR shr (0+2)
  2716                           
  2717                           ; Vector 17 : ADCH2
  2718  00002A  0F2E               	dw	_Default_ISR shr (0+2)
  2719                           
  2720                           ; Vector 18 : ADCH3
  2721  00002C  0F2E               	dw	_Default_ISR shr (0+2)
  2722                           
  2723                           ; Vector 19 : ADCH4
  2724  00002E  0F2E               	dw	_Default_ISR shr (0+2)
  2725                           
  2726                           ; Vector 20 : DMA1SCNT
  2727  000030  0F2E               	dw	_Default_ISR shr (0+2)
  2728                           
  2729                           ; Vector 21 : DMA1DCNT
  2730  000032  0F2E               	dw	_Default_ISR shr (0+2)
  2731                           
  2732                           ; Vector 22 : DMA1OR
  2733  000034  0F2E               	dw	_Default_ISR shr (0+2)
  2734                           
  2735                           ; Vector 23 : DMA1A
  2736  000036  0F2E               	dw	_Default_ISR shr (0+2)
  2737                           
  2738                           ; Vector 24 : SPI1RX
  2739  000038  0F2E               	dw	_Default_ISR shr (0+2)
  2740                           
  2741                           ; Vector 25 : SPI1TX
  2742  00003A  0F2E               	dw	_Default_ISR shr (0+2)
  2743                           
  2744                           ; Vector 26 : SPI1
  2745  00003C  0F2E               	dw	_Default_ISR shr (0+2)
  2746                           
  2747                           ; Vector 27 : TMR2
  2748  00003E  0F2E               	dw	_Default_ISR shr (0+2)
  2749                           
  2750                           ; Vector 28 : TMR1
  2751  000040  0F2E               	dw	_Default_ISR shr (0+2)
  2752                           
  2753                           ; Vector 29 : TMR1G
  2754  000042  0F2E               	dw	_Default_ISR shr (0+2)
  2755                           
  2756                           ; Vector 30 : CCP1
  2757  000044  0F2E               	dw	_Default_ISR shr (0+2)
  2758                           
  2759                           ; Vector 31 : TMR0
  2760  000046  0F2E               	dw	_Default_ISR shr (0+2)
  2761                           
  2762                           ; Vector 32 : U1RX
  2763  000048  0F2E               	dw	_Default_ISR shr (0+2)
  2764                           
  2765                           ; Vector 33 : U1TX
  2766  00004A  0F2E               	dw	_Default_ISR shr (0+2)
  2767                           
  2768                           ; Vector 34 : U1E
  2769  00004C  0F2E               	dw	_Default_ISR shr (0+2)
  2770                           
  2771                           ; Vector 35 : U1
  2772  00004E  0F2E               	dw	_Default_ISR shr (0+2)
  2773                           
  2774                           ; Vector 36 : CANRX
  2775  000050  0F2E               	dw	_Default_ISR shr (0+2)
  2776                           
  2777                           ; Vector 37 : CANTX
  2778  000052  0F2E               	dw	_Default_ISR shr (0+2)
  2779                           
  2780                           ; Vector 38 : PWM1PR
  2781  000054  0F2E               	dw	_Default_ISR shr (0+2)
  2782                           
  2783                           ; Vector 39 : PWM1
  2784  000056  0F2E               	dw	_Default_ISR shr (0+2)
  2785                           
  2786                           ; Vector 40 : SPI2RX
  2787  000058  0F2E               	dw	_Default_ISR shr (0+2)
  2788                           
  2789                           ; Vector 41 : SPI2TX
  2790  00005A  0F2E               	dw	_Default_ISR shr (0+2)
  2791                           
  2792                           ; Vector 42 : SPI2
  2793  00005C  0F2E               	dw	_Default_ISR shr (0+2)
  2794                           
  2795                           ; Vector 43 : TU16B
  2796  00005E  0F2E               	dw	_Default_ISR shr (0+2)
  2797                           
  2798                           ; Vector 44 : TMR3
  2799  000060  0F2E               	dw	_Default_ISR shr (0+2)
  2800                           
  2801                           ; Vector 45 : TMR3G
  2802  000062  0F2E               	dw	_Default_ISR shr (0+2)
  2803                           
  2804                           ; Vector 46 : PWM2PR
  2805  000064  0F2E               	dw	_Default_ISR shr (0+2)
  2806                           
  2807                           ; Vector 47 : PWM2
  2808  000066  0F2E               	dw	_Default_ISR shr (0+2)
  2809                           
  2810                           ; Vector 48 : INT1
  2811  000068  0F2E               	dw	_Default_ISR shr (0+2)
  2812                           
  2813                           ; Vector 49 : CLC2
  2814  00006A  0F2E               	dw	_Default_ISR shr (0+2)
  2815                           
  2816                           ; Vector 50 : CWG1
  2817  00006C  0F2E               	dw	_Default_ISR shr (0+2)
  2818                           
  2819                           ; Vector 51 : NCO1
  2820  00006E  0F2E               	dw	_Default_ISR shr (0+2)
  2821                           
  2822                           ; Vector 52 : DMA2SCNT
  2823  000070  0F2E               	dw	_Default_ISR shr (0+2)
  2824                           
  2825                           ; Vector 53 : DMA2DCNT
  2826  000072  0F2E               	dw	_Default_ISR shr (0+2)
  2827                           
  2828                           ; Vector 54 : DMA2OR
  2829  000074  0F2E               	dw	_Default_ISR shr (0+2)
  2830                           
  2831                           ; Vector 55 : DMA2A
  2832  000076  0F2E               	dw	_Default_ISR shr (0+2)
  2833                           
  2834                           ; Vector 56 : I2C1RX
  2835  000078  0F2E               	dw	_Default_ISR shr (0+2)
  2836                           
  2837                           ; Vector 57 : I2C1TX
  2838  00007A  0F2E               	dw	_Default_ISR shr (0+2)
  2839                           
  2840                           ; Vector 58 : I2C1
  2841  00007C  0F2E               	dw	_Default_ISR shr (0+2)
  2842                           
  2843                           ; Vector 59 : I2C1E
  2844  00007E  0F2E               	dw	_Default_ISR shr (0+2)
  2845                           
  2846                           ; Vector 60 : Undefined
  2847  000080  0042               	dw	ivt0x8_undefint shr (0+2)
  2848                           
  2849                           ; Vector 61 : CLC3
  2850  000082  0F2E               	dw	_Default_ISR shr (0+2)
  2851                           
  2852                           ; Vector 62 : PWM3PR
  2853  000084  0F2E               	dw	_Default_ISR shr (0+2)
  2854                           
  2855                           ; Vector 63 : PWM3
  2856  000086  0F2E               	dw	_Default_ISR shr (0+2)
  2857                           
  2858                           ; Vector 64 : U2RX
  2859  000088  0F2E               	dw	_Default_ISR shr (0+2)
  2860                           
  2861                           ; Vector 65 : U2TX
  2862  00008A  0F2E               	dw	_Default_ISR shr (0+2)
  2863                           
  2864                           ; Vector 66 : U2E
  2865  00008C  0F2E               	dw	_Default_ISR shr (0+2)
  2866                           
  2867                           ; Vector 67 : U2
  2868  00008E  0F2E               	dw	_Default_ISR shr (0+2)
  2869                           
  2870                           ; Vector 68 : TMR5
  2871  000090  0F2E               	dw	_Default_ISR shr (0+2)
  2872                           
  2873                           ; Vector 69 : TMR5G
  2874  000092  0F2E               	dw	_Default_ISR shr (0+2)
  2875                           
  2876                           ; Vector 70 : CCP2
  2877  000094  0F2E               	dw	_Default_ISR shr (0+2)
  2878                           
  2879                           ; Vector 71 : SCAN
  2880  000096  0F2E               	dw	_Default_ISR shr (0+2)
  2881                           
  2882                           ; Vector 72 : U3RX
  2883  000098  0F2E               	dw	_Default_ISR shr (0+2)
  2884                           
  2885                           ; Vector 73 : U3TX
  2886  00009A  0F2E               	dw	_Default_ISR shr (0+2)
  2887                           
  2888                           ; Vector 74 : U3E
  2889  00009C  0F2E               	dw	_Default_ISR shr (0+2)
  2890                           
  2891                           ; Vector 75 : U3
  2892  00009E  0F2E               	dw	_Default_ISR shr (0+2)
  2893                           
  2894                           ; Vector 76 : Undefined
  2895  0000A0  0042               	dw	ivt0x8_undefint shr (0+2)
  2896                           
  2897                           ; Vector 77 : CLC4
  2898  0000A2  0F2E               	dw	_Default_ISR shr (0+2)
  2899                           
  2900                           ; Vector 78 : PWM4PR
  2901  0000A4  0F2E               	dw	_Default_ISR shr (0+2)
  2902                           
  2903                           ; Vector 79 : PWM4
  2904  0000A6  0F2E               	dw	_Default_ISR shr (0+2)
  2905                           
  2906                           ; Vector 80 : INT2
  2907  0000A8  0F2E               	dw	_Default_ISR shr (0+2)
  2908                           
  2909                           ; Vector 81 : CLC5
  2910  0000AA  0F2E               	dw	_Default_ISR shr (0+2)
  2911                           
  2912                           ; Vector 82 : CWG2
  2913  0000AC  0F2E               	dw	_Default_ISR shr (0+2)
  2914                           
  2915                           ; Vector 83 : NCO2
  2916  0000AE  0F2E               	dw	_Default_ISR shr (0+2)
  2917                           
  2918                           ; Vector 84 : DMA3SCNT
  2919  0000B0  0F2E               	dw	_Default_ISR shr (0+2)
  2920                           
  2921                           ; Vector 85 : DMA3DCNT
  2922  0000B2  0F2E               	dw	_Default_ISR shr (0+2)
  2923                           
  2924                           ; Vector 86 : DMA3OR
  2925  0000B4  0F2E               	dw	_Default_ISR shr (0+2)
  2926                           
  2927                           ; Vector 87 : DMA3A
  2928  0000B6  0F2E               	dw	_Default_ISR shr (0+2)
  2929                           
  2930                           ; Vector 88 : CCP3
  2931  0000B8  0F2E               	dw	_Default_ISR shr (0+2)
  2932                           
  2933                           ; Vector 89 : CLC6
  2934  0000BA  0F2E               	dw	_Default_ISR shr (0+2)
  2935                           
  2936                           ; Vector 90 : CWG3
  2937  0000BC  0F2E               	dw	_Default_ISR shr (0+2)
  2938                           
  2939                           ; Vector 91 : TMR4
  2940  0000BE  0F2E               	dw	_Default_ISR shr (0+2)
  2941                           
  2942                           ; Vector 92 : DMA4SCNT
  2943  0000C0  0F2E               	dw	_Default_ISR shr (0+2)
  2944                           
  2945                           ; Vector 93 : DMA4DCNT
  2946  0000C2  0F2E               	dw	_Default_ISR shr (0+2)
  2947                           
  2948                           ; Vector 94 : DMA4OR
  2949  0000C4  0F2E               	dw	_Default_ISR shr (0+2)
  2950                           
  2951                           ; Vector 95 : DMA4A
  2952  0000C6  0F2E               	dw	_Default_ISR shr (0+2)
  2953                           
  2954                           ; Vector 96 : U4RX
  2955  0000C8  0F2E               	dw	_Default_ISR shr (0+2)
  2956                           
  2957                           ; Vector 97 : U4TX
  2958  0000CA  0F2E               	dw	_Default_ISR shr (0+2)
  2959                           
  2960                           ; Vector 98 : U4E
  2961  0000CC  0F2E               	dw	_Default_ISR shr (0+2)
  2962                           
  2963                           ; Vector 99 : U4
  2964  0000CE  0F2E               	dw	_Default_ISR shr (0+2)
  2965                           
  2966                           ; Vector 100 : DMA5SCNT
  2967  0000D0  0F2E               	dw	_Default_ISR shr (0+2)
  2968                           
  2969                           ; Vector 101 : DMA5DCNT
  2970  0000D2  0F2E               	dw	_Default_ISR shr (0+2)
  2971                           
  2972                           ; Vector 102 : DMA5OR
  2973  0000D4  0F2E               	dw	_Default_ISR shr (0+2)
  2974                           
  2975                           ; Vector 103 : DMA5A
  2976  0000D6  0F2E               	dw	_Default_ISR shr (0+2)
  2977                           
  2978                           ; Vector 104 : U5RX
  2979  0000D8  0F2E               	dw	_Default_ISR shr (0+2)
  2980                           
  2981                           ; Vector 105 : U5TX
  2982  0000DA  0F2E               	dw	_Default_ISR shr (0+2)
  2983                           
  2984                           ; Vector 106 : U5E
  2985  0000DC  0F2E               	dw	_Default_ISR shr (0+2)
  2986                           
  2987                           ; Vector 107 : U5
  2988  0000DE  0F2E               	dw	_Default_ISR shr (0+2)
  2989                           
  2990                           ; Vector 108 : DMA6SCNT
  2991  0000E0  0F2E               	dw	_Default_ISR shr (0+2)
  2992                           
  2993                           ; Vector 109 : DMA6DCNT
  2994  0000E2  0F2E               	dw	_Default_ISR shr (0+2)
  2995                           
  2996                           ; Vector 110 : DMA6OR
  2997  0000E4  0F2E               	dw	_Default_ISR shr (0+2)
  2998                           
  2999                           ; Vector 111 : DMA6A
  3000  0000E6  0F2E               	dw	_Default_ISR shr (0+2)
  3001                           
  3002                           ; Vector 112 : Undefined
  3003  0000E8  0042               	dw	ivt0x8_undefint shr (0+2)
  3004                           
  3005                           ; Vector 113 : CLC7
  3006  0000EA  0F2E               	dw	_Default_ISR shr (0+2)
  3007                           
  3008                           ; Vector 114 : CM2
  3009  0000EC  0F2E               	dw	_Default_ISR shr (0+2)
  3010                           
  3011                           ; Vector 115 : NCO3
  3012  0000EE  0F2E               	dw	_Default_ISR shr (0+2)
  3013                           
  3014                           ; Vector 116 : DMA7SCNT
  3015  0000F0  0F2E               	dw	_Default_ISR shr (0+2)
  3016                           
  3017                           ; Vector 117 : DMA7DCNT
  3018  0000F2  0F2E               	dw	_Default_ISR shr (0+2)
  3019                           
  3020                           ; Vector 118 : DMA7OR
  3021  0000F4  0F2E               	dw	_Default_ISR shr (0+2)
  3022                           
  3023                           ; Vector 119 : DMA7A
  3024  0000F6  0F2E               	dw	_Default_ISR shr (0+2)
  3025                           
  3026                           ; Vector 120 : NVM
  3027  0000F8  0F2E               	dw	_Default_ISR shr (0+2)
  3028                           
  3029                           ; Vector 121 : CLC8
  3030  0000FA  0F2E               	dw	_Default_ISR shr (0+2)
  3031                           
  3032                           ; Vector 122 : CRC
  3033  0000FC  0F2E               	dw	_Default_ISR shr (0+2)
  3034                           
  3035                           ; Vector 123 : TMR6
  3036  0000FE  0F2E               	dw	_Default_ISR shr (0+2)
  3037                           
  3038                           ; Vector 124 : DMA8SCNT
  3039  000100  0F2E               	dw	_Default_ISR shr (0+2)
  3040                           
  3041                           ; Vector 125 : DMA8DCNT
  3042  000102  0F2E               	dw	_Default_ISR shr (0+2)
  3043                           
  3044                           ; Vector 126 : DMA8OR
  3045  000104  0F2E               	dw	_Default_ISR shr (0+2)
  3046                           
  3047                           ; Vector 127 : DMA8A
  3048  000106  0F2E               	dw	_Default_ISR shr (0+2)
  3049  000108                     ivt0x8_undefint:
  3050                           	callstack 0
  3051  000108  00FF               	reset	
  3052                           
  3053                           	psect	text31
  3054  000000                     __ptext31:
  3055                           	callstack 0
  3056  000000                     
  3057                           	psect	rparam
  3058  0000                     
  3059                           	psect	idloc
  3060                           
  3061                           ;Config register IDLOC0 @ 0x200000
  3062                           ;	unspecified, using default values
  3063  200000                     	org	2097152
  3064  200000  0FFF               	dw	4095
  3065                           
  3066                           ;Config register IDLOC1 @ 0x200002
  3067                           ;	unspecified, using default values
  3068  200002                     	org	2097154
  3069  200002  0FFF               	dw	4095
  3070                           
  3071                           ;Config register IDLOC2 @ 0x200004
  3072                           ;	unspecified, using default values
  3073  200004                     	org	2097156
  3074  200004  0FFF               	dw	4095
  3075                           
  3076                           ;Config register IDLOC3 @ 0x200006
  3077                           ;	unspecified, using default values
  3078  200006                     	org	2097158
  3079  200006  0FFF               	dw	4095
  3080                           
  3081                           ;Config register IDLOC4 @ 0x200008
  3082                           ;	unspecified, using default values
  3083  200008                     	org	2097160
  3084  200008  0FFF               	dw	4095
  3085                           
  3086                           ;Config register IDLOC5 @ 0x20000A
  3087                           ;	unspecified, using default values
  3088  20000A                     	org	2097162
  3089  20000A  0FFF               	dw	4095
  3090                           
  3091                           ;Config register IDLOC6 @ 0x20000C
  3092                           ;	unspecified, using default values
  3093  20000C                     	org	2097164
  3094  20000C  0FFF               	dw	4095
  3095                           
  3096                           ;Config register IDLOC7 @ 0x20000E
  3097                           ;	unspecified, using default values
  3098  20000E                     	org	2097166
  3099  20000E  0FFF               	dw	4095
  3100                           
  3101                           ;Config register IDLOC8 @ 0x200010
  3102                           ;	unspecified, using default values
  3103  200010                     	org	2097168
  3104  200010  0FFF               	dw	4095
  3105                           
  3106                           ;Config register IDLOC9 @ 0x200012
  3107                           ;	unspecified, using default values
  3108  200012                     	org	2097170
  3109  200012  0FFF               	dw	4095
  3110                           
  3111                           ;Config register IDLOC10 @ 0x200014
  3112                           ;	unspecified, using default values
  3113  200014                     	org	2097172
  3114  200014  0FFF               	dw	4095
  3115                           
  3116                           ;Config register IDLOC11 @ 0x200016
  3117                           ;	unspecified, using default values
  3118  200016                     	org	2097174
  3119  200016  0FFF               	dw	4095
  3120                           
  3121                           ;Config register IDLOC12 @ 0x200018
  3122                           ;	unspecified, using default values
  3123  200018                     	org	2097176
  3124  200018  0FFF               	dw	4095
  3125                           
  3126                           ;Config register IDLOC13 @ 0x20001A
  3127                           ;	unspecified, using default values
  3128  20001A                     	org	2097178
  3129  20001A  0FFF               	dw	4095
  3130                           
  3131                           ;Config register IDLOC14 @ 0x20001C
  3132                           ;	unspecified, using default values
  3133  20001C                     	org	2097180
  3134  20001C  0FFF               	dw	4095
  3135                           
  3136                           ;Config register IDLOC15 @ 0x20001E
  3137                           ;	unspecified, using default values
  3138  20001E                     	org	2097182
  3139  20001E  0FFF               	dw	4095
  3140                           
  3141                           ;Config register IDLOC16 @ 0x200020
  3142                           ;	unspecified, using default values
  3143  200020                     	org	2097184
  3144  200020  0FFF               	dw	4095
  3145                           
  3146                           ;Config register IDLOC17 @ 0x200022
  3147                           ;	unspecified, using default values
  3148  200022                     	org	2097186
  3149  200022  0FFF               	dw	4095
  3150                           
  3151                           ;Config register IDLOC18 @ 0x200024
  3152                           ;	unspecified, using default values
  3153  200024                     	org	2097188
  3154  200024  0FFF               	dw	4095
  3155                           
  3156                           ;Config register IDLOC19 @ 0x200026
  3157                           ;	unspecified, using default values
  3158  200026                     	org	2097190
  3159  200026  0FFF               	dw	4095
  3160                           
  3161                           ;Config register IDLOC20 @ 0x200028
  3162                           ;	unspecified, using default values
  3163  200028                     	org	2097192
  3164  200028  0FFF               	dw	4095
  3165                           
  3166                           ;Config register IDLOC21 @ 0x20002A
  3167                           ;	unspecified, using default values
  3168  20002A                     	org	2097194
  3169  20002A  0FFF               	dw	4095
  3170                           
  3171                           ;Config register IDLOC22 @ 0x20002C
  3172                           ;	unspecified, using default values
  3173  20002C                     	org	2097196
  3174  20002C  0FFF               	dw	4095
  3175                           
  3176                           ;Config register IDLOC23 @ 0x20002E
  3177                           ;	unspecified, using default values
  3178  20002E                     	org	2097198
  3179  20002E  0FFF               	dw	4095
  3180                           
  3181                           ;Config register IDLOC24 @ 0x200030
  3182                           ;	unspecified, using default values
  3183  200030                     	org	2097200
  3184  200030  0FFF               	dw	4095
  3185                           
  3186                           ;Config register IDLOC25 @ 0x200032
  3187                           ;	unspecified, using default values
  3188  200032                     	org	2097202
  3189  200032  0FFF               	dw	4095
  3190                           
  3191                           ;Config register IDLOC26 @ 0x200034
  3192                           ;	unspecified, using default values
  3193  200034                     	org	2097204
  3194  200034  0FFF               	dw	4095
  3195                           
  3196                           ;Config register IDLOC27 @ 0x200036
  3197                           ;	unspecified, using default values
  3198  200036                     	org	2097206
  3199  200036  0FFF               	dw	4095
  3200                           
  3201                           ;Config register IDLOC28 @ 0x200038
  3202                           ;	unspecified, using default values
  3203  200038                     	org	2097208
  3204  200038  0FFF               	dw	4095
  3205                           
  3206                           ;Config register IDLOC29 @ 0x20003A
  3207                           ;	unspecified, using default values
  3208  20003A                     	org	2097210
  3209  20003A  0FFF               	dw	4095
  3210                           
  3211                           ;Config register IDLOC30 @ 0x20003C
  3212                           ;	unspecified, using default values
  3213  20003C                     	org	2097212
  3214  20003C  0FFF               	dw	4095
  3215                           
  3216                           ;Config register IDLOC31 @ 0x20003E
  3217                           ;	unspecified, using default values
  3218  20003E                     	org	2097214
  3219  20003E  0FFF               	dw	4095
  3220                           
  3221                           	psect	config
  3222                           
  3223                           ;Config register CONFIG1 @ 0x300000
  3224                           ;	External Oscillator Selection
  3225                           ;	FEXTOSC = ECH, EC (external clock) above 8 MHz
  3226                           ;	Reset Oscillator Selection
  3227                           ;	RSTOSC = EXTOSC_4PLL, EXTOSC with 4x PLL, with EXTOSC operating per FEXTOSC bits
  3228  300000                     	org	3145728
  3229  300000  AF                 	db	175
  3230                           
  3231                           ;Config register CONFIG2 @ 0x300001
  3232                           ;	Clock out Enable bit
  3233                           ;	CLKOUTEN = OFF, CLKOUT function is disabled
  3234                           ;	PRLOCKED One-Way Set Enable bit
  3235                           ;	PR1WAY = ON, PRLOCKED bit can be cleared and set only once
  3236                           ;	Clock Switch Enable bit
  3237                           ;	CSWEN = ON, Writing to NOSC and NDIV is allowed
  3238                           ;	JTAG Enable bit
  3239                           ;	JTAGEN = OFF, Disable JTAG Boundary Scan mode, JTAG pins revert to user functions
  3240                           ;	Fail-Safe Clock Monitor Enable bit
  3241                           ;	FCMEN = ON, Fail-Safe Clock Monitor enabled
  3242                           ;	Fail-Safe Clock Monitor -Primary XTAL Enable bit
  3243                           ;	FCMENP = ON, FSCM timer will set FSCMP bit and OSFIF interrupt on Primary XTAL failure
  3244                           ;	Fail-Safe Clock Monitor -Secondary XTAL Enable bit
  3245                           ;	FCMENS = ON, FSCM timer will set FSCMS bit and OSFIF interrupt on Secondary XTAL failu
      +                          re
  3246  300001                     	org	3145729
  3247  300001  EF                 	db	239
  3248                           
  3249                           ;Config register CONFIG3 @ 0x300002
  3250                           ;	MCLR Enable bit
  3251                           ;	MCLRE = EXTMCLR, If LVP = 0, MCLR pin is MCLR; If LVP = 1, RE3 pin function is MCLR
  3252                           ;	Power-up timer selection bits
  3253                           ;	PWRTS = PWRT_OFF, PWRT is disabled
  3254                           ;	Multi-vector enable bit
  3255                           ;	MVECEN = ON, Multi-vector enabled, Vector table used for interrupts
  3256                           ;	IVTLOCK bit One-way set enable bit
  3257                           ;	IVT1WAY = ON, IVTLOCKED bit can be cleared and set only once
  3258                           ;	Low Power BOR Enable bit
  3259                           ;	LPBOREN = OFF, Low-Power BOR disabled
  3260                           ;	Brown-out Reset Enable bits
  3261                           ;	BOREN = SBORDIS, Brown-out Reset enabled , SBOREN bit is ignored
  3262  300002                     	org	3145730
  3263  300002  FF                 	db	255
  3264                           
  3265                           ;Config register CONFIG4 @ 0x300003
  3266                           ;	Brown-out Reset Voltage Selection bits
  3267                           ;	BORV = VBOR_1P9, Brown-out Reset Voltage (VBOR) set to 1.9V
  3268                           ;	ZCD Disable bit
  3269                           ;	ZCD = OFF, ZCD module is disabled. ZCD can be enabled by setting the ZCDSEN bit of ZCD
      +                          CON
  3270                           ;	PPSLOCK bit One-Way Set Enable bit
  3271                           ;	PPS1WAY = ON, PPSLOCKED bit can be cleared and set only once; PPS registers remain loc
      +                          ked after one clear/set cycle
  3272                           ;	Stack Full/Underflow Reset Enable bit
  3273                           ;	STVREN = ON, Stack full/underflow will cause Reset
  3274                           ;	Low Voltage Programming Enable bit
  3275                           ;	LVP = ON, Low voltage programming enabled. MCLR/VPP pin function is MCLR. MCLRE config
      +                          uration bit is ignored
  3276                           ;	Extended Instruction Set Enable bit
  3277                           ;	XINST = OFF, Extended Instruction Set and Indexed Addressing Mode disabled
  3278  300003                     	org	3145731
  3279  300003  FF                 	db	255
  3280                           
  3281                           ;Config register CONFIG5 @ 0x300004
  3282                           ;	WDT Period selection bits
  3283                           ;	WDTCPS = WDTCPS_31, Divider ratio 1:65536; software control of WDTPS
  3284                           ;	WDT operating mode
  3285                           ;	WDTE = OFF, WDT Disabled; SWDTEN is ignored
  3286  300004                     	org	3145732
  3287  300004  9F                 	db	159
  3288                           
  3289                           ;Config register CONFIG6 @ 0x300005
  3290                           ;	WDT Window Select bits
  3291                           ;	WDTCWS = WDTCWS_7, window always open (100%); software control; keyed access not requi
      +                          red
  3292                           ;	WDT input clock selector
  3293                           ;	WDTCCS = SC, Software Control
  3294  300005                     	org	3145733
  3295  300005  FF                 	db	255
  3296                           
  3297                           ;Config register CONFIG7 @ 0x300006
  3298                           ;	Boot Block Size selection bits
  3299                           ;	BBSIZE = BBSIZE_512, Boot Block size is 512 words
  3300                           ;	Boot Block enable bit
  3301                           ;	BBEN = OFF, Boot block disabled
  3302                           ;	Storage Area Flash enable bit
  3303                           ;	SAFEN = OFF, SAF disabled
  3304                           ;	Background Debugger
  3305                           ;	DEBUG = 0x1, unprogrammed default
  3306  300006                     	org	3145734
  3307  300006  FF                 	db	255
  3308                           
  3309                           ;Config register CONFIG8 @ 0x300007
  3310                           ;	Boot Block Write Protection bit
  3311                           ;	WRTB = OFF, Boot Block not Write protected
  3312                           ;	Configuration Register Write Protection bit
  3313                           ;	WRTC = OFF, Configuration registers not Write protected
  3314                           ;	Data EEPROM Write Protection bit
  3315                           ;	WRTD = OFF, Data EEPROM not Write protected
  3316                           ;	SAF Write protection bit
  3317                           ;	WRTSAF = OFF, SAF not Write Protected
  3318                           ;	Application Block write protection bit
  3319                           ;	WRTAPP = OFF, Application Block not write protected
  3320  300007                     	org	3145735
  3321  300007  FF                 	db	255
  3322                           
  3323                           ;Config register CONFIG9 @ 0x300008
  3324                           ;	CRC on boot output pin selection
  3325                           ;	BOOTPINSEL = RC5, CRC on boot output pin is RC5
  3326                           ;	CRC on boot output pin enable bit
  3327                           ;	BPEN = OFF, CRC on boot output pin disabled
  3328                           ;	CRC on boot output pin open drain bit
  3329                           ;	ODCON = OFF, Pin drives both high-going and low-going signals
  3330  300008                     	org	3145736
  3331  300008  FF                 	db	255
  3332                           
  3333                           ;Config register CONFIG10 @ 0x300009
  3334                           ;	PFM and Data EEPROM Code Protection bit
  3335                           ;	CP = OFF, PFM and Data EEPROM code protection disabled
  3336  300009                     	org	3145737
  3337  300009  FF                 	db	255
  3338                           
  3339                           ;Config register CONFIG11 @ 0x30000A
  3340                           ;	CRC on boot scan enable for boot area
  3341                           ;	BOOTSCEN = OFF, CRC on boot will not include the boot area of program memory in its ca
      +                          lculation
  3342                           ;	CRC on boot Continue on Error for boot areas bit
  3343                           ;	BOOTCOE = HALT, CRC on boot will stop device if error is detected in boot areas
  3344                           ;	CRC on boot application code scan enable
  3345                           ;	APPSCEN = OFF, CRC on boot will not include the application area of program memory in 
      +                          its calculation
  3346                           ;	CRC on boot SAF area scan enable
  3347                           ;	SAFSCEN = OFF, CRC on boot will not include the SAF area of program memory in its calc
      +                          ulation
  3348                           ;	CRC on boot Data EEPROM scan enable
  3349                           ;	DATASCEN = OFF, CRC on boot will not include data EEPROM in its calculation
  3350                           ;	CRC on boot Config fuses scan enable
  3351                           ;	CFGSCEN = OFF, CRC on boot will not include the configuration fuses in its calculation
  3352                           ;	CRC on boot Continue on Error for non-boot areas bit
  3353                           ;	COE = HALT, CRC on boot will stop device if error is detected in non-boot areas
  3354                           ;	Boot on CRC Enable bit
  3355                           ;	BOOTPOR = OFF, CRC on boot will not run
  3356  30000A                     	org	3145738
  3357  30000A  FF                 	db	255
  3358                           
  3359                           ;Config register CONFIG12 @ 0x30000B
  3360                           ;	Boot Sector Polynomial for CRC on boot bits 31-24
  3361                           ;	BCRCPOLT = hFF, Bits 31:24 of BCRCPOL are 0xFF
  3362  30000B                     	org	3145739
  3363  30000B  FF                 	db	255
  3364                           
  3365                           ;Config register CONFIG13 @ 0x30000C
  3366                           ;	Boot Sector Polynomial for CRC on boot bits 23-16
  3367                           ;	BCRCPOLU = hFF, Bits 23:16 of BCRCPOL are 0xFF
  3368  30000C                     	org	3145740
  3369  30000C  FF                 	db	255
  3370                           
  3371                           ;Config register CONFIG14 @ 0x30000D
  3372                           ;	Boot Sector Polynomial for CRC on boot bits 15-8
  3373                           ;	BCRCPOLH = hFF, Bits 15:8 of BCRCPOL are 0xFF
  3374  30000D                     	org	3145741
  3375  30000D  FF                 	db	255
  3376                           
  3377                           ;Config register CONFIG15 @ 0x30000E
  3378                           ;	Boot Sector Polynomial for CRC on boot bits 7-0
  3379                           ;	BCRCPOLL = hFF, Bits 7:0 of BCRCPOL are 0xFF
  3380  30000E                     	org	3145742
  3381  30000E  FF                 	db	255
  3382                           
  3383                           ;Config register CONFIG16 @ 0x30000F
  3384                           ;	Boot Sector Seed for CRC on boot bits 31-24
  3385                           ;	BCRCSEEDT = hFF, Bits 31:24 of BCRCSEED are 0xFF
  3386  30000F                     	org	3145743
  3387  30000F  FF                 	db	255
  3388                           
  3389                           ;Config register CONFIG17 @ 0x300010
  3390                           ;	Boot Sector Seed for CRC on boot bits 23-16
  3391                           ;	BCRCSEEDU = hFF, Bits 23:16 of BCRCSEED are 0xFF
  3392  300010                     	org	3145744
  3393  300010  FF                 	db	255
  3394                           
  3395                           ;Config register CONFIG18 @ 0x300011
  3396                           ;	Boot Sector Seed for CRC on boot bits 15-8
  3397                           ;	BCRCSEEDH = hFF, Bits 15:8 of BCRCSEED are 0xFF
  3398  300011                     	org	3145745
  3399  300011  FF                 	db	255
  3400                           
  3401                           ;Config register CONFIG19 @ 0x300012
  3402                           ;	Boot Sector Seed for CRC on boot bits 7-0
  3403                           ;	BCRCSEEDL = hFF, Bits 7:0 of BCRCSEED are 0xFF
  3404  300012                     	org	3145746
  3405  300012  FF                 	db	255
  3406                           
  3407                           ;Config register CONFIG20 @ 0x300013
  3408                           ;	unspecified, using default values
  3409                           ;	Boot Sector Expected Result for CRC on boot bits 31-24
  3410                           ;	BCRCEREST = 0xFF, unprogrammed default
  3411  300013                     	org	3145747
  3412  300013  FF                 	db	255
  3413                           
  3414                           ;Config register CONFIG21 @ 0x300014
  3415                           ;	unspecified, using default values
  3416                           ;	Boot Sector Expected Result for CRC on boot bits 23-16
  3417                           ;	BCRCERESU = 0xFF, unprogrammed default
  3418  300014                     	org	3145748
  3419  300014  FF                 	db	255
  3420                           
  3421                           ;Config register CONFIG22 @ 0x300015
  3422                           ;	unspecified, using default values
  3423                           ;	Boot Sector Expected Result for CRC on boot bits 15-8
  3424                           ;	BCRCERESH = 0xFF, unprogrammed default
  3425  300015                     	org	3145749
  3426  300015  FF                 	db	255
  3427                           
  3428                           ;Config register CONFIG23 @ 0x300016
  3429                           ;	unspecified, using default values
  3430                           ;	Boot Sector Expected Result for CRC on boot bits 7-0
  3431                           ;	BCRCERESL = 0xFF, unprogrammed default
  3432  300016                     	org	3145750
  3433  300016  FF                 	db	255
  3434                           
  3435                           ;Config register CONFIG24 @ 0x300017
  3436                           ;	Non-Boot Sector Polynomial for CRC on boot bits 31-24
  3437                           ;	CRCPOLT = hFF, Bits 31:24 of CRCPOL are 0xFF
  3438  300017                     	org	3145751
  3439  300017  FF                 	db	255
  3440                           
  3441                           ;Config register CONFIG25 @ 0x300018
  3442                           ;	Non-Boot Sector Polynomial for CRC on boot bits 23-16
  3443                           ;	CRCPOLU = hFF, Bits 23:16 of CRCPOL are 0xFF
  3444  300018                     	org	3145752
  3445  300018  FF                 	db	255
  3446                           
  3447                           ;Config register CONFIG26 @ 0x300019
  3448                           ;	Non-Boot Sector Polynomial for CRC on boot bits 15-8
  3449                           ;	CRCPOLH = hFF, Bits 15:8 of CRCPOL are 0xFF
  3450  300019                     	org	3145753
  3451  300019  FF                 	db	255
  3452                           
  3453                           ;Config register CONFIG27 @ 0x30001A
  3454                           ;	Non-Boot Sector Polynomial for CRC on boot bits 7-0
  3455                           ;	CRCPOLL = hFF, Bits 7:0 of CRCPOL are 0xFF
  3456  30001A                     	org	3145754
  3457  30001A  FF                 	db	255
  3458                           
  3459                           ;Config register CONFIG28 @ 0x30001B
  3460                           ;	Non-Boot Sector Seed for CRC on boot bits 31-24
  3461                           ;	CRCSEEDT = hFF, Bits 31:24 of CRCSEED are 0xFF
  3462  30001B                     	org	3145755
  3463  30001B  FF                 	db	255
  3464                           
  3465                           ;Config register CONFIG29 @ 0x30001C
  3466                           ;	Non-Boot Sector Seed for CRC on boot bits 23-16
  3467                           ;	CRCSEEDU = hFF, Bits 23:16 of CRCSEED are 0xFF
  3468  30001C                     	org	3145756
  3469  30001C  FF                 	db	255
  3470                           
  3471                           ;Config register CONFIG30 @ 0x30001D
  3472                           ;	Non-Boot Sector Seed for CRC on boot bits 15-8
  3473                           ;	CRCSEEDH = hFF, Bits 15:8 of CRCSEED are 0xFF
  3474  30001D                     	org	3145757
  3475  30001D  FF                 	db	255
  3476                           
  3477                           ;Config register CONFIG31 @ 0x30001E
  3478                           ;	Non-Boot Sector Seed for CRC on boot bits 7-0
  3479                           ;	CRCSEEDL = hFF, Bits 7:0 of CRCSEED are 0xFF
  3480  30001E                     	org	3145758
  3481  30001E  FF                 	db	255
  3482                           
  3483                           ;Config register CONFIG32 @ 0x30001F
  3484                           ;	unspecified, using default values
  3485                           ;	Non-Boot Sector Expected Result for CRC on boot bits 31-24
  3486                           ;	CRCEREST = 0xFF, unprogrammed default
  3487  30001F                     	org	3145759
  3488  30001F  FF                 	db	255
  3489                           
  3490                           ;Config register CONFIG33 @ 0x300020
  3491                           ;	unspecified, using default values
  3492                           ;	Non-Boot Sector Expected Result for CRC on boot bits 23-16
  3493                           ;	CRCERESU = 0xFF, unprogrammed default
  3494  300020                     	org	3145760
  3495  300020  FF                 	db	255
  3496                           
  3497                           ;Config register CONFIG34 @ 0x300021
  3498                           ;	unspecified, using default values
  3499                           ;	Non-Boot Sector Expected Result for CRC on boot bits 15-8
  3500                           ;	CRCERESH = 0xFF, unprogrammed default
  3501  300021                     	org	3145761
  3502  300021  FF                 	db	255
  3503                           
  3504                           ;Config register CONFIG35 @ 0x300022
  3505                           ;	unspecified, using default values
  3506                           ;	Non-Boot Sector Expected Result for CRC on boot bits 7-0
  3507                           ;	CRCERESL = 0xFF, unprogrammed default
  3508  300022                     	org	3145762
  3509  300022  FF                 	db	255
  3510                           
  3511                           ; Padding undefined space
  3512  300023                     	org	3145763
  3513  300023  FF                 	db	255
  3514                           tosu	equ	0x4FF
  3515                           tosh	equ	0x4FE
  3516                           tosl	equ	0x4FD
  3517                           stkptr	equ	0x4FC
  3518                           pclatu	equ	0x4FB
  3519                           pclath	equ	0x4FA
  3520                           pcl	equ	0x4F9
  3521                           tblptru	equ	0x4F8
  3522                           tblptrh	equ	0x4F7
  3523                           tblptrl	equ	0x4F6
  3524                           tablat	equ	0x4F5
  3525                           prodh	equ	0x4F4
  3526                           prodl	equ	0x4F3
  3527                           indf0	equ	0x4EF
  3528                           postinc0	equ	0x4EE
  3529                           postdec0	equ	0x4ED
  3530                           preinc0	equ	0x4EC
  3531                           plusw0	equ	0x4EB
  3532                           fsr0h	equ	0x4EA
  3533                           fsr0l	equ	0x4E9
  3534                           wreg	equ	0x4E8
  3535                           indf1	equ	0x4E7
  3536                           postinc1	equ	0x4E6
  3537                           postdec1	equ	0x4E5
  3538                           preinc1	equ	0x4E4
  3539                           plusw1	equ	0x4E3
  3540                           fsr1h	equ	0x4E2
  3541                           fsr1l	equ	0x4E1
  3542                           bsr	equ	0x4E0
  3543                           indf2	equ	0x4DF
  3544                           postinc2	equ	0x4DE
  3545                           postdec2	equ	0x4DD
  3546                           preinc2	equ	0x4DC
  3547                           plusw2	equ	0x4DB
  3548                           fsr2h	equ	0x4DA
  3549                           fsr2l	equ	0x4D9
  3550                           status	equ	0x4D8

Data Sizes:
    Strings     0
    Constant    18
    Data        4
    BSS         85
    Persistent  0
    Stack       0

Auto Spaces:
    Space          Size  Autos    Used
    COMRAM           95      3      92
    BANK5           160      3       3
    BANK6           256      0       0
    BANK7           256      0       0
    BANK8           256      0       0
    BANK9           256      0       0
    BANK10          256      0       0
    BANK11          256      0       0
    BANK12          256      0       0
    BANK13          256      0       0
    BANK14          256      0       0
    BANK15          256      0       0
    BANK16          256      0       0
    BANK17          256      0       0
    BANK18          256      0       0
    BANK19          256      0       0
    BANK20          256      0       0
    BANK21          256      0       0
    BANK22          256      0       0
    BANK23          256      0       0
    BANK24          256      0       0
    BANK25          256      0       0
    BANK26          256      0       0
    BANK27          256      0       0
    BANK28          256      0       0
    BANK29          256      0       0
    BANK30          256      0       0
    BANK31          256      0       0
    BANK32          256      0       0
    BANK33          256      0       0
    BANK34          256      0       0
    BANK35          256      0       0
    BANK36          256      0       0
    BANK37          256      0       0
    BANK38          256      0       0
    BANK39          256      0       0
    BANK40          256      0       0
    BANK41          256      0       0
    BANK42          256      0       0
    BANK43          256      0       0
    BANK44          256      0       0
    BANK45          256      0       0
    BANK46          256      0       0
    BANK47          256      0       0
    BANK48          256      0       0
    BANK49          256      0       0
    BANK50          256      0       0
    BANK51          256      0       0
    BANK52          256      0       0
    BANK53          256      0       0
    BANK54          256      0       0

Pointer List with Targets:

    CAN1_SetRxBufferOverFlowInterruptHandler@handler	PTR FTN()void  size(3) Largest target is 1
		 -> DefaultRxBufferOverflowHandler(), 

    CAN1_RxBufferOverflowHandler	PTR FTN()void  size(3) Largest target is 1
		 -> Absolute function(), DefaultRxBufferOverflowHandler(), 

    CAN1_SetTxAttemptInterruptHandler@handler	PTR FTN()void  size(3) Largest target is 1
		 -> DefaultTxAttemptHandler(), 

    CAN1_TxAttemptHandler	PTR FTN()void  size(3) Largest target is 1
		 -> Absolute function(), DefaultTxAttemptHandler(), 

    CAN1_SetSystemErrorInterruptHandler@handler	PTR FTN()void  size(3) Largest target is 1
		 -> DefaultSystemErrorHandler(), 

    CAN1_SystemErrorHandler	PTR FTN()void  size(3) Largest target is 1
		 -> Absolute function(), DefaultSystemErrorHandler(), 

    CAN1_SetModeChangeInterruptHandler@handler	PTR FTN()void  size(3) Largest target is 1
		 -> DefaultModeChangeHandler(), 

    CAN1_ModeChangeHandler	PTR FTN()void  size(3) Largest target is 1
		 -> Absolute function(), DefaultModeChangeHandler(), 

    CAN1_SetBusErrorInterruptHandler@handler	PTR FTN()void  size(3) Largest target is 1
		 -> DefaultBusErrorHandler(), 

    CAN1_BusErrorHandler	PTR FTN()void  size(3) Largest target is 1
		 -> Absolute function(), DefaultBusErrorHandler(), 

    CAN1_SetBusWakeUpActivityInterruptHandler@handler	PTR FTN()void  size(3) Largest target is 1
		 -> DefaultBusWakeUpActivityHandler(), 

    CAN1_BusWakeUpActivityHandler	PTR FTN()void  size(3) Largest target is 1
		 -> Absolute function(), DefaultBusWakeUpActivityHandler(), 

    CAN1_SetInvalidMessageInterruptHandler@handler	PTR FTN()void  size(3) Largest target is 1
		 -> DefaultInvalidMessageHandler(), 

    CAN1_InvalidMessageHandler	PTR FTN()void  size(3) Largest target is 1
		 -> Absolute function(), DefaultInvalidMessageHandler(), 

    ValidateTransmission@txCanMsg.data	PTR unsigned char  size(2) Largest target is 64
		 -> rxMsgData(COMRAM[64]), 

    WriteMessageToFifo@txCanMsg.data	PTR unsigned char  size(2) Largest target is 64
		 -> rxMsgData(COMRAM[64]), 

    sp__memcpy	PTR void  size(2) Largest target is 14079
		 -> RAM(DATA[14079]), rxMsgData(COMRAM[64]), 

    S305$data	PTR unsigned char  size(2) Largest target is 64
		 -> rxMsgData(COMRAM[64]), 

    ReadMessageFromFifo@rxCanMsg.data	PTR unsigned char  size(2) Largest target is 64
		 -> rxMsgData(COMRAM[64]), 

    FIFO	const PTR volatile struct CAN_FIFOREG size(2) Largest target is 1
		 -> C1TXQCONL(BITBIGSFRlllll[1]), 


Critical Paths under _main in COMRAM

    _SYSTEM_Initialize->_INTERRUPT_Initialize
    _CAN1_Initialize->_CAN1_RX_FIFO_ResetInfo

Critical Paths under _CAN1_ISR in COMRAM

    None.

Critical Paths under _Default_ISR in COMRAM

    None.

Critical Paths under _main in BANK5

    _CAN1_Initialize->_CAN1_OperationModeSet
    _CAN1_ErrorNotificationInterruptEnable->_CAN1_SetBusErrorInterruptHandler
    _CAN1_ErrorNotificationInterruptEnable->_CAN1_SetBusWakeUpActivityInterruptHandler
    _CAN1_ErrorNotificationInterruptEnable->_CAN1_SetInvalidMessageInterruptHandler
    _CAN1_ErrorNotificationInterruptEnable->_CAN1_SetModeChangeInterruptHandler
    _CAN1_ErrorNotificationInterruptEnable->_CAN1_SetRxBufferOverFlowInterruptHandler
    _CAN1_ErrorNotificationInterruptEnable->_CAN1_SetSystemErrorInterruptHandler
    _CAN1_ErrorNotificationInterruptEnable->_CAN1_SetTxAttemptInterruptHandler

Critical Paths under _CAN1_ISR in BANK5

    None.

Critical Paths under _Default_ISR in BANK5

    None.

Critical Paths under _main in BANK6

    None.

Critical Paths under _CAN1_ISR in BANK6

    None.

Critical Paths under _Default_ISR in BANK6

    None.

Critical Paths under _main in BANK7

    None.

Critical Paths under _CAN1_ISR in BANK7

    None.

Critical Paths under _Default_ISR in BANK7

    None.

Critical Paths under _main in BANK8

    None.

Critical Paths under _CAN1_ISR in BANK8

    None.

Critical Paths under _Default_ISR in BANK8

    None.

Critical Paths under _main in BANK9

    None.

Critical Paths under _CAN1_ISR in BANK9

    None.

Critical Paths under _Default_ISR in BANK9

    None.

Critical Paths under _main in BANK10

    None.

Critical Paths under _CAN1_ISR in BANK10

    None.

Critical Paths under _Default_ISR in BANK10

    None.

Critical Paths under _main in BANK11

    None.

Critical Paths under _CAN1_ISR in BANK11

    None.

Critical Paths under _Default_ISR in BANK11

    None.

Critical Paths under _main in BANK12

    None.

Critical Paths under _CAN1_ISR in BANK12

    None.

Critical Paths under _Default_ISR in BANK12

    None.

Critical Paths under _main in BANK13

    None.

Critical Paths under _CAN1_ISR in BANK13

    None.

Critical Paths under _Default_ISR in BANK13

    None.

Critical Paths under _main in BANK14

    None.

Critical Paths under _CAN1_ISR in BANK14

    None.

Critical Paths under _Default_ISR in BANK14

    None.

Critical Paths under _main in BANK15

    None.

Critical Paths under _CAN1_ISR in BANK15

    None.

Critical Paths under _Default_ISR in BANK15

    None.

Critical Paths under _main in BANK16

    None.

Critical Paths under _CAN1_ISR in BANK16

    None.

Critical Paths under _Default_ISR in BANK16

    None.

Critical Paths under _main in BANK17

    None.

Critical Paths under _CAN1_ISR in BANK17

    None.

Critical Paths under _Default_ISR in BANK17

    None.

Critical Paths under _main in BANK18

    None.

Critical Paths under _CAN1_ISR in BANK18

    None.

Critical Paths under _Default_ISR in BANK18

    None.

Critical Paths under _main in BANK19

    None.

Critical Paths under _CAN1_ISR in BANK19

    None.

Critical Paths under _Default_ISR in BANK19

    None.

Critical Paths under _main in BANK20

    None.

Critical Paths under _CAN1_ISR in BANK20

    None.

Critical Paths under _Default_ISR in BANK20

    None.

Critical Paths under _main in BANK21

    None.

Critical Paths under _CAN1_ISR in BANK21

    None.

Critical Paths under _Default_ISR in BANK21

    None.

Critical Paths under _main in BANK22

    None.

Critical Paths under _CAN1_ISR in BANK22

    None.

Critical Paths under _Default_ISR in BANK22

    None.

Critical Paths under _main in BANK23

    None.

Critical Paths under _CAN1_ISR in BANK23

    None.

Critical Paths under _Default_ISR in BANK23

    None.

Critical Paths under _main in BANK24

    None.

Critical Paths under _CAN1_ISR in BANK24

    None.

Critical Paths under _Default_ISR in BANK24

    None.

Critical Paths under _main in BANK25

    None.

Critical Paths under _CAN1_ISR in BANK25

    None.

Critical Paths under _Default_ISR in BANK25

    None.

Critical Paths under _main in BANK26

    None.

Critical Paths under _CAN1_ISR in BANK26

    None.

Critical Paths under _Default_ISR in BANK26

    None.

Critical Paths under _main in BANK27

    None.

Critical Paths under _CAN1_ISR in BANK27

    None.

Critical Paths under _Default_ISR in BANK27

    None.

Critical Paths under _main in BANK28

    None.

Critical Paths under _CAN1_ISR in BANK28

    None.

Critical Paths under _Default_ISR in BANK28

    None.

Critical Paths under _main in BANK29

    None.

Critical Paths under _CAN1_ISR in BANK29

    None.

Critical Paths under _Default_ISR in BANK29

    None.

Critical Paths under _main in BANK30

    None.

Critical Paths under _CAN1_ISR in BANK30

    None.

Critical Paths under _Default_ISR in BANK30

    None.

Critical Paths under _main in BANK31

    None.

Critical Paths under _CAN1_ISR in BANK31

    None.

Critical Paths under _Default_ISR in BANK31

    None.

Critical Paths under _main in BANK32

    None.

Critical Paths under _CAN1_ISR in BANK32

    None.

Critical Paths under _Default_ISR in BANK32

    None.

Critical Paths under _main in BANK33

    None.

Critical Paths under _CAN1_ISR in BANK33

    None.

Critical Paths under _Default_ISR in BANK33

    None.

Critical Paths under _main in BANK34

    None.

Critical Paths under _CAN1_ISR in BANK34

    None.

Critical Paths under _Default_ISR in BANK34

    None.

Critical Paths under _main in BANK35

    None.

Critical Paths under _CAN1_ISR in BANK35

    None.

Critical Paths under _Default_ISR in BANK35

    None.

Critical Paths under _main in BANK36

    None.

Critical Paths under _CAN1_ISR in BANK36

    None.

Critical Paths under _Default_ISR in BANK36

    None.

Critical Paths under _main in BANK37

    None.

Critical Paths under _CAN1_ISR in BANK37

    None.

Critical Paths under _Default_ISR in BANK37

    None.

Critical Paths under _main in BANK38

    None.

Critical Paths under _CAN1_ISR in BANK38

    None.

Critical Paths under _Default_ISR in BANK38

    None.

Critical Paths under _main in BANK39

    None.

Critical Paths under _CAN1_ISR in BANK39

    None.

Critical Paths under _Default_ISR in BANK39

    None.

Critical Paths under _main in BANK40

    None.

Critical Paths under _CAN1_ISR in BANK40

    None.

Critical Paths under _Default_ISR in BANK40

    None.

Critical Paths under _main in BANK41

    None.

Critical Paths under _CAN1_ISR in BANK41

    None.

Critical Paths under _Default_ISR in BANK41

    None.

Critical Paths under _main in BANK42

    None.

Critical Paths under _CAN1_ISR in BANK42

    None.

Critical Paths under _Default_ISR in BANK42

    None.

Critical Paths under _main in BANK43

    None.

Critical Paths under _CAN1_ISR in BANK43

    None.

Critical Paths under _Default_ISR in BANK43

    None.

Critical Paths under _main in BANK44

    None.

Critical Paths under _CAN1_ISR in BANK44

    None.

Critical Paths under _Default_ISR in BANK44

    None.

Critical Paths under _main in BANK45

    None.

Critical Paths under _CAN1_ISR in BANK45

    None.

Critical Paths under _Default_ISR in BANK45

    None.

Critical Paths under _main in BANK46

    None.

Critical Paths under _CAN1_ISR in BANK46

    None.

Critical Paths under _Default_ISR in BANK46

    None.

Critical Paths under _main in BANK47

    None.

Critical Paths under _CAN1_ISR in BANK47

    None.

Critical Paths under _Default_ISR in BANK47

    None.

Critical Paths under _main in BANK48

    None.

Critical Paths under _CAN1_ISR in BANK48

    None.

Critical Paths under _Default_ISR in BANK48

    None.

Critical Paths under _main in BANK49

    None.

Critical Paths under _CAN1_ISR in BANK49

    None.

Critical Paths under _Default_ISR in BANK49

    None.

Critical Paths under _main in BANK50

    None.

Critical Paths under _CAN1_ISR in BANK50

    None.

Critical Paths under _Default_ISR in BANK50

    None.

Critical Paths under _main in BANK51

    None.

Critical Paths under _CAN1_ISR in BANK51

    None.

Critical Paths under _Default_ISR in BANK51

    None.

Critical Paths under _main in BANK52

    None.

Critical Paths under _CAN1_ISR in BANK52

    None.

Critical Paths under _Default_ISR in BANK52

    None.

Critical Paths under _main in BANK53

    None.

Critical Paths under _CAN1_ISR in BANK53

    None.

Critical Paths under _Default_ISR in BANK53

    None.

Critical Paths under _main in BANK54

    None.

Critical Paths under _CAN1_ISR in BANK54

    None.

Critical Paths under _Default_ISR in BANK54

    None.

Call Graph Tables:

 ---------------------------------------------------------------------------------
 (Depth) Function   	        Calls       Base Space   Used Autos Params    Refs
 ---------------------------------------------------------------------------------
 (0) _main                                                 0     0      0    1043
                  _SYSTEM_Initialize
 ---------------------------------------------------------------------------------
 (1) _SYSTEM_Initialize                                    0     0      0    1043
                    _CAN1_Initialize
               _INTERRUPT_Initialize
              _OSCILLATOR_Initialize
             _PIN_MANAGER_Initialize
                     _PMD_Initialize
 ---------------------------------------------------------------------------------
 (2) _PMD_Initialize                                       0     0      0       0
 ---------------------------------------------------------------------------------
 (2) _PIN_MANAGER_Initialize                               0     0      0       0
 ---------------------------------------------------------------------------------
 (2) _OSCILLATOR_Initialize                                0     0      0       0
 ---------------------------------------------------------------------------------
 (2) _INTERRUPT_Initialize                                 1     1      0      15
                                              2 COMRAM     1     1      0
 ---------------------------------------------------------------------------------
 (2) _CAN1_Initialize                                      0     0      0    1028
          _CAN1_BitRateConfiguration
_CAN1_ErrorNotificationInterruptEnab
              _CAN1_OperationModeSet
         _CAN1_RX_FIFO_Configuration
_CAN1_RX_FIFO_FilterMaskConfiguratio
             _CAN1_RX_FIFO_ResetInfo
         _CAN1_TX_FIFO_Configuration
 ---------------------------------------------------------------------------------
 (3) _CAN1_TX_FIFO_Configuration                           0     0      0       0
 ---------------------------------------------------------------------------------
 (3) _CAN1_RX_FIFO_ResetInfo                               1     1      0      45
                                              2 COMRAM     1     1      0
 ---------------------------------------------------------------------------------
 (3) _CAN1_RX_FIFO_FilterMaskConfiguration                 0     0      0       0
 ---------------------------------------------------------------------------------
 (3) _CAN1_RX_FIFO_Configuration                           0     0      0       0
 ---------------------------------------------------------------------------------
 (3) _CAN1_OperationModeSet                                3     3      0     136
                                              0 BANK5      3     3      0
              _CAN1_OperationModeGet
 ---------------------------------------------------------------------------------
 (4) _CAN1_OperationModeGet                                0     0      0       0
 ---------------------------------------------------------------------------------
 (3) _CAN1_ErrorNotificationInterruptEnable                0     0      0     847
   _CAN1_SetBusErrorInterruptHandler
_CAN1_SetBusWakeUpActivityInterruptH
_CAN1_SetInvalidMessageInterruptHand
 _CAN1_SetModeChangeInterruptHandler
_CAN1_SetRxBufferOverFlowInterruptHa
_CAN1_SetSystemErrorInterruptHandler
  _CAN1_SetTxAttemptInterruptHandler
 ---------------------------------------------------------------------------------
 (4) _CAN1_SetTxAttemptInterruptHandler                    3     0      3     121
                                              0 BANK5      3     0      3
 ---------------------------------------------------------------------------------
 (4) _CAN1_SetSystemErrorInterruptHandler                  3     0      3     121
                                              0 BANK5      3     0      3
 ---------------------------------------------------------------------------------
 (4) _CAN1_SetRxBufferOverFlowInterruptHandler             3     0      3     121
                                              0 BANK5      3     0      3
 ---------------------------------------------------------------------------------
 (4) _CAN1_SetModeChangeInterruptHandler                   3     0      3     121
                                              0 BANK5      3     0      3
 ---------------------------------------------------------------------------------
 (4) _CAN1_SetInvalidMessageInterruptHandler               3     0      3     121
                                              0 BANK5      3     0      3
 ---------------------------------------------------------------------------------
 (4) _CAN1_SetBusWakeUpActivityInterruptHandler            3     0      3     121
                                              0 BANK5      3     0      3
 ---------------------------------------------------------------------------------
 (4) _CAN1_SetBusErrorInterruptHandler                     3     0      3     121
                                              0 BANK5      3     0      3
 ---------------------------------------------------------------------------------
 (3) _CAN1_BitRateConfiguration                            0     0      0       0
 ---------------------------------------------------------------------------------
 Estimated maximum stack depth 4
 ---------------------------------------------------------------------------------
 (Depth) Function   	        Calls       Base Space   Used Autos Params    Refs
 ---------------------------------------------------------------------------------
 (5) _CAN1_ISR                                             2     2      0       0
                                              0 COMRAM     2     2      0
                   Absolute function *
             _DefaultBusErrorHandler *
    _DefaultBusWakeUpActivityHandler *
       _DefaultInvalidMessageHandler *
           _DefaultModeChangeHandler *
     _DefaultRxBufferOverflowHandler *
          _DefaultSystemErrorHandler *
            _DefaultTxAttemptHandler *
 ---------------------------------------------------------------------------------
 (6) _DefaultTxAttemptHandler                              0     0      0       0
 ---------------------------------------------------------------------------------
 (6) _DefaultSystemErrorHandler                            0     0      0       0
 ---------------------------------------------------------------------------------
 (6) _DefaultRxBufferOverflowHandler                       0     0      0       0
 ---------------------------------------------------------------------------------
 (6) _DefaultModeChangeHandler                             0     0      0       0
 ---------------------------------------------------------------------------------
 (6) _DefaultInvalidMessageHandler                         0     0      0       0
 ---------------------------------------------------------------------------------
 (6) _DefaultBusWakeUpActivityHandler                      0     0      0       0
 ---------------------------------------------------------------------------------
 (6) _DefaultBusErrorHandler                               0     0      0       0
 ---------------------------------------------------------------------------------
 (6) Absolute function(Fake)                               0     0      0       0
 ---------------------------------------------------------------------------------
 Estimated maximum stack depth 6
 ---------------------------------------------------------------------------------
 (Depth) Function   	        Calls       Base Space   Used Autos Params    Refs
 ---------------------------------------------------------------------------------
 (5) _Default_ISR                                          0     0      0       0
 ---------------------------------------------------------------------------------
 Estimated maximum stack depth 5
 ---------------------------------------------------------------------------------

 Call Graph Graphs:

 _main (ROOT)
   _SYSTEM_Initialize
     _CAN1_Initialize
       _CAN1_BitRateConfiguration
       _CAN1_ErrorNotificationInterruptEnable
         _CAN1_SetBusErrorInterruptHandler
         _CAN1_SetBusWakeUpActivityInterruptHandler
         _CAN1_SetInvalidMessageInterruptHandler
         _CAN1_SetModeChangeInterruptHandler
         _CAN1_SetRxBufferOverFlowInterruptHandler
         _CAN1_SetSystemErrorInterruptHandler
         _CAN1_SetTxAttemptInterruptHandler
       _CAN1_OperationModeSet
         _CAN1_OperationModeGet
       _CAN1_RX_FIFO_Configuration
       _CAN1_RX_FIFO_FilterMaskConfiguration
       _CAN1_RX_FIFO_ResetInfo
       _CAN1_TX_FIFO_Configuration
     _INTERRUPT_Initialize
     _OSCILLATOR_Initialize
     _PIN_MANAGER_Initialize
     _PMD_Initialize

 _CAN1_ISR (ROOT)
   Absolute function(Fake) *
   _DefaultBusErrorHandler *
   _DefaultBusWakeUpActivityHandler *
   _DefaultInvalidMessageHandler *
   _DefaultModeChangeHandler *
   _DefaultRxBufferOverflowHandler *
   _DefaultSystemErrorHandler *
   _DefaultTxAttemptHandler *

 _Default_ISR (ROOT)

 Address spaces:
Name               Size   Autos  Total    Cost      Usage
BIGRAM            31FF      0       0     105        0.0%
BITBIGSFR_1        900      0       0     104        0.0%
EEDATA             400      0       0       0        0.0%
BITBIGSFRhhhlll    124      0       0     119        0.0%
BITBANK54          100      0       0     102        0.0%
BANK54             100      0       0     103        0.0%
BITBANK53          100      0       0     100        0.0%
BANK53             100      0       0     101        0.0%
BITBANK52          100      0       0      98        0.0%
BANK52             100      0       0      99        0.0%
BITBANK51          100      0       0      96        0.0%
BANK51             100      0       0      97        0.0%
BITBANK50          100      0       0      94        0.0%
BANK50             100      0       0      95        0.0%
BITBANK49          100      0       0      92        0.0%
BANK49             100      0       0      93        0.0%
BITBANK48          100      0       0      90        0.0%
BANK48             100      0       0      91        0.0%
BITBANK47          100      0       0      88        0.0%
BANK47             100      0       0      89        0.0%
BITBANK46          100      0       0      86        0.0%
BANK46             100      0       0      87        0.0%
BITBANK45          100      0       0      84        0.0%
BANK45             100      0       0      85        0.0%
BITBANK44          100      0       0      82        0.0%
BANK44             100      0       0      83        0.0%
BITBANK43          100      0       0      80        0.0%
BANK43             100      0       0      81        0.0%
BITBANK42          100      0       0      78        0.0%
BANK42             100      0       0      79        0.0%
BITBANK41          100      0       0      76        0.0%
BANK41             100      0       0      77        0.0%
BITBANK40          100      0       0      74        0.0%
BANK40             100      0       0      75        0.0%
BITBANK39          100      0       0      72        0.0%
BANK39             100      0       0      73        0.0%
BITBANK38          100      0       0      70        0.0%
BANK38             100      0       0      71        0.0%
BITBANK37          100      0       0      68        0.0%
BANK37             100      0       0      69        0.0%
BITBANK36          100      0       0      66        0.0%
BANK36             100      0       0      67        0.0%
BITBANK35          100      0       0      64        0.0%
BANK35             100      0       0      65        0.0%
BITBANK34          100      0       0      62        0.0%
BANK34             100      0       0      63        0.0%
BITBANK33          100      0       0      60        0.0%
BANK33             100      0       0      61        0.0%
BITBANK32          100      0       0      58        0.0%
BANK32             100      0       0      59        0.0%
BITBANK31          100      0       0      56        0.0%
BANK31             100      0       0      57        0.0%
BITBANK30          100      0       0      54        0.0%
BANK30             100      0       0      55        0.0%
BITBANK29          100      0       0      52        0.0%
BANK29             100      0       0      53        0.0%
BITBANK28          100      0       0      50        0.0%
BANK28             100      0       0      51        0.0%
BITBANK27          100      0       0      48        0.0%
BANK27             100      0       0      49        0.0%
BITBANK26          100      0       0      46        0.0%
BANK26             100      0       0      47        0.0%
BITBANK25          100      0       0      44        0.0%
BANK25             100      0       0      45        0.0%
BITBANK24          100      0       0      42        0.0%
BANK24             100      0       0      43        0.0%
BITBANK23          100      0       0      40        0.0%
BANK23             100      0       0      41        0.0%
BITBANK22          100      0       0      38        0.0%
BANK22             100      0       0      39        0.0%
BITBANK21          100      0       0      36        0.0%
BANK21             100      0       0      37        0.0%
BITBANK20          100      0       0      34        0.0%
BANK20             100      0       0      35        0.0%
BITBANK19          100      0       0      32        0.0%
BANK19             100      0       0      33        0.0%
BITBANK18          100      0       0      30        0.0%
BANK18             100      0       0      31        0.0%
BITBANK17          100      0       0      28        0.0%
BANK17             100      0       0      29        0.0%
BITBANK16          100      0       0      26        0.0%
BANK16             100      0       0      27        0.0%
BITBANK15          100      0       0      24        0.0%
BANK15             100      0       0      25        0.0%
BITBANK14          100      0       0      22        0.0%
BANK14             100      0       0      23        0.0%
BITBANK13          100      0       0      20        0.0%
BANK13             100      0       0      21        0.0%
BITBANK12          100      0       0      18        0.0%
BANK12             100      0       0      19        0.0%
BITBANK11          100      0       0      16        0.0%
BANK11             100      0       0      17        0.0%
BITBANK10          100      0       0      14        0.0%
BANK10             100      0       0      15        0.0%
BITBANK9           100      0       0      12        0.0%
BANK9              100      0       0      13        0.0%
BITBANK8           100      0       0      10        0.0%
BANK8              100      0       0      11        0.0%
BITBANK7           100      0       0       8        0.0%
BANK7              100      0       0       9        0.0%
BITBANK6           100      0       0       6        0.0%
BANK6              100      0       0       7        0.0%
BITBIGSFRhhhlll     A1      0       0     121        0.0%
BITBANK5            A0      0       0       4        0.0%
BANK5               A0      3       3       5        1.9%
BITBIGSFRhhhlll     9D      0       0     118        0.0%
BITBIGSFRlllll      60      0       0     132        0.0%
BITCOMRAM           5F      0       0       0        0.0%
COMRAM              5F      3      5C       1       96.8%
BITBIGSFRlllhhh     4C      0       0     129        0.0%
BITBIGSFRllllh      44      0       0     131        0.0%
BITBIGSFRhhhllh     3E      0       0     111        0.0%
BITBIGSFRhhhlll     34      0       0     113        0.0%
BITBIGSFRhhhhh      29      0       0     106        0.0%
BITBIGSFRhhhlll     22      0       0     120        0.0%
BITBIGSFRlhhhl      16      0       0     126        0.0%
BITBIGSFRlhhhh      15      0       0     125        0.0%
BITBIGSFRhhhlh       F      0       0     110        0.0%
BITBIGSFRhhhhll      F      0       0     109        0.0%
BITBIGSFRlhhl        D      0       0     127        0.0%
BITBIGSFRhhhhlh      B      0       0     107        0.0%
BITBIGSFRhlh         7      0       0     123        0.0%
BITBIGSFRhhl         7      0       0     122        0.0%
BITBIGSFRhll         7      0       0     124        0.0%
BITBIGSFRhhhlll      3      0       0     117        0.0%
BITBIGSFRhhhlll      3      0       0     116        0.0%
BITBIGSFRhhhlll      3      0       0     115        0.0%
BITBIGSFRhhhlll      3      0       0     114        0.0%
BITBIGSFRhhhhlh      3      0       0     108        0.0%
BITBIGSFRhhhllh      3      0       0     112        0.0%
BITBIGSFRlllhl       1      0       0     130        0.0%
BITBIGSFRlhl         1      0       0     128        0.0%
BIGSFR_1             0      0       0     200        0.0%
BIGSFR               0      0       0     200        0.0%
BITSFR_14            0      0       0     200        0.0%
SFR_14               0      0       0     200        0.0%
BITSFR_13            0      0       0     200        0.0%
SFR_13               0      0       0     200        0.0%
BITSFR_12            0      0       0     200        0.0%
SFR_12               0      0       0     200        0.0%
BITSFR_11            0      0       0     200        0.0%
SFR_11               0      0       0     200        0.0%
BITSFR_10            0      0       0     200        0.0%
SFR_10               0      0       0     200        0.0%
BITSFR_9             0      0       0     200        0.0%
SFR_9                0      0       0     200        0.0%
BITSFR_8             0      0       0     200        0.0%
SFR_8                0      0       0     200        0.0%
BITSFR_7             0      0       0     200        0.0%
SFR_7                0      0       0     200        0.0%
BITSFR_6             0      0       0     200        0.0%
SFR_6                0      0       0     200        0.0%
BITSFR_5             0      0       0     200        0.0%
SFR_5                0      0       0     200        0.0%
BITSFR_4             0      0       0     200        0.0%
SFR_4                0      0       0     200        0.0%
BITSFR_3             0      0       0     200        0.0%
SFR_3                0      0       0     200        0.0%
BITSFR_2             0      0       0     200        0.0%
SFR_2                0      0       0     200        0.0%
BITSFR_1             0      0       0     200        0.0%
SFR_1                0      0       0     200        0.0%
BITSFR               0      0       0     200        0.0%
SFR                  0      0       0     200        0.0%
STACK                0      0       0       2        0.0%
NULL                 0      0       0       0        0.0%
ABS                  0      0      5F     133        0.0%
DATA                 0      0      5F       3        0.0%
CODE                 0      0       0       0        0.0%


Microchip Technology PIC18 Macro Assembler V2.36 build 20220127204148 
Symbol Table                                                                                   Fri Oct 14 07:31:40 2022

                                               u10 3B4E                                                 u11 3B4A  
                                               u90 3BC8                                                 u91 3BC4  
                                               u85 3B1C                                                 u86 3B1E  
                                              l300 3C52                                                l303 3C44  
                                              l306 3C60                                                l162 3B4E  
                                              l171 3BEC                                                l165 3C10  
                                              l181 3AA4                                                l341 3B22  
                                              l174 3B7A                                                l191 3936  
                                              l192 3938                                                l168 3CA8  
                                              l177 39CE                                                l291 3C8A  
                                              l195 3CA2                                                l435 3A4C  
                                              l355 3C30                                                l188 38FC  
                                              l356 3C30                                                l294 3C98  
                                              l288 3C7C                                                l297 3C6E  
                                              l481 3C26                                                l490 3BA2  
                                              l484 3BBA                                                l487 3BC8  
                                              _GIE 0026B7                                                u800 38E8  
                                              u801 38E4                                                u810 390C  
                                              u811 3908                                                u820 392E  
                                              u821 392A                                                u830 3A68  
                                              u831 3A64                                                u780 38C6  
                                              u781 38C2                                                u790 38D6  
                                              u791 38D2                           ?_DefaultTxAttemptHandler 055A  
                                              prod 0004F3                                                tosl 0004FD  
                                              wreg 0004E8                         _CAN1_InvalidMessageHandler 0513  
                                             l1200 3B3E                                               l1202 3BEE  
                                             l1204 3BCA                                               l1300 3A3A  
                                             l1206 3B50                                               l1302 3A3C  
                                             l1304 3B7C                                               l1306 3BA4  
                                             l1260 3AE6                                               l1190 3B24  
                                             l1270 3B14                                               l1262 3AE8  
                                             l1272 3B1E                                               l1264 3AF0  
                                             l1280 39EC                                               l1266 3AFC  
                                             l1290 3A2C                                               l1282 39F8  
                                             l1274 39D0                                               l1700 3C9A  
                                             l1196 3B28                                               l1268 3B12  
                                             l1292 3A2E                                               l1284 39FA  
                                             l1276 39E8                                               l1710 39C0  
                                             l1198 3B3C                                               l1294 3A30  
                                             l1286 3A00                                               l1278 39EA  
                                             l1712 39C4                                               l1704 393A  
                                             l1720 38AC                                               l1296 3A36  
                                             l1288 3A2A                                               l1714 39C8  
                                             l1706 39B8                                               l1730 390C  
                                             l1722 38B4                                               l1298 3A38  
                                             l1716 39CC                                               l1708 39BA  
                                             l1732 3916                                               l1724 38C6  
                                             l1740 3A52                                               l1820 3C2E  
                                             l1734 3932                                               l1726 38D6  
                                             l1718 38A6                                               l1750 3A96  
                                             l1742 3A68                                               l1728 38E8  
                                             l1752 3A9A                                               l1744 3A86  
                                             l1816 3C28                                               l1690 3C8C  
                                             l1754 3A9E                                               l1746 3A8A  
                                             l1738 3A4E                                               l1818 3C2C  
                                             l1692 3C62                                               l1748 3A8E  
                                             l1686 3C70                                               l1694 3C46  
                                             l1790 3C12                                               l1688 3C7E  
                                             l1696 3C38                                               l1792 3C22  
                                             l1698 3C54                                               _FIFO 3711  
                                             _LATA 0004BE                                               _LATB 0004BF  
                                             _LATC 0004C0                                               _LATD 0004C1  
                                             _LATE 0004C2                                               _PMD0 000060  
                                             _PMD1 000061                                               _PMD2 000062  
                                             _PMD3 000063                                               _PMD4 000064  
                                             _PMD5 000065                                               _PMD6 000066  
                                             _PMD7 000067                                               _PMD8 000068  
                                             _PLLR 000590                                               _WPUA 000401  
                                             _WPUB 000409                                               _WPUC 000411  
                                             _WPUD 000419                                               _WPUE 000421  
                                 __end_of_CAN1_ISR 38A2          __end_of_CAN1_SetTxAttemptInterruptHandler 3C46  
              ??_CAN1_SetTxAttemptInterruptHandler 055C                 ?_CAN1_SetTxAttemptInterruptHandler 0560  
                _CAN1_SetTxAttemptInterruptHandler 3C38                                               _main 3C28  
                                             indf2 0004DF                                               fsr1l 0004E1  
                                             fsr2l 0004D9                                               prodl 0004F3  
                                             start 010A                                       ___param_bank 000000  
             __end_of_DefaultInvalidMessageHandler 3CB4                       _DefaultInvalidMessageHandler 3CB2  
       CAN1_SetSystemErrorInterruptHandler@handler 0560                      __end_of_OSCILLATOR_Initialize 3BCA  
                                            ?_main 055A           __end_of_CAN1_SetBusErrorInterruptHandler 3C9A  
               ??_CAN1_SetBusErrorInterruptHandler 055C                  ?_CAN1_SetBusErrorInterruptHandler 0560  
                 _CAN1_SetBusErrorInterruptHandler 3C8C                                              i2l142 3CB4  
                                            i2l151 3CAC                                              i2l320 3882  
                                            i2l145 3CB6                                              i2l154 3CAA  
                                            i2l322 3894                                              i2l139 3CB2  
                                            i2l148 3CB0                                              i2l316 3848  
                                            i2l157 3CAE                                              i2l317 3838  
                                            i2l319 3892                                              i2l346 3CB8  
                                            _OSCEN 0000B3                                              _TRISA 0004C6  
                                            _TRISB 0004C7                                              _TRISC 0004C8  
                                            _TRISD 0004C9                                              _TRISE 0004CA  
                                      _Default_ISR 3CB8                           ??_DefaultBusErrorHandler 055A  
                                            pclath 0004FA                                              pclatu 0004FB  
                                            tablat 0004F5                                              status 0004D8  
         CAN1_SetTxAttemptInterruptHandler@handler 0560                       ??_CAN1_TX_FIFO_Configuration 055C  
                                     __end_of_FIFO 3713                                    __initialization 3AA6  
                                __end_of_DLC_BYTES 3711                                       __end_of_main 3C38  
                      CAN1_RX_FIFO_ResetInfo@index 055C                    __end_of_DefaultTxAttemptHandler 3CAC  
                  fp__DefaultInvalidMessageHandler 0000                      ?_DefaultInvalidMessageHandler 055A  
                                           ??_main 055D                                      __activetblptr 000003  
   __end_of_CAN1_SetInvalidMessageInterruptHandler 3C7E           ??_CAN1_SetInvalidMessageInterruptHandler 055C  
          ?_CAN1_SetInvalidMessageInterruptHandler 0560             _CAN1_SetInvalidMessageInterruptHandler 3C70  
                                           _C1CONH 000101                                             _C1CONL 000100  
                                           _C1CONU 000102                                             _C1INTH 00011D  
                                           _C1INTL 00011C                                             _C1INTT 00011F  
                                           _C1INTU 00011E                                             _C1TDCH 00010D  
                                           _C1TDCU 00010E      CAN1_SetInvalidMessageInterruptHandler@handler 0560  
                        ?_DefaultModeChangeHandler 055A                                             _ANSELA 000400  
                                           _ANSELB 000408                                             _ANSELC 000410  
                                           _ANSELD 000418                                             _ANSELE 000420  
                fp__DefaultRxBufferOverflowHandler 0000                   ??_DefaultRxBufferOverflowHandler 055A  
                  ?_DefaultRxBufferOverflowHandler 055A                                             _RD1PPS 00021A  
                                           _ODCONA 000402                                             _ODCONB 00040A  
                                           _ODCONC 000412                                             _ODCOND 00041A  
                                           _ODCONE 000422                                             i2l1600 37D2  
                                           i2l1610 3826                                             i2l1602 37E0  
                                           i2l1620 3880                                             i2l1612 3836  
                                           i2l1604 37FA                                             i2l1622 3890  
                                           i2l1614 3846                                             i2l1606 37FE  
                                           i2l1616 3856                                             i2l1608 380C  
                                           i2l1618 3870                                             i2l1580 374A  
                                           i2l1590 3788                                             i2l1582 374E  
                                           i2l1592 37A2                                             i2l1584 375C  
                                           i2l1576 3720                                             i2l1594 37A6  
                                           i2l1586 3776                                             i2l1578 3730  
                                           i2l1596 37B4                                             i2l1588 377A  
                                           i2l1598 37CE                                             _INLVLA 000404  
                                           _INLVLB 00040C                                             _INLVLC 000414  
                                           _INLVLD 00041C                                             _INLVLE 000424  
                          ??_CAN1_OperationModeGet 055C                                             _OSCFRQ 0000B1  
                          ??_CAN1_OperationModeSet 055C                        ??_CAN1_BitRateConfiguration 055C  
                                           clear_0 3ACC                           ??_CAN1_RX_FIFO_ResetInfo 055C  
                                           isa$std 000001          CAN1_SetModeChangeInterruptHandler@handler 0560  
                                        ?_CAN1_ISR 055A                                     _PMD_Initialize 3B7C  
                                     __pdataCOMRAM 0556                                       __mediumconst 0000  
                                           tblptrh 0004F7                                             tblptrl 0004F6  
                                           tblptru 0004F8                                  _SYSTEM_Initialize 3C12  
                                       __accesstop 0560                            __end_of__initialization 3AE0  
                                ??_CAN1_Initialize 055D                               _CAN1_BusErrorHandler 050D  
                               ?_SYSTEM_Initialize 055A                                      ___rparam_used 000001  
                           _CAN1_ModeChangeHandler 050A                                     __pcstackCOMRAM 055A  
                              ??_SYSTEM_Initialize 055D                                     ivt0x8_undefint 0108  
 __end_of_CAN1_SetRxBufferOverFlowInterruptHandler 3C62         ??_CAN1_SetRxBufferOverFlowInterruptHandler 055C  
        ?_CAN1_SetRxBufferOverFlowInterruptHandler 0560           _CAN1_SetRxBufferOverFlowInterruptHandler 3C54  
                           __end_of_PMD_Initialize 3BA4                                         ??_CAN1_ISR 055A  
                        _CAN1_BitRateConfiguration 3B50        __end_of_CAN1_SetSystemErrorInterruptHandler 3C54  
            ??_CAN1_SetSystemErrorInterruptHandler 055C               ?_CAN1_SetSystemErrorInterruptHandler 0560  
              _CAN1_SetSystemErrorInterruptHandler 3C46                          __end_of_SYSTEM_Initialize 3C28  
               __end_of_CAN1_TX_FIFO_Configuration 3BEE                         _CAN1_TX_FIFO_Configuration 3BCA  
                                          IVTBASEH 00045E                                            IVTBASEL 00045D  
                                          IVTBASEU 00045F                             _DefaultBusErrorHandler 3CB6  
                                        _C1DBTCFGH 000109                                          _C1DBTCFGL 000108  
                                        _C1DBTCFGT 00010B                                          _C1DBTCFGU 00010A  
                    _CAN1_BusWakeUpActivityHandler 0510                                          _C1NBTCFGH 000105  
                                        _C1NBTCFGL 000104                                          _C1NBTCFGT 000107  
                                        _C1NBTCFGU 000106                                    ?_PMD_Initialize 055A  
                                     ?_Default_ISR 055A                                            _OSCCON1 0000AD  
                                          _OSCCON3 0000AF                                            _IVTLOCK 000459  
                                        _C1TXQCONH 000151                                          _C1TXQCONL 000150  
                            _CAN1_TxAttemptHandler 0504                                          _C1TXQCONT 000153  
                                        _C1TXQCONU 000152                                            i2u61_40 375C  
                                          i2u60_48 3736                                            i2u61_41 3758  
                                          i2u60_49 374A                                            _OSCTUNE 0000B0  
                                          i2u71_40 3836                                            i2u70_48 3812  
                                          i2u63_40 3788                                            i2u62_48 3762  
                                          i2u71_41 3832                                            i2u70_49 3826  
                                          i2u63_41 3784                                            i2u62_49 3776  
                                          i2u72_40 3846                                            i2u72_41 3842  
                                          i2u73_40 3856                                            i2u65_40 37B4  
                                          i2u64_48 378E                                            i2u73_41 3852  
                                          i2u65_41 37B0                                            i2u64_49 37A2  
                                          i2u75_40 3880                                            i2u74_48 385C  
                                          i2u67_40 37E0                                            i2u66_48 37BA  
                                          i2u59_40 3730                                            i2u75_41 387C  
                                          i2u74_49 3870                                            i2u67_41 37DC  
                                          i2u66_49 37CE                                            i2u59_41 372C  
                                          i2u76_40 3890                                            i2u76_41 388C  
                                          i2u69_40 380C                                            i2u68_48 37E6  
                                          i2u69_41 3808                                            i2u68_49 37FA  
                                      _C1FIFOCON1H 00015D                                        _C1FIFOCON2H 000169  
                                      _C1FIFOCON3H 000175                                        _C1FIFOCON1L 00015C  
                                      _C1FIFOCON2L 000168                                        _C1FIFOCON3L 000174  
                                      _C1FIFOCON1T 00015F                                        _C1FIFOCON1U 00015E  
                                      _C1FIFOCON2T 00016B                                        _C1FIFOCON2U 00016A  
                                      _C1FIFOCON3T 000177                                        _C1FIFOCON3U 000176  
                                          _SLRCONA 000403                                            _SLRCONB 00040B  
                                          _SLRCONC 000413                                            _SLRCOND 00041B  
                                          _SLRCONE 000423                          INTERRUPT_Initialize@state 055C  
                                          __Hparam 0000                                            __Lparam 0000  
                     fp__DefaultSystemErrorHandler 0000                                       __psmallconst 3700  
                 __end_of_DefaultModeChangeHandler 3CB2                                          _DLC_BYTES 3701  
                                          __pcinit 3AA6                                            __ramtop 3700  
                                          __ptext0 3C28                                            __ptext1 3C12  
                                          __ptext2 3B7C                                            __ptext3 39D0  
                                          __ptext4 3BA4                                            __ptext5 3AE6  
                                          __ptext6 3A4E                                            __ptext7 3BCA  
                                          __ptext8 3B24                                            __ptext9 3CA8  
                            _OSCILLATOR_Initialize 3BA4                           ??_PIN_MANAGER_Initialize 055C  
                                          _rxFifos 0556   CAN1_SetBusWakeUpActivityInterruptHandler@handler 0560  
__end_of_CAN1_SetBusWakeUpActivityInterruptHandler 3C8C        ??_CAN1_SetBusWakeUpActivityInterruptHandler 055C  
       ?_CAN1_SetBusWakeUpActivityInterruptHandler 0560          _CAN1_SetBusWakeUpActivityInterruptHandler 3C7E  
                             end_of_initialization 3AE0                             _CAN1_RX_FIFO_ResetInfo 3B24  
                                      _C1TRECUbits 000136                      __end_of_CAN1_OperationModeGet 3CA4  
                    __end_of_CAN1_OperationModeSet 393A                       ??_CAN1_RX_FIFO_Configuration 055C  
                                          postdec1 0004E5             __end_of_DefaultRxBufferOverflowHandler 3CB0  
                   _DefaultRxBufferOverflowHandler 3CAE                                            postinc0 0004EE  
               fp__DefaultBusWakeUpActivityHandler 0000            __end_of_DefaultBusWakeUpActivityHandler 3CB6  
                ??_DefaultBusWakeUpActivityHandler 055A                   ?_DefaultBusWakeUpActivityHandler 055A  
                  _DefaultBusWakeUpActivityHandler 3CB4                                    _CAN1_Initialize 3A4E  
     __end_of_CAN1_RX_FIFO_FilterMaskConfiguration 3CAA             ??_CAN1_RX_FIFO_FilterMaskConfiguration 055C  
            ?_CAN1_RX_FIFO_FilterMaskConfiguration 055A               _CAN1_RX_FIFO_FilterMaskConfiguration 3CA8  
                          _DefaultTxAttemptHandler 3CAA                         fp__DefaultTxAttemptHandler 0000  
                        fp__DefaultBusErrorHandler 0000                       __end_of_INTERRUPT_Initialize 3B24  
                                    __pidataCOMRAM 3CA4                             ?_OSCILLATOR_Initialize 055A  
    __end_of_CAN1_ErrorNotificationInterruptEnable 39D0            ??_CAN1_ErrorNotificationInterruptEnable 055C  
           ?_CAN1_ErrorNotificationInterruptEnable 055A              _CAN1_ErrorNotificationInterruptEnable 393A  
                         _DefaultModeChangeHandler 3CB0                        fp__DefaultModeChangeHandler 0000  
                              start_initialization 3AA6                                         ivt0x8_base 0008  
                          ?_DefaultBusErrorHandler 055A         __end_of_CAN1_SetModeChangeInterruptHandler 3C70  
             ??_CAN1_SetModeChangeInterruptHandler 055C                ?_CAN1_SetModeChangeInterruptHandler 0560  
               _CAN1_SetModeChangeInterruptHandler 3C62                        ?_CAN1_TX_FIFO_Configuration 055A  
                                 ??_PMD_Initialize 055C                            __end_of_CAN1_Initialize 3AA6  
                       ?_DefaultSystemErrorHandler 055A                                        __pbssCOMRAM 0501  
                                    __pcstackBANK5 0560            CAN1_SetBusErrorInterruptHandler@handler 0560  
                        ??_DefaultTxAttemptHandler 055A                     __end_of_DefaultBusErrorHandler 3CB8  
               __end_of_CAN1_RX_FIFO_Configuration 3C12                         _CAN1_RX_FIFO_Configuration 3BEE  
                           _PIN_MANAGER_Initialize 39D0                                           _C1FIFOBA 00014C  
                                         _CAN1_ISR 3714                  __end_of_DefaultSystemErrorHandler 3CAE  
                                      __smallconst 3700                                         _C1CONHbits 000101  
                 CAN1_OperationModeSet@requestMode 0562                                           _CANRXPPS 00023D  
                                       _C1CONTbits 000103                                         _C1CONUbits 000102  
                   ??_DefaultInvalidMessageHandler 055A                            ?_CAN1_RX_FIFO_ResetInfo 055A  
                                       _C1INTHbits 00011D                                         _C1INTLbits 00011C  
                             _INTERRUPT_Initialize 3AE6                                         _C1INTTbits 00011F  
                                         _IPR0bits 000362                                           _PIE0bits 00049E  
                                         _IVTBASEH 00045E                                           _IVTBASEL 00045D  
                                         _IVTBASEU 00045F                                           _PIR0bits 0004AE  
                                        _rxMsgData 0516                                   ?_CAN1_Initialize 055A  
                   __end_of_CAN1_RX_FIFO_ResetInfo 3B50                                        _INTCON0bits 0004D6  
                                        copy_data0 3ABA                              ?_INTERRUPT_Initialize 055A  
                                         __Hrparam 0000                              _CAN1_OperationModeGet 3C9A  
                                         __Lrparam 0000                              _CAN1_OperationModeSet 38A2  
                          _CAN1_SystemErrorHandler 0507                         ??_DefaultModeChangeHandler 055A  
                          ??_OSCILLATOR_Initialize 055C                                           __pivt0x8 0008  
                                         __ptext10 3BEE                                           __ptext11 38A2  
                                         __ptext20 3C8C                                           __ptext12 3C9A  
                                         __ptext21 3B50                                           __ptext13 393A  
                                         __ptext30 3CB8                                           __ptext22 3714  
                                         __ptext14 3C38                                           __ptext31 0000  
                                         __ptext23 3CAA                                           __ptext15 3C46  
                                         __ptext24 3CAC                                           __ptext16 3C54  
                                         __ptext25 3CAE                                           __ptext17 3C62  
                                         __ptext26 3CB0                                           __ptext18 3C70  
                                         __ptext27 3CB2                                           __ptext19 3C7E  
                                         __ptext28 3CB4                                           __ptext29 3CB6  
                      CAN1_OperationModeSet@opMode 0560                        CAN1_OperationModeSet@status 0561  
                                      _IVTLOCKbits 000459                                           isa$xinst 000000  
                      ??_DefaultSystemErrorHandler 055A                                      ??_Default_ISR 055C  
                     _CAN1_RxBufferOverflowHandler 0501                             ??_INTERRUPT_Initialize 055C  
                                         intlevel2 0000                                      _C1TXQSTALbits 000154  
                          ?_PIN_MANAGER_Initialize 055A                        ?_CAN1_RX_FIFO_Configuration 055A  
                           ?_CAN1_OperationModeGet 055A                         ?_CAN1_BitRateConfiguration 055A  
                           ?_CAN1_OperationModeSet 055A                                __end_of_Default_ISR 3CBA  
  CAN1_SetRxBufferOverFlowInterruptHandler@handler 0560                                    _C1FIFOSTA1Lbits 000160  
                                  _C1FIFOSTA2Lbits 00016C                                    _C1FIFOSTA3Lbits 000178  
                   __end_of_PIN_MANAGER_Initialize 3A4E                          _DefaultSystemErrorHandler 3CAC  
                __end_of_CAN1_BitRateConfiguration 3B7C  
