
Optional file vector_offset_init.o not found
Archive member included to satisfy reference by file (symbol)

/opt/microchip/xc32/v4.20/bin/bin/../../lib/gcc/pic32mx/8.3.1/../../../../pic32mx/lib/fpu64/libpic32.a(memset.o)
                              build/pic32mk_mcj_curiosity_pro/production/_ext/1333799919/plib_canfd1.o (memset)
/opt/microchip/xc32/v4.20/bin/bin/../../lib/gcc/pic32mx/8.3.1/../../../../pic32mx/lib/fpu64/libpic32.a(strlen.o)
                              build/pic32mk_mcj_curiosity_pro/production/_ext/1360937237/main_pic32mk_mcj.o (strlen)
/opt/microchip/xc32/v4.20/bin/bin/../../lib/gcc/pic32mx/8.3.1/../../../../pic32mx/lib/fpu64/libpic32.a(default-on-reset.o)
                              /tmp/ccuOZEZr.o (_on_reset)
/opt/microchip/xc32/v4.20/bin/bin/../../lib/gcc/pic32mx/8.3.1/../../../../pic32mx/lib/fpu64/libpic32.a(default-on-bootstrap.o)
                              /tmp/ccuOZEZr.o (_on_bootstrap)
/opt/microchip/xc32/v4.20/bin/bin/../../lib/gcc/pic32mx/8.3.1/../../../../pic32mx/lib/fpu64/libpic32.a(default-nmi-handler.o)
                              /tmp/ccuOZEZr.o (_nmi_handler)
/opt/microchip/xc32/v4.20/bin/bin/../../lib/gcc/pic32mx/8.3.1/../../../../pic32mx/lib/fpu64/libpic32.a(pic32_data_init_wrapper.o)
                              /tmp/ccuOZEZr.o (__pic32_data_init)
/opt/microchip/xc32/v4.20/bin/bin/../../lib/gcc/pic32mx/8.3.1/../../../../pic32mx/lib/fpu64/libpic32.a(pic32_data_init_0_1.o)
                              (__copy_needed)
/opt/microchip/xc32/v4.20/bin/bin/../../lib/gcc/pic32mx/8.3.1/../../../../pic32mx/lib/fpu64/libpic32.a(general-exception.o)
                              /tmp/ccuOZEZr.o (_general_exception_context)
/opt/microchip/xc32/v4.20/bin/bin/../../lib/gcc/pic32mx/8.3.1/../../../../pic32mx/lib/fpu64/libpic32.a(defaultinterrupt.o)
                              /tmp/ccuumEBo.o (_DefaultInterrupt)
/opt/microchip/xc32/v4.20/bin/bin/../../lib/gcc/pic32mx/8.3.1/../../../../pic32mx/lib/fpu64/libc-musl.a(__sio_sprintf_dfoux.o)
                              build/pic32mk_mcj_curiosity_pro/production/_ext/1360937237/main_pic32mk_mcj.o (_sprintf_cdfFnopuxX)
/opt/microchip/xc32/v4.20/bin/bin/../../lib/gcc/pic32mx/8.3.1/../../../../pic32mx/lib/fpu64/libc-musl.a(__fmt_d.o)
                              /opt/microchip/xc32/v4.20/bin/bin/../../lib/gcc/pic32mx/8.3.1/../../../../pic32mx/lib/fpu64/libc-musl.a(__sio_sprintf_dfoux.o) (__fmt_d_needed)
/opt/microchip/xc32/v4.20/bin/bin/../../lib/gcc/pic32mx/8.3.1/../../../../pic32mx/lib/fpu64/libc-musl.a(__fmt_fp.o)
                              /opt/microchip/xc32/v4.20/bin/bin/../../lib/gcc/pic32mx/8.3.1/../../../../pic32mx/lib/fpu64/libc-musl.a(__sio_sprintf_dfoux.o) (__fmt_f_needed)
/opt/microchip/xc32/v4.20/bin/bin/../../lib/gcc/pic32mx/8.3.1/../../../../pic32mx/lib/fpu64/libc-musl.a(__fmt_o.o)
                              /opt/microchip/xc32/v4.20/bin/bin/../../lib/gcc/pic32mx/8.3.1/../../../../pic32mx/lib/fpu64/libc-musl.a(__sio_sprintf_dfoux.o) (__fmt_o_needed)
/opt/microchip/xc32/v4.20/bin/bin/../../lib/gcc/pic32mx/8.3.1/../../../../pic32mx/lib/fpu64/libc-musl.a(__fmt_s.o)
                              /opt/microchip/xc32/v4.20/bin/bin/../../lib/gcc/pic32mx/8.3.1/../../../../pic32mx/lib/fpu64/libc-musl.a(__sio_sprintf_dfoux.o) (__fmt_s_needed)
/opt/microchip/xc32/v4.20/bin/bin/../../lib/gcc/pic32mx/8.3.1/../../../../pic32mx/lib/fpu64/libc-musl.a(__fmt_u.o)
                              /opt/microchip/xc32/v4.20/bin/bin/../../lib/gcc/pic32mx/8.3.1/../../../../pic32mx/lib/fpu64/libc-musl.a(__fmt_d.o) (__cvt_u)
/opt/microchip/xc32/v4.20/bin/bin/../../lib/gcc/pic32mx/8.3.1/../../../../pic32mx/lib/fpu64/libc-musl.a(__fmt_x.o)
                              /opt/microchip/xc32/v4.20/bin/bin/../../lib/gcc/pic32mx/8.3.1/../../../../pic32mx/lib/fpu64/libc-musl.a(__sio_sprintf_dfoux.o) (__fmt_x_needed)
/opt/microchip/xc32/v4.20/bin/bin/../../lib/gcc/pic32mx/8.3.1/../../../../pic32mx/lib/fpu64/libc-musl.a(__pop_float.o)
                              /opt/microchip/xc32/v4.20/bin/bin/../../lib/gcc/pic32mx/8.3.1/../../../../pic32mx/lib/fpu64/libc-musl.a(__sio_sprintf_dfoux.o) (__pop_float_needed)
/opt/microchip/xc32/v4.20/bin/bin/../../lib/gcc/pic32mx/8.3.1/../../../../pic32mx/lib/fpu64/libc-musl.a(__pop_int.o)
                              /opt/microchip/xc32/v4.20/bin/bin/../../lib/gcc/pic32mx/8.3.1/../../../../pic32mx/lib/fpu64/libc-musl.a(__sio_sprintf_dfoux.o) (__pop_int_needed)
/opt/microchip/xc32/v4.20/bin/bin/../../lib/gcc/pic32mx/8.3.1/../../../../pic32mx/lib/fpu64/libc-musl.a(__pop_ptr.o)
                              /opt/microchip/xc32/v4.20/bin/bin/../../lib/gcc/pic32mx/8.3.1/../../../../pic32mx/lib/fpu64/libc-musl.a(__sio_sprintf_dfoux.o) (__pop_ptr_needed)
/opt/microchip/xc32/v4.20/bin/bin/../../lib/gcc/pic32mx/8.3.1/../../../../pic32mx/lib/fpu64/libc-musl.a(__printf_core.o)
                              /opt/microchip/xc32/v4.20/bin/bin/../../lib/gcc/pic32mx/8.3.1/../../../../pic32mx/lib/fpu64/libc-musl.a(__fmt_d.o) (__pad)
/opt/microchip/xc32/v4.20/bin/bin/../../lib/gcc/pic32mx/8.3.1/../../../../pic32mx/lib/fpu64/libc-musl.a(stdin.o)
                              build/pic32mk_mcj_curiosity_pro/production/_ext/1661106823/initialization.o (_stdin)
/opt/microchip/xc32/v4.20/bin/bin/../../lib/gcc/pic32mx/8.3.1/../../../../pic32mx/lib/fpu64/libc-musl.a(stdout.o)
                              build/pic32mk_mcj_curiosity_pro/production/_ext/1661106823/initialization.o (_stdout)
/opt/microchip/xc32/v4.20/bin/bin/../../lib/gcc/pic32mx/8.3.1/../../../../pic32mx/lib/fpu64/libc-musl.a(setbuf.o)
                              build/pic32mk_mcj_curiosity_pro/production/_ext/1661106823/initialization.o (setbuf)
/opt/microchip/xc32/v4.20/bin/bin/../../lib/gcc/pic32mx/8.3.1/../../../../pic32mx/lib/fpu64/libc-musl.a(vprintf.o)
                              build/pic32mk_mcj_curiosity_pro/production/_ext/1360937237/main_pic32mk_mcj.o (vprintf)
/opt/microchip/xc32/v4.20/bin/bin/../../lib/gcc/pic32mx/8.3.1/../../../../pic32mx/lib/fpu64/libc-musl.a(atoi.o)
                              /opt/microchip/xc32/v4.20/bin/bin/../../lib/gcc/pic32mx/8.3.1/../../../../pic32mx/lib/fpu64/libc-musl.a(__printf_core.o) (atoi)
/opt/microchip/xc32/v4.20/bin/bin/../../lib/gcc/pic32mx/8.3.1/../../../../pic32mx/lib/fpu64/libc-musl.a(memcpy.o)
                              /opt/microchip/xc32/v4.20/bin/bin/../../lib/gcc/pic32mx/8.3.1/../../../../pic32mx/lib/fpu64/libc-musl.a(__printf_core.o) (memcpy)
/opt/microchip/xc32/v4.20/bin/bin/../../lib/gcc/pic32mx/8.3.1/../../../../pic32mx/lib/fpu64/libc-musl.a(strcpy.o)
                              /opt/microchip/xc32/v4.20/bin/bin/../../lib/gcc/pic32mx/8.3.1/../../../../pic32mx/lib/fpu64/libc-musl.a(__fmt_fp.o) (strcpy)
/opt/microchip/xc32/v4.20/bin/bin/../../lib/gcc/pic32mx/8.3.1/../../../../pic32mx/lib/fpu64/libc-musl.a(tolower.o)
                              /opt/microchip/xc32/v4.20/bin/bin/../../lib/gcc/pic32mx/8.3.1/../../../../pic32mx/lib/fpu64/libc-musl.a(__fmt_fp.o) (tolower)
/opt/microchip/xc32/v4.20/bin/bin/../../lib/gcc/pic32mx/8.3.1/../../../../pic32mx/lib/fpu64/libc-musl.a(toupper.o)
                              /opt/microchip/xc32/v4.20/bin/bin/../../lib/gcc/pic32mx/8.3.1/../../../../pic32mx/lib/fpu64/libc-musl.a(__fmt_x.o) (toupper)
/opt/microchip/xc32/v4.20/bin/bin/../../lib/gcc/pic32mx/8.3.1/../../../../pic32mx/lib/fpu64/libc-musl.a(__int_vsprintf.o)
                              /opt/microchip/xc32/v4.20/bin/bin/../../lib/gcc/pic32mx/8.3.1/../../../../pic32mx/lib/fpu64/libc-musl.a(__sio_sprintf_dfoux.o) (__vsprintf)
/opt/microchip/xc32/v4.20/bin/bin/../../lib/gcc/pic32mx/8.3.1/../../../../pic32mx/lib/fpu64/libc-musl.a(__fopen.o)
                              /opt/microchip/xc32/v4.20/bin/bin/../../lib/gcc/pic32mx/8.3.1/../../../../pic32mx/lib/fpu64/libc-musl.a(stdout.o) (__stdio_seek)
/opt/microchip/xc32/v4.20/bin/bin/../../lib/gcc/pic32mx/8.3.1/../../../../pic32mx/lib/fpu64/libc-musl.a(__io_init_needed.o)
                              /opt/microchip/xc32/v4.20/bin/bin/../../lib/gcc/pic32mx/8.3.1/../../../../pic32mx/lib/fpu64/libc-musl.a(stdout.o) (__io_init_needed)
/opt/microchip/xc32/v4.20/bin/bin/../../lib/gcc/pic32mx/8.3.1/../../../../pic32mx/lib/fpu64/libc-musl.a(__io_rw_needed.o)
                              /opt/microchip/xc32/v4.20/bin/bin/../../lib/gcc/pic32mx/8.3.1/../../../../pic32mx/lib/fpu64/libc-musl.a(stdin.o) (__io_rw_needed)
/opt/microchip/xc32/v4.20/bin/bin/../../lib/gcc/pic32mx/8.3.1/../../../../pic32mx/lib/fpu64/libc-musl.a(__out.o)
                              /opt/microchip/xc32/v4.20/bin/bin/../../lib/gcc/pic32mx/8.3.1/../../../../pic32mx/lib/fpu64/libc-musl.a(stdout.o) (__stdio_write_unbuffered)
/opt/microchip/xc32/v4.20/bin/bin/../../lib/gcc/pic32mx/8.3.1/../../../../pic32mx/lib/fpu64/libc-musl.a(__stdio_close.o)
                              /opt/microchip/xc32/v4.20/bin/bin/../../lib/gcc/pic32mx/8.3.1/../../../../pic32mx/lib/fpu64/libc-musl.a(stdout.o) (__stdio_close_rw)
/opt/microchip/xc32/v4.20/bin/bin/../../lib/gcc/pic32mx/8.3.1/../../../../pic32mx/lib/fpu64/libc-musl.a(__stdio_read.o)
                              /opt/microchip/xc32/v4.20/bin/bin/../../lib/gcc/pic32mx/8.3.1/../../../../pic32mx/lib/fpu64/libc-musl.a(stdin.o) (__stdio_read)
/opt/microchip/xc32/v4.20/bin/bin/../../lib/gcc/pic32mx/8.3.1/../../../../pic32mx/lib/fpu64/libc-musl.a(__towrite_rw.o)
                              /opt/microchip/xc32/v4.20/bin/bin/../../lib/gcc/pic32mx/8.3.1/../../../../pic32mx/lib/fpu64/libc-musl.a(__io_rw_needed.o) (__towrite_rw_needed)
/opt/microchip/xc32/v4.20/bin/bin/../../lib/gcc/pic32mx/8.3.1/../../../../pic32mx/lib/fpu64/libc-musl.a(setvbuf.o)
                              /opt/microchip/xc32/v4.20/bin/bin/../../lib/gcc/pic32mx/8.3.1/../../../../pic32mx/lib/fpu64/libc-musl.a(setbuf.o) (setvbuf)
/opt/microchip/xc32/v4.20/bin/bin/../../lib/gcc/pic32mx/8.3.1/../../../../pic32mx/lib/fpu64/libc-musl.a(vfprintf.o)
                              /opt/microchip/xc32/v4.20/bin/bin/../../lib/gcc/pic32mx/8.3.1/../../../../pic32mx/lib/fpu64/libc-musl.a(vprintf.o) (vfprintf)
/opt/microchip/xc32/v4.20/bin/bin/../../lib/gcc/pic32mx/8.3.1/../../../../pic32mx/lib/fpu64/libc-musl.a(stpcpy.o)
                              /opt/microchip/xc32/v4.20/bin/bin/../../lib/gcc/pic32mx/8.3.1/../../../../pic32mx/lib/fpu64/libc-musl.a(strcpy.o) (__stpcpy)
/opt/microchip/xc32/v4.20/bin/bin/../../lib/gcc/pic32mx/8.3.1/../../../../pic32mx/lib/fpu64/libc-musl.a(readv.o)
                              /opt/microchip/xc32/v4.20/bin/bin/../../lib/gcc/pic32mx/8.3.1/../../../../pic32mx/lib/fpu64/libc-musl.a(__stdio_read.o) (readv)
/opt/microchip/xc32/v4.20/bin/bin/../../lib/gcc/pic32mx/8.3.1/../../../../pic32mx/lib/fpu64/libc-musl.a(malloc.o)
                              /opt/microchip/xc32/v4.20/bin/bin/../../lib/gcc/pic32mx/8.3.1/../../../../pic32mx/lib/fpu64/libc-musl.a(__fopen.o) (malloc)
/opt/microchip/xc32/v4.20/bin/bin/../../lib/gcc/pic32mx/8.3.1/../../../../pic32mx/lib/fpu64/libc-musl.a(expand_heap.o)
                              /opt/microchip/xc32/v4.20/bin/bin/../../lib/gcc/pic32mx/8.3.1/../../../../pic32mx/lib/fpu64/libc-musl.a(malloc.o) (__expand_heap)
/opt/microchip/xc32/v4.20/bin/bin/../../lib/gcc/pic32mx/8.3.1/../../../../pic32mx/lib/fpu64/libc-musl.a(__int_vsnprintf.o)
                              /opt/microchip/xc32/v4.20/bin/bin/../../lib/gcc/pic32mx/8.3.1/../../../../pic32mx/lib/fpu64/libc-musl.a(__int_vsprintf.o) (__vsnprintf)
/opt/microchip/xc32/v4.20/bin/bin/../../lib/gcc/pic32mx/8.3.1/../../../../pic32mx/lib/fpu64/libc-musl.a(__fopen_rw.o)
                              /opt/microchip/xc32/v4.20/bin/bin/../../lib/gcc/pic32mx/8.3.1/../../../../pic32mx/lib/fpu64/libc-musl.a(__io_rw_needed.o) (__fopen_rw_needed)
/opt/microchip/xc32/v4.20/bin/bin/../../lib/gcc/pic32mx/8.3.1/../../../../pic32mx/lib/fpu64/libc-musl.a(__ftello_rw.o)
                              /opt/microchip/xc32/v4.20/bin/bin/../../lib/gcc/pic32mx/8.3.1/../../../../pic32mx/lib/fpu64/libc-musl.a(__io_rw_needed.o) (__ftello_adj_rw_needed)
/opt/microchip/xc32/v4.20/bin/bin/../../lib/gcc/pic32mx/8.3.1/../../../../pic32mx/lib/fpu64/libc-musl.a(__init_stdio.o)
                              /opt/microchip/xc32/v4.20/bin/bin/../../lib/gcc/pic32mx/8.3.1/../../../../pic32mx/lib/fpu64/libc-musl.a(__io_init_needed.o) (__init_stdio_needed)
/opt/microchip/xc32/v4.20/bin/bin/../../lib/gcc/pic32mx/8.3.1/../../../../pic32mx/lib/fpu64/libc-musl.a(__io_buf_needed.o)
                              /opt/microchip/xc32/v4.20/bin/bin/../../lib/gcc/pic32mx/8.3.1/../../../../pic32mx/lib/fpu64/libc-musl.a(__io_rw_needed.o) (__io_buf_needed)
/opt/microchip/xc32/v4.20/bin/bin/../../lib/gcc/pic32mx/8.3.1/../../../../pic32mx/lib/fpu64/libc-musl.a(__io_file_needed.o)
                              /opt/microchip/xc32/v4.20/bin/bin/../../lib/gcc/pic32mx/8.3.1/../../../../pic32mx/lib/fpu64/libc-musl.a(__io_init_needed.o) (__io_file_needed)
/opt/microchip/xc32/v4.20/bin/bin/../../lib/gcc/pic32mx/8.3.1/../../../../pic32mx/lib/fpu64/libc-musl.a(__io_fmt_needed.o)
                              /opt/microchip/xc32/v4.20/bin/bin/../../lib/gcc/pic32mx/8.3.1/../../../../pic32mx/lib/fpu64/libc-musl.a(vfprintf.o) (__io_fmt_needed)
/opt/microchip/xc32/v4.20/bin/bin/../../lib/gcc/pic32mx/8.3.1/../../../../pic32mx/lib/fpu64/libc-musl.a(__io_std_needed.o)
                              /opt/microchip/xc32/v4.20/bin/bin/../../lib/gcc/pic32mx/8.3.1/../../../../pic32mx/lib/fpu64/libc-musl.a(__io_buf_needed.o) (__io_std_needed)
/opt/microchip/xc32/v4.20/bin/bin/../../lib/gcc/pic32mx/8.3.1/../../../../pic32mx/lib/fpu64/libc-musl.a(__putc.o)
                              /opt/microchip/xc32/v4.20/bin/bin/../../lib/gcc/pic32mx/8.3.1/../../../../pic32mx/lib/fpu64/libc-musl.a(__io_buf_needed.o) (__putc_needed)
/opt/microchip/xc32/v4.20/bin/bin/../../lib/gcc/pic32mx/8.3.1/../../../../pic32mx/lib/fpu64/libc-musl.a(__stderr.o)
                              /opt/microchip/xc32/v4.20/bin/bin/../../lib/gcc/pic32mx/8.3.1/../../../../pic32mx/lib/fpu64/libc-musl.a(__io_std_needed.o) (__init_stderr_needed)
/opt/microchip/xc32/v4.20/bin/bin/../../lib/gcc/pic32mx/8.3.1/../../../../pic32mx/lib/fpu64/libc-musl.a(__stdio_exit.o)
                              /opt/microchip/xc32/v4.20/bin/bin/../../lib/gcc/pic32mx/8.3.1/../../../../pic32mx/lib/fpu64/libc-musl.a(__io_buf_needed.o) (__stdio_exit_needed)
/opt/microchip/xc32/v4.20/bin/bin/../../lib/gcc/pic32mx/8.3.1/../../../../pic32mx/lib/fpu64/libc-musl.a(__stdio_write.o)
                              /opt/microchip/xc32/v4.20/bin/bin/../../lib/gcc/pic32mx/8.3.1/../../../../pic32mx/lib/fpu64/libc-musl.a(setvbuf.o) (__stdio_write_buffered)
/opt/microchip/xc32/v4.20/bin/bin/../../lib/gcc/pic32mx/8.3.1/../../../../pic32mx/lib/fpu64/libc-musl.a(__stdout.o)
                              /opt/microchip/xc32/v4.20/bin/bin/../../lib/gcc/pic32mx/8.3.1/../../../../pic32mx/lib/fpu64/libc-musl.a(__io_std_needed.o) (__init_stdout_needed)
/opt/microchip/xc32/v4.20/bin/bin/../../lib/gcc/pic32mx/8.3.1/../../../../pic32mx/lib/fpu64/libc-musl.a(__towrite.o)
                              /opt/microchip/xc32/v4.20/bin/bin/../../lib/gcc/pic32mx/8.3.1/../../../../pic32mx/lib/fpu64/libc-musl.a(__stdio_write.o) (__towrite)
/opt/microchip/xc32/v4.20/bin/bin/../../lib/gcc/pic32mx/8.3.1/../../../../pic32mx/lib/fpu64/libc-musl.a(putc.o)
                              /opt/microchip/xc32/v4.20/bin/bin/../../lib/gcc/pic32mx/8.3.1/../../../../pic32mx/lib/fpu64/libc-musl.a(__putc.o) (__putc_unbuffered)
/opt/microchip/xc32/v4.20/bin/bin/../../lib/gcc/pic32mx/8.3.1/../../../../pic32mx/lib/fpu64/libc-musl.a(writev.o)
                              /opt/microchip/xc32/v4.20/bin/bin/../../lib/gcc/pic32mx/8.3.1/../../../../pic32mx/lib/fpu64/libc-musl.a(__stdio_write.o) (writev)
/opt/microchip/xc32/v4.20/bin/bin/../../lib/gcc/pic32mx/8.3.1/../../../../pic32mx/lib/fpu64/libc-musl.a(libc.o)
                              /opt/microchip/xc32/v4.20/bin/bin/../../lib/gcc/pic32mx/8.3.1/../../../../pic32mx/lib/fpu64/libc-musl.a(malloc.o) (__libc)
/opt/microchip/xc32/v4.20/bin/bin/../../lib/gcc/pic32mx/8.3.1/../../../../pic32mx/lib/fpu64/libc-musl.a(__int_vfprintf.o)
                              /opt/microchip/xc32/v4.20/bin/bin/../../lib/gcc/pic32mx/8.3.1/../../../../pic32mx/lib/fpu64/libc-musl.a(__int_vsnprintf.o) (__vfprintf)
/opt/microchip/xc32/v4.20/bin/bin/../../lib/gcc/pic32mx/8.3.1/../../../../pic32mx/lib/fpu64/libc-musl.a(__overflow.o)
                              /opt/microchip/xc32/v4.20/bin/bin/../../lib/gcc/pic32mx/8.3.1/../../../../pic32mx/lib/fpu64/libc-musl.a(__putc.o) (__overflow)
/opt/microchip/xc32/v4.20/bin/bin/../../lib/gcc/pic32mx/8.3.1/../../../../pic32mx/lib/fpu64/libc-musl.a(__fclose.o)
                              /opt/microchip/xc32/v4.20/bin/bin/../../lib/gcc/pic32mx/8.3.1/../../../../pic32mx/lib/fpu64/libc-musl.a(__io_buf_needed.o) (__fclose_needed)
/opt/microchip/xc32/v4.20/bin/bin/../../lib/gcc/pic32mx/8.3.1/../../../../pic32mx/lib/fpu64/libc-musl.a(__fmt_a.o)
                              /opt/microchip/xc32/v4.20/bin/bin/../../lib/gcc/pic32mx/8.3.1/../../../../pic32mx/lib/fpu64/libc-musl.a(__io_fmt_needed.o) (__fmt_a_needed)
/opt/microchip/xc32/v4.20/bin/bin/../../lib/gcc/pic32mx/8.3.1/../../../../pic32mx/lib/fpu64/libc-musl.a(__fseeko.o)
                              /opt/microchip/xc32/v4.20/bin/bin/../../lib/gcc/pic32mx/8.3.1/../../../../pic32mx/lib/fpu64/libc-musl.a(__io_buf_needed.o) (__fseeko_needed)
/opt/microchip/xc32/v4.20/bin/bin/../../lib/gcc/pic32mx/8.3.1/../../../../pic32mx/lib/fpu64/libc-musl.a(__ftello.o)
                              /opt/microchip/xc32/v4.20/bin/bin/../../lib/gcc/pic32mx/8.3.1/../../../../pic32mx/lib/fpu64/libc-musl.a(__io_buf_needed.o) (__ftello_adj_needed)
/opt/microchip/xc32/v4.20/bin/bin/../../lib/gcc/pic32mx/8.3.1/../../../../pic32mx/lib/fpu64/libc-musl.a(__fwrite.o)
                              /opt/microchip/xc32/v4.20/bin/bin/../../lib/gcc/pic32mx/8.3.1/../../../../pic32mx/lib/fpu64/libc-musl.a(__io_std_needed.o) (__fwrite_needed)
/opt/microchip/xc32/v4.20/bin/bin/../../lib/gcc/pic32mx/8.3.1/../../../../pic32mx/lib/fpu64/libm-musl.a(floor.o)
                              /opt/microchip/xc32/v4.20/bin/bin/../../lib/gcc/pic32mx/8.3.1/../../../../pic32mx/lib/fpu64/libc-musl.a(__fmt_fp.o) (floor)
/opt/microchip/xc32/v4.20/bin/bin/../../lib/gcc/pic32mx/8.3.1/../../../../pic32mx/lib/fpu64/libm-musl.a(fma.o)
                              /opt/microchip/xc32/v4.20/bin/bin/../../lib/gcc/pic32mx/8.3.1/../../../../pic32mx/lib/fpu64/libc-musl.a(__fmt_fp.o) (fma)
/opt/microchip/xc32/v4.20/bin/bin/../../lib/gcc/pic32mx/8.3.1/../../../../pic32mx/lib/fpu64/libm-musl.a(scalbn.o)
                              /opt/microchip/xc32/v4.20/bin/bin/../../lib/gcc/pic32mx/8.3.1/../../../../pic32mx/lib/fpu64/libm-musl.a(fma.o) (scalbn)
/opt/microchip/xc32/v4.20/bin/bin/../../lib/gcc/pic32mx/8.3.1/fpu64/libgcc.a(_lshrdi3.o)
                              /opt/microchip/xc32/v4.20/bin/bin/../../lib/gcc/pic32mx/8.3.1/../../../../pic32mx/lib/fpu64/libc-musl.a(malloc.o) (__lshrdi3)
/opt/microchip/xc32/v4.20/bin/bin/../../lib/gcc/pic32mx/8.3.1/fpu64/libgcc.a(_ashldi3.o)
                              /opt/microchip/xc32/v4.20/bin/bin/../../lib/gcc/pic32mx/8.3.1/../../../../pic32mx/lib/fpu64/libc-musl.a(malloc.o) (__ashldi3)
/opt/microchip/xc32/v4.20/bin/bin/../../lib/gcc/pic32mx/8.3.1/fpu64/libgcc.a(_udivdi3.o)
                              /opt/microchip/xc32/v4.20/bin/bin/../../lib/gcc/pic32mx/8.3.1/../../../../pic32mx/lib/fpu64/libc-musl.a(__fmt_u.o) (__udivdi3)
/opt/microchip/xc32/v4.20/bin/bin/../../lib/gcc/pic32mx/8.3.1/fpu64/libgcc.a(_umoddi3.o)
                              /opt/microchip/xc32/v4.20/bin/bin/../../lib/gcc/pic32mx/8.3.1/../../../../pic32mx/lib/fpu64/libc-musl.a(__fmt_u.o) (__umoddi3)
/opt/microchip/xc32/v4.20/bin/bin/../../lib/gcc/pic32mx/8.3.1/../../../../pic32mx/lib/fpu64/libpic32.a(sbrk.o)
                              /opt/microchip/xc32/v4.20/bin/bin/../../lib/gcc/pic32mx/8.3.1/../../../../pic32mx/lib/fpu64/libc-musl.a(expand_heap.o) (_sbrk)
/opt/microchip/xc32/v4.20/bin/bin/../../lib/gcc/pic32mx/8.3.1/../../../../pic32mx/lib/fpu64/libpic32.a(lseek.o)
                              /opt/microchip/xc32/v4.20/bin/bin/../../lib/gcc/pic32mx/8.3.1/../../../../pic32mx/lib/fpu64/libc-musl.a(__stdio_close.o) (lseek)
/opt/microchip/xc32/v4.20/bin/bin/../../lib/gcc/pic32mx/8.3.1/../../../../pic32mx/lib/fpu64/libpic32.a(close.o)
                              /opt/microchip/xc32/v4.20/bin/bin/../../lib/gcc/pic32mx/8.3.1/../../../../pic32mx/lib/fpu64/libc-musl.a(__stdio_close.o) (close)
/opt/microchip/xc32/v4.20/bin/bin/../../lib/gcc/pic32mx/8.3.1/../../../../pic32mx/lib/fpu64/libpic32.a(errno.o)
                              /opt/microchip/xc32/v4.20/bin/bin/../../lib/gcc/pic32mx/8.3.1/../../../../pic32mx/lib/fpu64/libc-musl.a(__printf_core.o) (errno)

Microchip PIC32 Memory-Usage Report

kseg0 Program-Memory Usage
section                    address  length [bytes]      (dec)  Description
-------                 ----------  -------------------------  -----------
.text                   0x9d000000          0x168         360  App's exec code 
.MIPS.abiflags          0x9d000168           0x18          24   
.app_excpt              0x9d000180           0x10          16  General-Exception 
.text.UART1_Write       0x9d000190           0x70         112   
.vectors                0x9d000200           0x58          88   
.text.__fmt_fp          0x9d000258          0x6d0        1744   
.text.fma               0x9d000928          0x678        1656   
.text.__fmt_a           0x9d000fa0          0x628        1576   
.dinit                  0x9d0015c8          0x5e0        1504   
.text.main              0x9d001ba8          0x5a4        1444   
.text.__printf_core     0x9d00214c          0x580        1408   
.text                   0x9d0026cc          0x774        1908  App's exec code 
.text.CAN1_InterruptHan 0x9d002e40          0x354         852   
.text.malloc            0x9d003194          0x290         656   
.text.CAN1_MessageTrans 0x9d003424          0x260         608   
.text.__fmt_x           0x9d003684          0x208         520   
.text.CAN1_Handler      0x9d00388c          0x1d0         464   
.text.DMA7_Handler      0x9d003a5c          0x1d0         464   
.text.free              0x9d003c2c          0x198         408   
.text.__pop_int         0x9d003dc4          0x188         392   
.text._sbrk_init        0x9d003f4c          0x154         340   
.text.__fmt_d           0x9d0040a0          0x150         336   
.text.__cvt_u           0x9d0041f0          0x13c         316   
.text.UART1_Read        0x9d00432c          0x130         304   
.text.DMA7_InterruptHan 0x9d00445c          0x12c         300   
.text.DMAC_ChannelSetAd 0x9d004588          0x128         296   
.text.CAN1_Initialize   0x9d0046b0          0x120         288   
.text.__write_buffered  0x9d0047d0          0x114         276   
.text.__stdio_write_buf 0x9d0048e4          0x104         260   
.text.__pad             0x9d0049e8          0x100         256   
.text.__fmt_o           0x9d004ae8           0xf4         244   
.text.CAN1_MessageRecei 0x9d004bdc           0xec         236   
.text.__pop_ptr         0x9d004cc8           0xe4         228   
.text.DMAC_ChannelTrans 0x9d004dac           0xdc         220   
.text.general_exception 0x9d004e88           0xdc         220   
.text.__stdio_read      0x9d004f64           0xcc         204   
.text.GPIO_Initialize   0x9d005030           0xc8         200   
.rodata.str1.4          0x9d0050f8           0xc8         200   
.text.__stdio_close_rw  0x9d0051c0           0xc0         192   
.text.__fmt_u           0x9d005280           0xbc         188   
.text.floor             0x9d00533c           0xb4         180   
.text.SYS_Initialize    0x9d0053f0           0xb0         176   
.text._sbrk             0x9d0054a0           0xb0         176   
.text.setvbuf           0x9d005550           0xac         172   
.text.unbin             0x9d0055fc           0xac         172   
.text.CLK_Initialize    0x9d0056a8           0xa8         168   
.text                   0x9d005750           0xa8         168  App's exec code 
.text.__fmt_s           0x9d0057f8           0xa4         164   
.text.__out             0x9d00589c           0x8c         140   
.text.normalize         0x9d005928           0x8c         140   
.text.scalbn            0x9d0059b4           0x8c         140   
.text.dinit.startup     0x9d005a40           0x80         128   
.text.__vsnprintf       0x9d005ac0           0x80         128   
.text.atoi              0x9d005b40           0x7c         124   
.text.__readv           0x9d005bbc           0x7c         124   
.text.__writev          0x9d005c38           0x7c         124   
.text.alloc_rev         0x9d005cb4           0x74         116   
.text.alloc_fwd         0x9d005d28           0x70         112   
.text.APP_CAN_Callback  0x9d005d98           0x6c         108   
.text.a_clz_64          0x9d005e04           0x6c         108   
.text.DMAC_Initialize   0x9d005e70           0x68         104   
.text.SPI2_Initialize   0x9d005ed8           0x68         104   
.text.write             0x9d005f40           0x64         100   
.text.bin_index         0x9d005fa4           0x60          96   
.text.UART1DmaWrite     0x9d006004           0x5c          92   
.rodata                 0x9d006060           0x5c          92  Read-only const 
.text.__fmt_state       0x9d0060bc           0x58          88   
.text.adjust_size       0x9d006114           0x58          88   
.text.trim              0x9d00616c           0x58          88   
.text.main_entry        0x9d0061c4           0x54          84   
.text.read              0x9d006218           0x4c          76   
.text.__pop_float       0x9d006264           0x48          72   
.text.UART1_ErrorClear. 0x9d0062ac           0x44          68   
.text                   0x9d0062f0           0x44          68  App's exec code 
.text.__towrite         0x9d006334           0x44          68   
.text.CAN1_InterruptGet 0x9d006378           0x40          64   
.text.EVIC_Initialize   0x9d0063b8           0x40          64   
.text.__towrite_rw      0x9d0063f8           0x3c          60   
.text.__expand_heap     0x9d006434           0x3c          60   
.text.__vfprintf        0x9d006470           0x3c          60   
.text                   0x9d0064ac           0x78         120  App's exec code 
.text.lock_bin          0x9d006524           0x34          52   
.text.__fwrite          0x9d006558           0x34          52   
.text.APP_CAN_Error_Cal 0x9d00658c           0x30          48   
.text.UART1_Initialize  0x9d0065bc           0x2c          44   
.text.memcpy            0x9d0065e8           0x2c          44   
.text._stub_sbd_memlayo 0x9d006614           0x2c          44   
.text.__wrap_sprintf    0x9d006640           0x28          40   
.text.strcpy            0x9d006668           0x28          40   
.text.__vsprintf        0x9d006690           0x28          40   
.rodata.cst8            0x9d0066b8           0x28          40   
.text.CAN1_CallbackRegi 0x9d0066e0           0x24          36   
.text.setbuf            0x9d006704           0x24          36   
.text.dinit.startup     0x9d006728           0x20          32   
.rodata.cst8            0x9d006748           0x20          32   
.text.__fwrite_min      0x9d006768           0x20          32   
.text.stpcpy            0x9d006788           0x20          32   
.rodata.cst8            0x9d0067a8           0x20          32   
.text.DMAC_ChannelCallb 0x9d0067c8           0x1c          28   
.text.tolower           0x9d0067e4           0x1c          28   
.text.toupper           0x9d006800           0x1c          28   
.text.CAN1_ErrorCallbac 0x9d00681c           0x18          24   
.text._general_exceptio 0x9d006834           0x18          24   
.text.UART1DmaChannelHa 0x9d00684c           0x18          24   
.text                   0x9d006864           0x18          24  App's exec code 
.rodata                 0x9d00687c           0x18          24  Read-only const 
.rodata.cst8            0x9d006898           0x18          24   
.rodata                 0x9d0068b0           0x10          16  Read-only const 
.text.UART1_ReceiverIsR 0x9d0068c0           0x10          16   
.text._bootstrap_except 0x9d0068d0           0x10          16   
.rodata.str1.4          0x9d0068e0           0x20          32   
.rodata.cst8            0x9d006900           0x10          16   
.text.CAN1_ErrorGet     0x9d006910            0x8           8   
.text._on_reset         0x9d006918            0x8           8   
.text._on_bootstrap     0x9d006920            0x8           8   
.rodata.str1.4          0x9d006928            0x8           8   
.text.__dummy           0x9d006930           0x10          16   
.text.lseek             0x9d006940            0x8           8   
.text.close             0x9d006948            0x8           8   
      Total kseg0_program_mem used  :      0x694c       26956  5.1% of 0x80000

kseg0 Boot-Memory Usage
section                    address  length [bytes]      (dec)  Description
-------                 ----------  -------------------------  -----------
         Total kseg0_boot_mem used  :           0           0  

kseg1 Boot-Memory Usage
section                    address  length [bytes]      (dec)  Description
-------                 ----------  -------------------------  -----------
.reset                  0xbfc00000          0x194         404  Reset handler 
.bev_excpt              0xbfc00380           0x10          16  BEV-Exception 
         Total kseg1_boot_mem used  :       0x1a4         420  36.5% of 0x480
        --------------------------------------------------------------------------
         Total Program Memory used  :      0x6af0       27376  5.2% of 0x80480
        --------------------------------------------------------------------------


Data-Memory Usage
section                    address  length [bytes]      (dec)  Description
-------                 ----------  -------------------------  -----------
.sdata                  0x80000000           0x14          20  Small init data 
.sbss                   0x80000014           0x48          72  Small uninit data 
.data                   0x8000005c           0xd0         208  Initialized data 
.data._stdin            0x8000012c            0x4           4   
.data._stdout           0x80000130            0x4           4   
.bss                    0x80001414          0x920        2336  Uninitialized data 
.bss.errno              0x80001d34            0x4           4   
.bss                    0x80001d38          0x390         912  Uninitialized data 
.bss                    0x800020c8           0xe4         228  Uninitialized data 
.bss                    0x800021ac           0x24          36  Uninitialized data 
.bss.can_message_buffer 0xa0000140         0x12d4        4820   
         Total kseg0/kseg1 data_mem used  :      0x21c4        8644  13.2% of 0x10000
        --------------------------------------------------------------------------
            Total Data Memory used  :      0x21c4        8644  13.2% of 0x10000
        --------------------------------------------------------------------------


Dynamic Data-Memory Reservation
section                    address  length [bytes]      (dec)  Description
-------                 ----------  -------------------------  -----------
heap                    0x800021d8          0x200         512  Reserved for heap 
stack                   0x800023f0         0xdc08       56328  Reserved for stack 

        --------------------------------------------------------------------------

Discarded input sections

 .text          0x0000000000000000        0x0 /opt/microchip/xc32/v4.20/bin/bin/../../lib/gcc/pic32mx/8.3.1/../../../../pic32mx/lib/fpu64/debug-exception-return.o
 .data          0x0000000000000000        0x0 /opt/microchip/xc32/v4.20/bin/bin/../../lib/gcc/pic32mx/8.3.1/../../../../pic32mx/lib/fpu64/debug-exception-return.o
 .bss           0x0000000000000000        0x0 /opt/microchip/xc32/v4.20/bin/bin/../../lib/gcc/pic32mx/8.3.1/../../../../pic32mx/lib/fpu64/debug-exception-return.o
 .xc_stack_usage.hdr
                0x0000000000000000        0xe /opt/microchip/xc32/v4.20/bin/bin/../../lib/gcc/pic32mx/8.3.1/../../../../pic32mx/lib/fpu64/debug-exception-return.o
 .xc_stack_usage
                0x0000000000000000       0x1d /opt/microchip/xc32/v4.20/bin/bin/../../lib/gcc/pic32mx/8.3.1/../../../../pic32mx/lib/fpu64/debug-exception-return.o
 .text          0x0000000000000000        0x0 build/pic32mk_mcj_curiosity_pro/production/_ext/1333799919/plib_canfd1.o
 .data          0x0000000000000000        0x0 build/pic32mk_mcj_curiosity_pro/production/_ext/1333799919/plib_canfd1.o
 .reginfo       0x0000000000000000       0x18 build/pic32mk_mcj_curiosity_pro/production/_ext/1333799919/plib_canfd1.o
 .MIPS.abiflags
                0x0000000000000000       0x18 build/pic32mk_mcj_curiosity_pro/production/_ext/1333799919/plib_canfd1.o
 .text.CAN1_MessageAbort
                0x0000000000000000       0x54 build/pic32mk_mcj_curiosity_pro/production/_ext/1333799919/plib_canfd1.o
 .text.CAN1_MessageAcceptanceFilterSet
                0x0000000000000000       0x60 build/pic32mk_mcj_curiosity_pro/production/_ext/1333799919/plib_canfd1.o
 .text.CAN1_MessageAcceptanceFilterGet
                0x0000000000000000       0x4c build/pic32mk_mcj_curiosity_pro/production/_ext/1333799919/plib_canfd1.o
 .text.CAN1_MessageAcceptanceFilterMaskSet
                0x0000000000000000       0x90 build/pic32mk_mcj_curiosity_pro/production/_ext/1333799919/plib_canfd1.o
 .text.CAN1_MessageAcceptanceFilterMaskGet
                0x0000000000000000       0x4c build/pic32mk_mcj_curiosity_pro/production/_ext/1333799919/plib_canfd1.o
 .text.CAN1_TransmitEventFIFOElementGet
                0x0000000000000000       0x6c build/pic32mk_mcj_curiosity_pro/production/_ext/1333799919/plib_canfd1.o
 .text.CAN1_ErrorCountGet
                0x0000000000000000       0x1c build/pic32mk_mcj_curiosity_pro/production/_ext/1333799919/plib_canfd1.o
 .text.CAN1_TxFIFOQueueIsFull
                0x0000000000000000       0x40 build/pic32mk_mcj_curiosity_pro/production/_ext/1333799919/plib_canfd1.o
 .text.CAN1_AutoRTRResponseSet
                0x0000000000000000       0xf0 build/pic32mk_mcj_curiosity_pro/production/_ext/1333799919/plib_canfd1.o
 .text          0x0000000000000000        0x0 build/pic32mk_mcj_curiosity_pro/production/_ext/899710619/plib_clk.o
 .data          0x0000000000000000        0x0 build/pic32mk_mcj_curiosity_pro/production/_ext/899710619/plib_clk.o
 .bss           0x0000000000000000        0x0 build/pic32mk_mcj_curiosity_pro/production/_ext/899710619/plib_clk.o
 .reginfo       0x0000000000000000       0x18 build/pic32mk_mcj_curiosity_pro/production/_ext/899710619/plib_clk.o
 .MIPS.abiflags
                0x0000000000000000       0x18 build/pic32mk_mcj_curiosity_pro/production/_ext/899710619/plib_clk.o
 .text          0x0000000000000000        0x0 build/pic32mk_mcj_curiosity_pro/production/_ext/2121194872/plib_dmac.o
 .data          0x0000000000000000        0x0 build/pic32mk_mcj_curiosity_pro/production/_ext/2121194872/plib_dmac.o
 .reginfo       0x0000000000000000       0x18 build/pic32mk_mcj_curiosity_pro/production/_ext/2121194872/plib_dmac.o
 .MIPS.abiflags
                0x0000000000000000       0x18 build/pic32mk_mcj_curiosity_pro/production/_ext/2121194872/plib_dmac.o
 .text.DMAC_ChainTransferSetup
                0x0000000000000000       0xb0 build/pic32mk_mcj_curiosity_pro/production/_ext/2121194872/plib_dmac.o
 .text.DMAC_ChannelPatternMatchSetup
                0x0000000000000000       0x48 build/pic32mk_mcj_curiosity_pro/production/_ext/2121194872/plib_dmac.o
 .text.DMAC_ChannelPatternMatchDisable
                0x0000000000000000       0x28 build/pic32mk_mcj_curiosity_pro/production/_ext/2121194872/plib_dmac.o
 .text.DMAC_ChannelDisable
                0x0000000000000000       0x48 build/pic32mk_mcj_curiosity_pro/production/_ext/2121194872/plib_dmac.o
 .text.DMAC_ChannelIsBusy
                0x0000000000000000       0x40 build/pic32mk_mcj_curiosity_pro/production/_ext/2121194872/plib_dmac.o
 .text.DMAC_ChannelTransferStatusGet
                0x0000000000000000       0x40 build/pic32mk_mcj_curiosity_pro/production/_ext/2121194872/plib_dmac.o
 .text.DMAC_ChannelCRCSetup
                0x0000000000000000       0x8c build/pic32mk_mcj_curiosity_pro/production/_ext/2121194872/plib_dmac.o
 .text.DMAC_CRCDisable
                0x0000000000000000       0x14 build/pic32mk_mcj_curiosity_pro/production/_ext/2121194872/plib_dmac.o
 .text.DMAC_CRCRead
                0x0000000000000000       0x5c build/pic32mk_mcj_curiosity_pro/production/_ext/2121194872/plib_dmac.o
 .text          0x0000000000000000        0x0 build/pic32mk_mcj_curiosity_pro/production/_ext/2121156184/plib_evic.o
 .data          0x0000000000000000        0x0 build/pic32mk_mcj_curiosity_pro/production/_ext/2121156184/plib_evic.o
 .bss           0x0000000000000000        0x0 build/pic32mk_mcj_curiosity_pro/production/_ext/2121156184/plib_evic.o
 .reginfo       0x0000000000000000       0x18 build/pic32mk_mcj_curiosity_pro/production/_ext/2121156184/plib_evic.o
 .MIPS.abiflags
                0x0000000000000000       0x18 build/pic32mk_mcj_curiosity_pro/production/_ext/2121156184/plib_evic.o
 .text.EVIC_SourceEnable
                0x0000000000000000       0x28 build/pic32mk_mcj_curiosity_pro/production/_ext/2121156184/plib_evic.o
 .text.EVIC_SourceDisable
                0x0000000000000000       0x28 build/pic32mk_mcj_curiosity_pro/production/_ext/2121156184/plib_evic.o
 .text.EVIC_SourceIsEnabled
                0x0000000000000000       0x20 build/pic32mk_mcj_curiosity_pro/production/_ext/2121156184/plib_evic.o
 .text.EVIC_SourceStatusGet
                0x0000000000000000       0x20 build/pic32mk_mcj_curiosity_pro/production/_ext/2121156184/plib_evic.o
 .text.EVIC_SourceStatusSet
                0x0000000000000000       0x28 build/pic32mk_mcj_curiosity_pro/production/_ext/2121156184/plib_evic.o
 .text.EVIC_SourceStatusClear
                0x0000000000000000       0x28 build/pic32mk_mcj_curiosity_pro/production/_ext/2121156184/plib_evic.o
 .text.EVIC_INT_Enable
                0x0000000000000000       0x18 build/pic32mk_mcj_curiosity_pro/production/_ext/2121156184/plib_evic.o
 .text.EVIC_INT_Disable
                0x0000000000000000       0x20 build/pic32mk_mcj_curiosity_pro/production/_ext/2121156184/plib_evic.o
 .text.EVIC_INT_Restore
                0x0000000000000000       0x28 build/pic32mk_mcj_curiosity_pro/production/_ext/2121156184/plib_evic.o
 .text          0x0000000000000000        0x0 build/pic32mk_mcj_curiosity_pro/production/_ext/2121102356/plib_gpio.o
 .data          0x0000000000000000        0x0 build/pic32mk_mcj_curiosity_pro/production/_ext/2121102356/plib_gpio.o
 .bss           0x0000000000000000        0x0 build/pic32mk_mcj_curiosity_pro/production/_ext/2121102356/plib_gpio.o
 .reginfo       0x0000000000000000       0x18 build/pic32mk_mcj_curiosity_pro/production/_ext/2121102356/plib_gpio.o
 .MIPS.abiflags
                0x0000000000000000       0x18 build/pic32mk_mcj_curiosity_pro/production/_ext/2121102356/plib_gpio.o
 .text.GPIO_PortRead
                0x0000000000000000       0x18 build/pic32mk_mcj_curiosity_pro/production/_ext/2121102356/plib_gpio.o
 .text.GPIO_PortWrite
                0x0000000000000000       0x2c build/pic32mk_mcj_curiosity_pro/production/_ext/2121102356/plib_gpio.o
 .text.GPIO_PortLatchRead
                0x0000000000000000       0x18 build/pic32mk_mcj_curiosity_pro/production/_ext/2121102356/plib_gpio.o
 .text.GPIO_PortSet
                0x0000000000000000       0x1c build/pic32mk_mcj_curiosity_pro/production/_ext/2121102356/plib_gpio.o
 .text.GPIO_PortClear
                0x0000000000000000       0x1c build/pic32mk_mcj_curiosity_pro/production/_ext/2121102356/plib_gpio.o
 .text.GPIO_PortToggle
                0x0000000000000000       0x1c build/pic32mk_mcj_curiosity_pro/production/_ext/2121102356/plib_gpio.o
 .text.GPIO_PortInputEnable
                0x0000000000000000       0x1c build/pic32mk_mcj_curiosity_pro/production/_ext/2121102356/plib_gpio.o
 .text.GPIO_PortOutputEnable
                0x0000000000000000       0x1c build/pic32mk_mcj_curiosity_pro/production/_ext/2121102356/plib_gpio.o
 .text          0x0000000000000000        0x0 build/pic32mk_mcj_curiosity_pro/production/_ext/1753921419/plib_spi2_master.o
 .data          0x0000000000000000        0x0 build/pic32mk_mcj_curiosity_pro/production/_ext/1753921419/plib_spi2_master.o
 .bss           0x0000000000000000        0x0 build/pic32mk_mcj_curiosity_pro/production/_ext/1753921419/plib_spi2_master.o
 .reginfo       0x0000000000000000       0x18 build/pic32mk_mcj_curiosity_pro/production/_ext/1753921419/plib_spi2_master.o
 .MIPS.abiflags
                0x0000000000000000       0x18 build/pic32mk_mcj_curiosity_pro/production/_ext/1753921419/plib_spi2_master.o
 .text.SPI2_WriteRead.part.0
                0x0000000000000000      0x248 build/pic32mk_mcj_curiosity_pro/production/_ext/1753921419/plib_spi2_master.o
 .text.SPI2_TransferSetup
                0x0000000000000000       0xb4 build/pic32mk_mcj_curiosity_pro/production/_ext/1753921419/plib_spi2_master.o
 .text.SPI2_Write
                0x0000000000000000       0x20 build/pic32mk_mcj_curiosity_pro/production/_ext/1753921419/plib_spi2_master.o
 .text.SPI2_Read
                0x0000000000000000       0x28 build/pic32mk_mcj_curiosity_pro/production/_ext/1753921419/plib_spi2_master.o
 .text.SPI2_IsTransmitterBusy
                0x0000000000000000       0x14 build/pic32mk_mcj_curiosity_pro/production/_ext/1753921419/plib_spi2_master.o
 .text.SPI2_WriteRead
                0x0000000000000000       0x30 build/pic32mk_mcj_curiosity_pro/production/_ext/1753921419/plib_spi2_master.o
 .text          0x0000000000000000        0x0 build/pic32mk_mcj_curiosity_pro/production/_ext/2120699413/plib_uart1.o
 .data          0x0000000000000000        0x0 build/pic32mk_mcj_curiosity_pro/production/_ext/2120699413/plib_uart1.o
 .bss           0x0000000000000000        0x0 build/pic32mk_mcj_curiosity_pro/production/_ext/2120699413/plib_uart1.o
 .reginfo       0x0000000000000000       0x18 build/pic32mk_mcj_curiosity_pro/production/_ext/2120699413/plib_uart1.o
 .MIPS.abiflags
                0x0000000000000000       0x18 build/pic32mk_mcj_curiosity_pro/production/_ext/2120699413/plib_uart1.o
 .text.UART1_SerialSetup
                0x0000000000000000       0xdc build/pic32mk_mcj_curiosity_pro/production/_ext/2120699413/plib_uart1.o
 .text.UART1_ErrorGet
                0x0000000000000000       0x4c build/pic32mk_mcj_curiosity_pro/production/_ext/2120699413/plib_uart1.o
 .text.UART1_AutoBaudQuery
                0x0000000000000000       0x10 build/pic32mk_mcj_curiosity_pro/production/_ext/2120699413/plib_uart1.o
 .text.UART1_AutoBaudSet
                0x0000000000000000       0x18 build/pic32mk_mcj_curiosity_pro/production/_ext/2120699413/plib_uart1.o
 .text.UART1_WriteByte
                0x0000000000000000       0x20 build/pic32mk_mcj_curiosity_pro/production/_ext/2120699413/plib_uart1.o
 .text.UART1_TransmitterIsReady
                0x0000000000000000       0x14 build/pic32mk_mcj_curiosity_pro/production/_ext/2120699413/plib_uart1.o
 .text.UART1_ReadByte
                0x0000000000000000       0x10 build/pic32mk_mcj_curiosity_pro/production/_ext/2120699413/plib_uart1.o
 .text.UART1_TransmitComplete
                0x0000000000000000       0x10 build/pic32mk_mcj_curiosity_pro/production/_ext/2120699413/plib_uart1.o
 .text          0x0000000000000000        0x0 build/pic32mk_mcj_curiosity_pro/production/_ext/529947251/xc32_monitor.o
 .data          0x0000000000000000        0x0 build/pic32mk_mcj_curiosity_pro/production/_ext/529947251/xc32_monitor.o
 .bss           0x0000000000000000        0x0 build/pic32mk_mcj_curiosity_pro/production/_ext/529947251/xc32_monitor.o
 .reginfo       0x0000000000000000       0x18 build/pic32mk_mcj_curiosity_pro/production/_ext/529947251/xc32_monitor.o
 .MIPS.abiflags
                0x0000000000000000       0x18 build/pic32mk_mcj_curiosity_pro/production/_ext/529947251/xc32_monitor.o
 .text          0x0000000000000000        0x0 build/pic32mk_mcj_curiosity_pro/production/_ext/1661106823/initialization.o
 .data          0x0000000000000000        0x0 build/pic32mk_mcj_curiosity_pro/production/_ext/1661106823/initialization.o
 .bss           0x0000000000000000        0x0 build/pic32mk_mcj_curiosity_pro/production/_ext/1661106823/initialization.o
 .reginfo       0x0000000000000000       0x18 build/pic32mk_mcj_curiosity_pro/production/_ext/1661106823/initialization.o
 .MIPS.abiflags
                0x0000000000000000       0x18 build/pic32mk_mcj_curiosity_pro/production/_ext/1661106823/initialization.o
 .text          0x0000000000000000        0x0 build/pic32mk_mcj_curiosity_pro/production/_ext/1661106823/interrupts.o
 .data          0x0000000000000000        0x0 build/pic32mk_mcj_curiosity_pro/production/_ext/1661106823/interrupts.o
 .bss           0x0000000000000000        0x0 build/pic32mk_mcj_curiosity_pro/production/_ext/1661106823/interrupts.o
 .reginfo       0x0000000000000000       0x18 build/pic32mk_mcj_curiosity_pro/production/_ext/1661106823/interrupts.o
 .MIPS.abiflags
                0x0000000000000000       0x18 build/pic32mk_mcj_curiosity_pro/production/_ext/1661106823/interrupts.o
 .text          0x0000000000000000        0x0 build/pic32mk_mcj_curiosity_pro/production/_ext/1661106823/exceptions.o
 .data          0x0000000000000000        0x0 build/pic32mk_mcj_curiosity_pro/production/_ext/1661106823/exceptions.o
 .bss           0x0000000000000000        0x0 build/pic32mk_mcj_curiosity_pro/production/_ext/1661106823/exceptions.o
 .reginfo       0x0000000000000000       0x18 build/pic32mk_mcj_curiosity_pro/production/_ext/1661106823/exceptions.o
 .MIPS.abiflags
                0x0000000000000000       0x18 build/pic32mk_mcj_curiosity_pro/production/_ext/1661106823/exceptions.o
 .text          0x0000000000000000        0x0 build/pic32mk_mcj_curiosity_pro/production/_ext/1360937237/main_pic32mk_mcj.o
 .data          0x0000000000000000        0x0 build/pic32mk_mcj_curiosity_pro/production/_ext/1360937237/main_pic32mk_mcj.o
 .reginfo       0x0000000000000000       0x18 build/pic32mk_mcj_curiosity_pro/production/_ext/1360937237/main_pic32mk_mcj.o
 .MIPS.abiflags
                0x0000000000000000       0x18 build/pic32mk_mcj_curiosity_pro/production/_ext/1360937237/main_pic32mk_mcj.o
 .text.print_menu
                0x0000000000000000        0x8 build/pic32mk_mcj_curiosity_pro/production/_ext/1360937237/main_pic32mk_mcj.o
 .text.PrintFormattedData
                0x0000000000000000       0x30 build/pic32mk_mcj_curiosity_pro/production/_ext/1360937237/main_pic32mk_mcj.o
 .text.fft_bin_total
                0x0000000000000000       0x30 build/pic32mk_mcj_curiosity_pro/production/_ext/1360937237/main_pic32mk_mcj.o
 .text          0x0000000000000000        0x0 /tmp/ccuOZEZr.o
 .data          0x0000000000000000        0x0 /tmp/ccuOZEZr.o
 .bss           0x0000000000000000        0x0 /tmp/ccuOZEZr.o
 .reginfo       0x0000000000000000       0x18 /tmp/ccuOZEZr.o
 .MIPS.abiflags
                0x0000000000000000       0x18 /tmp/ccuOZEZr.o
 .text          0x0000000000000000        0x0 /tmp/ccDeAxyF.o
 .data          0x0000000000000000        0x0 /tmp/ccDeAxyF.o
 .bss           0x0000000000000000        0x0 /tmp/ccDeAxyF.o
 .reginfo       0x0000000000000000       0x18 /tmp/ccDeAxyF.o
 .MIPS.abiflags
                0x0000000000000000       0x18 /tmp/ccDeAxyF.o
 .text          0x0000000000000000        0x0 /tmp/ccR5IokX.o
 .data          0x0000000000000000        0x0 /tmp/ccR5IokX.o
 .bss           0x0000000000000000        0x0 /tmp/ccR5IokX.o
 .reginfo       0x0000000000000000       0x18 /tmp/ccR5IokX.o
 .MIPS.abiflags
                0x0000000000000000       0x18 /tmp/ccR5IokX.o
 .text          0x0000000000000000        0x0 /tmp/ccuumEBo.o
 .data          0x0000000000000000        0x0 /tmp/ccuumEBo.o
 .bss           0x0000000000000000        0x0 /tmp/ccuumEBo.o
 .reginfo       0x0000000000000000       0x18 /tmp/ccuumEBo.o
 .MIPS.abiflags
                0x0000000000000000       0x18 /tmp/ccuumEBo.o
 .discard       0x0000000000000000        0x4 /tmp/ccuumEBo.o
 .data          0x0000000000000000        0x0 /opt/microchip/xc32/v4.20/bin/bin/../../lib/gcc/pic32mx/8.3.1/../../../../pic32mx/lib/fpu64/pic32_software_reset.o
 .bss           0x0000000000000000        0x0 /opt/microchip/xc32/v4.20/bin/bin/../../lib/gcc/pic32mx/8.3.1/../../../../pic32mx/lib/fpu64/pic32_software_reset.o
 .reginfo       0x0000000000000000       0x18 /opt/microchip/xc32/v4.20/bin/bin/../../lib/gcc/pic32mx/8.3.1/../../../../pic32mx/lib/fpu64/pic32_software_reset.o
 .MIPS.abiflags
                0x0000000000000000       0x18 /opt/microchip/xc32/v4.20/bin/bin/../../lib/gcc/pic32mx/8.3.1/../../../../pic32mx/lib/fpu64/pic32_software_reset.o
 .xc_stack_usage.hdr
                0x0000000000000000        0xe /opt/microchip/xc32/v4.20/bin/bin/../../lib/gcc/pic32mx/8.3.1/../../../../pic32mx/lib/fpu64/pic32_software_reset.o
 .xc_stack_usage
                0x0000000000000000       0x24 /opt/microchip/xc32/v4.20/bin/bin/../../lib/gcc/pic32mx/8.3.1/../../../../pic32mx/lib/fpu64/pic32_software_reset.o
 .data          0x0000000000000000        0x0 /opt/microchip/xc32/v4.20/bin/bin/../../lib/gcc/pic32mx/8.3.1/../../../../pic32mx/lib/fpu64/libpic32.a(memset.o)
 .bss           0x0000000000000000        0x0 /opt/microchip/xc32/v4.20/bin/bin/../../lib/gcc/pic32mx/8.3.1/../../../../pic32mx/lib/fpu64/libpic32.a(memset.o)
 .reginfo       0x0000000000000000       0x18 /opt/microchip/xc32/v4.20/bin/bin/../../lib/gcc/pic32mx/8.3.1/../../../../pic32mx/lib/fpu64/libpic32.a(memset.o)
 .MIPS.abiflags
                0x0000000000000000       0x18 /opt/microchip/xc32/v4.20/bin/bin/../../lib/gcc/pic32mx/8.3.1/../../../../pic32mx/lib/fpu64/libpic32.a(memset.o)
 .xc_stack_usage.hdr
                0x0000000000000000        0xe /opt/microchip/xc32/v4.20/bin/bin/../../lib/gcc/pic32mx/8.3.1/../../../../pic32mx/lib/fpu64/libpic32.a(memset.o)
 .xc_stack_usage
                0x0000000000000000       0x14 /opt/microchip/xc32/v4.20/bin/bin/../../lib/gcc/pic32mx/8.3.1/../../../../pic32mx/lib/fpu64/libpic32.a(memset.o)
 .data          0x0000000000000000        0x0 /opt/microchip/xc32/v4.20/bin/bin/../../lib/gcc/pic32mx/8.3.1/../../../../pic32mx/lib/fpu64/libpic32.a(strlen.o)
 .bss           0x0000000000000000        0x0 /opt/microchip/xc32/v4.20/bin/bin/../../lib/gcc/pic32mx/8.3.1/../../../../pic32mx/lib/fpu64/libpic32.a(strlen.o)
 .reginfo       0x0000000000000000       0x18 /opt/microchip/xc32/v4.20/bin/bin/../../lib/gcc/pic32mx/8.3.1/../../../../pic32mx/lib/fpu64/libpic32.a(strlen.o)
 .MIPS.abiflags
                0x0000000000000000       0x18 /opt/microchip/xc32/v4.20/bin/bin/../../lib/gcc/pic32mx/8.3.1/../../../../pic32mx/lib/fpu64/libpic32.a(strlen.o)
 .xc_stack_usage.hdr
                0x0000000000000000        0xe /opt/microchip/xc32/v4.20/bin/bin/../../lib/gcc/pic32mx/8.3.1/../../../../pic32mx/lib/fpu64/libpic32.a(strlen.o)
 .xc_stack_usage
                0x0000000000000000       0x14 /opt/microchip/xc32/v4.20/bin/bin/../../lib/gcc/pic32mx/8.3.1/../../../../pic32mx/lib/fpu64/libpic32.a(strlen.o)
 .text          0x0000000000000000        0x0 /opt/microchip/xc32/v4.20/bin/bin/../../lib/gcc/pic32mx/8.3.1/../../../../pic32mx/lib/fpu64/libpic32.a(default-on-reset.o)
 .data          0x0000000000000000        0x0 /opt/microchip/xc32/v4.20/bin/bin/../../lib/gcc/pic32mx/8.3.1/../../../../pic32mx/lib/fpu64/libpic32.a(default-on-reset.o)
 .bss           0x0000000000000000        0x0 /opt/microchip/xc32/v4.20/bin/bin/../../lib/gcc/pic32mx/8.3.1/../../../../pic32mx/lib/fpu64/libpic32.a(default-on-reset.o)
 .reginfo       0x0000000000000000       0x18 /opt/microchip/xc32/v4.20/bin/bin/../../lib/gcc/pic32mx/8.3.1/../../../../pic32mx/lib/fpu64/libpic32.a(default-on-reset.o)
 .MIPS.abiflags
                0x0000000000000000       0x18 /opt/microchip/xc32/v4.20/bin/bin/../../lib/gcc/pic32mx/8.3.1/../../../../pic32mx/lib/fpu64/libpic32.a(default-on-reset.o)
 .xc_stack_usage
                0x0000000000000000       0x17 /opt/microchip/xc32/v4.20/bin/bin/../../lib/gcc/pic32mx/8.3.1/../../../../pic32mx/lib/fpu64/libpic32.a(default-on-reset.o)
 .xc_stack_usage.hdr
                0x0000000000000000        0xe /opt/microchip/xc32/v4.20/bin/bin/../../lib/gcc/pic32mx/8.3.1/../../../../pic32mx/lib/fpu64/libpic32.a(default-on-reset.o)
 .text          0x0000000000000000        0x0 /opt/microchip/xc32/v4.20/bin/bin/../../lib/gcc/pic32mx/8.3.1/../../../../pic32mx/lib/fpu64/libpic32.a(default-on-bootstrap.o)
 .data          0x0000000000000000        0x0 /opt/microchip/xc32/v4.20/bin/bin/../../lib/gcc/pic32mx/8.3.1/../../../../pic32mx/lib/fpu64/libpic32.a(default-on-bootstrap.o)
 .bss           0x0000000000000000        0x0 /opt/microchip/xc32/v4.20/bin/bin/../../lib/gcc/pic32mx/8.3.1/../../../../pic32mx/lib/fpu64/libpic32.a(default-on-bootstrap.o)
 .reginfo       0x0000000000000000       0x18 /opt/microchip/xc32/v4.20/bin/bin/../../lib/gcc/pic32mx/8.3.1/../../../../pic32mx/lib/fpu64/libpic32.a(default-on-bootstrap.o)
 .MIPS.abiflags
                0x0000000000000000       0x18 /opt/microchip/xc32/v4.20/bin/bin/../../lib/gcc/pic32mx/8.3.1/../../../../pic32mx/lib/fpu64/libpic32.a(default-on-bootstrap.o)
 .xc_stack_usage
                0x0000000000000000       0x1b /opt/microchip/xc32/v4.20/bin/bin/../../lib/gcc/pic32mx/8.3.1/../../../../pic32mx/lib/fpu64/libpic32.a(default-on-bootstrap.o)
 .xc_stack_usage.hdr
                0x0000000000000000        0xe /opt/microchip/xc32/v4.20/bin/bin/../../lib/gcc/pic32mx/8.3.1/../../../../pic32mx/lib/fpu64/libpic32.a(default-on-bootstrap.o)
 .data          0x0000000000000000        0x0 /opt/microchip/xc32/v4.20/bin/bin/../../lib/gcc/pic32mx/8.3.1/../../../../pic32mx/lib/fpu64/libpic32.a(default-nmi-handler.o)
 .bss           0x0000000000000000        0x0 /opt/microchip/xc32/v4.20/bin/bin/../../lib/gcc/pic32mx/8.3.1/../../../../pic32mx/lib/fpu64/libpic32.a(default-nmi-handler.o)
 .reginfo       0x0000000000000000       0x18 /opt/microchip/xc32/v4.20/bin/bin/../../lib/gcc/pic32mx/8.3.1/../../../../pic32mx/lib/fpu64/libpic32.a(default-nmi-handler.o)
 .MIPS.abiflags
                0x0000000000000000       0x18 /opt/microchip/xc32/v4.20/bin/bin/../../lib/gcc/pic32mx/8.3.1/../../../../pic32mx/lib/fpu64/libpic32.a(default-nmi-handler.o)
 .xc_stack_usage.hdr
                0x0000000000000000        0xe /opt/microchip/xc32/v4.20/bin/bin/../../lib/gcc/pic32mx/8.3.1/../../../../pic32mx/lib/fpu64/libpic32.a(default-nmi-handler.o)
 .xc_stack_usage
                0x0000000000000000       0x1a /opt/microchip/xc32/v4.20/bin/bin/../../lib/gcc/pic32mx/8.3.1/../../../../pic32mx/lib/fpu64/libpic32.a(default-nmi-handler.o)
 .text          0x0000000000000000        0x0 /opt/microchip/xc32/v4.20/bin/bin/../../lib/gcc/pic32mx/8.3.1/../../../../pic32mx/lib/fpu64/libpic32.a(pic32_data_init_wrapper.o)
 .data          0x0000000000000000        0x0 /opt/microchip/xc32/v4.20/bin/bin/../../lib/gcc/pic32mx/8.3.1/../../../../pic32mx/lib/fpu64/libpic32.a(pic32_data_init_wrapper.o)
 .bss           0x0000000000000000        0x0 /opt/microchip/xc32/v4.20/bin/bin/../../lib/gcc/pic32mx/8.3.1/../../../../pic32mx/lib/fpu64/libpic32.a(pic32_data_init_wrapper.o)
 .reginfo       0x0000000000000000       0x18 /opt/microchip/xc32/v4.20/bin/bin/../../lib/gcc/pic32mx/8.3.1/../../../../pic32mx/lib/fpu64/libpic32.a(pic32_data_init_wrapper.o)
 .MIPS.abiflags
                0x0000000000000000       0x18 /opt/microchip/xc32/v4.20/bin/bin/../../lib/gcc/pic32mx/8.3.1/../../../../pic32mx/lib/fpu64/libpic32.a(pic32_data_init_wrapper.o)
 .xc_stack_usage.hdr
                0x0000000000000000        0xe /opt/microchip/xc32/v4.20/bin/bin/../../lib/gcc/pic32mx/8.3.1/../../../../pic32mx/lib/fpu64/libpic32.a(pic32_data_init_wrapper.o)
 .xc_stack_usage
                0x0000000000000000       0x1f /opt/microchip/xc32/v4.20/bin/bin/../../lib/gcc/pic32mx/8.3.1/../../../../pic32mx/lib/fpu64/libpic32.a(pic32_data_init_wrapper.o)
 .text          0x0000000000000000        0x0 /opt/microchip/xc32/v4.20/bin/bin/../../lib/gcc/pic32mx/8.3.1/../../../../pic32mx/lib/fpu64/libpic32.a(pic32_data_init_0_1.o)
 .data          0x0000000000000000        0x0 /opt/microchip/xc32/v4.20/bin/bin/../../lib/gcc/pic32mx/8.3.1/../../../../pic32mx/lib/fpu64/libpic32.a(pic32_data_init_0_1.o)
 .bss           0x0000000000000000        0x0 /opt/microchip/xc32/v4.20/bin/bin/../../lib/gcc/pic32mx/8.3.1/../../../../pic32mx/lib/fpu64/libpic32.a(pic32_data_init_0_1.o)
 .reginfo       0x0000000000000000       0x18 /opt/microchip/xc32/v4.20/bin/bin/../../lib/gcc/pic32mx/8.3.1/../../../../pic32mx/lib/fpu64/libpic32.a(pic32_data_init_0_1.o)
 .MIPS.abiflags
                0x0000000000000000       0x18 /opt/microchip/xc32/v4.20/bin/bin/../../lib/gcc/pic32mx/8.3.1/../../../../pic32mx/lib/fpu64/libpic32.a(pic32_data_init_0_1.o)
 .xc_stack_usage.hdr
                0x0000000000000000        0xe /opt/microchip/xc32/v4.20/bin/bin/../../lib/gcc/pic32mx/8.3.1/../../../../pic32mx/lib/fpu64/libpic32.a(pic32_data_init_0_1.o)
 .xc_stack_usage
                0x0000000000000000       0x24 /opt/microchip/xc32/v4.20/bin/bin/../../lib/gcc/pic32mx/8.3.1/../../../../pic32mx/lib/fpu64/libpic32.a(pic32_data_init_0_1.o)
 .text          0x0000000000000000        0x0 /opt/microchip/xc32/v4.20/bin/bin/../../lib/gcc/pic32mx/8.3.1/../../../../pic32mx/lib/fpu64/libpic32.a(general-exception.o)
 .data          0x0000000000000000        0x0 /opt/microchip/xc32/v4.20/bin/bin/../../lib/gcc/pic32mx/8.3.1/../../../../pic32mx/lib/fpu64/libpic32.a(general-exception.o)
 .bss           0x0000000000000000        0x0 /opt/microchip/xc32/v4.20/bin/bin/../../lib/gcc/pic32mx/8.3.1/../../../../pic32mx/lib/fpu64/libpic32.a(general-exception.o)
 .reginfo       0x0000000000000000       0x18 /opt/microchip/xc32/v4.20/bin/bin/../../lib/gcc/pic32mx/8.3.1/../../../../pic32mx/lib/fpu64/libpic32.a(general-exception.o)
 .MIPS.abiflags
                0x0000000000000000       0x18 /opt/microchip/xc32/v4.20/bin/bin/../../lib/gcc/pic32mx/8.3.1/../../../../pic32mx/lib/fpu64/libpic32.a(general-exception.o)
 .xc_stack_usage.hdr
                0x0000000000000000        0xe /opt/microchip/xc32/v4.20/bin/bin/../../lib/gcc/pic32mx/8.3.1/../../../../pic32mx/lib/fpu64/libpic32.a(general-exception.o)
 .xc_stack_usage
                0x0000000000000000       0x28 /opt/microchip/xc32/v4.20/bin/bin/../../lib/gcc/pic32mx/8.3.1/../../../../pic32mx/lib/fpu64/libpic32.a(general-exception.o)
 .text          0x0000000000000000        0x0 /opt/microchip/xc32/v4.20/bin/bin/../../lib/gcc/pic32mx/8.3.1/../../../../pic32mx/lib/fpu64/libpic32.a(defaultinterrupt.o)
 .data          0x0000000000000000        0x0 /opt/microchip/xc32/v4.20/bin/bin/../../lib/gcc/pic32mx/8.3.1/../../../../pic32mx/lib/fpu64/libpic32.a(defaultinterrupt.o)
 .bss           0x0000000000000000        0x0 /opt/microchip/xc32/v4.20/bin/bin/../../lib/gcc/pic32mx/8.3.1/../../../../pic32mx/lib/fpu64/libpic32.a(defaultinterrupt.o)
 .reginfo       0x0000000000000000       0x18 /opt/microchip/xc32/v4.20/bin/bin/../../lib/gcc/pic32mx/8.3.1/../../../../pic32mx/lib/fpu64/libpic32.a(defaultinterrupt.o)
 .MIPS.abiflags
                0x0000000000000000       0x18 /opt/microchip/xc32/v4.20/bin/bin/../../lib/gcc/pic32mx/8.3.1/../../../../pic32mx/lib/fpu64/libpic32.a(defaultinterrupt.o)
 .xc_stack_usage
                0x0000000000000000       0x1f /opt/microchip/xc32/v4.20/bin/bin/../../lib/gcc/pic32mx/8.3.1/../../../../pic32mx/lib/fpu64/libpic32.a(defaultinterrupt.o)
 .xc_stack_usage.hdr
                0x0000000000000000        0xe /opt/microchip/xc32/v4.20/bin/bin/../../lib/gcc/pic32mx/8.3.1/../../../../pic32mx/lib/fpu64/libpic32.a(defaultinterrupt.o)
 .text          0x0000000000000000        0x0 /opt/microchip/xc32/v4.20/bin/bin/../../lib/gcc/pic32mx/8.3.1/../../../../pic32mx/lib/fpu64/libc-musl.a(__sio_sprintf_dfoux.o)
 .data          0x0000000000000000        0x0 /opt/microchip/xc32/v4.20/bin/bin/../../lib/gcc/pic32mx/8.3.1/../../../../pic32mx/lib/fpu64/libc-musl.a(__sio_sprintf_dfoux.o)
 .bss           0x0000000000000000        0x0 /opt/microchip/xc32/v4.20/bin/bin/../../lib/gcc/pic32mx/8.3.1/../../../../pic32mx/lib/fpu64/libc-musl.a(__sio_sprintf_dfoux.o)
 .reginfo       0x0000000000000000       0x18 /opt/microchip/xc32/v4.20/bin/bin/../../lib/gcc/pic32mx/8.3.1/../../../../pic32mx/lib/fpu64/libc-musl.a(__sio_sprintf_dfoux.o)
 .MIPS.abiflags
                0x0000000000000000       0x18 /opt/microchip/xc32/v4.20/bin/bin/../../lib/gcc/pic32mx/8.3.1/../../../../pic32mx/lib/fpu64/libc-musl.a(__sio_sprintf_dfoux.o)
 .xc_stack_usage
                0x0000000000000000       0x3d /opt/microchip/xc32/v4.20/bin/bin/../../lib/gcc/pic32mx/8.3.1/../../../../pic32mx/lib/fpu64/libc-musl.a(__sio_sprintf_dfoux.o)
 .text.__sio_sprintf_dfoux
                0x0000000000000000       0x5c /opt/microchip/xc32/v4.20/bin/bin/../../lib/gcc/pic32mx/8.3.1/../../../../pic32mx/lib/fpu64/libc-musl.a(__sio_sprintf_dfoux.o)
 .xc_stack_usage.hdr
                0x0000000000000000        0xe /opt/microchip/xc32/v4.20/bin/bin/../../lib/gcc/pic32mx/8.3.1/../../../../pic32mx/lib/fpu64/libc-musl.a(__sio_sprintf_dfoux.o)
 .note.GNU-stack
                0x0000000000000000        0x0 /opt/microchip/xc32/v4.20/bin/bin/../../lib/gcc/pic32mx/8.3.1/../../../../pic32mx/lib/fpu64/libc-musl.a(__sio_sprintf_dfoux.o)
 .text          0x0000000000000000        0x0 /opt/microchip/xc32/v4.20/bin/bin/../../lib/gcc/pic32mx/8.3.1/../../../../pic32mx/lib/fpu64/libc-musl.a(__fmt_d.o)
 .data          0x0000000000000000        0x0 /opt/microchip/xc32/v4.20/bin/bin/../../lib/gcc/pic32mx/8.3.1/../../../../pic32mx/lib/fpu64/libc-musl.a(__fmt_d.o)
 .bss           0x0000000000000000        0x0 /opt/microchip/xc32/v4.20/bin/bin/../../lib/gcc/pic32mx/8.3.1/../../../../pic32mx/lib/fpu64/libc-musl.a(__fmt_d.o)
 .reginfo       0x0000000000000000       0x18 /opt/microchip/xc32/v4.20/bin/bin/../../lib/gcc/pic32mx/8.3.1/../../../../pic32mx/lib/fpu64/libc-musl.a(__fmt_d.o)
 .MIPS.abiflags
                0x0000000000000000       0x18 /opt/microchip/xc32/v4.20/bin/bin/../../lib/gcc/pic32mx/8.3.1/../../../../pic32mx/lib/fpu64/libc-musl.a(__fmt_d.o)
 .xc_stack_usage
                0x0000000000000000       0x15 /opt/microchip/xc32/v4.20/bin/bin/../../lib/gcc/pic32mx/8.3.1/../../../../pic32mx/lib/fpu64/libc-musl.a(__fmt_d.o)
 .xc_stack_usage.hdr
                0x0000000000000000        0xe /opt/microchip/xc32/v4.20/bin/bin/../../lib/gcc/pic32mx/8.3.1/../../../../pic32mx/lib/fpu64/libc-musl.a(__fmt_d.o)
 .note.GNU-stack
                0x0000000000000000        0x0 /opt/microchip/xc32/v4.20/bin/bin/../../lib/gcc/pic32mx/8.3.1/../../../../pic32mx/lib/fpu64/libc-musl.a(__fmt_d.o)
 .text          0x0000000000000000        0x0 /opt/microchip/xc32/v4.20/bin/bin/../../lib/gcc/pic32mx/8.3.1/../../../../pic32mx/lib/fpu64/libc-musl.a(__fmt_fp.o)
 .data          0x0000000000000000        0x0 /opt/microchip/xc32/v4.20/bin/bin/../../lib/gcc/pic32mx/8.3.1/../../../../pic32mx/lib/fpu64/libc-musl.a(__fmt_fp.o)
 .bss           0x0000000000000000        0x0 /opt/microchip/xc32/v4.20/bin/bin/../../lib/gcc/pic32mx/8.3.1/../../../../pic32mx/lib/fpu64/libc-musl.a(__fmt_fp.o)
 .reginfo       0x0000000000000000       0x18 /opt/microchip/xc32/v4.20/bin/bin/../../lib/gcc/pic32mx/8.3.1/../../../../pic32mx/lib/fpu64/libc-musl.a(__fmt_fp.o)
 .MIPS.abiflags
                0x0000000000000000       0x18 /opt/microchip/xc32/v4.20/bin/bin/../../lib/gcc/pic32mx/8.3.1/../../../../pic32mx/lib/fpu64/libc-musl.a(__fmt_fp.o)
 .xc_stack_usage
                0x0000000000000000       0x16 /opt/microchip/xc32/v4.20/bin/bin/../../lib/gcc/pic32mx/8.3.1/../../../../pic32mx/lib/fpu64/libc-musl.a(__fmt_fp.o)
 .xc_stack_usage.hdr
                0x0000000000000000        0xe /opt/microchip/xc32/v4.20/bin/bin/../../lib/gcc/pic32mx/8.3.1/../../../../pic32mx/lib/fpu64/libc-musl.a(__fmt_fp.o)
 .note.GNU-stack
                0x0000000000000000        0x0 /opt/microchip/xc32/v4.20/bin/bin/../../lib/gcc/pic32mx/8.3.1/../../../../pic32mx/lib/fpu64/libc-musl.a(__fmt_fp.o)
 .text          0x0000000000000000        0x0 /opt/microchip/xc32/v4.20/bin/bin/../../lib/gcc/pic32mx/8.3.1/../../../../pic32mx/lib/fpu64/libc-musl.a(__fmt_o.o)
 .data          0x0000000000000000        0x0 /opt/microchip/xc32/v4.20/bin/bin/../../lib/gcc/pic32mx/8.3.1/../../../../pic32mx/lib/fpu64/libc-musl.a(__fmt_o.o)
 .bss           0x0000000000000000        0x0 /opt/microchip/xc32/v4.20/bin/bin/../../lib/gcc/pic32mx/8.3.1/../../../../pic32mx/lib/fpu64/libc-musl.a(__fmt_o.o)
 .reginfo       0x0000000000000000       0x18 /opt/microchip/xc32/v4.20/bin/bin/../../lib/gcc/pic32mx/8.3.1/../../../../pic32mx/lib/fpu64/libc-musl.a(__fmt_o.o)
 .MIPS.abiflags
                0x0000000000000000       0x18 /opt/microchip/xc32/v4.20/bin/bin/../../lib/gcc/pic32mx/8.3.1/../../../../pic32mx/lib/fpu64/libc-musl.a(__fmt_o.o)
 .xc_stack_usage
                0x0000000000000000       0x15 /opt/microchip/xc32/v4.20/bin/bin/../../lib/gcc/pic32mx/8.3.1/../../../../pic32mx/lib/fpu64/libc-musl.a(__fmt_o.o)
 .xc_stack_usage.hdr
                0x0000000000000000        0xe /opt/microchip/xc32/v4.20/bin/bin/../../lib/gcc/pic32mx/8.3.1/../../../../pic32mx/lib/fpu64/libc-musl.a(__fmt_o.o)
 .note.GNU-stack
                0x0000000000000000        0x0 /opt/microchip/xc32/v4.20/bin/bin/../../lib/gcc/pic32mx/8.3.1/../../../../pic32mx/lib/fpu64/libc-musl.a(__fmt_o.o)
 .text          0x0000000000000000        0x0 /opt/microchip/xc32/v4.20/bin/bin/../../lib/gcc/pic32mx/8.3.1/../../../../pic32mx/lib/fpu64/libc-musl.a(__fmt_s.o)
 .data          0x0000000000000000        0x0 /opt/microchip/xc32/v4.20/bin/bin/../../lib/gcc/pic32mx/8.3.1/../../../../pic32mx/lib/fpu64/libc-musl.a(__fmt_s.o)
 .bss           0x0000000000000000        0x0 /opt/microchip/xc32/v4.20/bin/bin/../../lib/gcc/pic32mx/8.3.1/../../../../pic32mx/lib/fpu64/libc-musl.a(__fmt_s.o)
 .reginfo       0x0000000000000000       0x18 /opt/microchip/xc32/v4.20/bin/bin/../../lib/gcc/pic32mx/8.3.1/../../../../pic32mx/lib/fpu64/libc-musl.a(__fmt_s.o)
 .MIPS.abiflags
                0x0000000000000000       0x18 /opt/microchip/xc32/v4.20/bin/bin/../../lib/gcc/pic32mx/8.3.1/../../../../pic32mx/lib/fpu64/libc-musl.a(__fmt_s.o)
 .xc_stack_usage
                0x0000000000000000       0x15 /opt/microchip/xc32/v4.20/bin/bin/../../lib/gcc/pic32mx/8.3.1/../../../../pic32mx/lib/fpu64/libc-musl.a(__fmt_s.o)
 .xc_stack_usage.hdr
                0x0000000000000000        0xe /opt/microchip/xc32/v4.20/bin/bin/../../lib/gcc/pic32mx/8.3.1/../../../../pic32mx/lib/fpu64/libc-musl.a(__fmt_s.o)
 .note.GNU-stack
                0x0000000000000000        0x0 /opt/microchip/xc32/v4.20/bin/bin/../../lib/gcc/pic32mx/8.3.1/../../../../pic32mx/lib/fpu64/libc-musl.a(__fmt_s.o)
 .text          0x0000000000000000        0x0 /opt/microchip/xc32/v4.20/bin/bin/../../lib/gcc/pic32mx/8.3.1/../../../../pic32mx/lib/fpu64/libc-musl.a(__fmt_u.o)
 .data          0x0000000000000000        0x0 /opt/microchip/xc32/v4.20/bin/bin/../../lib/gcc/pic32mx/8.3.1/../../../../pic32mx/lib/fpu64/libc-musl.a(__fmt_u.o)
 .bss           0x0000000000000000        0x0 /opt/microchip/xc32/v4.20/bin/bin/../../lib/gcc/pic32mx/8.3.1/../../../../pic32mx/lib/fpu64/libc-musl.a(__fmt_u.o)
 .reginfo       0x0000000000000000       0x18 /opt/microchip/xc32/v4.20/bin/bin/../../lib/gcc/pic32mx/8.3.1/../../../../pic32mx/lib/fpu64/libc-musl.a(__fmt_u.o)
 .MIPS.abiflags
                0x0000000000000000       0x18 /opt/microchip/xc32/v4.20/bin/bin/../../lib/gcc/pic32mx/8.3.1/../../../../pic32mx/lib/fpu64/libc-musl.a(__fmt_u.o)
 .xc_stack_usage
                0x0000000000000000       0x2a /opt/microchip/xc32/v4.20/bin/bin/../../lib/gcc/pic32mx/8.3.1/../../../../pic32mx/lib/fpu64/libc-musl.a(__fmt_u.o)
 .xc_stack_usage.hdr
                0x0000000000000000        0xe /opt/microchip/xc32/v4.20/bin/bin/../../lib/gcc/pic32mx/8.3.1/../../../../pic32mx/lib/fpu64/libc-musl.a(__fmt_u.o)
 .note.GNU-stack
                0x0000000000000000        0x0 /opt/microchip/xc32/v4.20/bin/bin/../../lib/gcc/pic32mx/8.3.1/../../../../pic32mx/lib/fpu64/libc-musl.a(__fmt_u.o)
 .text          0x0000000000000000        0x0 /opt/microchip/xc32/v4.20/bin/bin/../../lib/gcc/pic32mx/8.3.1/../../../../pic32mx/lib/fpu64/libc-musl.a(__fmt_x.o)
 .data          0x0000000000000000        0x0 /opt/microchip/xc32/v4.20/bin/bin/../../lib/gcc/pic32mx/8.3.1/../../../../pic32mx/lib/fpu64/libc-musl.a(__fmt_x.o)
 .bss           0x0000000000000000        0x0 /opt/microchip/xc32/v4.20/bin/bin/../../lib/gcc/pic32mx/8.3.1/../../../../pic32mx/lib/fpu64/libc-musl.a(__fmt_x.o)
 .reginfo       0x0000000000000000       0x18 /opt/microchip/xc32/v4.20/bin/bin/../../lib/gcc/pic32mx/8.3.1/../../../../pic32mx/lib/fpu64/libc-musl.a(__fmt_x.o)
 .MIPS.abiflags
                0x0000000000000000       0x18 /opt/microchip/xc32/v4.20/bin/bin/../../lib/gcc/pic32mx/8.3.1/../../../../pic32mx/lib/fpu64/libc-musl.a(__fmt_x.o)
 .xc_stack_usage
                0x0000000000000000       0x15 /opt/microchip/xc32/v4.20/bin/bin/../../lib/gcc/pic32mx/8.3.1/../../../../pic32mx/lib/fpu64/libc-musl.a(__fmt_x.o)
 .xc_stack_usage.hdr
                0x0000000000000000        0xe /opt/microchip/xc32/v4.20/bin/bin/../../lib/gcc/pic32mx/8.3.1/../../../../pic32mx/lib/fpu64/libc-musl.a(__fmt_x.o)
 .note.GNU-stack
                0x0000000000000000        0x0 /opt/microchip/xc32/v4.20/bin/bin/../../lib/gcc/pic32mx/8.3.1/../../../../pic32mx/lib/fpu64/libc-musl.a(__fmt_x.o)
 .text          0x0000000000000000        0x0 /opt/microchip/xc32/v4.20/bin/bin/../../lib/gcc/pic32mx/8.3.1/../../../../pic32mx/lib/fpu64/libc-musl.a(__pop_float.o)
 .data          0x0000000000000000        0x0 /opt/microchip/xc32/v4.20/bin/bin/../../lib/gcc/pic32mx/8.3.1/../../../../pic32mx/lib/fpu64/libc-musl.a(__pop_float.o)
 .bss           0x0000000000000000        0x0 /opt/microchip/xc32/v4.20/bin/bin/../../lib/gcc/pic32mx/8.3.1/../../../../pic32mx/lib/fpu64/libc-musl.a(__pop_float.o)
 .reginfo       0x0000000000000000       0x18 /opt/microchip/xc32/v4.20/bin/bin/../../lib/gcc/pic32mx/8.3.1/../../../../pic32mx/lib/fpu64/libc-musl.a(__pop_float.o)
 .MIPS.abiflags
                0x0000000000000000       0x18 /opt/microchip/xc32/v4.20/bin/bin/../../lib/gcc/pic32mx/8.3.1/../../../../pic32mx/lib/fpu64/libc-musl.a(__pop_float.o)
 .xc_stack_usage
                0x0000000000000000       0x19 /opt/microchip/xc32/v4.20/bin/bin/../../lib/gcc/pic32mx/8.3.1/../../../../pic32mx/lib/fpu64/libc-musl.a(__pop_float.o)
 .xc_stack_usage.hdr
                0x0000000000000000        0xe /opt/microchip/xc32/v4.20/bin/bin/../../lib/gcc/pic32mx/8.3.1/../../../../pic32mx/lib/fpu64/libc-musl.a(__pop_float.o)
 .note.GNU-stack
                0x0000000000000000        0x0 /opt/microchip/xc32/v4.20/bin/bin/../../lib/gcc/pic32mx/8.3.1/../../../../pic32mx/lib/fpu64/libc-musl.a(__pop_float.o)
 .text          0x0000000000000000        0x0 /opt/microchip/xc32/v4.20/bin/bin/../../lib/gcc/pic32mx/8.3.1/../../../../pic32mx/lib/fpu64/libc-musl.a(__pop_int.o)
 .data          0x0000000000000000        0x0 /opt/microchip/xc32/v4.20/bin/bin/../../lib/gcc/pic32mx/8.3.1/../../../../pic32mx/lib/fpu64/libc-musl.a(__pop_int.o)
 .bss           0x0000000000000000        0x0 /opt/microchip/xc32/v4.20/bin/bin/../../lib/gcc/pic32mx/8.3.1/../../../../pic32mx/lib/fpu64/libc-musl.a(__pop_int.o)
 .reginfo       0x0000000000000000       0x18 /opt/microchip/xc32/v4.20/bin/bin/../../lib/gcc/pic32mx/8.3.1/../../../../pic32mx/lib/fpu64/libc-musl.a(__pop_int.o)
 .MIPS.abiflags
                0x0000000000000000       0x18 /opt/microchip/xc32/v4.20/bin/bin/../../lib/gcc/pic32mx/8.3.1/../../../../pic32mx/lib/fpu64/libc-musl.a(__pop_int.o)
 .xc_stack_usage
                0x0000000000000000       0x17 /opt/microchip/xc32/v4.20/bin/bin/../../lib/gcc/pic32mx/8.3.1/../../../../pic32mx/lib/fpu64/libc-musl.a(__pop_int.o)
 .xc_stack_usage.hdr
                0x0000000000000000        0xe /opt/microchip/xc32/v4.20/bin/bin/../../lib/gcc/pic32mx/8.3.1/../../../../pic32mx/lib/fpu64/libc-musl.a(__pop_int.o)
 .note.GNU-stack
                0x0000000000000000        0x0 /opt/microchip/xc32/v4.20/bin/bin/../../lib/gcc/pic32mx/8.3.1/../../../../pic32mx/lib/fpu64/libc-musl.a(__pop_int.o)
 .text          0x0000000000000000        0x0 /opt/microchip/xc32/v4.20/bin/bin/../../lib/gcc/pic32mx/8.3.1/../../../../pic32mx/lib/fpu64/libc-musl.a(__pop_ptr.o)
 .data          0x0000000000000000        0x0 /opt/microchip/xc32/v4.20/bin/bin/../../lib/gcc/pic32mx/8.3.1/../../../../pic32mx/lib/fpu64/libc-musl.a(__pop_ptr.o)
 .bss           0x0000000000000000        0x0 /opt/microchip/xc32/v4.20/bin/bin/../../lib/gcc/pic32mx/8.3.1/../../../../pic32mx/lib/fpu64/libc-musl.a(__pop_ptr.o)
 .reginfo       0x0000000000000000       0x18 /opt/microchip/xc32/v4.20/bin/bin/../../lib/gcc/pic32mx/8.3.1/../../../../pic32mx/lib/fpu64/libc-musl.a(__pop_ptr.o)
 .MIPS.abiflags
                0x0000000000000000       0x18 /opt/microchip/xc32/v4.20/bin/bin/../../lib/gcc/pic32mx/8.3.1/../../../../pic32mx/lib/fpu64/libc-musl.a(__pop_ptr.o)
 .xc_stack_usage
                0x0000000000000000       0x17 /opt/microchip/xc32/v4.20/bin/bin/../../lib/gcc/pic32mx/8.3.1/../../../../pic32mx/lib/fpu64/libc-musl.a(__pop_ptr.o)
 .xc_stack_usage.hdr
                0x0000000000000000        0xe /opt/microchip/xc32/v4.20/bin/bin/../../lib/gcc/pic32mx/8.3.1/../../../../pic32mx/lib/fpu64/libc-musl.a(__pop_ptr.o)
 .note.GNU-stack
                0x0000000000000000        0x0 /opt/microchip/xc32/v4.20/bin/bin/../../lib/gcc/pic32mx/8.3.1/../../../../pic32mx/lib/fpu64/libc-musl.a(__pop_ptr.o)
 .text          0x0000000000000000        0x0 /opt/microchip/xc32/v4.20/bin/bin/../../lib/gcc/pic32mx/8.3.1/../../../../pic32mx/lib/fpu64/libc-musl.a(__printf_core.o)
 .data          0x0000000000000000        0x0 /opt/microchip/xc32/v4.20/bin/bin/../../lib/gcc/pic32mx/8.3.1/../../../../pic32mx/lib/fpu64/libc-musl.a(__printf_core.o)
 .bss           0x0000000000000000        0x0 /opt/microchip/xc32/v4.20/bin/bin/../../lib/gcc/pic32mx/8.3.1/../../../../pic32mx/lib/fpu64/libc-musl.a(__printf_core.o)
 .reginfo       0x0000000000000000       0x18 /opt/microchip/xc32/v4.20/bin/bin/../../lib/gcc/pic32mx/8.3.1/../../../../pic32mx/lib/fpu64/libc-musl.a(__printf_core.o)
 .MIPS.abiflags
                0x0000000000000000       0x18 /opt/microchip/xc32/v4.20/bin/bin/../../lib/gcc/pic32mx/8.3.1/../../../../pic32mx/lib/fpu64/libc-musl.a(__printf_core.o)
 .xc_stack_usage
                0x0000000000000000       0xaf /opt/microchip/xc32/v4.20/bin/bin/../../lib/gcc/pic32mx/8.3.1/../../../../pic32mx/lib/fpu64/libc-musl.a(__printf_core.o)
 .text.__string_out
                0x0000000000000000       0x5c /opt/microchip/xc32/v4.20/bin/bin/../../lib/gcc/pic32mx/8.3.1/../../../../pic32mx/lib/fpu64/libc-musl.a(__printf_core.o)
 .text.__dummy_fmt3
                0x0000000000000000        0x8 /opt/microchip/xc32/v4.20/bin/bin/../../lib/gcc/pic32mx/8.3.1/../../../../pic32mx/lib/fpu64/libc-musl.a(__printf_core.o)
 .text.__dummy_fmt4
                0x0000000000000000        0x8 /opt/microchip/xc32/v4.20/bin/bin/../../lib/gcc/pic32mx/8.3.1/../../../../pic32mx/lib/fpu64/libc-musl.a(__printf_core.o)
 .text.__dummy_fmts
                0x0000000000000000        0x8 /opt/microchip/xc32/v4.20/bin/bin/../../lib/gcc/pic32mx/8.3.1/../../../../pic32mx/lib/fpu64/libc-musl.a(__printf_core.o)
 .xc_stack_usage.hdr
                0x0000000000000000        0xe /opt/microchip/xc32/v4.20/bin/bin/../../lib/gcc/pic32mx/8.3.1/../../../../pic32mx/lib/fpu64/libc-musl.a(__printf_core.o)
 .note.GNU-stack
                0x0000000000000000        0x0 /opt/microchip/xc32/v4.20/bin/bin/../../lib/gcc/pic32mx/8.3.1/../../../../pic32mx/lib/fpu64/libc-musl.a(__printf_core.o)
 .text          0x0000000000000000        0x0 /opt/microchip/xc32/v4.20/bin/bin/../../lib/gcc/pic32mx/8.3.1/../../../../pic32mx/lib/fpu64/libc-musl.a(stdin.o)
 .reginfo       0x0000000000000000       0x18 /opt/microchip/xc32/v4.20/bin/bin/../../lib/gcc/pic32mx/8.3.1/../../../../pic32mx/lib/fpu64/libc-musl.a(stdin.o)
 .MIPS.abiflags
                0x0000000000000000       0x18 /opt/microchip/xc32/v4.20/bin/bin/../../lib/gcc/pic32mx/8.3.1/../../../../pic32mx/lib/fpu64/libc-musl.a(stdin.o)
 .xc_stack_usage
                0x0000000000000000       0x33 /opt/microchip/xc32/v4.20/bin/bin/../../lib/gcc/pic32mx/8.3.1/../../../../pic32mx/lib/fpu64/libc-musl.a(stdin.o)
 .xc_stack_usage.hdr
                0x0000000000000000        0xe /opt/microchip/xc32/v4.20/bin/bin/../../lib/gcc/pic32mx/8.3.1/../../../../pic32mx/lib/fpu64/libc-musl.a(stdin.o)
 .note.GNU-stack
                0x0000000000000000        0x0 /opt/microchip/xc32/v4.20/bin/bin/../../lib/gcc/pic32mx/8.3.1/../../../../pic32mx/lib/fpu64/libc-musl.a(stdin.o)
 .text          0x0000000000000000        0x0 /opt/microchip/xc32/v4.20/bin/bin/../../lib/gcc/pic32mx/8.3.1/../../../../pic32mx/lib/fpu64/libc-musl.a(stdout.o)
 .bss           0x0000000000000000        0x0 /opt/microchip/xc32/v4.20/bin/bin/../../lib/gcc/pic32mx/8.3.1/../../../../pic32mx/lib/fpu64/libc-musl.a(stdout.o)
 .reginfo       0x0000000000000000       0x18 /opt/microchip/xc32/v4.20/bin/bin/../../lib/gcc/pic32mx/8.3.1/../../../../pic32mx/lib/fpu64/libc-musl.a(stdout.o)
 .MIPS.abiflags
                0x0000000000000000       0x18 /opt/microchip/xc32/v4.20/bin/bin/../../lib/gcc/pic32mx/8.3.1/../../../../pic32mx/lib/fpu64/libc-musl.a(stdout.o)
 .xc_stack_usage
                0x0000000000000000       0x3c /opt/microchip/xc32/v4.20/bin/bin/../../lib/gcc/pic32mx/8.3.1/../../../../pic32mx/lib/fpu64/libc-musl.a(stdout.o)
 .text.__init_stdout
                0x0000000000000000       0x20 /opt/microchip/xc32/v4.20/bin/bin/../../lib/gcc/pic32mx/8.3.1/../../../../pic32mx/lib/fpu64/libc-musl.a(stdout.o)
 .xc_stack_usage.hdr
                0x0000000000000000        0xe /opt/microchip/xc32/v4.20/bin/bin/../../lib/gcc/pic32mx/8.3.1/../../../../pic32mx/lib/fpu64/libc-musl.a(stdout.o)
 .note.GNU-stack
                0x0000000000000000        0x0 /opt/microchip/xc32/v4.20/bin/bin/../../lib/gcc/pic32mx/8.3.1/../../../../pic32mx/lib/fpu64/libc-musl.a(stdout.o)
 .text          0x0000000000000000        0x0 /opt/microchip/xc32/v4.20/bin/bin/../../lib/gcc/pic32mx/8.3.1/../../../../pic32mx/lib/fpu64/libc-musl.a(setbuf.o)
 .data          0x0000000000000000        0x0 /opt/microchip/xc32/v4.20/bin/bin/../../lib/gcc/pic32mx/8.3.1/../../../../pic32mx/lib/fpu64/libc-musl.a(setbuf.o)
 .bss           0x0000000000000000        0x0 /opt/microchip/xc32/v4.20/bin/bin/../../lib/gcc/pic32mx/8.3.1/../../../../pic32mx/lib/fpu64/libc-musl.a(setbuf.o)
 .reginfo       0x0000000000000000       0x18 /opt/microchip/xc32/v4.20/bin/bin/../../lib/gcc/pic32mx/8.3.1/../../../../pic32mx/lib/fpu64/libc-musl.a(setbuf.o)
 .MIPS.abiflags
                0x0000000000000000       0x18 /opt/microchip/xc32/v4.20/bin/bin/../../lib/gcc/pic32mx/8.3.1/../../../../pic32mx/lib/fpu64/libc-musl.a(setbuf.o)
 .xc_stack_usage
                0x0000000000000000       0x14 /opt/microchip/xc32/v4.20/bin/bin/../../lib/gcc/pic32mx/8.3.1/../../../../pic32mx/lib/fpu64/libc-musl.a(setbuf.o)
 .xc_stack_usage.hdr
                0x0000000000000000        0xe /opt/microchip/xc32/v4.20/bin/bin/../../lib/gcc/pic32mx/8.3.1/../../../../pic32mx/lib/fpu64/libc-musl.a(setbuf.o)
 .note.GNU-stack
                0x0000000000000000        0x0 /opt/microchip/xc32/v4.20/bin/bin/../../lib/gcc/pic32mx/8.3.1/../../../../pic32mx/lib/fpu64/libc-musl.a(setbuf.o)
 .text          0x0000000000000000        0x0 /opt/microchip/xc32/v4.20/bin/bin/../../lib/gcc/pic32mx/8.3.1/../../../../pic32mx/lib/fpu64/libc-musl.a(vprintf.o)
 .data          0x0000000000000000        0x0 /opt/microchip/xc32/v4.20/bin/bin/../../lib/gcc/pic32mx/8.3.1/../../../../pic32mx/lib/fpu64/libc-musl.a(vprintf.o)
 .bss           0x0000000000000000        0x0 /opt/microchip/xc32/v4.20/bin/bin/../../lib/gcc/pic32mx/8.3.1/../../../../pic32mx/lib/fpu64/libc-musl.a(vprintf.o)
 .reginfo       0x0000000000000000       0x18 /opt/microchip/xc32/v4.20/bin/bin/../../lib/gcc/pic32mx/8.3.1/../../../../pic32mx/lib/fpu64/libc-musl.a(vprintf.o)
 .MIPS.abiflags
                0x0000000000000000       0x18 /opt/microchip/xc32/v4.20/bin/bin/../../lib/gcc/pic32mx/8.3.1/../../../../pic32mx/lib/fpu64/libc-musl.a(vprintf.o)
 .xc_stack_usage
                0x0000000000000000       0x15 /opt/microchip/xc32/v4.20/bin/bin/../../lib/gcc/pic32mx/8.3.1/../../../../pic32mx/lib/fpu64/libc-musl.a(vprintf.o)
 .text.vprintf  0x0000000000000000       0x30 /opt/microchip/xc32/v4.20/bin/bin/../../lib/gcc/pic32mx/8.3.1/../../../../pic32mx/lib/fpu64/libc-musl.a(vprintf.o)
 .xc_stack_usage.hdr
                0x0000000000000000        0xe /opt/microchip/xc32/v4.20/bin/bin/../../lib/gcc/pic32mx/8.3.1/../../../../pic32mx/lib/fpu64/libc-musl.a(vprintf.o)
 .note.GNU-stack
                0x0000000000000000        0x0 /opt/microchip/xc32/v4.20/bin/bin/../../lib/gcc/pic32mx/8.3.1/../../../../pic32mx/lib/fpu64/libc-musl.a(vprintf.o)
 .text          0x0000000000000000        0x0 /opt/microchip/xc32/v4.20/bin/bin/../../lib/gcc/pic32mx/8.3.1/../../../../pic32mx/lib/fpu64/libc-musl.a(atoi.o)
 .data          0x0000000000000000        0x0 /opt/microchip/xc32/v4.20/bin/bin/../../lib/gcc/pic32mx/8.3.1/../../../../pic32mx/lib/fpu64/libc-musl.a(atoi.o)
 .bss           0x0000000000000000        0x0 /opt/microchip/xc32/v4.20/bin/bin/../../lib/gcc/pic32mx/8.3.1/../../../../pic32mx/lib/fpu64/libc-musl.a(atoi.o)
 .reginfo       0x0000000000000000       0x18 /opt/microchip/xc32/v4.20/bin/bin/../../lib/gcc/pic32mx/8.3.1/../../../../pic32mx/lib/fpu64/libc-musl.a(atoi.o)
 .MIPS.abiflags
                0x0000000000000000       0x18 /opt/microchip/xc32/v4.20/bin/bin/../../lib/gcc/pic32mx/8.3.1/../../../../pic32mx/lib/fpu64/libc-musl.a(atoi.o)
 .xc_stack_usage
                0x0000000000000000       0x12 /opt/microchip/xc32/v4.20/bin/bin/../../lib/gcc/pic32mx/8.3.1/../../../../pic32mx/lib/fpu64/libc-musl.a(atoi.o)
 .xc_stack_usage.hdr
                0x0000000000000000        0xe /opt/microchip/xc32/v4.20/bin/bin/../../lib/gcc/pic32mx/8.3.1/../../../../pic32mx/lib/fpu64/libc-musl.a(atoi.o)
 .note.GNU-stack
                0x0000000000000000        0x0 /opt/microchip/xc32/v4.20/bin/bin/../../lib/gcc/pic32mx/8.3.1/../../../../pic32mx/lib/fpu64/libc-musl.a(atoi.o)
 .text          0x0000000000000000        0x0 /opt/microchip/xc32/v4.20/bin/bin/../../lib/gcc/pic32mx/8.3.1/../../../../pic32mx/lib/fpu64/libc-musl.a(memcpy.o)
 .data          0x0000000000000000        0x0 /opt/microchip/xc32/v4.20/bin/bin/../../lib/gcc/pic32mx/8.3.1/../../../../pic32mx/lib/fpu64/libc-musl.a(memcpy.o)
 .bss           0x0000000000000000        0x0 /opt/microchip/xc32/v4.20/bin/bin/../../lib/gcc/pic32mx/8.3.1/../../../../pic32mx/lib/fpu64/libc-musl.a(memcpy.o)
 .reginfo       0x0000000000000000       0x18 /opt/microchip/xc32/v4.20/bin/bin/../../lib/gcc/pic32mx/8.3.1/../../../../pic32mx/lib/fpu64/libc-musl.a(memcpy.o)
 .MIPS.abiflags
                0x0000000000000000       0x18 /opt/microchip/xc32/v4.20/bin/bin/../../lib/gcc/pic32mx/8.3.1/../../../../pic32mx/lib/fpu64/libc-musl.a(memcpy.o)
 .xc_stack_usage
                0x0000000000000000       0x14 /opt/microchip/xc32/v4.20/bin/bin/../../lib/gcc/pic32mx/8.3.1/../../../../pic32mx/lib/fpu64/libc-musl.a(memcpy.o)
 .xc_stack_usage.hdr
                0x0000000000000000        0xe /opt/microchip/xc32/v4.20/bin/bin/../../lib/gcc/pic32mx/8.3.1/../../../../pic32mx/lib/fpu64/libc-musl.a(memcpy.o)
 .note.GNU-stack
                0x0000000000000000        0x0 /opt/microchip/xc32/v4.20/bin/bin/../../lib/gcc/pic32mx/8.3.1/../../../../pic32mx/lib/fpu64/libc-musl.a(memcpy.o)
 .text          0x0000000000000000        0x0 /opt/microchip/xc32/v4.20/bin/bin/../../lib/gcc/pic32mx/8.3.1/../../../../pic32mx/lib/fpu64/libc-musl.a(strcpy.o)
 .data          0x0000000000000000        0x0 /opt/microchip/xc32/v4.20/bin/bin/../../lib/gcc/pic32mx/8.3.1/../../../../pic32mx/lib/fpu64/libc-musl.a(strcpy.o)
 .bss           0x0000000000000000        0x0 /opt/microchip/xc32/v4.20/bin/bin/../../lib/gcc/pic32mx/8.3.1/../../../../pic32mx/lib/fpu64/libc-musl.a(strcpy.o)
 .reginfo       0x0000000000000000       0x18 /opt/microchip/xc32/v4.20/bin/bin/../../lib/gcc/pic32mx/8.3.1/../../../../pic32mx/lib/fpu64/libc-musl.a(strcpy.o)
 .MIPS.abiflags
                0x0000000000000000       0x18 /opt/microchip/xc32/v4.20/bin/bin/../../lib/gcc/pic32mx/8.3.1/../../../../pic32mx/lib/fpu64/libc-musl.a(strcpy.o)
 .xc_stack_usage
                0x0000000000000000       0x14 /opt/microchip/xc32/v4.20/bin/bin/../../lib/gcc/pic32mx/8.3.1/../../../../pic32mx/lib/fpu64/libc-musl.a(strcpy.o)
 .xc_stack_usage.hdr
                0x0000000000000000        0xe /opt/microchip/xc32/v4.20/bin/bin/../../lib/gcc/pic32mx/8.3.1/../../../../pic32mx/lib/fpu64/libc-musl.a(strcpy.o)
 .note.GNU-stack
                0x0000000000000000        0x0 /opt/microchip/xc32/v4.20/bin/bin/../../lib/gcc/pic32mx/8.3.1/../../../../pic32mx/lib/fpu64/libc-musl.a(strcpy.o)
 .text          0x0000000000000000        0x0 /opt/microchip/xc32/v4.20/bin/bin/../../lib/gcc/pic32mx/8.3.1/../../../../pic32mx/lib/fpu64/libc-musl.a(tolower.o)
 .data          0x0000000000000000        0x0 /opt/microchip/xc32/v4.20/bin/bin/../../lib/gcc/pic32mx/8.3.1/../../../../pic32mx/lib/fpu64/libc-musl.a(tolower.o)
 .bss           0x0000000000000000        0x0 /opt/microchip/xc32/v4.20/bin/bin/../../lib/gcc/pic32mx/8.3.1/../../../../pic32mx/lib/fpu64/libc-musl.a(tolower.o)
 .reginfo       0x0000000000000000       0x18 /opt/microchip/xc32/v4.20/bin/bin/../../lib/gcc/pic32mx/8.3.1/../../../../pic32mx/lib/fpu64/libc-musl.a(tolower.o)
 .MIPS.abiflags
                0x0000000000000000       0x18 /opt/microchip/xc32/v4.20/bin/bin/../../lib/gcc/pic32mx/8.3.1/../../../../pic32mx/lib/fpu64/libc-musl.a(tolower.o)
 .xc_stack_usage
                0x0000000000000000       0x2e /opt/microchip/xc32/v4.20/bin/bin/../../lib/gcc/pic32mx/8.3.1/../../../../pic32mx/lib/fpu64/libc-musl.a(tolower.o)
 .text.__tolower_l
                0x0000000000000000       0x1c /opt/microchip/xc32/v4.20/bin/bin/../../lib/gcc/pic32mx/8.3.1/../../../../pic32mx/lib/fpu64/libc-musl.a(tolower.o)
 .xc_stack_usage.hdr
                0x0000000000000000        0xe /opt/microchip/xc32/v4.20/bin/bin/../../lib/gcc/pic32mx/8.3.1/../../../../pic32mx/lib/fpu64/libc-musl.a(tolower.o)
 .note.GNU-stack
                0x0000000000000000        0x0 /opt/microchip/xc32/v4.20/bin/bin/../../lib/gcc/pic32mx/8.3.1/../../../../pic32mx/lib/fpu64/libc-musl.a(tolower.o)
 .text          0x0000000000000000        0x0 /opt/microchip/xc32/v4.20/bin/bin/../../lib/gcc/pic32mx/8.3.1/../../../../pic32mx/lib/fpu64/libc-musl.a(toupper.o)
 .data          0x0000000000000000        0x0 /opt/microchip/xc32/v4.20/bin/bin/../../lib/gcc/pic32mx/8.3.1/../../../../pic32mx/lib/fpu64/libc-musl.a(toupper.o)
 .bss           0x0000000000000000        0x0 /opt/microchip/xc32/v4.20/bin/bin/../../lib/gcc/pic32mx/8.3.1/../../../../pic32mx/lib/fpu64/libc-musl.a(toupper.o)
 .reginfo       0x0000000000000000       0x18 /opt/microchip/xc32/v4.20/bin/bin/../../lib/gcc/pic32mx/8.3.1/../../../../pic32mx/lib/fpu64/libc-musl.a(toupper.o)
 .MIPS.abiflags
                0x0000000000000000       0x18 /opt/microchip/xc32/v4.20/bin/bin/../../lib/gcc/pic32mx/8.3.1/../../../../pic32mx/lib/fpu64/libc-musl.a(toupper.o)
 .xc_stack_usage
                0x0000000000000000       0x2e /opt/microchip/xc32/v4.20/bin/bin/../../lib/gcc/pic32mx/8.3.1/../../../../pic32mx/lib/fpu64/libc-musl.a(toupper.o)
 .text.__toupper_l
                0x0000000000000000       0x1c /opt/microchip/xc32/v4.20/bin/bin/../../lib/gcc/pic32mx/8.3.1/../../../../pic32mx/lib/fpu64/libc-musl.a(toupper.o)
 .xc_stack_usage.hdr
                0x0000000000000000        0xe /opt/microchip/xc32/v4.20/bin/bin/../../lib/gcc/pic32mx/8.3.1/../../../../pic32mx/lib/fpu64/libc-musl.a(toupper.o)
 .note.GNU-stack
                0x0000000000000000        0x0 /opt/microchip/xc32/v4.20/bin/bin/../../lib/gcc/pic32mx/8.3.1/../../../../pic32mx/lib/fpu64/libc-musl.a(toupper.o)
 .text          0x0000000000000000        0x0 /opt/microchip/xc32/v4.20/bin/bin/../../lib/gcc/pic32mx/8.3.1/../../../../pic32mx/lib/fpu64/libc-musl.a(__int_vsprintf.o)
 .data          0x0000000000000000        0x0 /opt/microchip/xc32/v4.20/bin/bin/../../lib/gcc/pic32mx/8.3.1/../../../../pic32mx/lib/fpu64/libc-musl.a(__int_vsprintf.o)
 .bss           0x0000000000000000        0x0 /opt/microchip/xc32/v4.20/bin/bin/../../lib/gcc/pic32mx/8.3.1/../../../../pic32mx/lib/fpu64/libc-musl.a(__int_vsprintf.o)
 .reginfo       0x0000000000000000       0x18 /opt/microchip/xc32/v4.20/bin/bin/../../lib/gcc/pic32mx/8.3.1/../../../../pic32mx/lib/fpu64/libc-musl.a(__int_vsprintf.o)
 .MIPS.abiflags
                0x0000000000000000       0x18 /opt/microchip/xc32/v4.20/bin/bin/../../lib/gcc/pic32mx/8.3.1/../../../../pic32mx/lib/fpu64/libc-musl.a(__int_vsprintf.o)
 .xc_stack_usage
                0x0000000000000000       0x18 /opt/microchip/xc32/v4.20/bin/bin/../../lib/gcc/pic32mx/8.3.1/../../../../pic32mx/lib/fpu64/libc-musl.a(__int_vsprintf.o)
 .xc_stack_usage.hdr
                0x0000000000000000        0xe /opt/microchip/xc32/v4.20/bin/bin/../../lib/gcc/pic32mx/8.3.1/../../../../pic32mx/lib/fpu64/libc-musl.a(__int_vsprintf.o)
 .note.GNU-stack
                0x0000000000000000        0x0 /opt/microchip/xc32/v4.20/bin/bin/../../lib/gcc/pic32mx/8.3.1/../../../../pic32mx/lib/fpu64/libc-musl.a(__int_vsprintf.o)
 .text          0x0000000000000000        0x0 /opt/microchip/xc32/v4.20/bin/bin/../../lib/gcc/pic32mx/8.3.1/../../../../pic32mx/lib/fpu64/libc-musl.a(__fopen.o)
 .data          0x0000000000000000        0x0 /opt/microchip/xc32/v4.20/bin/bin/../../lib/gcc/pic32mx/8.3.1/../../../../pic32mx/lib/fpu64/libc-musl.a(__fopen.o)
 .bss           0x0000000000000000        0x0 /opt/microchip/xc32/v4.20/bin/bin/../../lib/gcc/pic32mx/8.3.1/../../../../pic32mx/lib/fpu64/libc-musl.a(__fopen.o)
 .reginfo       0x0000000000000000       0x18 /opt/microchip/xc32/v4.20/bin/bin/../../lib/gcc/pic32mx/8.3.1/../../../../pic32mx/lib/fpu64/libc-musl.a(__fopen.o)
 .MIPS.abiflags
                0x0000000000000000       0x18 /opt/microchip/xc32/v4.20/bin/bin/../../lib/gcc/pic32mx/8.3.1/../../../../pic32mx/lib/fpu64/libc-musl.a(__fopen.o)
 .xc_stack_usage
                0x0000000000000000       0x43 /opt/microchip/xc32/v4.20/bin/bin/../../lib/gcc/pic32mx/8.3.1/../../../../pic32mx/lib/fpu64/libc-musl.a(__fopen.o)
 .text.__fopen_std
                0x0000000000000000       0x60 /opt/microchip/xc32/v4.20/bin/bin/../../lib/gcc/pic32mx/8.3.1/../../../../pic32mx/lib/fpu64/libc-musl.a(__fopen.o)
 .text.__fopen  0x0000000000000000       0x1c /opt/microchip/xc32/v4.20/bin/bin/../../lib/gcc/pic32mx/8.3.1/../../../../pic32mx/lib/fpu64/libc-musl.a(__fopen.o)
 .xc_stack_usage.hdr
                0x0000000000000000        0xe /opt/microchip/xc32/v4.20/bin/bin/../../lib/gcc/pic32mx/8.3.1/../../../../pic32mx/lib/fpu64/libc-musl.a(__fopen.o)
 .note.GNU-stack
                0x0000000000000000        0x0 /opt/microchip/xc32/v4.20/bin/bin/../../lib/gcc/pic32mx/8.3.1/../../../../pic32mx/lib/fpu64/libc-musl.a(__fopen.o)
 .text          0x0000000000000000        0x0 /opt/microchip/xc32/v4.20/bin/bin/../../lib/gcc/pic32mx/8.3.1/../../../../pic32mx/lib/fpu64/libc-musl.a(__io_init_needed.o)
 .data          0x0000000000000000        0x0 /opt/microchip/xc32/v4.20/bin/bin/../../lib/gcc/pic32mx/8.3.1/../../../../pic32mx/lib/fpu64/libc-musl.a(__io_init_needed.o)
 .bss           0x0000000000000000        0x0 /opt/microchip/xc32/v4.20/bin/bin/../../lib/gcc/pic32mx/8.3.1/../../../../pic32mx/lib/fpu64/libc-musl.a(__io_init_needed.o)
 .reginfo       0x0000000000000000       0x18 /opt/microchip/xc32/v4.20/bin/bin/../../lib/gcc/pic32mx/8.3.1/../../../../pic32mx/lib/fpu64/libc-musl.a(__io_init_needed.o)
 .MIPS.abiflags
                0x0000000000000000       0x18 /opt/microchip/xc32/v4.20/bin/bin/../../lib/gcc/pic32mx/8.3.1/../../../../pic32mx/lib/fpu64/libc-musl.a(__io_init_needed.o)
 .xc_stack_usage
                0x0000000000000000       0x40 /opt/microchip/xc32/v4.20/bin/bin/../../lib/gcc/pic32mx/8.3.1/../../../../pic32mx/lib/fpu64/libc-musl.a(__io_init_needed.o)
 .xc_stack_usage.hdr
                0x0000000000000000        0xe /opt/microchip/xc32/v4.20/bin/bin/../../lib/gcc/pic32mx/8.3.1/../../../../pic32mx/lib/fpu64/libc-musl.a(__io_init_needed.o)
 .note.GNU-stack
                0x0000000000000000        0x0 /opt/microchip/xc32/v4.20/bin/bin/../../lib/gcc/pic32mx/8.3.1/../../../../pic32mx/lib/fpu64/libc-musl.a(__io_init_needed.o)
 .text          0x0000000000000000        0x0 /opt/microchip/xc32/v4.20/bin/bin/../../lib/gcc/pic32mx/8.3.1/../../../../pic32mx/lib/fpu64/libc-musl.a(__io_rw_needed.o)
 .data          0x0000000000000000        0x0 /opt/microchip/xc32/v4.20/bin/bin/../../lib/gcc/pic32mx/8.3.1/../../../../pic32mx/lib/fpu64/libc-musl.a(__io_rw_needed.o)
 .bss           0x0000000000000000        0x0 /opt/microchip/xc32/v4.20/bin/bin/../../lib/gcc/pic32mx/8.3.1/../../../../pic32mx/lib/fpu64/libc-musl.a(__io_rw_needed.o)
 .reginfo       0x0000000000000000       0x18 /opt/microchip/xc32/v4.20/bin/bin/../../lib/gcc/pic32mx/8.3.1/../../../../pic32mx/lib/fpu64/libc-musl.a(__io_rw_needed.o)
 .MIPS.abiflags
                0x0000000000000000       0x18 /opt/microchip/xc32/v4.20/bin/bin/../../lib/gcc/pic32mx/8.3.1/../../../../pic32mx/lib/fpu64/libc-musl.a(__io_rw_needed.o)
 .xc_stack_usage
                0x0000000000000000       0x1c /opt/microchip/xc32/v4.20/bin/bin/../../lib/gcc/pic32mx/8.3.1/../../../../pic32mx/lib/fpu64/libc-musl.a(__io_rw_needed.o)
 .xc_stack_usage.hdr
                0x0000000000000000        0xe /opt/microchip/xc32/v4.20/bin/bin/../../lib/gcc/pic32mx/8.3.1/../../../../pic32mx/lib/fpu64/libc-musl.a(__io_rw_needed.o)
 .note.GNU-stack
                0x0000000000000000        0x0 /opt/microchip/xc32/v4.20/bin/bin/../../lib/gcc/pic32mx/8.3.1/../../../../pic32mx/lib/fpu64/libc-musl.a(__io_rw_needed.o)
 .text          0x0000000000000000        0x0 /opt/microchip/xc32/v4.20/bin/bin/../../lib/gcc/pic32mx/8.3.1/../../../../pic32mx/lib/fpu64/libc-musl.a(__out.o)
 .data          0x0000000000000000        0x0 /opt/microchip/xc32/v4.20/bin/bin/../../lib/gcc/pic32mx/8.3.1/../../../../pic32mx/lib/fpu64/libc-musl.a(__out.o)
 .bss           0x0000000000000000        0x0 /opt/microchip/xc32/v4.20/bin/bin/../../lib/gcc/pic32mx/8.3.1/../../../../pic32mx/lib/fpu64/libc-musl.a(__out.o)
 .reginfo       0x0000000000000000       0x18 /opt/microchip/xc32/v4.20/bin/bin/../../lib/gcc/pic32mx/8.3.1/../../../../pic32mx/lib/fpu64/libc-musl.a(__out.o)
 .MIPS.abiflags
                0x0000000000000000       0x18 /opt/microchip/xc32/v4.20/bin/bin/../../lib/gcc/pic32mx/8.3.1/../../../../pic32mx/lib/fpu64/libc-musl.a(__out.o)
 .xc_stack_usage
                0x0000000000000000       0x2d /opt/microchip/xc32/v4.20/bin/bin/../../lib/gcc/pic32mx/8.3.1/../../../../pic32mx/lib/fpu64/libc-musl.a(__out.o)
 .xc_stack_usage.hdr
                0x0000000000000000        0xe /opt/microchip/xc32/v4.20/bin/bin/../../lib/gcc/pic32mx/8.3.1/../../../../pic32mx/lib/fpu64/libc-musl.a(__out.o)
 .note.GNU-stack
                0x0000000000000000        0x0 /opt/microchip/xc32/v4.20/bin/bin/../../lib/gcc/pic32mx/8.3.1/../../../../pic32mx/lib/fpu64/libc-musl.a(__out.o)
 .text          0x0000000000000000        0x0 /opt/microchip/xc32/v4.20/bin/bin/../../lib/gcc/pic32mx/8.3.1/../../../../pic32mx/lib/fpu64/libc-musl.a(__stdio_close.o)
 .data          0x0000000000000000        0x0 /opt/microchip/xc32/v4.20/bin/bin/../../lib/gcc/pic32mx/8.3.1/../../../../pic32mx/lib/fpu64/libc-musl.a(__stdio_close.o)
 .bss           0x0000000000000000        0x0 /opt/microchip/xc32/v4.20/bin/bin/../../lib/gcc/pic32mx/8.3.1/../../../../pic32mx/lib/fpu64/libc-musl.a(__stdio_close.o)
 .reginfo       0x0000000000000000       0x18 /opt/microchip/xc32/v4.20/bin/bin/../../lib/gcc/pic32mx/8.3.1/../../../../pic32mx/lib/fpu64/libc-musl.a(__stdio_close.o)
 .MIPS.abiflags
                0x0000000000000000       0x18 /opt/microchip/xc32/v4.20/bin/bin/../../lib/gcc/pic32mx/8.3.1/../../../../pic32mx/lib/fpu64/libc-musl.a(__stdio_close.o)
 .xc_stack_usage
                0x0000000000000000       0x39 /opt/microchip/xc32/v4.20/bin/bin/../../lib/gcc/pic32mx/8.3.1/../../../../pic32mx/lib/fpu64/libc-musl.a(__stdio_close.o)
 .text.__stdio_close
                0x0000000000000000       0xa0 /opt/microchip/xc32/v4.20/bin/bin/../../lib/gcc/pic32mx/8.3.1/../../../../pic32mx/lib/fpu64/libc-musl.a(__stdio_close.o)
 .xc_stack_usage.hdr
                0x0000000000000000        0xe /opt/microchip/xc32/v4.20/bin/bin/../../lib/gcc/pic32mx/8.3.1/../../../../pic32mx/lib/fpu64/libc-musl.a(__stdio_close.o)
 .note.GNU-stack
                0x0000000000000000        0x0 /opt/microchip/xc32/v4.20/bin/bin/../../lib/gcc/pic32mx/8.3.1/../../../../pic32mx/lib/fpu64/libc-musl.a(__stdio_close.o)
 .text          0x0000000000000000        0x0 /opt/microchip/xc32/v4.20/bin/bin/../../lib/gcc/pic32mx/8.3.1/../../../../pic32mx/lib/fpu64/libc-musl.a(__stdio_read.o)
 .data          0x0000000000000000        0x0 /opt/microchip/xc32/v4.20/bin/bin/../../lib/gcc/pic32mx/8.3.1/../../../../pic32mx/lib/fpu64/libc-musl.a(__stdio_read.o)
 .bss           0x0000000000000000        0x0 /opt/microchip/xc32/v4.20/bin/bin/../../lib/gcc/pic32mx/8.3.1/../../../../pic32mx/lib/fpu64/libc-musl.a(__stdio_read.o)
 .reginfo       0x0000000000000000       0x18 /opt/microchip/xc32/v4.20/bin/bin/../../lib/gcc/pic32mx/8.3.1/../../../../pic32mx/lib/fpu64/libc-musl.a(__stdio_read.o)
 .MIPS.abiflags
                0x0000000000000000       0x18 /opt/microchip/xc32/v4.20/bin/bin/../../lib/gcc/pic32mx/8.3.1/../../../../pic32mx/lib/fpu64/libc-musl.a(__stdio_read.o)
 .xc_stack_usage
                0x0000000000000000       0x1a /opt/microchip/xc32/v4.20/bin/bin/../../lib/gcc/pic32mx/8.3.1/../../../../pic32mx/lib/fpu64/libc-musl.a(__stdio_read.o)
 .xc_stack_usage.hdr
                0x0000000000000000        0xe /opt/microchip/xc32/v4.20/bin/bin/../../lib/gcc/pic32mx/8.3.1/../../../../pic32mx/lib/fpu64/libc-musl.a(__stdio_read.o)
 .note.GNU-stack
                0x0000000000000000        0x0 /opt/microchip/xc32/v4.20/bin/bin/../../lib/gcc/pic32mx/8.3.1/../../../../pic32mx/lib/fpu64/libc-musl.a(__stdio_read.o)
 .text          0x0000000000000000        0x0 /opt/microchip/xc32/v4.20/bin/bin/../../lib/gcc/pic32mx/8.3.1/../../../../pic32mx/lib/fpu64/libc-musl.a(__towrite_rw.o)
 .data          0x0000000000000000        0x0 /opt/microchip/xc32/v4.20/bin/bin/../../lib/gcc/pic32mx/8.3.1/../../../../pic32mx/lib/fpu64/libc-musl.a(__towrite_rw.o)
 .bss           0x0000000000000000        0x0 /opt/microchip/xc32/v4.20/bin/bin/../../lib/gcc/pic32mx/8.3.1/../../../../pic32mx/lib/fpu64/libc-musl.a(__towrite_rw.o)
 .reginfo       0x0000000000000000       0x18 /opt/microchip/xc32/v4.20/bin/bin/../../lib/gcc/pic32mx/8.3.1/../../../../pic32mx/lib/fpu64/libc-musl.a(__towrite_rw.o)
 .MIPS.abiflags
                0x0000000000000000       0x18 /opt/microchip/xc32/v4.20/bin/bin/../../lib/gcc/pic32mx/8.3.1/../../../../pic32mx/lib/fpu64/libc-musl.a(__towrite_rw.o)
 .xc_stack_usage
                0x0000000000000000       0x1a /opt/microchip/xc32/v4.20/bin/bin/../../lib/gcc/pic32mx/8.3.1/../../../../pic32mx/lib/fpu64/libc-musl.a(__towrite_rw.o)
 .xc_stack_usage.hdr
                0x0000000000000000        0xe /opt/microchip/xc32/v4.20/bin/bin/../../lib/gcc/pic32mx/8.3.1/../../../../pic32mx/lib/fpu64/libc-musl.a(__towrite_rw.o)
 .note.GNU-stack
                0x0000000000000000        0x0 /opt/microchip/xc32/v4.20/bin/bin/../../lib/gcc/pic32mx/8.3.1/../../../../pic32mx/lib/fpu64/libc-musl.a(__towrite_rw.o)
 .text          0x0000000000000000        0x0 /opt/microchip/xc32/v4.20/bin/bin/../../lib/gcc/pic32mx/8.3.1/../../../../pic32mx/lib/fpu64/libc-musl.a(setvbuf.o)
 .data          0x0000000000000000        0x0 /opt/microchip/xc32/v4.20/bin/bin/../../lib/gcc/pic32mx/8.3.1/../../../../pic32mx/lib/fpu64/libc-musl.a(setvbuf.o)
 .bss           0x0000000000000000        0x0 /opt/microchip/xc32/v4.20/bin/bin/../../lib/gcc/pic32mx/8.3.1/../../../../pic32mx/lib/fpu64/libc-musl.a(setvbuf.o)
 .reginfo       0x0000000000000000       0x18 /opt/microchip/xc32/v4.20/bin/bin/../../lib/gcc/pic32mx/8.3.1/../../../../pic32mx/lib/fpu64/libc-musl.a(setvbuf.o)
 .MIPS.abiflags
                0x0000000000000000       0x18 /opt/microchip/xc32/v4.20/bin/bin/../../lib/gcc/pic32mx/8.3.1/../../../../pic32mx/lib/fpu64/libc-musl.a(setvbuf.o)
 .xc_stack_usage
                0x0000000000000000       0x36 /opt/microchip/xc32/v4.20/bin/bin/../../lib/gcc/pic32mx/8.3.1/../../../../pic32mx/lib/fpu64/libc-musl.a(setvbuf.o)
 .xc_stack_usage.hdr
                0x0000000000000000        0xe /opt/microchip/xc32/v4.20/bin/bin/../../lib/gcc/pic32mx/8.3.1/../../../../pic32mx/lib/fpu64/libc-musl.a(setvbuf.o)
 .note.GNU-stack
                0x0000000000000000        0x0 /opt/microchip/xc32/v4.20/bin/bin/../../lib/gcc/pic32mx/8.3.1/../../../../pic32mx/lib/fpu64/libc-musl.a(setvbuf.o)
 .text          0x0000000000000000        0x0 /opt/microchip/xc32/v4.20/bin/bin/../../lib/gcc/pic32mx/8.3.1/../../../../pic32mx/lib/fpu64/libc-musl.a(vfprintf.o)
 .data          0x0000000000000000        0x0 /opt/microchip/xc32/v4.20/bin/bin/../../lib/gcc/pic32mx/8.3.1/../../../../pic32mx/lib/fpu64/libc-musl.a(vfprintf.o)
 .bss           0x0000000000000000        0x0 /opt/microchip/xc32/v4.20/bin/bin/../../lib/gcc/pic32mx/8.3.1/../../../../pic32mx/lib/fpu64/libc-musl.a(vfprintf.o)
 .reginfo       0x0000000000000000       0x18 /opt/microchip/xc32/v4.20/bin/bin/../../lib/gcc/pic32mx/8.3.1/../../../../pic32mx/lib/fpu64/libc-musl.a(vfprintf.o)
 .MIPS.abiflags
                0x0000000000000000       0x18 /opt/microchip/xc32/v4.20/bin/bin/../../lib/gcc/pic32mx/8.3.1/../../../../pic32mx/lib/fpu64/libc-musl.a(vfprintf.o)
 .xc_stack_usage
                0x0000000000000000       0x38 /opt/microchip/xc32/v4.20/bin/bin/../../lib/gcc/pic32mx/8.3.1/../../../../pic32mx/lib/fpu64/libc-musl.a(vfprintf.o)
 .text.vfprintf
                0x0000000000000000       0x3c /opt/microchip/xc32/v4.20/bin/bin/../../lib/gcc/pic32mx/8.3.1/../../../../pic32mx/lib/fpu64/libc-musl.a(vfprintf.o)
 .xc_stack_usage.hdr
                0x0000000000000000        0xe /opt/microchip/xc32/v4.20/bin/bin/../../lib/gcc/pic32mx/8.3.1/../../../../pic32mx/lib/fpu64/libc-musl.a(vfprintf.o)
 .note.GNU-stack
                0x0000000000000000        0x0 /opt/microchip/xc32/v4.20/bin/bin/../../lib/gcc/pic32mx/8.3.1/../../../../pic32mx/lib/fpu64/libc-musl.a(vfprintf.o)
 .text          0x0000000000000000        0x0 /opt/microchip/xc32/v4.20/bin/bin/../../lib/gcc/pic32mx/8.3.1/../../../../pic32mx/lib/fpu64/libc-musl.a(stpcpy.o)
 .data          0x0000000000000000        0x0 /opt/microchip/xc32/v4.20/bin/bin/../../lib/gcc/pic32mx/8.3.1/../../../../pic32mx/lib/fpu64/libc-musl.a(stpcpy.o)
 .bss           0x0000000000000000        0x0 /opt/microchip/xc32/v4.20/bin/bin/../../lib/gcc/pic32mx/8.3.1/../../../../pic32mx/lib/fpu64/libc-musl.a(stpcpy.o)
 .reginfo       0x0000000000000000       0x18 /opt/microchip/xc32/v4.20/bin/bin/../../lib/gcc/pic32mx/8.3.1/../../../../pic32mx/lib/fpu64/libc-musl.a(stpcpy.o)
 .MIPS.abiflags
                0x0000000000000000       0x18 /opt/microchip/xc32/v4.20/bin/bin/../../lib/gcc/pic32mx/8.3.1/../../../../pic32mx/lib/fpu64/libc-musl.a(stpcpy.o)
 .xc_stack_usage
                0x0000000000000000       0x14 /opt/microchip/xc32/v4.20/bin/bin/../../lib/gcc/pic32mx/8.3.1/../../../../pic32mx/lib/fpu64/libc-musl.a(stpcpy.o)
 .xc_stack_usage.hdr
                0x0000000000000000        0xe /opt/microchip/xc32/v4.20/bin/bin/../../lib/gcc/pic32mx/8.3.1/../../../../pic32mx/lib/fpu64/libc-musl.a(stpcpy.o)
 .note.GNU-stack
                0x0000000000000000        0x0 /opt/microchip/xc32/v4.20/bin/bin/../../lib/gcc/pic32mx/8.3.1/../../../../pic32mx/lib/fpu64/libc-musl.a(stpcpy.o)
 .text          0x0000000000000000        0x0 /opt/microchip/xc32/v4.20/bin/bin/../../lib/gcc/pic32mx/8.3.1/../../../../pic32mx/lib/fpu64/libc-musl.a(readv.o)
 .data          0x0000000000000000        0x0 /opt/microchip/xc32/v4.20/bin/bin/../../lib/gcc/pic32mx/8.3.1/../../../../pic32mx/lib/fpu64/libc-musl.a(readv.o)
 .bss           0x0000000000000000        0x0 /opt/microchip/xc32/v4.20/bin/bin/../../lib/gcc/pic32mx/8.3.1/../../../../pic32mx/lib/fpu64/libc-musl.a(readv.o)
 .reginfo       0x0000000000000000       0x18 /opt/microchip/xc32/v4.20/bin/bin/../../lib/gcc/pic32mx/8.3.1/../../../../pic32mx/lib/fpu64/libc-musl.a(readv.o)
 .MIPS.abiflags
                0x0000000000000000       0x18 /opt/microchip/xc32/v4.20/bin/bin/../../lib/gcc/pic32mx/8.3.1/../../../../pic32mx/lib/fpu64/libc-musl.a(readv.o)
 .xc_stack_usage
                0x0000000000000000       0x15 /opt/microchip/xc32/v4.20/bin/bin/../../lib/gcc/pic32mx/8.3.1/../../../../pic32mx/lib/fpu64/libc-musl.a(readv.o)
 .xc_stack_usage.hdr
                0x0000000000000000        0xe /opt/microchip/xc32/v4.20/bin/bin/../../lib/gcc/pic32mx/8.3.1/../../../../pic32mx/lib/fpu64/libc-musl.a(readv.o)
 .note.GNU-stack
                0x0000000000000000        0x0 /opt/microchip/xc32/v4.20/bin/bin/../../lib/gcc/pic32mx/8.3.1/../../../../pic32mx/lib/fpu64/libc-musl.a(readv.o)
 .text          0x0000000000000000        0x0 /opt/microchip/xc32/v4.20/bin/bin/../../lib/gcc/pic32mx/8.3.1/../../../../pic32mx/lib/fpu64/libc-musl.a(malloc.o)
 .data          0x0000000000000000        0x0 /opt/microchip/xc32/v4.20/bin/bin/../../lib/gcc/pic32mx/8.3.1/../../../../pic32mx/lib/fpu64/libc-musl.a(malloc.o)
 .reginfo       0x0000000000000000       0x18 /opt/microchip/xc32/v4.20/bin/bin/../../lib/gcc/pic32mx/8.3.1/../../../../pic32mx/lib/fpu64/libc-musl.a(malloc.o)
 .MIPS.abiflags
                0x0000000000000000       0x18 /opt/microchip/xc32/v4.20/bin/bin/../../lib/gcc/pic32mx/8.3.1/../../../../pic32mx/lib/fpu64/libc-musl.a(malloc.o)
 .xc_stack_usage
                0x0000000000000000       0xeb /opt/microchip/xc32/v4.20/bin/bin/../../lib/gcc/pic32mx/8.3.1/../../../../pic32mx/lib/fpu64/libc-musl.a(malloc.o)
 .text.__malloc0
                0x0000000000000000       0x50 /opt/microchip/xc32/v4.20/bin/bin/../../lib/gcc/pic32mx/8.3.1/../../../../pic32mx/lib/fpu64/libc-musl.a(malloc.o)
 .text.realloc  0x0000000000000000      0x118 /opt/microchip/xc32/v4.20/bin/bin/../../lib/gcc/pic32mx/8.3.1/../../../../pic32mx/lib/fpu64/libc-musl.a(malloc.o)
 .xc_stack_usage.hdr
                0x0000000000000000        0xe /opt/microchip/xc32/v4.20/bin/bin/../../lib/gcc/pic32mx/8.3.1/../../../../pic32mx/lib/fpu64/libc-musl.a(malloc.o)
 .note.GNU-stack
                0x0000000000000000        0x0 /opt/microchip/xc32/v4.20/bin/bin/../../lib/gcc/pic32mx/8.3.1/../../../../pic32mx/lib/fpu64/libc-musl.a(malloc.o)
 .text          0x0000000000000000        0x0 /opt/microchip/xc32/v4.20/bin/bin/../../lib/gcc/pic32mx/8.3.1/../../../../pic32mx/lib/fpu64/libc-musl.a(expand_heap.o)
 .data          0x0000000000000000        0x0 /opt/microchip/xc32/v4.20/bin/bin/../../lib/gcc/pic32mx/8.3.1/../../../../pic32mx/lib/fpu64/libc-musl.a(expand_heap.o)
 .bss           0x0000000000000000        0x0 /opt/microchip/xc32/v4.20/bin/bin/../../lib/gcc/pic32mx/8.3.1/../../../../pic32mx/lib/fpu64/libc-musl.a(expand_heap.o)
 .reginfo       0x0000000000000000       0x18 /opt/microchip/xc32/v4.20/bin/bin/../../lib/gcc/pic32mx/8.3.1/../../../../pic32mx/lib/fpu64/libc-musl.a(expand_heap.o)
 .MIPS.abiflags
                0x0000000000000000       0x18 /opt/microchip/xc32/v4.20/bin/bin/../../lib/gcc/pic32mx/8.3.1/../../../../pic32mx/lib/fpu64/libc-musl.a(expand_heap.o)
 .xc_stack_usage
                0x0000000000000000       0x1b /opt/microchip/xc32/v4.20/bin/bin/../../lib/gcc/pic32mx/8.3.1/../../../../pic32mx/lib/fpu64/libc-musl.a(expand_heap.o)
 .xc_stack_usage.hdr
                0x0000000000000000        0xe /opt/microchip/xc32/v4.20/bin/bin/../../lib/gcc/pic32mx/8.3.1/../../../../pic32mx/lib/fpu64/libc-musl.a(expand_heap.o)
 .note.GNU-stack
                0x0000000000000000        0x0 /opt/microchip/xc32/v4.20/bin/bin/../../lib/gcc/pic32mx/8.3.1/../../../../pic32mx/lib/fpu64/libc-musl.a(expand_heap.o)
 .text          0x0000000000000000        0x0 /opt/microchip/xc32/v4.20/bin/bin/../../lib/gcc/pic32mx/8.3.1/../../../../pic32mx/lib/fpu64/libc-musl.a(__int_vsnprintf.o)
 .data          0x0000000000000000        0x0 /opt/microchip/xc32/v4.20/bin/bin/../../lib/gcc/pic32mx/8.3.1/../../../../pic32mx/lib/fpu64/libc-musl.a(__int_vsnprintf.o)
 .bss           0x0000000000000000        0x0 /opt/microchip/xc32/v4.20/bin/bin/../../lib/gcc/pic32mx/8.3.1/../../../../pic32mx/lib/fpu64/libc-musl.a(__int_vsnprintf.o)
 .reginfo       0x0000000000000000       0x18 /opt/microchip/xc32/v4.20/bin/bin/../../lib/gcc/pic32mx/8.3.1/../../../../pic32mx/lib/fpu64/libc-musl.a(__int_vsnprintf.o)
 .MIPS.abiflags
                0x0000000000000000       0x18 /opt/microchip/xc32/v4.20/bin/bin/../../lib/gcc/pic32mx/8.3.1/../../../../pic32mx/lib/fpu64/libc-musl.a(__int_vsnprintf.o)
 .xc_stack_usage
                0x0000000000000000       0x19 /opt/microchip/xc32/v4.20/bin/bin/../../lib/gcc/pic32mx/8.3.1/../../../../pic32mx/lib/fpu64/libc-musl.a(__int_vsnprintf.o)
 .xc_stack_usage.hdr
                0x0000000000000000        0xe /opt/microchip/xc32/v4.20/bin/bin/../../lib/gcc/pic32mx/8.3.1/../../../../pic32mx/lib/fpu64/libc-musl.a(__int_vsnprintf.o)
 .note.GNU-stack
                0x0000000000000000        0x0 /opt/microchip/xc32/v4.20/bin/bin/../../lib/gcc/pic32mx/8.3.1/../../../../pic32mx/lib/fpu64/libc-musl.a(__int_vsnprintf.o)
 .text          0x0000000000000000        0x0 /opt/microchip/xc32/v4.20/bin/bin/../../lib/gcc/pic32mx/8.3.1/../../../../pic32mx/lib/fpu64/libc-musl.a(__fopen_rw.o)
 .data          0x0000000000000000        0x0 /opt/microchip/xc32/v4.20/bin/bin/../../lib/gcc/pic32mx/8.3.1/../../../../pic32mx/lib/fpu64/libc-musl.a(__fopen_rw.o)
 .bss           0x0000000000000000        0x0 /opt/microchip/xc32/v4.20/bin/bin/../../lib/gcc/pic32mx/8.3.1/../../../../pic32mx/lib/fpu64/libc-musl.a(__fopen_rw.o)
 .reginfo       0x0000000000000000       0x18 /opt/microchip/xc32/v4.20/bin/bin/../../lib/gcc/pic32mx/8.3.1/../../../../pic32mx/lib/fpu64/libc-musl.a(__fopen_rw.o)
 .MIPS.abiflags
                0x0000000000000000       0x18 /opt/microchip/xc32/v4.20/bin/bin/../../lib/gcc/pic32mx/8.3.1/../../../../pic32mx/lib/fpu64/libc-musl.a(__fopen_rw.o)
 .xc_stack_usage
                0x0000000000000000       0x18 /opt/microchip/xc32/v4.20/bin/bin/../../lib/gcc/pic32mx/8.3.1/../../../../pic32mx/lib/fpu64/libc-musl.a(__fopen_rw.o)
 .text.__fopen_rw
                0x0000000000000000       0x88 /opt/microchip/xc32/v4.20/bin/bin/../../lib/gcc/pic32mx/8.3.1/../../../../pic32mx/lib/fpu64/libc-musl.a(__fopen_rw.o)
 .xc_stack_usage.hdr
                0x0000000000000000        0xe /opt/microchip/xc32/v4.20/bin/bin/../../lib/gcc/pic32mx/8.3.1/../../../../pic32mx/lib/fpu64/libc-musl.a(__fopen_rw.o)
 .note.GNU-stack
                0x0000000000000000        0x0 /opt/microchip/xc32/v4.20/bin/bin/../../lib/gcc/pic32mx/8.3.1/../../../../pic32mx/lib/fpu64/libc-musl.a(__fopen_rw.o)
 .text          0x0000000000000000        0x0 /opt/microchip/xc32/v4.20/bin/bin/../../lib/gcc/pic32mx/8.3.1/../../../../pic32mx/lib/fpu64/libc-musl.a(__ftello_rw.o)
 .data          0x0000000000000000        0x0 /opt/microchip/xc32/v4.20/bin/bin/../../lib/gcc/pic32mx/8.3.1/../../../../pic32mx/lib/fpu64/libc-musl.a(__ftello_rw.o)
 .bss           0x0000000000000000        0x0 /opt/microchip/xc32/v4.20/bin/bin/../../lib/gcc/pic32mx/8.3.1/../../../../pic32mx/lib/fpu64/libc-musl.a(__ftello_rw.o)
 .reginfo       0x0000000000000000       0x18 /opt/microchip/xc32/v4.20/bin/bin/../../lib/gcc/pic32mx/8.3.1/../../../../pic32mx/lib/fpu64/libc-musl.a(__ftello_rw.o)
 .MIPS.abiflags
                0x0000000000000000       0x18 /opt/microchip/xc32/v4.20/bin/bin/../../lib/gcc/pic32mx/8.3.1/../../../../pic32mx/lib/fpu64/libc-musl.a(__ftello_rw.o)
 .xc_stack_usage
                0x0000000000000000       0x1d /opt/microchip/xc32/v4.20/bin/bin/../../lib/gcc/pic32mx/8.3.1/../../../../pic32mx/lib/fpu64/libc-musl.a(__ftello_rw.o)
 .text.__ftello_adj_rw
                0x0000000000000000       0x48 /opt/microchip/xc32/v4.20/bin/bin/../../lib/gcc/pic32mx/8.3.1/../../../../pic32mx/lib/fpu64/libc-musl.a(__ftello_rw.o)
 .xc_stack_usage.hdr
                0x0000000000000000        0xe /opt/microchip/xc32/v4.20/bin/bin/../../lib/gcc/pic32mx/8.3.1/../../../../pic32mx/lib/fpu64/libc-musl.a(__ftello_rw.o)
 .note.GNU-stack
                0x0000000000000000        0x0 /opt/microchip/xc32/v4.20/bin/bin/../../lib/gcc/pic32mx/8.3.1/../../../../pic32mx/lib/fpu64/libc-musl.a(__ftello_rw.o)
 .text          0x0000000000000000        0x0 /opt/microchip/xc32/v4.20/bin/bin/../../lib/gcc/pic32mx/8.3.1/../../../../pic32mx/lib/fpu64/libc-musl.a(__init_stdio.o)
 .data          0x0000000000000000        0x0 /opt/microchip/xc32/v4.20/bin/bin/../../lib/gcc/pic32mx/8.3.1/../../../../pic32mx/lib/fpu64/libc-musl.a(__init_stdio.o)
 .bss           0x0000000000000000        0x0 /opt/microchip/xc32/v4.20/bin/bin/../../lib/gcc/pic32mx/8.3.1/../../../../pic32mx/lib/fpu64/libc-musl.a(__init_stdio.o)
 .reginfo       0x0000000000000000       0x18 /opt/microchip/xc32/v4.20/bin/bin/../../lib/gcc/pic32mx/8.3.1/../../../../pic32mx/lib/fpu64/libc-musl.a(__init_stdio.o)
 .MIPS.abiflags
                0x0000000000000000       0x18 /opt/microchip/xc32/v4.20/bin/bin/../../lib/gcc/pic32mx/8.3.1/../../../../pic32mx/lib/fpu64/libc-musl.a(__init_stdio.o)
 .xc_stack_usage
                0x0000000000000000       0x2f /opt/microchip/xc32/v4.20/bin/bin/../../lib/gcc/pic32mx/8.3.1/../../../../pic32mx/lib/fpu64/libc-musl.a(__init_stdio.o)
 .text.__dummy  0x0000000000000000        0x8 /opt/microchip/xc32/v4.20/bin/bin/../../lib/gcc/pic32mx/8.3.1/../../../../pic32mx/lib/fpu64/libc-musl.a(__init_stdio.o)
 .text.__init_stdio
                0x0000000000000000       0x2c /opt/microchip/xc32/v4.20/bin/bin/../../lib/gcc/pic32mx/8.3.1/../../../../pic32mx/lib/fpu64/libc-musl.a(__init_stdio.o)
 .xc_stack_usage.hdr
                0x0000000000000000        0xe /opt/microchip/xc32/v4.20/bin/bin/../../lib/gcc/pic32mx/8.3.1/../../../../pic32mx/lib/fpu64/libc-musl.a(__init_stdio.o)
 .note.GNU-stack
                0x0000000000000000        0x0 /opt/microchip/xc32/v4.20/bin/bin/../../lib/gcc/pic32mx/8.3.1/../../../../pic32mx/lib/fpu64/libc-musl.a(__init_stdio.o)
 .text          0x0000000000000000        0x0 /opt/microchip/xc32/v4.20/bin/bin/../../lib/gcc/pic32mx/8.3.1/../../../../pic32mx/lib/fpu64/libc-musl.a(__io_buf_needed.o)
 .data          0x0000000000000000        0x0 /opt/microchip/xc32/v4.20/bin/bin/../../lib/gcc/pic32mx/8.3.1/../../../../pic32mx/lib/fpu64/libc-musl.a(__io_buf_needed.o)
 .bss           0x0000000000000000        0x0 /opt/microchip/xc32/v4.20/bin/bin/../../lib/gcc/pic32mx/8.3.1/../../../../pic32mx/lib/fpu64/libc-musl.a(__io_buf_needed.o)
 .reginfo       0x0000000000000000       0x18 /opt/microchip/xc32/v4.20/bin/bin/../../lib/gcc/pic32mx/8.3.1/../../../../pic32mx/lib/fpu64/libc-musl.a(__io_buf_needed.o)
 .MIPS.abiflags
                0x0000000000000000       0x18 /opt/microchip/xc32/v4.20/bin/bin/../../lib/gcc/pic32mx/8.3.1/../../../../pic32mx/lib/fpu64/libc-musl.a(__io_buf_needed.o)
 .xc_stack_usage
                0x0000000000000000       0x1d /opt/microchip/xc32/v4.20/bin/bin/../../lib/gcc/pic32mx/8.3.1/../../../../pic32mx/lib/fpu64/libc-musl.a(__io_buf_needed.o)
 .xc_stack_usage.hdr
                0x0000000000000000        0xe /opt/microchip/xc32/v4.20/bin/bin/../../lib/gcc/pic32mx/8.3.1/../../../../pic32mx/lib/fpu64/libc-musl.a(__io_buf_needed.o)
 .note.GNU-stack
                0x0000000000000000        0x0 /opt/microchip/xc32/v4.20/bin/bin/../../lib/gcc/pic32mx/8.3.1/../../../../pic32mx/lib/fpu64/libc-musl.a(__io_buf_needed.o)
 .text          0x0000000000000000        0x0 /opt/microchip/xc32/v4.20/bin/bin/../../lib/gcc/pic32mx/8.3.1/../../../../pic32mx/lib/fpu64/libc-musl.a(__io_file_needed.o)
 .data          0x0000000000000000        0x0 /opt/microchip/xc32/v4.20/bin/bin/../../lib/gcc/pic32mx/8.3.1/../../../../pic32mx/lib/fpu64/libc-musl.a(__io_file_needed.o)
 .bss           0x0000000000000000        0x0 /opt/microchip/xc32/v4.20/bin/bin/../../lib/gcc/pic32mx/8.3.1/../../../../pic32mx/lib/fpu64/libc-musl.a(__io_file_needed.o)
 .reginfo       0x0000000000000000       0x18 /opt/microchip/xc32/v4.20/bin/bin/../../lib/gcc/pic32mx/8.3.1/../../../../pic32mx/lib/fpu64/libc-musl.a(__io_file_needed.o)
 .MIPS.abiflags
                0x0000000000000000       0x18 /opt/microchip/xc32/v4.20/bin/bin/../../lib/gcc/pic32mx/8.3.1/../../../../pic32mx/lib/fpu64/libc-musl.a(__io_file_needed.o)
 .xc_stack_usage
                0x0000000000000000       0x1e /opt/microchip/xc32/v4.20/bin/bin/../../lib/gcc/pic32mx/8.3.1/../../../../pic32mx/lib/fpu64/libc-musl.a(__io_file_needed.o)
 .xc_stack_usage.hdr
                0x0000000000000000        0xe /opt/microchip/xc32/v4.20/bin/bin/../../lib/gcc/pic32mx/8.3.1/../../../../pic32mx/lib/fpu64/libc-musl.a(__io_file_needed.o)
 .note.GNU-stack
                0x0000000000000000        0x0 /opt/microchip/xc32/v4.20/bin/bin/../../lib/gcc/pic32mx/8.3.1/../../../../pic32mx/lib/fpu64/libc-musl.a(__io_file_needed.o)
 .text          0x0000000000000000        0x0 /opt/microchip/xc32/v4.20/bin/bin/../../lib/gcc/pic32mx/8.3.1/../../../../pic32mx/lib/fpu64/libc-musl.a(__io_fmt_needed.o)
 .data          0x0000000000000000        0x0 /opt/microchip/xc32/v4.20/bin/bin/../../lib/gcc/pic32mx/8.3.1/../../../../pic32mx/lib/fpu64/libc-musl.a(__io_fmt_needed.o)
 .bss           0x0000000000000000        0x0 /opt/microchip/xc32/v4.20/bin/bin/../../lib/gcc/pic32mx/8.3.1/../../../../pic32mx/lib/fpu64/libc-musl.a(__io_fmt_needed.o)
 .reginfo       0x0000000000000000       0x18 /opt/microchip/xc32/v4.20/bin/bin/../../lib/gcc/pic32mx/8.3.1/../../../../pic32mx/lib/fpu64/libc-musl.a(__io_fmt_needed.o)
 .MIPS.abiflags
                0x0000000000000000       0x18 /opt/microchip/xc32/v4.20/bin/bin/../../lib/gcc/pic32mx/8.3.1/../../../../pic32mx/lib/fpu64/libc-musl.a(__io_fmt_needed.o)
 .xc_stack_usage
                0x0000000000000000       0x1d /opt/microchip/xc32/v4.20/bin/bin/../../lib/gcc/pic32mx/8.3.1/../../../../pic32mx/lib/fpu64/libc-musl.a(__io_fmt_needed.o)
 .xc_stack_usage.hdr
                0x0000000000000000        0xe /opt/microchip/xc32/v4.20/bin/bin/../../lib/gcc/pic32mx/8.3.1/../../../../pic32mx/lib/fpu64/libc-musl.a(__io_fmt_needed.o)
 .note.GNU-stack
                0x0000000000000000        0x0 /opt/microchip/xc32/v4.20/bin/bin/../../lib/gcc/pic32mx/8.3.1/../../../../pic32mx/lib/fpu64/libc-musl.a(__io_fmt_needed.o)
 .text          0x0000000000000000        0x0 /opt/microchip/xc32/v4.20/bin/bin/../../lib/gcc/pic32mx/8.3.1/../../../../pic32mx/lib/fpu64/libc-musl.a(__io_std_needed.o)
 .data          0x0000000000000000        0x0 /opt/microchip/xc32/v4.20/bin/bin/../../lib/gcc/pic32mx/8.3.1/../../../../pic32mx/lib/fpu64/libc-musl.a(__io_std_needed.o)
 .bss           0x0000000000000000        0x0 /opt/microchip/xc32/v4.20/bin/bin/../../lib/gcc/pic32mx/8.3.1/../../../../pic32mx/lib/fpu64/libc-musl.a(__io_std_needed.o)
 .reginfo       0x0000000000000000       0x18 /opt/microchip/xc32/v4.20/bin/bin/../../lib/gcc/pic32mx/8.3.1/../../../../pic32mx/lib/fpu64/libc-musl.a(__io_std_needed.o)
 .MIPS.abiflags
                0x0000000000000000       0x18 /opt/microchip/xc32/v4.20/bin/bin/../../lib/gcc/pic32mx/8.3.1/../../../../pic32mx/lib/fpu64/libc-musl.a(__io_std_needed.o)
 .xc_stack_usage
                0x0000000000000000       0x1d /opt/microchip/xc32/v4.20/bin/bin/../../lib/gcc/pic32mx/8.3.1/../../../../pic32mx/lib/fpu64/libc-musl.a(__io_std_needed.o)
 .xc_stack_usage.hdr
                0x0000000000000000        0xe /opt/microchip/xc32/v4.20/bin/bin/../../lib/gcc/pic32mx/8.3.1/../../../../pic32mx/lib/fpu64/libc-musl.a(__io_std_needed.o)
 .note.GNU-stack
                0x0000000000000000        0x0 /opt/microchip/xc32/v4.20/bin/bin/../../lib/gcc/pic32mx/8.3.1/../../../../pic32mx/lib/fpu64/libc-musl.a(__io_std_needed.o)
 .text          0x0000000000000000        0x0 /opt/microchip/xc32/v4.20/bin/bin/../../lib/gcc/pic32mx/8.3.1/../../../../pic32mx/lib/fpu64/libc-musl.a(__putc.o)
 .data          0x0000000000000000        0x0 /opt/microchip/xc32/v4.20/bin/bin/../../lib/gcc/pic32mx/8.3.1/../../../../pic32mx/lib/fpu64/libc-musl.a(__putc.o)
 .bss           0x0000000000000000        0x0 /opt/microchip/xc32/v4.20/bin/bin/../../lib/gcc/pic32mx/8.3.1/../../../../pic32mx/lib/fpu64/libc-musl.a(__putc.o)
 .reginfo       0x0000000000000000       0x18 /opt/microchip/xc32/v4.20/bin/bin/../../lib/gcc/pic32mx/8.3.1/../../../../pic32mx/lib/fpu64/libc-musl.a(__putc.o)
 .MIPS.abiflags
                0x0000000000000000       0x18 /opt/microchip/xc32/v4.20/bin/bin/../../lib/gcc/pic32mx/8.3.1/../../../../pic32mx/lib/fpu64/libc-musl.a(__putc.o)
 .xc_stack_usage
                0x0000000000000000       0x14 /opt/microchip/xc32/v4.20/bin/bin/../../lib/gcc/pic32mx/8.3.1/../../../../pic32mx/lib/fpu64/libc-musl.a(__putc.o)
 .text.__putc   0x0000000000000000       0x70 /opt/microchip/xc32/v4.20/bin/bin/../../lib/gcc/pic32mx/8.3.1/../../../../pic32mx/lib/fpu64/libc-musl.a(__putc.o)
 .xc_stack_usage.hdr
                0x0000000000000000        0xe /opt/microchip/xc32/v4.20/bin/bin/../../lib/gcc/pic32mx/8.3.1/../../../../pic32mx/lib/fpu64/libc-musl.a(__putc.o)
 .note.GNU-stack
                0x0000000000000000        0x0 /opt/microchip/xc32/v4.20/bin/bin/../../lib/gcc/pic32mx/8.3.1/../../../../pic32mx/lib/fpu64/libc-musl.a(__putc.o)
 .text          0x0000000000000000        0x0 /opt/microchip/xc32/v4.20/bin/bin/../../lib/gcc/pic32mx/8.3.1/../../../../pic32mx/lib/fpu64/libc-musl.a(__stderr.o)
 .data          0x0000000000000000       0x60 /opt/microchip/xc32/v4.20/bin/bin/../../lib/gcc/pic32mx/8.3.1/../../../../pic32mx/lib/fpu64/libc-musl.a(__stderr.o)
 .bss           0x0000000000000000        0x0 /opt/microchip/xc32/v4.20/bin/bin/../../lib/gcc/pic32mx/8.3.1/../../../../pic32mx/lib/fpu64/libc-musl.a(__stderr.o)
 .reginfo       0x0000000000000000       0x18 /opt/microchip/xc32/v4.20/bin/bin/../../lib/gcc/pic32mx/8.3.1/../../../../pic32mx/lib/fpu64/libc-musl.a(__stderr.o)
 .MIPS.abiflags
                0x0000000000000000       0x18 /opt/microchip/xc32/v4.20/bin/bin/../../lib/gcc/pic32mx/8.3.1/../../../../pic32mx/lib/fpu64/libc-musl.a(__stderr.o)
 .xc_stack_usage
                0x0000000000000000       0x50 /opt/microchip/xc32/v4.20/bin/bin/../../lib/gcc/pic32mx/8.3.1/../../../../pic32mx/lib/fpu64/libc-musl.a(__stderr.o)
 .text.__dummy  0x0000000000000000        0x8 /opt/microchip/xc32/v4.20/bin/bin/../../lib/gcc/pic32mx/8.3.1/../../../../pic32mx/lib/fpu64/libc-musl.a(__stderr.o)
 .text.__get_stderr
                0x0000000000000000        0xc /opt/microchip/xc32/v4.20/bin/bin/../../lib/gcc/pic32mx/8.3.1/../../../../pic32mx/lib/fpu64/libc-musl.a(__stderr.o)
 .xc_stack_usage.hdr
                0x0000000000000000        0xe /opt/microchip/xc32/v4.20/bin/bin/../../lib/gcc/pic32mx/8.3.1/../../../../pic32mx/lib/fpu64/libc-musl.a(__stderr.o)
 .note.GNU-stack
                0x0000000000000000        0x0 /opt/microchip/xc32/v4.20/bin/bin/../../lib/gcc/pic32mx/8.3.1/../../../../pic32mx/lib/fpu64/libc-musl.a(__stderr.o)
 .text          0x0000000000000000        0x0 /opt/microchip/xc32/v4.20/bin/bin/../../lib/gcc/pic32mx/8.3.1/../../../../pic32mx/lib/fpu64/libc-musl.a(__stdio_exit.o)
 .data          0x0000000000000000        0x0 /opt/microchip/xc32/v4.20/bin/bin/../../lib/gcc/pic32mx/8.3.1/../../../../pic32mx/lib/fpu64/libc-musl.a(__stdio_exit.o)
 .bss           0x0000000000000000        0x4 /opt/microchip/xc32/v4.20/bin/bin/../../lib/gcc/pic32mx/8.3.1/../../../../pic32mx/lib/fpu64/libc-musl.a(__stdio_exit.o)
 .reginfo       0x0000000000000000       0x18 /opt/microchip/xc32/v4.20/bin/bin/../../lib/gcc/pic32mx/8.3.1/../../../../pic32mx/lib/fpu64/libc-musl.a(__stdio_exit.o)
 .MIPS.abiflags
                0x0000000000000000       0x18 /opt/microchip/xc32/v4.20/bin/bin/../../lib/gcc/pic32mx/8.3.1/../../../../pic32mx/lib/fpu64/libc-musl.a(__stdio_exit.o)
 .xc_stack_usage
                0x0000000000000000       0x45 /opt/microchip/xc32/v4.20/bin/bin/../../lib/gcc/pic32mx/8.3.1/../../../../pic32mx/lib/fpu64/libc-musl.a(__stdio_exit.o)
 .text.__dummy  0x0000000000000000        0x8 /opt/microchip/xc32/v4.20/bin/bin/../../lib/gcc/pic32mx/8.3.1/../../../../pic32mx/lib/fpu64/libc-musl.a(__stdio_exit.o)
 .text.__dummy1
                0x0000000000000000        0x8 /opt/microchip/xc32/v4.20/bin/bin/../../lib/gcc/pic32mx/8.3.1/../../../../pic32mx/lib/fpu64/libc-musl.a(__stdio_exit.o)
 .text.__stdio_exit
                0x0000000000000000       0x4c /opt/microchip/xc32/v4.20/bin/bin/../../lib/gcc/pic32mx/8.3.1/../../../../pic32mx/lib/fpu64/libc-musl.a(__stdio_exit.o)
 .xc_stack_usage.hdr
                0x0000000000000000        0xe /opt/microchip/xc32/v4.20/bin/bin/../../lib/gcc/pic32mx/8.3.1/../../../../pic32mx/lib/fpu64/libc-musl.a(__stdio_exit.o)
 .note.GNU-stack
                0x0000000000000000        0x0 /opt/microchip/xc32/v4.20/bin/bin/../../lib/gcc/pic32mx/8.3.1/../../../../pic32mx/lib/fpu64/libc-musl.a(__stdio_exit.o)
 .text          0x0000000000000000        0x0 /opt/microchip/xc32/v4.20/bin/bin/../../lib/gcc/pic32mx/8.3.1/../../../../pic32mx/lib/fpu64/libc-musl.a(__stdio_write.o)
 .data          0x0000000000000000        0x0 /opt/microchip/xc32/v4.20/bin/bin/../../lib/gcc/pic32mx/8.3.1/../../../../pic32mx/lib/fpu64/libc-musl.a(__stdio_write.o)
 .bss           0x0000000000000000        0x0 /opt/microchip/xc32/v4.20/bin/bin/../../lib/gcc/pic32mx/8.3.1/../../../../pic32mx/lib/fpu64/libc-musl.a(__stdio_write.o)
 .reginfo       0x0000000000000000       0x18 /opt/microchip/xc32/v4.20/bin/bin/../../lib/gcc/pic32mx/8.3.1/../../../../pic32mx/lib/fpu64/libc-musl.a(__stdio_write.o)
 .MIPS.abiflags
                0x0000000000000000       0x18 /opt/microchip/xc32/v4.20/bin/bin/../../lib/gcc/pic32mx/8.3.1/../../../../pic32mx/lib/fpu64/libc-musl.a(__stdio_write.o)
 .xc_stack_usage
                0x0000000000000000       0x42 /opt/microchip/xc32/v4.20/bin/bin/../../lib/gcc/pic32mx/8.3.1/../../../../pic32mx/lib/fpu64/libc-musl.a(__stdio_write.o)
 .xc_stack_usage.hdr
                0x0000000000000000        0xe /opt/microchip/xc32/v4.20/bin/bin/../../lib/gcc/pic32mx/8.3.1/../../../../pic32mx/lib/fpu64/libc-musl.a(__stdio_write.o)
 .note.GNU-stack
                0x0000000000000000        0x0 /opt/microchip/xc32/v4.20/bin/bin/../../lib/gcc/pic32mx/8.3.1/../../../../pic32mx/lib/fpu64/libc-musl.a(__stdio_write.o)
 .text          0x0000000000000000        0x0 /opt/microchip/xc32/v4.20/bin/bin/../../lib/gcc/pic32mx/8.3.1/../../../../pic32mx/lib/fpu64/libc-musl.a(__stdout.o)
 .data          0x0000000000000000       0x60 /opt/microchip/xc32/v4.20/bin/bin/../../lib/gcc/pic32mx/8.3.1/../../../../pic32mx/lib/fpu64/libc-musl.a(__stdout.o)
 .bss           0x0000000000000000        0x0 /opt/microchip/xc32/v4.20/bin/bin/../../lib/gcc/pic32mx/8.3.1/../../../../pic32mx/lib/fpu64/libc-musl.a(__stdout.o)
 .reginfo       0x0000000000000000       0x18 /opt/microchip/xc32/v4.20/bin/bin/../../lib/gcc/pic32mx/8.3.1/../../../../pic32mx/lib/fpu64/libc-musl.a(__stdout.o)
 .MIPS.abiflags
                0x0000000000000000       0x18 /opt/microchip/xc32/v4.20/bin/bin/../../lib/gcc/pic32mx/8.3.1/../../../../pic32mx/lib/fpu64/libc-musl.a(__stdout.o)
 .xc_stack_usage
                0x0000000000000000       0x50 /opt/microchip/xc32/v4.20/bin/bin/../../lib/gcc/pic32mx/8.3.1/../../../../pic32mx/lib/fpu64/libc-musl.a(__stdout.o)
 .text.__dummy  0x0000000000000000        0x8 /opt/microchip/xc32/v4.20/bin/bin/../../lib/gcc/pic32mx/8.3.1/../../../../pic32mx/lib/fpu64/libc-musl.a(__stdout.o)
 .text.__get_stdout
                0x0000000000000000        0xc /opt/microchip/xc32/v4.20/bin/bin/../../lib/gcc/pic32mx/8.3.1/../../../../pic32mx/lib/fpu64/libc-musl.a(__stdout.o)
 .xc_stack_usage.hdr
                0x0000000000000000        0xe /opt/microchip/xc32/v4.20/bin/bin/../../lib/gcc/pic32mx/8.3.1/../../../../pic32mx/lib/fpu64/libc-musl.a(__stdout.o)
 .note.GNU-stack
                0x0000000000000000        0x0 /opt/microchip/xc32/v4.20/bin/bin/../../lib/gcc/pic32mx/8.3.1/../../../../pic32mx/lib/fpu64/libc-musl.a(__stdout.o)
 .text          0x0000000000000000        0x0 /opt/microchip/xc32/v4.20/bin/bin/../../lib/gcc/pic32mx/8.3.1/../../../../pic32mx/lib/fpu64/libc-musl.a(__towrite.o)
 .data          0x0000000000000000        0x0 /opt/microchip/xc32/v4.20/bin/bin/../../lib/gcc/pic32mx/8.3.1/../../../../pic32mx/lib/fpu64/libc-musl.a(__towrite.o)
 .bss           0x0000000000000000        0x0 /opt/microchip/xc32/v4.20/bin/bin/../../lib/gcc/pic32mx/8.3.1/../../../../pic32mx/lib/fpu64/libc-musl.a(__towrite.o)
 .reginfo       0x0000000000000000       0x18 /opt/microchip/xc32/v4.20/bin/bin/../../lib/gcc/pic32mx/8.3.1/../../../../pic32mx/lib/fpu64/libc-musl.a(__towrite.o)
 .MIPS.abiflags
                0x0000000000000000       0x18 /opt/microchip/xc32/v4.20/bin/bin/../../lib/gcc/pic32mx/8.3.1/../../../../pic32mx/lib/fpu64/libc-musl.a(__towrite.o)
 .xc_stack_usage
                0x0000000000000000       0x2c /opt/microchip/xc32/v4.20/bin/bin/../../lib/gcc/pic32mx/8.3.1/../../../../pic32mx/lib/fpu64/libc-musl.a(__towrite.o)
 .text.__dummy  0x0000000000000000        0x8 /opt/microchip/xc32/v4.20/bin/bin/../../lib/gcc/pic32mx/8.3.1/../../../../pic32mx/lib/fpu64/libc-musl.a(__towrite.o)
 .xc_stack_usage.hdr
                0x0000000000000000        0xe /opt/microchip/xc32/v4.20/bin/bin/../../lib/gcc/pic32mx/8.3.1/../../../../pic32mx/lib/fpu64/libc-musl.a(__towrite.o)
 .note.GNU-stack
                0x0000000000000000        0x0 /opt/microchip/xc32/v4.20/bin/bin/../../lib/gcc/pic32mx/8.3.1/../../../../pic32mx/lib/fpu64/libc-musl.a(__towrite.o)
 .text          0x0000000000000000        0x0 /opt/microchip/xc32/v4.20/bin/bin/../../lib/gcc/pic32mx/8.3.1/../../../../pic32mx/lib/fpu64/libc-musl.a(putc.o)
 .data          0x0000000000000000        0x0 /opt/microchip/xc32/v4.20/bin/bin/../../lib/gcc/pic32mx/8.3.1/../../../../pic32mx/lib/fpu64/libc-musl.a(putc.o)
 .bss           0x0000000000000000        0x0 /opt/microchip/xc32/v4.20/bin/bin/../../lib/gcc/pic32mx/8.3.1/../../../../pic32mx/lib/fpu64/libc-musl.a(putc.o)
 .reginfo       0x0000000000000000       0x18 /opt/microchip/xc32/v4.20/bin/bin/../../lib/gcc/pic32mx/8.3.1/../../../../pic32mx/lib/fpu64/libc-musl.a(putc.o)
 .MIPS.abiflags
                0x0000000000000000       0x18 /opt/microchip/xc32/v4.20/bin/bin/../../lib/gcc/pic32mx/8.3.1/../../../../pic32mx/lib/fpu64/libc-musl.a(putc.o)
 .xc_stack_usage
                0x0000000000000000       0x4f /opt/microchip/xc32/v4.20/bin/bin/../../lib/gcc/pic32mx/8.3.1/../../../../pic32mx/lib/fpu64/libc-musl.a(putc.o)
 .text.__putc_unbuffered
                0x0000000000000000       0x60 /opt/microchip/xc32/v4.20/bin/bin/../../lib/gcc/pic32mx/8.3.1/../../../../pic32mx/lib/fpu64/libc-musl.a(putc.o)
 .text.putc     0x0000000000000000       0x1c /opt/microchip/xc32/v4.20/bin/bin/../../lib/gcc/pic32mx/8.3.1/../../../../pic32mx/lib/fpu64/libc-musl.a(putc.o)
 .xc_stack_usage.hdr
                0x0000000000000000        0xe /opt/microchip/xc32/v4.20/bin/bin/../../lib/gcc/pic32mx/8.3.1/../../../../pic32mx/lib/fpu64/libc-musl.a(putc.o)
 .note.GNU-stack
                0x0000000000000000        0x0 /opt/microchip/xc32/v4.20/bin/bin/../../lib/gcc/pic32mx/8.3.1/../../../../pic32mx/lib/fpu64/libc-musl.a(putc.o)
 .text          0x0000000000000000        0x0 /opt/microchip/xc32/v4.20/bin/bin/../../lib/gcc/pic32mx/8.3.1/../../../../pic32mx/lib/fpu64/libc-musl.a(writev.o)
 .data          0x0000000000000000        0x0 /opt/microchip/xc32/v4.20/bin/bin/../../lib/gcc/pic32mx/8.3.1/../../../../pic32mx/lib/fpu64/libc-musl.a(writev.o)
 .bss           0x0000000000000000        0x0 /opt/microchip/xc32/v4.20/bin/bin/../../lib/gcc/pic32mx/8.3.1/../../../../pic32mx/lib/fpu64/libc-musl.a(writev.o)
 .reginfo       0x0000000000000000       0x18 /opt/microchip/xc32/v4.20/bin/bin/../../lib/gcc/pic32mx/8.3.1/../../../../pic32mx/lib/fpu64/libc-musl.a(writev.o)
 .MIPS.abiflags
                0x0000000000000000       0x18 /opt/microchip/xc32/v4.20/bin/bin/../../lib/gcc/pic32mx/8.3.1/../../../../pic32mx/lib/fpu64/libc-musl.a(writev.o)
 .xc_stack_usage
                0x0000000000000000       0x16 /opt/microchip/xc32/v4.20/bin/bin/../../lib/gcc/pic32mx/8.3.1/../../../../pic32mx/lib/fpu64/libc-musl.a(writev.o)
 .xc_stack_usage.hdr
                0x0000000000000000        0xe /opt/microchip/xc32/v4.20/bin/bin/../../lib/gcc/pic32mx/8.3.1/../../../../pic32mx/lib/fpu64/libc-musl.a(writev.o)
 .note.GNU-stack
                0x0000000000000000        0x0 /opt/microchip/xc32/v4.20/bin/bin/../../lib/gcc/pic32mx/8.3.1/../../../../pic32mx/lib/fpu64/libc-musl.a(writev.o)
 .text          0x0000000000000000        0x0 /opt/microchip/xc32/v4.20/bin/bin/../../lib/gcc/pic32mx/8.3.1/../../../../pic32mx/lib/fpu64/libc-musl.a(libc.o)
 .data          0x0000000000000000        0x0 /opt/microchip/xc32/v4.20/bin/bin/../../lib/gcc/pic32mx/8.3.1/../../../../pic32mx/lib/fpu64/libc-musl.a(libc.o)
 .reginfo       0x0000000000000000       0x18 /opt/microchip/xc32/v4.20/bin/bin/../../lib/gcc/pic32mx/8.3.1/../../../../pic32mx/lib/fpu64/libc-musl.a(libc.o)
 .MIPS.abiflags
                0x0000000000000000       0x18 /opt/microchip/xc32/v4.20/bin/bin/../../lib/gcc/pic32mx/8.3.1/../../../../pic32mx/lib/fpu64/libc-musl.a(libc.o)
 .xc_stack_usage.hdr
                0x0000000000000000        0xe /opt/microchip/xc32/v4.20/bin/bin/../../lib/gcc/pic32mx/8.3.1/../../../../pic32mx/lib/fpu64/libc-musl.a(libc.o)
 .note.GNU-stack
                0x0000000000000000        0x0 /opt/microchip/xc32/v4.20/bin/bin/../../lib/gcc/pic32mx/8.3.1/../../../../pic32mx/lib/fpu64/libc-musl.a(libc.o)
 .text          0x0000000000000000        0x0 /opt/microchip/xc32/v4.20/bin/bin/../../lib/gcc/pic32mx/8.3.1/../../../../pic32mx/lib/fpu64/libc-musl.a(__int_vfprintf.o)
 .data          0x0000000000000000        0x0 /opt/microchip/xc32/v4.20/bin/bin/../../lib/gcc/pic32mx/8.3.1/../../../../pic32mx/lib/fpu64/libc-musl.a(__int_vfprintf.o)
 .bss           0x0000000000000000        0x0 /opt/microchip/xc32/v4.20/bin/bin/../../lib/gcc/pic32mx/8.3.1/../../../../pic32mx/lib/fpu64/libc-musl.a(__int_vfprintf.o)
 .reginfo       0x0000000000000000       0x18 /opt/microchip/xc32/v4.20/bin/bin/../../lib/gcc/pic32mx/8.3.1/../../../../pic32mx/lib/fpu64/libc-musl.a(__int_vfprintf.o)
 .MIPS.abiflags
                0x0000000000000000       0x18 /opt/microchip/xc32/v4.20/bin/bin/../../lib/gcc/pic32mx/8.3.1/../../../../pic32mx/lib/fpu64/libc-musl.a(__int_vfprintf.o)
 .xc_stack_usage
                0x0000000000000000       0x18 /opt/microchip/xc32/v4.20/bin/bin/../../lib/gcc/pic32mx/8.3.1/../../../../pic32mx/lib/fpu64/libc-musl.a(__int_vfprintf.o)
 .xc_stack_usage.hdr
                0x0000000000000000        0xe /opt/microchip/xc32/v4.20/bin/bin/../../lib/gcc/pic32mx/8.3.1/../../../../pic32mx/lib/fpu64/libc-musl.a(__int_vfprintf.o)
 .note.GNU-stack
                0x0000000000000000        0x0 /opt/microchip/xc32/v4.20/bin/bin/../../lib/gcc/pic32mx/8.3.1/../../../../pic32mx/lib/fpu64/libc-musl.a(__int_vfprintf.o)
 .text          0x0000000000000000        0x0 /opt/microchip/xc32/v4.20/bin/bin/../../lib/gcc/pic32mx/8.3.1/../../../../pic32mx/lib/fpu64/libc-musl.a(__overflow.o)
 .data          0x0000000000000000        0x0 /opt/microchip/xc32/v4.20/bin/bin/../../lib/gcc/pic32mx/8.3.1/../../../../pic32mx/lib/fpu64/libc-musl.a(__overflow.o)
 .bss           0x0000000000000000        0x0 /opt/microchip/xc32/v4.20/bin/bin/../../lib/gcc/pic32mx/8.3.1/../../../../pic32mx/lib/fpu64/libc-musl.a(__overflow.o)
 .reginfo       0x0000000000000000       0x18 /opt/microchip/xc32/v4.20/bin/bin/../../lib/gcc/pic32mx/8.3.1/../../../../pic32mx/lib/fpu64/libc-musl.a(__overflow.o)
 .MIPS.abiflags
                0x0000000000000000       0x18 /opt/microchip/xc32/v4.20/bin/bin/../../lib/gcc/pic32mx/8.3.1/../../../../pic32mx/lib/fpu64/libc-musl.a(__overflow.o)
 .xc_stack_usage
                0x0000000000000000       0x18 /opt/microchip/xc32/v4.20/bin/bin/../../lib/gcc/pic32mx/8.3.1/../../../../pic32mx/lib/fpu64/libc-musl.a(__overflow.o)
 .text.__overflow
                0x0000000000000000       0x94 /opt/microchip/xc32/v4.20/bin/bin/../../lib/gcc/pic32mx/8.3.1/../../../../pic32mx/lib/fpu64/libc-musl.a(__overflow.o)
 .xc_stack_usage.hdr
                0x0000000000000000        0xe /opt/microchip/xc32/v4.20/bin/bin/../../lib/gcc/pic32mx/8.3.1/../../../../pic32mx/lib/fpu64/libc-musl.a(__overflow.o)
 .note.GNU-stack
                0x0000000000000000        0x0 /opt/microchip/xc32/v4.20/bin/bin/../../lib/gcc/pic32mx/8.3.1/../../../../pic32mx/lib/fpu64/libc-musl.a(__overflow.o)
 .text          0x0000000000000000        0x0 /opt/microchip/xc32/v4.20/bin/bin/../../lib/gcc/pic32mx/8.3.1/../../../../pic32mx/lib/fpu64/libc-musl.a(__fclose.o)
 .data          0x0000000000000000        0x0 /opt/microchip/xc32/v4.20/bin/bin/../../lib/gcc/pic32mx/8.3.1/../../../../pic32mx/lib/fpu64/libc-musl.a(__fclose.o)
 .bss           0x0000000000000000        0x0 /opt/microchip/xc32/v4.20/bin/bin/../../lib/gcc/pic32mx/8.3.1/../../../../pic32mx/lib/fpu64/libc-musl.a(__fclose.o)
 .reginfo       0x0000000000000000       0x18 /opt/microchip/xc32/v4.20/bin/bin/../../lib/gcc/pic32mx/8.3.1/../../../../pic32mx/lib/fpu64/libc-musl.a(__fclose.o)
 .MIPS.abiflags
                0x0000000000000000       0x18 /opt/microchip/xc32/v4.20/bin/bin/../../lib/gcc/pic32mx/8.3.1/../../../../pic32mx/lib/fpu64/libc-musl.a(__fclose.o)
 .xc_stack_usage
                0x0000000000000000       0x16 /opt/microchip/xc32/v4.20/bin/bin/../../lib/gcc/pic32mx/8.3.1/../../../../pic32mx/lib/fpu64/libc-musl.a(__fclose.o)
 .text.__fclose
                0x0000000000000000       0x38 /opt/microchip/xc32/v4.20/bin/bin/../../lib/gcc/pic32mx/8.3.1/../../../../pic32mx/lib/fpu64/libc-musl.a(__fclose.o)
 .xc_stack_usage.hdr
                0x0000000000000000        0xe /opt/microchip/xc32/v4.20/bin/bin/../../lib/gcc/pic32mx/8.3.1/../../../../pic32mx/lib/fpu64/libc-musl.a(__fclose.o)
 .note.GNU-stack
                0x0000000000000000        0x0 /opt/microchip/xc32/v4.20/bin/bin/../../lib/gcc/pic32mx/8.3.1/../../../../pic32mx/lib/fpu64/libc-musl.a(__fclose.o)
 .text          0x0000000000000000        0x0 /opt/microchip/xc32/v4.20/bin/bin/../../lib/gcc/pic32mx/8.3.1/../../../../pic32mx/lib/fpu64/libc-musl.a(__fmt_a.o)
 .data          0x0000000000000000        0x0 /opt/microchip/xc32/v4.20/bin/bin/../../lib/gcc/pic32mx/8.3.1/../../../../pic32mx/lib/fpu64/libc-musl.a(__fmt_a.o)
 .bss           0x0000000000000000        0x0 /opt/microchip/xc32/v4.20/bin/bin/../../lib/gcc/pic32mx/8.3.1/../../../../pic32mx/lib/fpu64/libc-musl.a(__fmt_a.o)
 .reginfo       0x0000000000000000       0x18 /opt/microchip/xc32/v4.20/bin/bin/../../lib/gcc/pic32mx/8.3.1/../../../../pic32mx/lib/fpu64/libc-musl.a(__fmt_a.o)
 .MIPS.abiflags
                0x0000000000000000       0x18 /opt/microchip/xc32/v4.20/bin/bin/../../lib/gcc/pic32mx/8.3.1/../../../../pic32mx/lib/fpu64/libc-musl.a(__fmt_a.o)
 .xc_stack_usage
                0x0000000000000000       0x15 /opt/microchip/xc32/v4.20/bin/bin/../../lib/gcc/pic32mx/8.3.1/../../../../pic32mx/lib/fpu64/libc-musl.a(__fmt_a.o)
 .xc_stack_usage.hdr
                0x0000000000000000        0xe /opt/microchip/xc32/v4.20/bin/bin/../../lib/gcc/pic32mx/8.3.1/../../../../pic32mx/lib/fpu64/libc-musl.a(__fmt_a.o)
 .note.GNU-stack
                0x0000000000000000        0x0 /opt/microchip/xc32/v4.20/bin/bin/../../lib/gcc/pic32mx/8.3.1/../../../../pic32mx/lib/fpu64/libc-musl.a(__fmt_a.o)
 .text          0x0000000000000000        0x0 /opt/microchip/xc32/v4.20/bin/bin/../../lib/gcc/pic32mx/8.3.1/../../../../pic32mx/lib/fpu64/libc-musl.a(__fseeko.o)
 .data          0x0000000000000000        0x0 /opt/microchip/xc32/v4.20/bin/bin/../../lib/gcc/pic32mx/8.3.1/../../../../pic32mx/lib/fpu64/libc-musl.a(__fseeko.o)
 .bss           0x0000000000000000        0x0 /opt/microchip/xc32/v4.20/bin/bin/../../lib/gcc/pic32mx/8.3.1/../../../../pic32mx/lib/fpu64/libc-musl.a(__fseeko.o)
 .reginfo       0x0000000000000000       0x18 /opt/microchip/xc32/v4.20/bin/bin/../../lib/gcc/pic32mx/8.3.1/../../../../pic32mx/lib/fpu64/libc-musl.a(__fseeko.o)
 .MIPS.abiflags
                0x0000000000000000       0x18 /opt/microchip/xc32/v4.20/bin/bin/../../lib/gcc/pic32mx/8.3.1/../../../../pic32mx/lib/fpu64/libc-musl.a(__fseeko.o)
 .xc_stack_usage
                0x0000000000000000       0x16 /opt/microchip/xc32/v4.20/bin/bin/../../lib/gcc/pic32mx/8.3.1/../../../../pic32mx/lib/fpu64/libc-musl.a(__fseeko.o)
 .text.__fseeko
                0x0000000000000000       0x20 /opt/microchip/xc32/v4.20/bin/bin/../../lib/gcc/pic32mx/8.3.1/../../../../pic32mx/lib/fpu64/libc-musl.a(__fseeko.o)
 .xc_stack_usage.hdr
                0x0000000000000000        0xe /opt/microchip/xc32/v4.20/bin/bin/../../lib/gcc/pic32mx/8.3.1/../../../../pic32mx/lib/fpu64/libc-musl.a(__fseeko.o)
 .note.GNU-stack
                0x0000000000000000        0x0 /opt/microchip/xc32/v4.20/bin/bin/../../lib/gcc/pic32mx/8.3.1/../../../../pic32mx/lib/fpu64/libc-musl.a(__fseeko.o)
 .text          0x0000000000000000        0x0 /opt/microchip/xc32/v4.20/bin/bin/../../lib/gcc/pic32mx/8.3.1/../../../../pic32mx/lib/fpu64/libc-musl.a(__ftello.o)
 .data          0x0000000000000000        0x0 /opt/microchip/xc32/v4.20/bin/bin/../../lib/gcc/pic32mx/8.3.1/../../../../pic32mx/lib/fpu64/libc-musl.a(__ftello.o)
 .bss           0x0000000000000000        0x0 /opt/microchip/xc32/v4.20/bin/bin/../../lib/gcc/pic32mx/8.3.1/../../../../pic32mx/lib/fpu64/libc-musl.a(__ftello.o)
 .reginfo       0x0000000000000000       0x18 /opt/microchip/xc32/v4.20/bin/bin/../../lib/gcc/pic32mx/8.3.1/../../../../pic32mx/lib/fpu64/libc-musl.a(__ftello.o)
 .MIPS.abiflags
                0x0000000000000000       0x18 /opt/microchip/xc32/v4.20/bin/bin/../../lib/gcc/pic32mx/8.3.1/../../../../pic32mx/lib/fpu64/libc-musl.a(__ftello.o)
 .xc_stack_usage
                0x0000000000000000       0x2f /opt/microchip/xc32/v4.20/bin/bin/../../lib/gcc/pic32mx/8.3.1/../../../../pic32mx/lib/fpu64/libc-musl.a(__ftello.o)
 .text.__dummy  0x0000000000000000       0x2c /opt/microchip/xc32/v4.20/bin/bin/../../lib/gcc/pic32mx/8.3.1/../../../../pic32mx/lib/fpu64/libc-musl.a(__ftello.o)
 .text.__ftello_adj
                0x0000000000000000       0x1c /opt/microchip/xc32/v4.20/bin/bin/../../lib/gcc/pic32mx/8.3.1/../../../../pic32mx/lib/fpu64/libc-musl.a(__ftello.o)
 .xc_stack_usage.hdr
                0x0000000000000000        0xe /opt/microchip/xc32/v4.20/bin/bin/../../lib/gcc/pic32mx/8.3.1/../../../../pic32mx/lib/fpu64/libc-musl.a(__ftello.o)
 .note.GNU-stack
                0x0000000000000000        0x0 /opt/microchip/xc32/v4.20/bin/bin/../../lib/gcc/pic32mx/8.3.1/../../../../pic32mx/lib/fpu64/libc-musl.a(__ftello.o)
 .text          0x0000000000000000        0x0 /opt/microchip/xc32/v4.20/bin/bin/../../lib/gcc/pic32mx/8.3.1/../../../../pic32mx/lib/fpu64/libc-musl.a(__fwrite.o)
 .data          0x0000000000000000        0x0 /opt/microchip/xc32/v4.20/bin/bin/../../lib/gcc/pic32mx/8.3.1/../../../../pic32mx/lib/fpu64/libc-musl.a(__fwrite.o)
 .bss           0x0000000000000000        0x0 /opt/microchip/xc32/v4.20/bin/bin/../../lib/gcc/pic32mx/8.3.1/../../../../pic32mx/lib/fpu64/libc-musl.a(__fwrite.o)
 .reginfo       0x0000000000000000       0x18 /opt/microchip/xc32/v4.20/bin/bin/../../lib/gcc/pic32mx/8.3.1/../../../../pic32mx/lib/fpu64/libc-musl.a(__fwrite.o)
 .MIPS.abiflags
                0x0000000000000000       0x18 /opt/microchip/xc32/v4.20/bin/bin/../../lib/gcc/pic32mx/8.3.1/../../../../pic32mx/lib/fpu64/libc-musl.a(__fwrite.o)
 .xc_stack_usage
                0x0000000000000000       0x36 /opt/microchip/xc32/v4.20/bin/bin/../../lib/gcc/pic32mx/8.3.1/../../../../pic32mx/lib/fpu64/libc-musl.a(__fwrite.o)
 .xc_stack_usage.hdr
                0x0000000000000000        0xe /opt/microchip/xc32/v4.20/bin/bin/../../lib/gcc/pic32mx/8.3.1/../../../../pic32mx/lib/fpu64/libc-musl.a(__fwrite.o)
 .note.GNU-stack
                0x0000000000000000        0x0 /opt/microchip/xc32/v4.20/bin/bin/../../lib/gcc/pic32mx/8.3.1/../../../../pic32mx/lib/fpu64/libc-musl.a(__fwrite.o)
 .text          0x0000000000000000        0x0 /opt/microchip/xc32/v4.20/bin/bin/../../lib/gcc/pic32mx/8.3.1/../../../../pic32mx/lib/fpu64/libm-musl.a(floor.o)
 .data          0x0000000000000000        0x0 /opt/microchip/xc32/v4.20/bin/bin/../../lib/gcc/pic32mx/8.3.1/../../../../pic32mx/lib/fpu64/libm-musl.a(floor.o)
 .bss           0x0000000000000000        0x0 /opt/microchip/xc32/v4.20/bin/bin/../../lib/gcc/pic32mx/8.3.1/../../../../pic32mx/lib/fpu64/libm-musl.a(floor.o)
 .reginfo       0x0000000000000000       0x18 /opt/microchip/xc32/v4.20/bin/bin/../../lib/gcc/pic32mx/8.3.1/../../../../pic32mx/lib/fpu64/libm-musl.a(floor.o)
 .MIPS.abiflags
                0x0000000000000000       0x18 /opt/microchip/xc32/v4.20/bin/bin/../../lib/gcc/pic32mx/8.3.1/../../../../pic32mx/lib/fpu64/libm-musl.a(floor.o)
 .xc_stack_usage
                0x0000000000000000       0x13 /opt/microchip/xc32/v4.20/bin/bin/../../lib/gcc/pic32mx/8.3.1/../../../../pic32mx/lib/fpu64/libm-musl.a(floor.o)
 .xc_stack_usage.hdr
                0x0000000000000000        0xe /opt/microchip/xc32/v4.20/bin/bin/../../lib/gcc/pic32mx/8.3.1/../../../../pic32mx/lib/fpu64/libm-musl.a(floor.o)
 .note.GNU-stack
                0x0000000000000000        0x0 /opt/microchip/xc32/v4.20/bin/bin/../../lib/gcc/pic32mx/8.3.1/../../../../pic32mx/lib/fpu64/libm-musl.a(floor.o)
 .text          0x0000000000000000        0x0 /opt/microchip/xc32/v4.20/bin/bin/../../lib/gcc/pic32mx/8.3.1/../../../../pic32mx/lib/fpu64/libm-musl.a(fma.o)
 .data          0x0000000000000000        0x0 /opt/microchip/xc32/v4.20/bin/bin/../../lib/gcc/pic32mx/8.3.1/../../../../pic32mx/lib/fpu64/libm-musl.a(fma.o)
 .bss           0x0000000000000000        0x0 /opt/microchip/xc32/v4.20/bin/bin/../../lib/gcc/pic32mx/8.3.1/../../../../pic32mx/lib/fpu64/libm-musl.a(fma.o)
 .reginfo       0x0000000000000000       0x18 /opt/microchip/xc32/v4.20/bin/bin/../../lib/gcc/pic32mx/8.3.1/../../../../pic32mx/lib/fpu64/libm-musl.a(fma.o)
 .MIPS.abiflags
                0x0000000000000000       0x18 /opt/microchip/xc32/v4.20/bin/bin/../../lib/gcc/pic32mx/8.3.1/../../../../pic32mx/lib/fpu64/libm-musl.a(fma.o)
 .xc_stack_usage
                0x0000000000000000       0x3e /opt/microchip/xc32/v4.20/bin/bin/../../lib/gcc/pic32mx/8.3.1/../../../../pic32mx/lib/fpu64/libm-musl.a(fma.o)
 .xc_stack_usage.hdr
                0x0000000000000000        0xe /opt/microchip/xc32/v4.20/bin/bin/../../lib/gcc/pic32mx/8.3.1/../../../../pic32mx/lib/fpu64/libm-musl.a(fma.o)
 .note.GNU-stack
                0x0000000000000000        0x0 /opt/microchip/xc32/v4.20/bin/bin/../../lib/gcc/pic32mx/8.3.1/../../../../pic32mx/lib/fpu64/libm-musl.a(fma.o)
 .text          0x0000000000000000        0x0 /opt/microchip/xc32/v4.20/bin/bin/../../lib/gcc/pic32mx/8.3.1/../../../../pic32mx/lib/fpu64/libm-musl.a(scalbn.o)
 .data          0x0000000000000000        0x0 /opt/microchip/xc32/v4.20/bin/bin/../../lib/gcc/pic32mx/8.3.1/../../../../pic32mx/lib/fpu64/libm-musl.a(scalbn.o)
 .bss           0x0000000000000000        0x0 /opt/microchip/xc32/v4.20/bin/bin/../../lib/gcc/pic32mx/8.3.1/../../../../pic32mx/lib/fpu64/libm-musl.a(scalbn.o)
 .reginfo       0x0000000000000000       0x18 /opt/microchip/xc32/v4.20/bin/bin/../../lib/gcc/pic32mx/8.3.1/../../../../pic32mx/lib/fpu64/libm-musl.a(scalbn.o)
 .MIPS.abiflags
                0x0000000000000000       0x18 /opt/microchip/xc32/v4.20/bin/bin/../../lib/gcc/pic32mx/8.3.1/../../../../pic32mx/lib/fpu64/libm-musl.a(scalbn.o)
 .xc_stack_usage
                0x0000000000000000       0x14 /opt/microchip/xc32/v4.20/bin/bin/../../lib/gcc/pic32mx/8.3.1/../../../../pic32mx/lib/fpu64/libm-musl.a(scalbn.o)
 .xc_stack_usage.hdr
                0x0000000000000000        0xe /opt/microchip/xc32/v4.20/bin/bin/../../lib/gcc/pic32mx/8.3.1/../../../../pic32mx/lib/fpu64/libm-musl.a(scalbn.o)
 .note.GNU-stack
                0x0000000000000000        0x0 /opt/microchip/xc32/v4.20/bin/bin/../../lib/gcc/pic32mx/8.3.1/../../../../pic32mx/lib/fpu64/libm-musl.a(scalbn.o)
 .data          0x0000000000000000        0x0 /opt/microchip/xc32/v4.20/bin/bin/../../lib/gcc/pic32mx/8.3.1/fpu64/libgcc.a(_lshrdi3.o)
 .bss           0x0000000000000000        0x0 /opt/microchip/xc32/v4.20/bin/bin/../../lib/gcc/pic32mx/8.3.1/fpu64/libgcc.a(_lshrdi3.o)
 .reginfo       0x0000000000000000       0x18 /opt/microchip/xc32/v4.20/bin/bin/../../lib/gcc/pic32mx/8.3.1/fpu64/libgcc.a(_lshrdi3.o)
 .MIPS.abiflags
                0x0000000000000000       0x18 /opt/microchip/xc32/v4.20/bin/bin/../../lib/gcc/pic32mx/8.3.1/fpu64/libgcc.a(_lshrdi3.o)
 .xc_stack_usage
                0x0000000000000000       0x17 /opt/microchip/xc32/v4.20/bin/bin/../../lib/gcc/pic32mx/8.3.1/fpu64/libgcc.a(_lshrdi3.o)
 .xc_stack_usage.hdr
                0x0000000000000000        0xe /opt/microchip/xc32/v4.20/bin/bin/../../lib/gcc/pic32mx/8.3.1/fpu64/libgcc.a(_lshrdi3.o)
 .data          0x0000000000000000        0x0 /opt/microchip/xc32/v4.20/bin/bin/../../lib/gcc/pic32mx/8.3.1/fpu64/libgcc.a(_ashldi3.o)
 .bss           0x0000000000000000        0x0 /opt/microchip/xc32/v4.20/bin/bin/../../lib/gcc/pic32mx/8.3.1/fpu64/libgcc.a(_ashldi3.o)
 .reginfo       0x0000000000000000       0x18 /opt/microchip/xc32/v4.20/bin/bin/../../lib/gcc/pic32mx/8.3.1/fpu64/libgcc.a(_ashldi3.o)
 .MIPS.abiflags
                0x0000000000000000       0x18 /opt/microchip/xc32/v4.20/bin/bin/../../lib/gcc/pic32mx/8.3.1/fpu64/libgcc.a(_ashldi3.o)
 .xc_stack_usage
                0x0000000000000000       0x17 /opt/microchip/xc32/v4.20/bin/bin/../../lib/gcc/pic32mx/8.3.1/fpu64/libgcc.a(_ashldi3.o)
 .xc_stack_usage.hdr
                0x0000000000000000        0xe /opt/microchip/xc32/v4.20/bin/bin/../../lib/gcc/pic32mx/8.3.1/fpu64/libgcc.a(_ashldi3.o)
 .data          0x0000000000000000        0x0 /opt/microchip/xc32/v4.20/bin/bin/../../lib/gcc/pic32mx/8.3.1/fpu64/libgcc.a(_udivdi3.o)
 .bss           0x0000000000000000        0x0 /opt/microchip/xc32/v4.20/bin/bin/../../lib/gcc/pic32mx/8.3.1/fpu64/libgcc.a(_udivdi3.o)
 .reginfo       0x0000000000000000       0x18 /opt/microchip/xc32/v4.20/bin/bin/../../lib/gcc/pic32mx/8.3.1/fpu64/libgcc.a(_udivdi3.o)
 .MIPS.abiflags
                0x0000000000000000       0x18 /opt/microchip/xc32/v4.20/bin/bin/../../lib/gcc/pic32mx/8.3.1/fpu64/libgcc.a(_udivdi3.o)
 .xc_stack_usage
                0x0000000000000000       0x17 /opt/microchip/xc32/v4.20/bin/bin/../../lib/gcc/pic32mx/8.3.1/fpu64/libgcc.a(_udivdi3.o)
 .xc_stack_usage.hdr
                0x0000000000000000        0xe /opt/microchip/xc32/v4.20/bin/bin/../../lib/gcc/pic32mx/8.3.1/fpu64/libgcc.a(_udivdi3.o)
 .data          0x0000000000000000        0x0 /opt/microchip/xc32/v4.20/bin/bin/../../lib/gcc/pic32mx/8.3.1/fpu64/libgcc.a(_umoddi3.o)
 .bss           0x0000000000000000        0x0 /opt/microchip/xc32/v4.20/bin/bin/../../lib/gcc/pic32mx/8.3.1/fpu64/libgcc.a(_umoddi3.o)
 .reginfo       0x0000000000000000       0x18 /opt/microchip/xc32/v4.20/bin/bin/../../lib/gcc/pic32mx/8.3.1/fpu64/libgcc.a(_umoddi3.o)
 .MIPS.abiflags
                0x0000000000000000       0x18 /opt/microchip/xc32/v4.20/bin/bin/../../lib/gcc/pic32mx/8.3.1/fpu64/libgcc.a(_umoddi3.o)
 .xc_stack_usage
                0x0000000000000000       0x17 /opt/microchip/xc32/v4.20/bin/bin/../../lib/gcc/pic32mx/8.3.1/fpu64/libgcc.a(_umoddi3.o)
 .xc_stack_usage.hdr
                0x0000000000000000        0xe /opt/microchip/xc32/v4.20/bin/bin/../../lib/gcc/pic32mx/8.3.1/fpu64/libgcc.a(_umoddi3.o)
 .text          0x0000000000000000        0x0 /opt/microchip/xc32/v4.20/bin/bin/../../lib/gcc/pic32mx/8.3.1/../../../../pic32mx/lib/fpu64/libpic32.a(sbrk.o)
 .data          0x0000000000000000        0x0 /opt/microchip/xc32/v4.20/bin/bin/../../lib/gcc/pic32mx/8.3.1/../../../../pic32mx/lib/fpu64/libpic32.a(sbrk.o)
 .reginfo       0x0000000000000000       0x18 /opt/microchip/xc32/v4.20/bin/bin/../../lib/gcc/pic32mx/8.3.1/../../../../pic32mx/lib/fpu64/libpic32.a(sbrk.o)
 .MIPS.abiflags
                0x0000000000000000       0x18 /opt/microchip/xc32/v4.20/bin/bin/../../lib/gcc/pic32mx/8.3.1/../../../../pic32mx/lib/fpu64/libpic32.a(sbrk.o)
 .xc_stack_usage
                0x0000000000000000       0x77 /opt/microchip/xc32/v4.20/bin/bin/../../lib/gcc/pic32mx/8.3.1/../../../../pic32mx/lib/fpu64/libpic32.a(sbrk.o)
 .text.getpagesize
                0x0000000000000000        0x8 /opt/microchip/xc32/v4.20/bin/bin/../../lib/gcc/pic32mx/8.3.1/../../../../pic32mx/lib/fpu64/libpic32.a(sbrk.o)
 .text.sbrk     0x0000000000000000       0x4c /opt/microchip/xc32/v4.20/bin/bin/../../lib/gcc/pic32mx/8.3.1/../../../../pic32mx/lib/fpu64/libpic32.a(sbrk.o)
 .xc_stack_usage.hdr
                0x0000000000000000        0xe /opt/microchip/xc32/v4.20/bin/bin/../../lib/gcc/pic32mx/8.3.1/../../../../pic32mx/lib/fpu64/libpic32.a(sbrk.o)
 .text          0x0000000000000000        0x0 /opt/microchip/xc32/v4.20/bin/bin/../../lib/gcc/pic32mx/8.3.1/../../../../pic32mx/lib/fpu64/libpic32.a(lseek.o)
 .data          0x0000000000000000        0x0 /opt/microchip/xc32/v4.20/bin/bin/../../lib/gcc/pic32mx/8.3.1/../../../../pic32mx/lib/fpu64/libpic32.a(lseek.o)
 .bss           0x0000000000000000        0x0 /opt/microchip/xc32/v4.20/bin/bin/../../lib/gcc/pic32mx/8.3.1/../../../../pic32mx/lib/fpu64/libpic32.a(lseek.o)
 .reginfo       0x0000000000000000       0x18 /opt/microchip/xc32/v4.20/bin/bin/../../lib/gcc/pic32mx/8.3.1/../../../../pic32mx/lib/fpu64/libpic32.a(lseek.o)
 .MIPS.abiflags
                0x0000000000000000       0x18 /opt/microchip/xc32/v4.20/bin/bin/../../lib/gcc/pic32mx/8.3.1/../../../../pic32mx/lib/fpu64/libpic32.a(lseek.o)
 .xc_stack_usage
                0x0000000000000000       0x13 /opt/microchip/xc32/v4.20/bin/bin/../../lib/gcc/pic32mx/8.3.1/../../../../pic32mx/lib/fpu64/libpic32.a(lseek.o)
 .xc_stack_usage.hdr
                0x0000000000000000        0xe /opt/microchip/xc32/v4.20/bin/bin/../../lib/gcc/pic32mx/8.3.1/../../../../pic32mx/lib/fpu64/libpic32.a(lseek.o)
 .text          0x0000000000000000        0x0 /opt/microchip/xc32/v4.20/bin/bin/../../lib/gcc/pic32mx/8.3.1/../../../../pic32mx/lib/fpu64/libpic32.a(close.o)
 .data          0x0000000000000000        0x0 /opt/microchip/xc32/v4.20/bin/bin/../../lib/gcc/pic32mx/8.3.1/../../../../pic32mx/lib/fpu64/libpic32.a(close.o)
 .bss           0x0000000000000000        0x0 /opt/microchip/xc32/v4.20/bin/bin/../../lib/gcc/pic32mx/8.3.1/../../../../pic32mx/lib/fpu64/libpic32.a(close.o)
 .reginfo       0x0000000000000000       0x18 /opt/microchip/xc32/v4.20/bin/bin/../../lib/gcc/pic32mx/8.3.1/../../../../pic32mx/lib/fpu64/libpic32.a(close.o)
 .MIPS.abiflags
                0x0000000000000000       0x18 /opt/microchip/xc32/v4.20/bin/bin/../../lib/gcc/pic32mx/8.3.1/../../../../pic32mx/lib/fpu64/libpic32.a(close.o)
 .xc_stack_usage
                0x0000000000000000       0x13 /opt/microchip/xc32/v4.20/bin/bin/../../lib/gcc/pic32mx/8.3.1/../../../../pic32mx/lib/fpu64/libpic32.a(close.o)
 .xc_stack_usage.hdr
                0x0000000000000000        0xe /opt/microchip/xc32/v4.20/bin/bin/../../lib/gcc/pic32mx/8.3.1/../../../../pic32mx/lib/fpu64/libpic32.a(close.o)
 .text          0x0000000000000000        0x0 /opt/microchip/xc32/v4.20/bin/bin/../../lib/gcc/pic32mx/8.3.1/../../../../pic32mx/lib/fpu64/libpic32.a(errno.o)
 .data          0x0000000000000000        0x0 /opt/microchip/xc32/v4.20/bin/bin/../../lib/gcc/pic32mx/8.3.1/../../../../pic32mx/lib/fpu64/libpic32.a(errno.o)
 .bss           0x0000000000000000        0x0 /opt/microchip/xc32/v4.20/bin/bin/../../lib/gcc/pic32mx/8.3.1/../../../../pic32mx/lib/fpu64/libpic32.a(errno.o)
 .reginfo       0x0000000000000000       0x18 /opt/microchip/xc32/v4.20/bin/bin/../../lib/gcc/pic32mx/8.3.1/../../../../pic32mx/lib/fpu64/libpic32.a(errno.o)
 .MIPS.abiflags
                0x0000000000000000       0x18 /opt/microchip/xc32/v4.20/bin/bin/../../lib/gcc/pic32mx/8.3.1/../../../../pic32mx/lib/fpu64/libpic32.a(errno.o)
 .xc_stack_usage.hdr
                0x0000000000000000        0xe /opt/microchip/xc32/v4.20/bin/bin/../../lib/gcc/pic32mx/8.3.1/../../../../pic32mx/lib/fpu64/libpic32.a(errno.o)

Memory Configuration

Name             Origin             Length             Attributes
kseg0_program_mem 0x000000009d000000 0x0000000000080000 xr
kseg0_boot_mem   0x000000009fc04490 0x0000000000000000
debug_exec_mem   0x000000009fc04490 0x0000000000000b70
kseg1_boot_mem   0x00000000bfc00000 0x0000000000000480
kseg1_boot_mem_4B0 0x00000000bfc004b0 0x0000000000003a80
config_BFC03F40  0x00000000bfc03f40 0x0000000000000004
config_BFC03F44  0x00000000bfc03f44 0x0000000000000004
config_BFC03F48  0x00000000bfc03f48 0x0000000000000004
config_BFC03F4C  0x00000000bfc03f4c 0x0000000000000004
config_BFC03F5C  0x00000000bfc03f5c 0x0000000000000004
config_BFC03F6C  0x00000000bfc03f6c 0x0000000000000004
config_BFC03F70  0x00000000bfc03f70 0x0000000000000004
config_BFC03FC0  0x00000000bfc03fc0 0x0000000000000004
config_BFC03FC4  0x00000000bfc03fc4 0x0000000000000004
config_BFC03FC8  0x00000000bfc03fc8 0x0000000000000004
config_BFC03FCC  0x00000000bfc03fcc 0x0000000000000004
config_BFC03FDC  0x00000000bfc03fdc 0x0000000000000004
config_BFC03FEC  0x00000000bfc03fec 0x0000000000000004
config_BFC03FF0  0x00000000bfc03ff0 0x0000000000000004
lowerbootaliaslastpage 0x00000000bfc04000 0x0000000000001000
boot1            0x00000000bfc40000 0x0000000000003f30
config_BFC43F40  0x00000000bfc43f40 0x0000000000000004
config_BFC43F44  0x00000000bfc43f44 0x0000000000000004
config_BFC43F48  0x00000000bfc43f48 0x0000000000000004
config_BFC43F4C  0x00000000bfc43f4c 0x0000000000000004
config_BFC43F5C  0x00000000bfc43f5c 0x0000000000000004
config_BFC43F6C  0x00000000bfc43f6c 0x0000000000000004
config_BFC43F70  0x00000000bfc43f70 0x0000000000000004
config_BFC43FC0  0x00000000bfc43fc0 0x0000000000000004
config_BFC43FC4  0x00000000bfc43fc4 0x0000000000000004
config_BFC43FC8  0x00000000bfc43fc8 0x0000000000000004
config_BFC43FCC  0x00000000bfc43fcc 0x0000000000000004
config_BFC43FDC  0x00000000bfc43fdc 0x0000000000000004
config_BFC43FEC  0x00000000bfc43fec 0x0000000000000004
config_BFC43FF0  0x00000000bfc43ff0 0x0000000000000004
boot1lastpage    0x00000000bfc44000 0x0000000000001000
config_BFC45000  0x00000000bfc45000 0x0000000000000004
config_BFC45004  0x00000000bfc45004 0x0000000000000004
config_BFC45008  0x00000000bfc45008 0x0000000000000004
config_BFC4500C  0x00000000bfc4500c 0x0000000000000004
config_BFC45010  0x00000000bfc45010 0x0000000000000004
config_BFC45014  0x00000000bfc45014 0x0000000000000004
config_BFC45018  0x00000000bfc45018 0x0000000000000004
config_BFC45020  0x00000000bfc45020 0x0000000000000004
config_BFC45024  0x00000000bfc45024 0x0000000000000004
config_BFC45028  0x00000000bfc45028 0x0000000000000004
config_BFC4502C  0x00000000bfc4502c 0x0000000000000004
kseg0_data_mem   0x0000000080000000 0x0000000000010000 w !x
sfrs             0x00000000bf800000 0x0000000000100000
configsfrs_BFC03F30 0x00000000bfc03f30 0x000000000000001c
configsfrs_BFC03FB0 0x00000000bfc03fb0 0x000000000000001c
configsfrs_BFC43F30 0x00000000bfc43f30 0x000000000000001c
configsfrs_BFC43FB0 0x00000000bfc43fb0 0x000000000000001c
configsfrs_BFC45000 0x00000000bfc45000 0x000000000000001c
configsfrs_BFC45020 0x00000000bfc45020 0x0000000000000010
*default*        0x0000000000000000 0xffffffffffffffff

Linker script and memory map

LOAD /opt/microchip/xc32/v4.20/bin/bin/../../lib/gcc/pic32mx/8.3.1/../../../../pic32mx/lib/fpu64/debug-exception-return.o
LOAD build/pic32mk_mcj_curiosity_pro/production/_ext/1333799919/plib_canfd1.o
LOAD build/pic32mk_mcj_curiosity_pro/production/_ext/899710619/plib_clk.o
LOAD build/pic32mk_mcj_curiosity_pro/production/_ext/2121194872/plib_dmac.o
LOAD build/pic32mk_mcj_curiosity_pro/production/_ext/2121156184/plib_evic.o
LOAD build/pic32mk_mcj_curiosity_pro/production/_ext/2121102356/plib_gpio.o
LOAD build/pic32mk_mcj_curiosity_pro/production/_ext/1753921419/plib_spi2_master.o
LOAD build/pic32mk_mcj_curiosity_pro/production/_ext/2120699413/plib_uart1.o
LOAD build/pic32mk_mcj_curiosity_pro/production/_ext/529947251/xc32_monitor.o
LOAD build/pic32mk_mcj_curiosity_pro/production/_ext/1661106823/initialization.o
LOAD build/pic32mk_mcj_curiosity_pro/production/_ext/1661106823/interrupts.o
LOAD build/pic32mk_mcj_curiosity_pro/production/_ext/1661106823/exceptions.o
LOAD build/pic32mk_mcj_curiosity_pro/production/_ext/1360937237/main_pic32mk_mcj.o
                0x0000000000000001                __MPLAB_BUILD = 0x1
                0x0000000000000400                PROVIDE (_min_stack_size = 0x400)
START GROUP
LOAD vector_offset_init.o
END GROUP
                0x0000000000000001                PROVIDE (_vector_spacing = 0x1)
                0x000000009d000000                PROVIDE (_ebase_address = 0x9d000000)
                0x00000000bfc00000                _RESET_ADDR = 0xbfc00000
                0x00000000bfc00380                _BEV_EXCPT_ADDR = 0xbfc00380
                0x00000000bfc00480                _DBG_EXCPT_ADDR = 0xbfc00480
                0x000000009d000000                _SIMPLE_TLB_REFILL_EXCPT_ADDR = (_ebase_address + 0x0)
                0x000000009d000180                _GEN_EXCPT_ADDR = (_ebase_address + 0x180)

.config_BFC03F40
 *(.config_BFC03F40)

.config_BFC03F44
 *(.config_BFC03F44)

.config_BFC03F48
 *(.config_BFC03F48)

.config_BFC03F4C
 *(.config_BFC03F4C)

.config_BFC03F5C
 *(.config_BFC03F5C)

.config_BFC03F6C
 *(.config_BFC03F6C)

.config_BFC03F70
 *(.config_BFC03F70)

.config_BFC03FC0
                0x00000000bfc03fc0        0x4
 *(.config_BFC03FC0)
 .config_BFC03FC0
                0x00000000bfc03fc0        0x4 build/pic32mk_mcj_curiosity_pro/production/_ext/1661106823/initialization.o
                0x00000000bfc03fc0                __config_BFC03FC0

.config_BFC03FC4
                0x00000000bfc03fc4        0x4
 *(.config_BFC03FC4)
 .config_BFC03FC4
                0x00000000bfc03fc4        0x4 build/pic32mk_mcj_curiosity_pro/production/_ext/1661106823/initialization.o
                0x00000000bfc03fc4                __config_BFC03FC4

.config_BFC03FC8
                0x00000000bfc03fc8        0x4
 *(.config_BFC03FC8)
 .config_BFC03FC8
                0x00000000bfc03fc8        0x4 build/pic32mk_mcj_curiosity_pro/production/_ext/1661106823/initialization.o
                0x00000000bfc03fc8                __config_BFC03FC8

.config_BFC03FCC
                0x00000000bfc03fcc        0x4
 *(.config_BFC03FCC)
 .config_BFC03FCC
                0x00000000bfc03fcc        0x4 build/pic32mk_mcj_curiosity_pro/production/_ext/1661106823/initialization.o
                0x00000000bfc03fcc                __config_BFC03FCC

.config_BFC03FDC
 *(.config_BFC03FDC)

.config_BFC03FEC
 *(.config_BFC03FEC)

.config_BFC03FF0
                0x00000000bfc03ff0        0x4
 *(.config_BFC03FF0)
 .config_BFC03FF0
                0x00000000bfc03ff0        0x4 build/pic32mk_mcj_curiosity_pro/production/_ext/1661106823/initialization.o
                0x00000000bfc03ff0                __config_BFC03FF0

.config_BFC43F40
 *(.config_BFC43F40)

.config_BFC43F44
 *(.config_BFC43F44)

.config_BFC43F48
 *(.config_BFC43F48)

.config_BFC43F4C
 *(.config_BFC43F4C)

.config_BFC43F5C
 *(.config_BFC43F5C)

.config_BFC43F6C
 *(.config_BFC43F6C)

.config_BFC43F70
 *(.config_BFC43F70)

.config_BFC43FC0
 *(.config_BFC43FC0)

.config_BFC43FC4
 *(.config_BFC43FC4)

.config_BFC43FC8
 *(.config_BFC43FC8)

.config_BFC43FCC
 *(.config_BFC43FCC)

.config_BFC43FDC
 *(.config_BFC43FDC)

.config_BFC43FEC
 *(.config_BFC43FEC)

.config_BFC43FF0
 *(.config_BFC43FF0)

.config_BFC45000
 *(.config_BFC45000)

.config_BFC45004
 *(.config_BFC45004)

.config_BFC45008
 *(.config_BFC45008)

.config_BFC4500C
 *(.config_BFC4500C)

.config_BFC45010
 *(.config_BFC45010)

.config_BFC45014
 *(.config_BFC45014)

.config_BFC45018
 *(.config_BFC45018)

.config_BFC45020
 *(.config_BFC45020)

.config_BFC45024
 *(.config_BFC45024)

.config_BFC45028
 *(.config_BFC45028)

.config_BFC4502C
 *(.config_BFC4502C)

.reset          0x00000000bfc00000      0x194
 *(.reset)
 .reset         0x00000000bfc00000       0x18 /tmp/ccuOZEZr.o
                0x00000000bfc00000                _reset
 *(.reset.startup)
 .reset.startup
                0x00000000bfc00018      0x17c /tmp/ccuOZEZr.o
                0x00000000bfc00018                _startup

.bev_excpt      0x00000000bfc00380       0x10
 *(.bev_handler)
 .bev_handler   0x00000000bfc00380       0x10 /tmp/ccuOZEZr.o

.app_excpt      0x000000009d000180       0x10
 *(.gen_handler)
 .gen_handler   0x000000009d000180       0x10 /tmp/ccuOZEZr.o

.vectors        0x000000009d000200       0x58
                0x000000009d000200                . = ALIGN (0x4)
                0x0000000000000210                __vector_offset_0 = DEFINED (__vector_dispatch_0)?(. - _ebase_address):__vector_offset_default
 *(.vector_0)
                0x000000009d000200                . = ALIGN (0x4)
                0x0000000000000210                __vector_offset_1 = DEFINED (__vector_dispatch_1)?(. - _ebase_address):__vector_offset_default
 *(.vector_1)
                0x000000009d000200                . = ALIGN (0x4)
                0x0000000000000210                __vector_offset_2 = DEFINED (__vector_dispatch_2)?(. - _ebase_address):__vector_offset_default
 *(.vector_2)
                0x000000009d000200                . = ALIGN (0x4)
                0x0000000000000210                __vector_offset_3 = DEFINED (__vector_dispatch_3)?(. - _ebase_address):__vector_offset_default
 *(.vector_3)
                0x000000009d000200                . = ALIGN (0x4)
                0x0000000000000210                __vector_offset_4 = DEFINED (__vector_dispatch_4)?(. - _ebase_address):__vector_offset_default
 *(.vector_4)
                0x000000009d000200                . = ALIGN (0x4)
                0x0000000000000210                __vector_offset_5 = DEFINED (__vector_dispatch_5)?(. - _ebase_address):__vector_offset_default
 *(.vector_5)
                0x000000009d000200                . = ALIGN (0x4)
                0x0000000000000210                __vector_offset_6 = DEFINED (__vector_dispatch_6)?(. - _ebase_address):__vector_offset_default
 *(.vector_6)
                0x000000009d000200                . = ALIGN (0x4)
                0x0000000000000210                __vector_offset_7 = DEFINED (__vector_dispatch_7)?(. - _ebase_address):__vector_offset_default
 *(.vector_7)
                0x000000009d000200                . = ALIGN (0x4)
                0x0000000000000210                __vector_offset_8 = DEFINED (__vector_dispatch_8)?(. - _ebase_address):__vector_offset_default
 *(.vector_8)
                0x000000009d000200                . = ALIGN (0x4)
                0x0000000000000210                __vector_offset_9 = DEFINED (__vector_dispatch_9)?(. - _ebase_address):__vector_offset_default
 *(.vector_9)
                0x000000009d000200                . = ALIGN (0x4)
                0x0000000000000210                __vector_offset_10 = DEFINED (__vector_dispatch_10)?(. - _ebase_address):__vector_offset_default
 *(.vector_10)
                0x000000009d000200                . = ALIGN (0x4)
                0x0000000000000210                __vector_offset_11 = DEFINED (__vector_dispatch_11)?(. - _ebase_address):__vector_offset_default
 *(.vector_11)
                0x000000009d000200                . = ALIGN (0x4)
                0x0000000000000210                __vector_offset_12 = DEFINED (__vector_dispatch_12)?(. - _ebase_address):__vector_offset_default
 *(.vector_12)
                0x000000009d000200                . = ALIGN (0x4)
                0x0000000000000210                __vector_offset_13 = DEFINED (__vector_dispatch_13)?(. - _ebase_address):__vector_offset_default
 *(.vector_13)
                0x000000009d000200                . = ALIGN (0x4)
                0x0000000000000210                __vector_offset_14 = DEFINED (__vector_dispatch_14)?(. - _ebase_address):__vector_offset_default
 *(.vector_14)
                0x000000009d000200                . = ALIGN (0x4)
                0x0000000000000210                __vector_offset_15 = DEFINED (__vector_dispatch_15)?(. - _ebase_address):__vector_offset_default
 *(.vector_15)
                0x000000009d000200                . = ALIGN (0x4)
                0x0000000000000210                __vector_offset_16 = DEFINED (__vector_dispatch_16)?(. - _ebase_address):__vector_offset_default
 *(.vector_16)
                0x000000009d000200                . = ALIGN (0x4)
                0x0000000000000210                __vector_offset_17 = DEFINED (__vector_dispatch_17)?(. - _ebase_address):__vector_offset_default
 *(.vector_17)
                0x000000009d000200                . = ALIGN (0x4)
                0x0000000000000210                __vector_offset_18 = DEFINED (__vector_dispatch_18)?(. - _ebase_address):__vector_offset_default
 *(.vector_18)
                0x000000009d000200                . = ALIGN (0x4)
                0x0000000000000210                __vector_offset_19 = DEFINED (__vector_dispatch_19)?(. - _ebase_address):__vector_offset_default
 *(.vector_19)
                0x000000009d000200                . = ALIGN (0x4)
                0x0000000000000210                __vector_offset_20 = DEFINED (__vector_dispatch_20)?(. - _ebase_address):__vector_offset_default
 *(.vector_20)
                0x000000009d000200                . = ALIGN (0x4)
                0x0000000000000210                __vector_offset_21 = DEFINED (__vector_dispatch_21)?(. - _ebase_address):__vector_offset_default
 *(.vector_21)
                0x000000009d000200                . = ALIGN (0x4)
                0x0000000000000210                __vector_offset_22 = DEFINED (__vector_dispatch_22)?(. - _ebase_address):__vector_offset_default
 *(.vector_22)
                0x000000009d000200                . = ALIGN (0x4)
                0x0000000000000210                __vector_offset_23 = DEFINED (__vector_dispatch_23)?(. - _ebase_address):__vector_offset_default
 *(.vector_23)
                0x000000009d000200                . = ALIGN (0x4)
                0x0000000000000210                __vector_offset_24 = DEFINED (__vector_dispatch_24)?(. - _ebase_address):__vector_offset_default
 *(.vector_24)
                0x000000009d000200                . = ALIGN (0x4)
                0x0000000000000210                __vector_offset_25 = DEFINED (__vector_dispatch_25)?(. - _ebase_address):__vector_offset_default
 *(.vector_25)
                0x000000009d000200                . = ALIGN (0x4)
                0x0000000000000210                __vector_offset_26 = DEFINED (__vector_dispatch_26)?(. - _ebase_address):__vector_offset_default
 *(.vector_26)
                0x000000009d000200                . = ALIGN (0x4)
                0x0000000000000210                __vector_offset_27 = DEFINED (__vector_dispatch_27)?(. - _ebase_address):__vector_offset_default
 *(.vector_27)
                0x000000009d000200                . = ALIGN (0x4)
                0x0000000000000210                __vector_offset_28 = DEFINED (__vector_dispatch_28)?(. - _ebase_address):__vector_offset_default
 *(.vector_28)
                0x000000009d000200                . = ALIGN (0x4)
                0x0000000000000210                __vector_offset_29 = DEFINED (__vector_dispatch_29)?(. - _ebase_address):__vector_offset_default
 *(.vector_29)
                0x000000009d000200                . = ALIGN (0x4)
                0x0000000000000210                __vector_offset_30 = DEFINED (__vector_dispatch_30)?(. - _ebase_address):__vector_offset_default
 *(.vector_30)
                0x000000009d000200                . = ALIGN (0x4)
                0x0000000000000210                __vector_offset_31 = DEFINED (__vector_dispatch_31)?(. - _ebase_address):__vector_offset_default
 *(.vector_31)
                0x000000009d000200                . = ALIGN (0x4)
                0x0000000000000210                __vector_offset_32 = DEFINED (__vector_dispatch_32)?(. - _ebase_address):__vector_offset_default
 *(.vector_32)
                0x000000009d000200                . = ALIGN (0x4)
                0x0000000000000210                __vector_offset_33 = DEFINED (__vector_dispatch_33)?(. - _ebase_address):__vector_offset_default
 *(.vector_33)
                0x000000009d000200                . = ALIGN (0x4)
                0x0000000000000210                __vector_offset_34 = DEFINED (__vector_dispatch_34)?(. - _ebase_address):__vector_offset_default
 *(.vector_34)
                0x000000009d000200                . = ALIGN (0x4)
                0x0000000000000210                __vector_offset_35 = DEFINED (__vector_dispatch_35)?(. - _ebase_address):__vector_offset_default
 *(.vector_35)
                0x000000009d000200                . = ALIGN (0x4)
                0x0000000000000210                __vector_offset_36 = DEFINED (__vector_dispatch_36)?(. - _ebase_address):__vector_offset_default
 *(.vector_36)
                0x000000009d000200                . = ALIGN (0x4)
                0x0000000000000210                __vector_offset_37 = DEFINED (__vector_dispatch_37)?(. - _ebase_address):__vector_offset_default
 *(.vector_37)
                0x000000009d000200                . = ALIGN (0x4)
                0x0000000000000210                __vector_offset_38 = DEFINED (__vector_dispatch_38)?(. - _ebase_address):__vector_offset_default
 *(.vector_38)
                0x000000009d000200                . = ALIGN (0x4)
                0x0000000000000210                __vector_offset_39 = DEFINED (__vector_dispatch_39)?(. - _ebase_address):__vector_offset_default
 *(.vector_39)
                0x000000009d000200                . = ALIGN (0x4)
                0x0000000000000210                __vector_offset_40 = DEFINED (__vector_dispatch_40)?(. - _ebase_address):__vector_offset_default
 *(.vector_40)
                0x000000009d000200                . = ALIGN (0x4)
                0x0000000000000210                __vector_offset_41 = DEFINED (__vector_dispatch_41)?(. - _ebase_address):__vector_offset_default
 *(.vector_41)
                0x000000009d000200                . = ALIGN (0x4)
                0x0000000000000210                __vector_offset_42 = DEFINED (__vector_dispatch_42)?(. - _ebase_address):__vector_offset_default
 *(.vector_42)
                0x000000009d000200                . = ALIGN (0x4)
                0x0000000000000210                __vector_offset_43 = DEFINED (__vector_dispatch_43)?(. - _ebase_address):__vector_offset_default
 *(.vector_43)
                0x000000009d000200                . = ALIGN (0x4)
                0x0000000000000210                __vector_offset_44 = DEFINED (__vector_dispatch_44)?(. - _ebase_address):__vector_offset_default
 *(.vector_44)
                0x000000009d000200                . = ALIGN (0x4)
                0x0000000000000210                __vector_offset_45 = DEFINED (__vector_dispatch_45)?(. - _ebase_address):__vector_offset_default
 *(.vector_45)
                0x000000009d000200                . = ALIGN (0x4)
                0x0000000000000210                __vector_offset_46 = DEFINED (__vector_dispatch_46)?(. - _ebase_address):__vector_offset_default
 *(.vector_46)
                0x000000009d000200                . = ALIGN (0x4)
                0x0000000000000210                __vector_offset_47 = DEFINED (__vector_dispatch_47)?(. - _ebase_address):__vector_offset_default
 *(.vector_47)
                0x000000009d000200                . = ALIGN (0x4)
                0x0000000000000210                __vector_offset_48 = DEFINED (__vector_dispatch_48)?(. - _ebase_address):__vector_offset_default
 *(.vector_48)
                0x000000009d000200                . = ALIGN (0x4)
                0x0000000000000210                __vector_offset_49 = DEFINED (__vector_dispatch_49)?(. - _ebase_address):__vector_offset_default
 *(.vector_49)
                0x000000009d000200                . = ALIGN (0x4)
                0x0000000000000210                __vector_offset_50 = DEFINED (__vector_dispatch_50)?(. - _ebase_address):__vector_offset_default
 *(.vector_50)
                0x000000009d000200                . = ALIGN (0x4)
                0x0000000000000210                __vector_offset_51 = DEFINED (__vector_dispatch_51)?(. - _ebase_address):__vector_offset_default
 *(.vector_51)
                0x000000009d000200                . = ALIGN (0x4)
                0x0000000000000210                __vector_offset_52 = DEFINED (__vector_dispatch_52)?(. - _ebase_address):__vector_offset_default
 *(.vector_52)
                0x000000009d000200                . = ALIGN (0x4)
                0x0000000000000210                __vector_offset_53 = DEFINED (__vector_dispatch_53)?(. - _ebase_address):__vector_offset_default
 *(.vector_53)
                0x000000009d000200                . = ALIGN (0x4)
                0x0000000000000210                __vector_offset_54 = DEFINED (__vector_dispatch_54)?(. - _ebase_address):__vector_offset_default
 *(.vector_54)
                0x000000009d000200                . = ALIGN (0x4)
                0x0000000000000210                __vector_offset_55 = DEFINED (__vector_dispatch_55)?(. - _ebase_address):__vector_offset_default
 *(.vector_55)
                0x000000009d000200                . = ALIGN (0x4)
                0x0000000000000210                __vector_offset_56 = DEFINED (__vector_dispatch_56)?(. - _ebase_address):__vector_offset_default
 *(.vector_56)
                0x000000009d000200                . = ALIGN (0x4)
                0x0000000000000210                __vector_offset_57 = DEFINED (__vector_dispatch_57)?(. - _ebase_address):__vector_offset_default
 *(.vector_57)
                0x000000009d000200                . = ALIGN (0x4)
                0x0000000000000210                __vector_offset_58 = DEFINED (__vector_dispatch_58)?(. - _ebase_address):__vector_offset_default
 *(.vector_58)
                0x000000009d000200                . = ALIGN (0x4)
                0x0000000000000210                __vector_offset_59 = DEFINED (__vector_dispatch_59)?(. - _ebase_address):__vector_offset_default
 *(.vector_59)
                0x000000009d000200                . = ALIGN (0x4)
                0x0000000000000210                __vector_offset_60 = DEFINED (__vector_dispatch_60)?(. - _ebase_address):__vector_offset_default
 *(.vector_60)
                0x000000009d000200                . = ALIGN (0x4)
                0x0000000000000210                __vector_offset_61 = DEFINED (__vector_dispatch_61)?(. - _ebase_address):__vector_offset_default
 *(.vector_61)
                0x000000009d000200                . = ALIGN (0x4)
                0x0000000000000210                __vector_offset_62 = DEFINED (__vector_dispatch_62)?(. - _ebase_address):__vector_offset_default
 *(.vector_62)
                0x000000009d000200                . = ALIGN (0x4)
                0x0000000000000210                __vector_offset_63 = DEFINED (__vector_dispatch_63)?(. - _ebase_address):__vector_offset_default
 *(.vector_63)
                0x000000009d000200                . = ALIGN (0x4)
                0x0000000000000210                __vector_offset_64 = DEFINED (__vector_dispatch_64)?(. - _ebase_address):__vector_offset_default
 *(.vector_64)
                0x000000009d000200                . = ALIGN (0x4)
                0x0000000000000210                __vector_offset_65 = DEFINED (__vector_dispatch_65)?(. - _ebase_address):__vector_offset_default
 *(.vector_65)
                0x000000009d000200                . = ALIGN (0x4)
                0x0000000000000210                __vector_offset_66 = DEFINED (__vector_dispatch_66)?(. - _ebase_address):__vector_offset_default
 *(.vector_66)
                0x000000009d000200                . = ALIGN (0x4)
                0x0000000000000210                __vector_offset_67 = DEFINED (__vector_dispatch_67)?(. - _ebase_address):__vector_offset_default
 *(.vector_67)
                0x000000009d000200                . = ALIGN (0x4)
                0x0000000000000210                __vector_offset_68 = DEFINED (__vector_dispatch_68)?(. - _ebase_address):__vector_offset_default
 *(.vector_68)
                0x000000009d000200                . = ALIGN (0x4)
                0x0000000000000210                __vector_offset_69 = DEFINED (__vector_dispatch_69)?(. - _ebase_address):__vector_offset_default
 *(.vector_69)
                0x000000009d000200                . = ALIGN (0x4)
                0x0000000000000210                __vector_offset_70 = DEFINED (__vector_dispatch_70)?(. - _ebase_address):__vector_offset_default
 *(.vector_70)
                0x000000009d000200                . = ALIGN (0x4)
                0x0000000000000210                __vector_offset_71 = DEFINED (__vector_dispatch_71)?(. - _ebase_address):__vector_offset_default
 *(.vector_71)
                0x000000009d000200                . = ALIGN (0x4)
                0x0000000000000210                __vector_offset_72 = DEFINED (__vector_dispatch_72)?(. - _ebase_address):__vector_offset_default
 *(.vector_72)
                0x000000009d000200                . = ALIGN (0x4)
                0x0000000000000210                __vector_offset_73 = DEFINED (__vector_dispatch_73)?(. - _ebase_address):__vector_offset_default
 *(.vector_73)
                0x000000009d000200                . = ALIGN (0x4)
                0x0000000000000210                __vector_offset_74 = DEFINED (__vector_dispatch_74)?(. - _ebase_address):__vector_offset_default
 *(.vector_74)
                0x000000009d000200                . = ALIGN (0x4)
                0x0000000000000210                __vector_offset_75 = DEFINED (__vector_dispatch_75)?(. - _ebase_address):__vector_offset_default
 *(.vector_75)
                0x000000009d000200                . = ALIGN (0x4)
                0x0000000000000210                __vector_offset_76 = DEFINED (__vector_dispatch_76)?(. - _ebase_address):__vector_offset_default
 *(.vector_76)
                0x000000009d000200                . = ALIGN (0x4)
                0x0000000000000210                __vector_offset_77 = DEFINED (__vector_dispatch_77)?(. - _ebase_address):__vector_offset_default
 *(.vector_77)
                0x000000009d000200                . = ALIGN (0x4)
                0x0000000000000210                __vector_offset_78 = DEFINED (__vector_dispatch_78)?(. - _ebase_address):__vector_offset_default
 *(.vector_78)
                0x000000009d000200                . = ALIGN (0x4)
                0x0000000000000210                __vector_offset_79 = DEFINED (__vector_dispatch_79)?(. - _ebase_address):__vector_offset_default
 *(.vector_79)
                0x000000009d000200                . = ALIGN (0x4)
                0x0000000000000210                __vector_offset_80 = DEFINED (__vector_dispatch_80)?(. - _ebase_address):__vector_offset_default
 *(.vector_80)
                0x000000009d000200                . = ALIGN (0x4)
                0x0000000000000210                __vector_offset_81 = DEFINED (__vector_dispatch_81)?(. - _ebase_address):__vector_offset_default
 *(.vector_81)
                0x000000009d000200                . = ALIGN (0x4)
                0x0000000000000210                __vector_offset_82 = DEFINED (__vector_dispatch_82)?(. - _ebase_address):__vector_offset_default
 *(.vector_82)
                0x000000009d000200                . = ALIGN (0x4)
                0x0000000000000210                __vector_offset_83 = DEFINED (__vector_dispatch_83)?(. - _ebase_address):__vector_offset_default
 *(.vector_83)
                0x000000009d000200                . = ALIGN (0x4)
                0x0000000000000210                __vector_offset_84 = DEFINED (__vector_dispatch_84)?(. - _ebase_address):__vector_offset_default
 *(.vector_84)
                0x000000009d000200                . = ALIGN (0x4)
                0x0000000000000210                __vector_offset_85 = DEFINED (__vector_dispatch_85)?(. - _ebase_address):__vector_offset_default
 *(.vector_85)
                0x000000009d000200                . = ALIGN (0x4)
                0x0000000000000210                __vector_offset_86 = DEFINED (__vector_dispatch_86)?(. - _ebase_address):__vector_offset_default
 *(.vector_86)
                0x000000009d000200                . = ALIGN (0x4)
                0x0000000000000210                __vector_offset_87 = DEFINED (__vector_dispatch_87)?(. - _ebase_address):__vector_offset_default
 *(.vector_87)
                0x000000009d000200                . = ALIGN (0x4)
                0x0000000000000210                __vector_offset_88 = DEFINED (__vector_dispatch_88)?(. - _ebase_address):__vector_offset_default
 *(.vector_88)
                0x000000009d000200                . = ALIGN (0x4)
                0x0000000000000210                __vector_offset_89 = DEFINED (__vector_dispatch_89)?(. - _ebase_address):__vector_offset_default
 *(.vector_89)
                0x000000009d000200                . = ALIGN (0x4)
                0x0000000000000210                __vector_offset_90 = DEFINED (__vector_dispatch_90)?(. - _ebase_address):__vector_offset_default
 *(.vector_90)
                0x000000009d000200                . = ALIGN (0x4)
                0x0000000000000210                __vector_offset_91 = DEFINED (__vector_dispatch_91)?(. - _ebase_address):__vector_offset_default
 *(.vector_91)
                0x000000009d000200                . = ALIGN (0x4)
                0x0000000000000210                __vector_offset_92 = DEFINED (__vector_dispatch_92)?(. - _ebase_address):__vector_offset_default
 *(.vector_92)
                0x000000009d000200                . = ALIGN (0x4)
                0x0000000000000210                __vector_offset_93 = DEFINED (__vector_dispatch_93)?(. - _ebase_address):__vector_offset_default
 *(.vector_93)
                0x000000009d000200                . = ALIGN (0x4)
                0x0000000000000210                __vector_offset_94 = DEFINED (__vector_dispatch_94)?(. - _ebase_address):__vector_offset_default
 *(.vector_94)
                0x000000009d000200                . = ALIGN (0x4)
                0x0000000000000210                __vector_offset_95 = DEFINED (__vector_dispatch_95)?(. - _ebase_address):__vector_offset_default
 *(.vector_95)
                0x000000009d000200                . = ALIGN (0x4)
                0x0000000000000210                __vector_offset_96 = DEFINED (__vector_dispatch_96)?(. - _ebase_address):__vector_offset_default
 *(.vector_96)
                0x000000009d000200                . = ALIGN (0x4)
                0x0000000000000210                __vector_offset_97 = DEFINED (__vector_dispatch_97)?(. - _ebase_address):__vector_offset_default
 *(.vector_97)
                0x000000009d000200                . = ALIGN (0x4)
                0x0000000000000210                __vector_offset_98 = DEFINED (__vector_dispatch_98)?(. - _ebase_address):__vector_offset_default
 *(.vector_98)
                0x000000009d000200                . = ALIGN (0x4)
                0x0000000000000210                __vector_offset_99 = DEFINED (__vector_dispatch_99)?(. - _ebase_address):__vector_offset_default
 *(.vector_99)
                0x000000009d000200                . = ALIGN (0x4)
                0x0000000000000210                __vector_offset_100 = DEFINED (__vector_dispatch_100)?(. - _ebase_address):__vector_offset_default
 *(.vector_100)
                0x000000009d000200                . = ALIGN (0x4)
                0x0000000000000210                __vector_offset_101 = DEFINED (__vector_dispatch_101)?(. - _ebase_address):__vector_offset_default
 *(.vector_101)
                0x000000009d000200                . = ALIGN (0x4)
                0x0000000000000210                __vector_offset_102 = DEFINED (__vector_dispatch_102)?(. - _ebase_address):__vector_offset_default
 *(.vector_102)
                0x000000009d000200                . = ALIGN (0x4)
                0x0000000000000210                __vector_offset_103 = DEFINED (__vector_dispatch_103)?(. - _ebase_address):__vector_offset_default
 *(.vector_103)
                0x000000009d000200                . = ALIGN (0x4)
                0x0000000000000210                __vector_offset_104 = DEFINED (__vector_dispatch_104)?(. - _ebase_address):__vector_offset_default
 *(.vector_104)
                0x000000009d000200                . = ALIGN (0x4)
                0x0000000000000210                __vector_offset_105 = DEFINED (__vector_dispatch_105)?(. - _ebase_address):__vector_offset_default
 *(.vector_105)
                0x000000009d000200                . = ALIGN (0x4)
                0x0000000000000210                __vector_offset_106 = DEFINED (__vector_dispatch_106)?(. - _ebase_address):__vector_offset_default
 *(.vector_106)
                0x000000009d000200                . = ALIGN (0x4)
                0x0000000000000210                __vector_offset_107 = DEFINED (__vector_dispatch_107)?(. - _ebase_address):__vector_offset_default
 *(.vector_107)
                0x000000009d000200                . = ALIGN (0x4)
                0x0000000000000210                __vector_offset_108 = DEFINED (__vector_dispatch_108)?(. - _ebase_address):__vector_offset_default
 *(.vector_108)
                0x000000009d000200                . = ALIGN (0x4)
                0x0000000000000210                __vector_offset_109 = DEFINED (__vector_dispatch_109)?(. - _ebase_address):__vector_offset_default
 *(.vector_109)
                0x000000009d000200                . = ALIGN (0x4)
                0x0000000000000210                __vector_offset_110 = DEFINED (__vector_dispatch_110)?(. - _ebase_address):__vector_offset_default
 *(.vector_110)
                0x000000009d000200                . = ALIGN (0x4)
                0x0000000000000210                __vector_offset_111 = DEFINED (__vector_dispatch_111)?(. - _ebase_address):__vector_offset_default
 *(.vector_111)
                0x000000009d000200                . = ALIGN (0x4)
                0x0000000000000210                __vector_offset_112 = DEFINED (__vector_dispatch_112)?(. - _ebase_address):__vector_offset_default
 *(.vector_112)
                0x000000009d000200                . = ALIGN (0x4)
                0x0000000000000210                __vector_offset_113 = DEFINED (__vector_dispatch_113)?(. - _ebase_address):__vector_offset_default
 *(.vector_113)
                0x000000009d000200                . = ALIGN (0x4)
                0x0000000000000210                __vector_offset_114 = DEFINED (__vector_dispatch_114)?(. - _ebase_address):__vector_offset_default
 *(.vector_114)
                0x000000009d000200                . = ALIGN (0x4)
                0x0000000000000210                __vector_offset_115 = DEFINED (__vector_dispatch_115)?(. - _ebase_address):__vector_offset_default
 *(.vector_115)
                0x000000009d000200                . = ALIGN (0x4)
                0x0000000000000210                __vector_offset_116 = DEFINED (__vector_dispatch_116)?(. - _ebase_address):__vector_offset_default
 *(.vector_116)
                0x000000009d000200                . = ALIGN (0x4)
                0x0000000000000210                __vector_offset_117 = DEFINED (__vector_dispatch_117)?(. - _ebase_address):__vector_offset_default
 *(.vector_117)
                0x000000009d000200                . = ALIGN (0x4)
                0x0000000000000210                __vector_offset_118 = DEFINED (__vector_dispatch_118)?(. - _ebase_address):__vector_offset_default
 *(.vector_118)
                0x000000009d000200                . = ALIGN (0x4)
                0x0000000000000210                __vector_offset_119 = DEFINED (__vector_dispatch_119)?(. - _ebase_address):__vector_offset_default
 *(.vector_119)
                0x000000009d000200                . = ALIGN (0x4)
                0x0000000000000210                __vector_offset_120 = DEFINED (__vector_dispatch_120)?(. - _ebase_address):__vector_offset_default
 *(.vector_120)
                0x000000009d000200                . = ALIGN (0x4)
                0x0000000000000210                __vector_offset_121 = DEFINED (__vector_dispatch_121)?(. - _ebase_address):__vector_offset_default
 *(.vector_121)
                0x000000009d000200                . = ALIGN (0x4)
                0x0000000000000210                __vector_offset_122 = DEFINED (__vector_dispatch_122)?(. - _ebase_address):__vector_offset_default
 *(.vector_122)
                0x000000009d000200                . = ALIGN (0x4)
                0x0000000000000210                __vector_offset_123 = DEFINED (__vector_dispatch_123)?(. - _ebase_address):__vector_offset_default
 *(.vector_123)
                0x000000009d000200                . = ALIGN (0x4)
                0x0000000000000210                __vector_offset_124 = DEFINED (__vector_dispatch_124)?(. - _ebase_address):__vector_offset_default
 *(.vector_124)
                0x000000009d000200                . = ALIGN (0x4)
                0x0000000000000210                __vector_offset_125 = DEFINED (__vector_dispatch_125)?(. - _ebase_address):__vector_offset_default
 *(.vector_125)
                0x000000009d000200                . = ALIGN (0x4)
                0x0000000000000210                __vector_offset_126 = DEFINED (__vector_dispatch_126)?(. - _ebase_address):__vector_offset_default
 *(.vector_126)
                0x000000009d000200                . = ALIGN (0x4)
                0x0000000000000210                __vector_offset_127 = DEFINED (__vector_dispatch_127)?(. - _ebase_address):__vector_offset_default
 *(.vector_127)
                0x000000009d000200                . = ALIGN (0x4)
                0x0000000000000210                __vector_offset_128 = DEFINED (__vector_dispatch_128)?(. - _ebase_address):__vector_offset_default
 *(.vector_128)
                0x000000009d000200                . = ALIGN (0x4)
                0x0000000000000210                __vector_offset_129 = DEFINED (__vector_dispatch_129)?(. - _ebase_address):__vector_offset_default
 *(.vector_129)
                0x000000009d000200                . = ALIGN (0x4)
                0x0000000000000210                __vector_offset_130 = DEFINED (__vector_dispatch_130)?(. - _ebase_address):__vector_offset_default
 *(.vector_130)
                0x000000009d000200                . = ALIGN (0x4)
                0x0000000000000210                __vector_offset_131 = DEFINED (__vector_dispatch_131)?(. - _ebase_address):__vector_offset_default
 *(.vector_131)
                0x000000009d000200                . = ALIGN (0x4)
                0x0000000000000210                __vector_offset_132 = DEFINED (__vector_dispatch_132)?(. - _ebase_address):__vector_offset_default
 *(.vector_132)
                0x000000009d000200                . = ALIGN (0x4)
                0x0000000000000210                __vector_offset_133 = DEFINED (__vector_dispatch_133)?(. - _ebase_address):__vector_offset_default
 *(.vector_133)
                0x000000009d000200                . = ALIGN (0x4)
                0x0000000000000210                __vector_offset_134 = DEFINED (__vector_dispatch_134)?(. - _ebase_address):__vector_offset_default
 *(.vector_134)
                0x000000009d000200                . = ALIGN (0x4)
                0x0000000000000210                __vector_offset_135 = DEFINED (__vector_dispatch_135)?(. - _ebase_address):__vector_offset_default
 *(.vector_135)
                0x000000009d000200                . = ALIGN (0x4)
                0x0000000000000210                __vector_offset_136 = DEFINED (__vector_dispatch_136)?(. - _ebase_address):__vector_offset_default
 *(.vector_136)
                0x000000009d000200                . = ALIGN (0x4)
                0x0000000000000210                __vector_offset_137 = DEFINED (__vector_dispatch_137)?(. - _ebase_address):__vector_offset_default
 *(.vector_137)
                0x000000009d000200                . = ALIGN (0x4)
                0x0000000000000210                __vector_offset_138 = DEFINED (__vector_dispatch_138)?(. - _ebase_address):__vector_offset_default
 *(.vector_138)
                0x000000009d000200                . = ALIGN (0x4)
                0x0000000000000210                __vector_offset_139 = DEFINED (__vector_dispatch_139)?(. - _ebase_address):__vector_offset_default
 *(.vector_139)
                0x000000009d000200                . = ALIGN (0x4)
                0x0000000000000210                __vector_offset_140 = DEFINED (__vector_dispatch_140)?(. - _ebase_address):__vector_offset_default
 *(.vector_140)
                0x000000009d000200                . = ALIGN (0x4)
                0x0000000000000210                __vector_offset_141 = DEFINED (__vector_dispatch_141)?(. - _ebase_address):__vector_offset_default
 *(.vector_141)
                0x000000009d000200                . = ALIGN (0x4)
                0x0000000000000210                __vector_offset_142 = DEFINED (__vector_dispatch_142)?(. - _ebase_address):__vector_offset_default
 *(.vector_142)
                0x000000009d000200                . = ALIGN (0x4)
                0x0000000000000210                __vector_offset_143 = DEFINED (__vector_dispatch_143)?(. - _ebase_address):__vector_offset_default
 *(.vector_143)
                0x000000009d000200                . = ALIGN (0x4)
                0x0000000000000210                __vector_offset_144 = DEFINED (__vector_dispatch_144)?(. - _ebase_address):__vector_offset_default
 *(.vector_144)
                0x000000009d000200                . = ALIGN (0x4)
                0x0000000000000210                __vector_offset_145 = DEFINED (__vector_dispatch_145)?(. - _ebase_address):__vector_offset_default
 *(.vector_145)
                0x000000009d000200                . = ALIGN (0x4)
                0x0000000000000210                __vector_offset_146 = DEFINED (__vector_dispatch_146)?(. - _ebase_address):__vector_offset_default
 *(.vector_146)
                0x000000009d000200                . = ALIGN (0x4)
                0x0000000000000210                __vector_offset_147 = DEFINED (__vector_dispatch_147)?(. - _ebase_address):__vector_offset_default
 *(.vector_147)
                0x000000009d000200                . = ALIGN (0x4)
                0x0000000000000210                __vector_offset_148 = DEFINED (__vector_dispatch_148)?(. - _ebase_address):__vector_offset_default
 *(.vector_148)
                0x000000009d000200                . = ALIGN (0x4)
                0x0000000000000210                __vector_offset_149 = DEFINED (__vector_dispatch_149)?(. - _ebase_address):__vector_offset_default
 *(.vector_149)
                0x000000009d000200                . = ALIGN (0x4)
                0x0000000000000210                __vector_offset_150 = DEFINED (__vector_dispatch_150)?(. - _ebase_address):__vector_offset_default
 *(.vector_150)
                0x000000009d000200                . = ALIGN (0x4)
                0x0000000000000210                __vector_offset_151 = DEFINED (__vector_dispatch_151)?(. - _ebase_address):__vector_offset_default
 *(.vector_151)
                0x000000009d000200                . = ALIGN (0x4)
                0x0000000000000210                __vector_offset_152 = DEFINED (__vector_dispatch_152)?(. - _ebase_address):__vector_offset_default
 *(.vector_152)
                0x000000009d000200                . = ALIGN (0x4)
                0x0000000000000210                __vector_offset_153 = DEFINED (__vector_dispatch_153)?(. - _ebase_address):__vector_offset_default
 *(.vector_153)
                0x000000009d000200                . = ALIGN (0x4)
                0x0000000000000210                __vector_offset_154 = DEFINED (__vector_dispatch_154)?(. - _ebase_address):__vector_offset_default
 *(.vector_154)
                0x000000009d000200                . = ALIGN (0x4)
                0x0000000000000210                __vector_offset_155 = DEFINED (__vector_dispatch_155)?(. - _ebase_address):__vector_offset_default
 *(.vector_155)
                0x000000009d000200                . = ALIGN (0x4)
                0x0000000000000210                __vector_offset_156 = DEFINED (__vector_dispatch_156)?(. - _ebase_address):__vector_offset_default
 *(.vector_156)
                0x000000009d000200                . = ALIGN (0x4)
                0x0000000000000210                __vector_offset_157 = DEFINED (__vector_dispatch_157)?(. - _ebase_address):__vector_offset_default
 *(.vector_157)
                0x000000009d000200                . = ALIGN (0x4)
                0x0000000000000210                __vector_offset_158 = DEFINED (__vector_dispatch_158)?(. - _ebase_address):__vector_offset_default
 *(.vector_158)
                0x000000009d000200                . = ALIGN (0x4)
                0x0000000000000210                __vector_offset_159 = DEFINED (__vector_dispatch_159)?(. - _ebase_address):__vector_offset_default
 *(.vector_159)
                0x000000009d000200                . = ALIGN (0x4)
                0x0000000000000210                __vector_offset_160 = DEFINED (__vector_dispatch_160)?(. - _ebase_address):__vector_offset_default
 *(.vector_160)
                0x000000009d000200                . = ALIGN (0x4)
                0x0000000000000210                __vector_offset_161 = DEFINED (__vector_dispatch_161)?(. - _ebase_address):__vector_offset_default
 *(.vector_161)
                0x000000009d000200                . = ALIGN (0x4)
                0x0000000000000210                __vector_offset_162 = DEFINED (__vector_dispatch_162)?(. - _ebase_address):__vector_offset_default
 *(.vector_162)
                0x000000009d000200                . = ALIGN (0x4)
                0x0000000000000210                __vector_offset_163 = DEFINED (__vector_dispatch_163)?(. - _ebase_address):__vector_offset_default
 *(.vector_163)
                0x000000009d000200                . = ALIGN (0x4)
                0x0000000000000210                __vector_offset_164 = DEFINED (__vector_dispatch_164)?(. - _ebase_address):__vector_offset_default
 *(.vector_164)
                0x000000009d000200                . = ALIGN (0x4)
                0x0000000000000210                __vector_offset_165 = DEFINED (__vector_dispatch_165)?(. - _ebase_address):__vector_offset_default
 *(.vector_165)
                0x000000009d000200                . = ALIGN (0x4)
                0x0000000000000210                __vector_offset_166 = DEFINED (__vector_dispatch_166)?(. - _ebase_address):__vector_offset_default
 *(.vector_166)
                0x000000009d000200                . = ALIGN (0x4)
                0x0000000000000200                __vector_offset_167 = DEFINED (__vector_dispatch_167)?(. - _ebase_address):__vector_offset_default
 *(.vector_167)
 .vector_167    0x000000009d000200        0x8 build/pic32mk_mcj_curiosity_pro/production/_ext/1661106823/interrupts.o
                0x000000009d000200                __vector_dispatch_167
                0x000000009d000208                . = ALIGN (0x4)
                0x0000000000000210                __vector_offset_168 = DEFINED (__vector_dispatch_168)?(. - _ebase_address):__vector_offset_default
 *(.vector_168)
                0x000000009d000208                . = ALIGN (0x4)
                0x0000000000000210                __vector_offset_169 = DEFINED (__vector_dispatch_169)?(. - _ebase_address):__vector_offset_default
 *(.vector_169)
                0x000000009d000208                . = ALIGN (0x4)
                0x0000000000000210                __vector_offset_170 = DEFINED (__vector_dispatch_170)?(. - _ebase_address):__vector_offset_default
 *(.vector_170)
                0x000000009d000208                . = ALIGN (0x4)
                0x0000000000000210                __vector_offset_171 = DEFINED (__vector_dispatch_171)?(. - _ebase_address):__vector_offset_default
 *(.vector_171)
                0x000000009d000208                . = ALIGN (0x4)
                0x0000000000000210                __vector_offset_172 = DEFINED (__vector_dispatch_172)?(. - _ebase_address):__vector_offset_default
 *(.vector_172)
                0x000000009d000208                . = ALIGN (0x4)
                0x0000000000000210                __vector_offset_173 = DEFINED (__vector_dispatch_173)?(. - _ebase_address):__vector_offset_default
 *(.vector_173)
                0x000000009d000208                . = ALIGN (0x4)
                0x0000000000000210                __vector_offset_174 = DEFINED (__vector_dispatch_174)?(. - _ebase_address):__vector_offset_default
 *(.vector_174)
                0x000000009d000208                . = ALIGN (0x4)
                0x0000000000000210                __vector_offset_175 = DEFINED (__vector_dispatch_175)?(. - _ebase_address):__vector_offset_default
 *(.vector_175)
                0x000000009d000208                . = ALIGN (0x4)
                0x0000000000000210                __vector_offset_176 = DEFINED (__vector_dispatch_176)?(. - _ebase_address):__vector_offset_default
 *(.vector_176)
                0x000000009d000208                . = ALIGN (0x4)
                0x0000000000000210                __vector_offset_177 = DEFINED (__vector_dispatch_177)?(. - _ebase_address):__vector_offset_default
 *(.vector_177)
                0x000000009d000208                . = ALIGN (0x4)
                0x0000000000000210                __vector_offset_178 = DEFINED (__vector_dispatch_178)?(. - _ebase_address):__vector_offset_default
 *(.vector_178)
                0x000000009d000208                . = ALIGN (0x4)
                0x0000000000000210                __vector_offset_179 = DEFINED (__vector_dispatch_179)?(. - _ebase_address):__vector_offset_default
 *(.vector_179)
                0x000000009d000208                . = ALIGN (0x4)
                0x0000000000000210                __vector_offset_180 = DEFINED (__vector_dispatch_180)?(. - _ebase_address):__vector_offset_default
 *(.vector_180)
                0x000000009d000208                . = ALIGN (0x4)
                0x0000000000000210                __vector_offset_181 = DEFINED (__vector_dispatch_181)?(. - _ebase_address):__vector_offset_default
 *(.vector_181)
                0x000000009d000208                . = ALIGN (0x4)
                0x0000000000000210                __vector_offset_182 = DEFINED (__vector_dispatch_182)?(. - _ebase_address):__vector_offset_default
 *(.vector_182)
                0x000000009d000208                . = ALIGN (0x4)
                0x0000000000000210                __vector_offset_183 = DEFINED (__vector_dispatch_183)?(. - _ebase_address):__vector_offset_default
 *(.vector_183)
                0x000000009d000208                . = ALIGN (0x4)
                0x0000000000000210                __vector_offset_184 = DEFINED (__vector_dispatch_184)?(. - _ebase_address):__vector_offset_default
 *(.vector_184)
                0x000000009d000208                . = ALIGN (0x4)
                0x0000000000000208                __vector_offset_185 = DEFINED (__vector_dispatch_185)?(. - _ebase_address):__vector_offset_default
 *(.vector_185)
 .vector_185    0x000000009d000208        0x8 build/pic32mk_mcj_curiosity_pro/production/_ext/1661106823/interrupts.o
                0x000000009d000208                __vector_dispatch_185
                0x000000009d000210                . = ALIGN (0x4)
                0x0000000000000210                __vector_offset_186 = DEFINED (__vector_dispatch_186)?(. - _ebase_address):__vector_offset_default
 *(.vector_186)
                0x000000009d000210                . = ALIGN (0x4)
                0x0000000000000210                __vector_offset_187 = DEFINED (__vector_dispatch_187)?(. - _ebase_address):__vector_offset_default
 *(.vector_187)
                0x000000009d000210                . = ALIGN (0x4)
                0x0000000000000210                __vector_offset_188 = DEFINED (__vector_dispatch_188)?(. - _ebase_address):__vector_offset_default
 *(.vector_188)
                0x000000009d000210                . = ALIGN (0x4)
                0x0000000000000210                __vector_offset_189 = DEFINED (__vector_dispatch_189)?(. - _ebase_address):__vector_offset_default
 *(.vector_189)
                0x000000009d000210                . = ALIGN (0x4)
                0x0000000000000210                __vector_offset_190 = DEFINED (__vector_dispatch_190)?(. - _ebase_address):__vector_offset_default
 *(.vector_190)
                0x000000009d000210                . = ALIGN (0x4)
                0x0000000000000210                __vector_offset_191 = DEFINED (__vector_dispatch_191)?(. - _ebase_address):__vector_offset_default
 *(.vector_191)
                0x000000009d000210                . = ALIGN (0x4)
                0x0000000000000210                __vector_offset_192 = DEFINED (__vector_dispatch_192)?(. - _ebase_address):__vector_offset_default
 *(.vector_192)
                0x000000009d000210                . = ALIGN (0x4)
                0x0000000000000210                __vector_offset_193 = DEFINED (__vector_dispatch_193)?(. - _ebase_address):__vector_offset_default
 *(.vector_193)
                0x000000009d000210                . = ALIGN (0x4)
                0x0000000000000210                __vector_offset_194 = DEFINED (__vector_dispatch_194)?(. - _ebase_address):__vector_offset_default
 *(.vector_194)
                0x000000009d000210                . = ALIGN (0x4)
                0x0000000000000210                __vector_offset_195 = DEFINED (__vector_dispatch_195)?(. - _ebase_address):__vector_offset_default
 *(.vector_195)
                0x000000009d000210                . = ALIGN (0x4)
                0x0000000000000210                __vector_offset_196 = DEFINED (__vector_dispatch_196)?(. - _ebase_address):__vector_offset_default
 *(.vector_196)
                0x000000009d000210                . = ALIGN (0x4)
                0x0000000000000210                __vector_offset_197 = DEFINED (__vector_dispatch_197)?(. - _ebase_address):__vector_offset_default
 *(.vector_197)
                0x000000009d000210                . = ALIGN (0x4)
                0x0000000000000210                __vector_offset_198 = DEFINED (__vector_dispatch_198)?(. - _ebase_address):__vector_offset_default
 *(.vector_198)
                0x000000009d000210                . = ALIGN (0x4)
                0x0000000000000210                __vector_offset_199 = DEFINED (__vector_dispatch_199)?(. - _ebase_address):__vector_offset_default
 *(.vector_199)
                0x000000009d000210                . = ALIGN (0x4)
                0x0000000000000210                __vector_offset_200 = DEFINED (__vector_dispatch_200)?(. - _ebase_address):__vector_offset_default
 *(.vector_200)
                0x000000009d000210                . = ALIGN (0x4)
                0x0000000000000210                __vector_offset_201 = DEFINED (__vector_dispatch_201)?(. - _ebase_address):__vector_offset_default
 *(.vector_201)
                0x000000009d000210                . = ALIGN (0x4)
                0x0000000000000210                __vector_offset_202 = DEFINED (__vector_dispatch_202)?(. - _ebase_address):__vector_offset_default
 *(.vector_202)
                0x000000009d000210                . = ALIGN (0x4)
                0x0000000000000210                __vector_offset_203 = DEFINED (__vector_dispatch_203)?(. - _ebase_address):__vector_offset_default
 *(.vector_203)
                0x000000009d000210                . = ALIGN (0x4)
                0x0000000000000210                __vector_offset_204 = DEFINED (__vector_dispatch_204)?(. - _ebase_address):__vector_offset_default
 *(.vector_204)
                0x000000009d000210                . = ALIGN (0x4)
                0x0000000000000210                __vector_offset_205 = DEFINED (__vector_dispatch_205)?(. - _ebase_address):__vector_offset_default
 *(.vector_205)
                0x000000009d000210                . = ALIGN (0x4)
                0x0000000000000210                __vector_offset_206 = DEFINED (__vector_dispatch_206)?(. - _ebase_address):__vector_offset_default
 *(.vector_206)
                0x000000009d000210                . = ALIGN (0x4)
                0x0000000000000210                __vector_offset_207 = DEFINED (__vector_dispatch_207)?(. - _ebase_address):__vector_offset_default
 *(.vector_207)
                0x000000009d000210                . = ALIGN (0x4)
                0x0000000000000210                __vector_offset_208 = DEFINED (__vector_dispatch_208)?(. - _ebase_address):__vector_offset_default
 *(.vector_208)
                0x000000009d000210                . = ALIGN (0x4)
                0x0000000000000210                __vector_offset_209 = DEFINED (__vector_dispatch_209)?(. - _ebase_address):__vector_offset_default
 *(.vector_209)
                0x000000009d000210                . = ALIGN (0x4)
                0x0000000000000210                __vector_offset_210 = DEFINED (__vector_dispatch_210)?(. - _ebase_address):__vector_offset_default
 *(.vector_210)
                0x000000009d000210                . = ALIGN (0x4)
                0x0000000000000210                __vector_offset_211 = DEFINED (__vector_dispatch_211)?(. - _ebase_address):__vector_offset_default
 *(.vector_211)
                0x000000009d000210                . = ALIGN (0x4)
                0x0000000000000210                __vector_offset_212 = DEFINED (__vector_dispatch_212)?(. - _ebase_address):__vector_offset_default
 *(.vector_212)
                0x000000009d000210                . = ALIGN (0x4)
                0x0000000000000210                __vector_offset_213 = DEFINED (__vector_dispatch_213)?(. - _ebase_address):__vector_offset_default
 *(.vector_213)
                0x000000009d000210                . = ALIGN (0x4)
                0x0000000000000210                __vector_offset_214 = DEFINED (__vector_dispatch_214)?(. - _ebase_address):__vector_offset_default
 *(.vector_214)
                0x000000009d000210                . = ALIGN (0x4)
                0x0000000000000210                __vector_offset_215 = DEFINED (__vector_dispatch_215)?(. - _ebase_address):__vector_offset_default
 *(.vector_215)
                0x000000009d000210                . = ALIGN (0x4)
                0x0000000000000210                __vector_offset_216 = DEFINED (__vector_dispatch_216)?(. - _ebase_address):__vector_offset_default
 *(.vector_216)
                0x000000009d000210                . = ALIGN (0x4)
                0x0000000000000210                __vector_offset_217 = DEFINED (__vector_dispatch_217)?(. - _ebase_address):__vector_offset_default
 *(.vector_217)
                0x000000009d000210                . = ALIGN (0x4)
                0x0000000000000210                __vector_offset_218 = DEFINED (__vector_dispatch_218)?(. - _ebase_address):__vector_offset_default
 *(.vector_218)
                0x000000009d000210                . = ALIGN (0x4)
                0x0000000000000210                __vector_offset_219 = DEFINED (__vector_dispatch_219)?(. - _ebase_address):__vector_offset_default
 *(.vector_219)
                0x000000009d000210                . = ALIGN (0x4)
                0x0000000000000210                __vector_offset_220 = DEFINED (__vector_dispatch_220)?(. - _ebase_address):__vector_offset_default
 *(.vector_220)
                0x000000009d000210                . = ALIGN (0x4)
                0x0000000000000210                __vector_offset_221 = DEFINED (__vector_dispatch_221)?(. - _ebase_address):__vector_offset_default
 *(.vector_221)
                0x000000009d000210                . = ALIGN (0x4)
                0x0000000000000210                __vector_offset_222 = DEFINED (__vector_dispatch_222)?(. - _ebase_address):__vector_offset_default
 *(.vector_222)
                0x000000009d000210                . = ALIGN (0x4)
                0x0000000000000210                __vector_offset_223 = DEFINED (__vector_dispatch_223)?(. - _ebase_address):__vector_offset_default
 *(.vector_223)
                0x000000009d000210                . = ALIGN (0x4)
                0x0000000000000210                __vector_offset_224 = DEFINED (__vector_dispatch_224)?(. - _ebase_address):__vector_offset_default
 *(.vector_224)
                0x000000009d000210                . = ALIGN (0x4)
                0x0000000000000210                __vector_offset_225 = DEFINED (__vector_dispatch_225)?(. - _ebase_address):__vector_offset_default
 *(.vector_225)
                0x000000009d000210                . = ALIGN (0x4)
                0x0000000000000210                __vector_offset_226 = DEFINED (__vector_dispatch_226)?(. - _ebase_address):__vector_offset_default
 *(.vector_226)
                0x000000009d000210                . = ALIGN (0x4)
                0x0000000000000210                __vector_offset_227 = DEFINED (__vector_dispatch_227)?(. - _ebase_address):__vector_offset_default
 *(.vector_227)
                0x000000009d000210                . = ALIGN (0x4)
                0x0000000000000210                __vector_offset_228 = DEFINED (__vector_dispatch_228)?(. - _ebase_address):__vector_offset_default
 *(.vector_228)
                0x000000009d000210                . = ALIGN (0x4)
                0x0000000000000210                __vector_offset_229 = DEFINED (__vector_dispatch_229)?(. - _ebase_address):__vector_offset_default
 *(.vector_229)
                0x000000009d000210                . = ALIGN (0x4)
                0x0000000000000210                __vector_offset_230 = DEFINED (__vector_dispatch_230)?(. - _ebase_address):__vector_offset_default
 *(.vector_230)
                0x000000009d000210                . = ALIGN (0x4)
                0x0000000000000210                __vector_offset_231 = DEFINED (__vector_dispatch_231)?(. - _ebase_address):__vector_offset_default
 *(.vector_231)
                0x000000009d000210                . = ALIGN (0x4)
                0x0000000000000210                __vector_offset_232 = DEFINED (__vector_dispatch_232)?(. - _ebase_address):__vector_offset_default
 *(.vector_232)
                0x000000009d000210                . = ALIGN (0x4)
                0x0000000000000210                __vector_offset_233 = DEFINED (__vector_dispatch_233)?(. - _ebase_address):__vector_offset_default
 *(.vector_233)
                0x000000009d000210                . = ALIGN (0x4)
                0x0000000000000210                __vector_offset_234 = DEFINED (__vector_dispatch_234)?(. - _ebase_address):__vector_offset_default
 *(.vector_234)
                0x000000009d000210                . = ALIGN (0x4)
                0x0000000000000210                __vector_offset_235 = DEFINED (__vector_dispatch_235)?(. - _ebase_address):__vector_offset_default
 *(.vector_235)
                0x000000009d000210                . = ALIGN (0x4)
                0x0000000000000210                __vector_offset_236 = DEFINED (__vector_dispatch_236)?(. - _ebase_address):__vector_offset_default
 *(.vector_236)
                0x000000009d000210                . = ALIGN (0x4)
                0x0000000000000210                __vector_offset_237 = DEFINED (__vector_dispatch_237)?(. - _ebase_address):__vector_offset_default
 *(.vector_237)
                0x000000009d000210                . = ALIGN (0x4)
                0x0000000000000210                __vector_offset_238 = DEFINED (__vector_dispatch_238)?(. - _ebase_address):__vector_offset_default
 *(.vector_238)
                0x000000009d000210                . = ALIGN (0x4)
                0x0000000000000210                __vector_offset_239 = DEFINED (__vector_dispatch_239)?(. - _ebase_address):__vector_offset_default
 *(.vector_239)
                0x000000009d000210                . = ALIGN (0x4)
                0x0000000000000210                __vector_offset_240 = DEFINED (__vector_dispatch_240)?(. - _ebase_address):__vector_offset_default
 *(.vector_240)
                0x000000009d000210                . = ALIGN (0x4)
                0x0000000000000210                __vector_offset_241 = DEFINED (__vector_dispatch_241)?(. - _ebase_address):__vector_offset_default
 *(.vector_241)
                0x000000009d000210                . = ALIGN (0x4)
                0x0000000000000210                __vector_offset_242 = DEFINED (__vector_dispatch_242)?(. - _ebase_address):__vector_offset_default
 *(.vector_242)
                0x000000009d000210                . = ALIGN (0x4)
                0x0000000000000210                __vector_offset_243 = DEFINED (__vector_dispatch_243)?(. - _ebase_address):__vector_offset_default
 *(.vector_243)
                0x000000009d000210                . = ALIGN (0x4)
                0x0000000000000210                __vector_offset_244 = DEFINED (__vector_dispatch_244)?(. - _ebase_address):__vector_offset_default
 *(.vector_244)
                0x000000009d000210                . = ALIGN (0x4)
                0x0000000000000210                __vector_offset_245 = DEFINED (__vector_dispatch_245)?(. - _ebase_address):__vector_offset_default
 *(.vector_245)
                0x000000009d000210                . = ALIGN (0x4)
                0x0000000000000210                __vector_offset_246 = DEFINED (__vector_dispatch_246)?(. - _ebase_address):__vector_offset_default
 *(.vector_246)
                0x000000009d000210                . = ALIGN (0x4)
                0x0000000000000210                __vector_offset_247 = DEFINED (__vector_dispatch_247)?(. - _ebase_address):__vector_offset_default
 *(.vector_247)
                0x000000009d000210                . = ALIGN (0x4)
                0x0000000000000210                __vector_offset_248 = DEFINED (__vector_dispatch_248)?(. - _ebase_address):__vector_offset_default
 *(.vector_248)
                0x000000009d000210                . = ALIGN (0x4)
                0x0000000000000210                __vector_offset_249 = DEFINED (__vector_dispatch_249)?(. - _ebase_address):__vector_offset_default
 *(.vector_249)
                0x000000009d000210                . = ALIGN (0x4)
                0x0000000000000210                __vector_offset_250 = DEFINED (__vector_dispatch_250)?(. - _ebase_address):__vector_offset_default
 *(.vector_250)
                0x000000009d000210                . = ALIGN (0x4)
                0x0000000000000210                __vector_offset_251 = DEFINED (__vector_dispatch_251)?(. - _ebase_address):__vector_offset_default
 *(.vector_251)
                0x000000009d000210                . = ALIGN (0x4)
                0x0000000000000210                __vector_offset_252 = DEFINED (__vector_dispatch_252)?(. - _ebase_address):__vector_offset_default
 *(.vector_252)
                0x000000009d000210                . = ALIGN (0x4)
                0x0000000000000210                __vector_offset_253 = DEFINED (__vector_dispatch_253)?(. - _ebase_address):__vector_offset_default
 *(.vector_253)
                0x000000009d000210                . = ALIGN (0x4)
                0x0000000000000210                __vector_offset_254 = DEFINED (__vector_dispatch_254)?(. - _ebase_address):__vector_offset_default
 *(.vector_254)
                0x000000009d000210                . = ALIGN (0x4)
                0x0000000000000210                __vector_offset_255 = DEFINED (__vector_dispatch_255)?(. - _ebase_address):__vector_offset_default
 *(.vector_255)
                0x000000009d000210                . = ALIGN (0x4)
                0x0000000000000210                __vector_offset_default = (. - _ebase_address)
 *(.vector_default)
 .vector_default
                0x000000009d000210       0x48 /opt/microchip/xc32/v4.20/bin/bin/../../lib/gcc/pic32mx/8.3.1/../../../../pic32mx/lib/fpu64/libpic32.a(defaultinterrupt.o)
                0x000000009d000210                _DefaultInterrupt

.startup
 *(.startup)

.text           0x000000009d000258        0x0
 *(.stub .gnu.linkonce.t.*)
 *(.text.*personality*)
 *(.mips16.fn.*)
 *(.mips16.call.*)
 *(.gnu.warning)
                0x000000009d000258                . = ALIGN (0x4)

.init           0x000000009d000258        0x0
 *crti.o(.init)
 *crtbegin.o(.init)
 *(EXCLUDE_FILE(*crtn.o *crtend?.o *crtend.o) .init)
 *crtend.o(.init)
 *crtn.o(.init)
                0x000000009d000258                . = ALIGN (0x4)

.fini           0x000000009d000258        0x0
 *(.fini)
                0x000000009d000258                . = ALIGN (0x4)

.preinit_array  0x000000009d000258        0x0
                [!provide]                        PROVIDE (__preinit_array_start = .)
 *(.preinit_array)
                [!provide]                        PROVIDE (__preinit_array_end = .)
                0x000000009d000258                . = ALIGN (0x4)

.init_array     0x000000009d000258        0x0
                [!provide]                        PROVIDE (__init_array_start = .)
 *(SORT_BY_NAME(.init_array.*))
 *(.init_array)
                [!provide]                        PROVIDE (__init_array_end = .)
                0x000000009d000258                . = ALIGN (0x4)

.fini_array     0x000000009d000258        0x0
                [!provide]                        PROVIDE (__fini_array_start = .)
 *(SORT_BY_NAME(.fini_array.*))
 *(.fini_array)
                [!provide]                        PROVIDE (__fini_array_end = .)
                0x000000009d000258                . = ALIGN (0x4)

.ctors          0x000000009d000258        0x0
 *crtbegin.o(.ctors)
 *crtbegin?.o(.ctors)
 *(EXCLUDE_FILE(*crtend?.o *crtend.o) .ctors)
 *(SORT_BY_NAME(.ctors.*))
 *(.ctors)
                0x000000009d000258                . = ALIGN (0x4)

.dtors          0x000000009d000258        0x0
 *crtbegin.o(.dtors)
 *crtbegin?.o(.dtors)
 *(EXCLUDE_FILE(*crtend?.o *crtend.o) .dtors)
 *(SORT_BY_NAME(.dtors.*))
 *(.dtors)
                0x000000009d000258                . = ALIGN (0x4)

.rodata         0x000000009d000258        0x0
 *(.gnu.linkonce.r.*)
 *(.rodata1)
                0x000000009d000258                . = ALIGN (0x4)

.sdata2         0x000000009d000258        0x0
 *(.sdata2 .sdata2.* .gnu.linkonce.s2.*)
                0x000000009d000258                . = ALIGN (0x4)

.sbss2          0x000000009d000258        0x0
 *(.sbss2 .sbss2.* .gnu.linkonce.sb2.*)
                0x000000009d000258                . = ALIGN (0x4)

.eh_frame_hdr
 *(.eh_frame_hdr)
                0x000000009d000258                . = ALIGN (0x4)

.eh_frame
 *(.eh_frame)
                0x000000009d000258                . = ALIGN (0x4)

.gcc_except_table
 *(.gcc_except_table .gcc_except_table.*)
                0x000000009d000258                . = ALIGN (0x4)

.dbg_data       0x0000000080000000        0x0
                0x0000000080000000                . = (. + DEFINED (_DEBUGGER)?0x200:0x0)
                0x0000000080000000                . = (. + DEFINED (_DEBUGGER)?0x80:0x0)
                0x0000000080000000                . = (. + DEFINED (_DEBUGGER)?0x100:0x0)

.jcr            0x0000000080000000        0x0
 *(.jcr)
                0x0000000080000000                . = ALIGN (0x4)

.eh_frame
 *(.eh_frame)
                0x0000000080000000                . = ALIGN (0x4)

.gcc_except_table
 *(.gcc_except_table .gcc_except_table.*)
                0x0000000080000000                . = ALIGN (0x4)

.persist        0x0000000080000000        0x0
                0x0000000080000000                _persist_begin = .
 *(.persist .persist.*)
                0x0000000080000000                . = ALIGN (0x4)
                0x0000000080000000                _persist_end = .

.data           0x0000000080000000        0x0
 *(.gnu.linkonce.d.*)
 *(.data1)
                0x0000000080000000                . = ALIGN (0x4)
                0x0000000080000000                . = .
                0x0000000080007ff0                _gp = (ALIGN (0x10) + 0x7ff0)

.got            0x0000000080000000        0x0
 *(.got.plt)
 *(.got)
                0x0000000080000000                . = ALIGN (0x4)

.sdata          0x0000000080000000       0x14
                0x0000000080000000                _sdata_begin = .
 *(.sdata .sdata.* .gnu.linkonce.s.*)
 .sdata         0x0000000080000000       0x14 build/pic32mk_mcj_curiosity_pro/production/_ext/1360937237/main_pic32mk_mcj.o
                0x0000000080000000                spid
                0x0000000080000008                build_time
                0x000000008000000c                build_date
                0x0000000080000014                . = ALIGN (0x4)
                0x0000000080000014                _sdata_end = .

.lit8
 *(.lit8)

.lit4
 *(.lit4)
                0x0000000080000014                . = ALIGN (0x4)
                0x0000000080000014                _data_end = .
                0x0000000080000014                _bss_begin = .

.sbss           0x0000000080000014       0x48
                0x0000000080000014                _sbss_begin = .
 *(.dynsbss)
 *(.sbss .sbss.* .gnu.linkonce.sb.*)
 .sbss          0x0000000080000014       0x18 build/pic32mk_mcj_curiosity_pro/production/_ext/1333799919/plib_canfd1.o
 .sbss          0x000000008000002c       0x30 build/pic32mk_mcj_curiosity_pro/production/_ext/1360937237/main_pic32mk_mcj.o
                0x0000000080000030                times
                0x0000000080000034                txe
                0x0000000080000035                rxe
                0x0000000080000050                fft
                0x0000000080000054                imu
                0x0000000080000058                accel
 *(.scommon)
                0x000000008000005c                _sbss_end = .
                0x000000008000005c                . = ALIGN (0x4)

.bss            0x000000008000005c        0x0
 *(.dynbss)
 *(COMMON)
                0x000000008000005c                . = ALIGN ((. != 0x0)?0x4:0x1)
                0x000000008000005c                . = ALIGN (0x4)
                0x000000008000005c                _end = .
                0x000000008000005c                _bss_end = .
                0x0000000000010000                _bmxdudba_address = LENGTH (kseg0_data_mem)
                0x0000000000010000                _bmxdupba_address = LENGTH (kseg0_data_mem)

/DISCARD/
 *(.pdr)
 *(.rel.dyn)
 *(.note.GNU-stack)
 *(.note.GNU-stack)
 *(.gnu_debuglink)
 *(.gnu.lto_*)
 *(.discard)

.gptab.sdata
 *(.gptab.data)
 *(.gptab.sdata)

.gptab.sbss
 *(.gptab.bss)
 *(.gptab.sbss)

.mdebug.abi32   0x0000000000000000        0x0
 *(.mdebug.abi32)
 .mdebug.abi32  0x0000000000000000        0x0 build/pic32mk_mcj_curiosity_pro/production/_ext/1333799919/plib_canfd1.o
 .mdebug.abi32  0x0000000000000000        0x0 build/pic32mk_mcj_curiosity_pro/production/_ext/899710619/plib_clk.o
 .mdebug.abi32  0x0000000000000000        0x0 build/pic32mk_mcj_curiosity_pro/production/_ext/2121194872/plib_dmac.o
 .mdebug.abi32  0x0000000000000000        0x0 build/pic32mk_mcj_curiosity_pro/production/_ext/2121156184/plib_evic.o
 .mdebug.abi32  0x0000000000000000        0x0 build/pic32mk_mcj_curiosity_pro/production/_ext/2121102356/plib_gpio.o
 .mdebug.abi32  0x0000000000000000        0x0 build/pic32mk_mcj_curiosity_pro/production/_ext/1753921419/plib_spi2_master.o
 .mdebug.abi32  0x0000000000000000        0x0 build/pic32mk_mcj_curiosity_pro/production/_ext/2120699413/plib_uart1.o
 .mdebug.abi32  0x0000000000000000        0x0 build/pic32mk_mcj_curiosity_pro/production/_ext/529947251/xc32_monitor.o
 .mdebug.abi32  0x0000000000000000        0x0 build/pic32mk_mcj_curiosity_pro/production/_ext/1661106823/initialization.o
 .mdebug.abi32  0x0000000000000000        0x0 build/pic32mk_mcj_curiosity_pro/production/_ext/1661106823/interrupts.o
 .mdebug.abi32  0x0000000000000000        0x0 build/pic32mk_mcj_curiosity_pro/production/_ext/1661106823/exceptions.o
 .mdebug.abi32  0x0000000000000000        0x0 build/pic32mk_mcj_curiosity_pro/production/_ext/1360937237/main_pic32mk_mcj.o
 .mdebug.abi32  0x0000000000000000        0x0 /opt/microchip/xc32/v4.20/bin/bin/../../lib/gcc/pic32mx/8.3.1/../../../../pic32mx/lib/fpu64/libpic32.a(default-on-reset.o)
 .mdebug.abi32  0x0000000000000000        0x0 /opt/microchip/xc32/v4.20/bin/bin/../../lib/gcc/pic32mx/8.3.1/../../../../pic32mx/lib/fpu64/libpic32.a(default-on-bootstrap.o)
 .mdebug.abi32  0x0000000000000000        0x0 /opt/microchip/xc32/v4.20/bin/bin/../../lib/gcc/pic32mx/8.3.1/../../../../pic32mx/lib/fpu64/libpic32.a(defaultinterrupt.o)
 .mdebug.abi32  0x0000000000000000        0x0 /opt/microchip/xc32/v4.20/bin/bin/../../lib/gcc/pic32mx/8.3.1/../../../../pic32mx/lib/fpu64/libc-musl.a(__sio_sprintf_dfoux.o)
 .mdebug.abi32  0x0000000000000000        0x0 /opt/microchip/xc32/v4.20/bin/bin/../../lib/gcc/pic32mx/8.3.1/../../../../pic32mx/lib/fpu64/libc-musl.a(__fmt_d.o)
 .mdebug.abi32  0x0000000000000000        0x0 /opt/microchip/xc32/v4.20/bin/bin/../../lib/gcc/pic32mx/8.3.1/../../../../pic32mx/lib/fpu64/libc-musl.a(__fmt_fp.o)
 .mdebug.abi32  0x0000000000000000        0x0 /opt/microchip/xc32/v4.20/bin/bin/../../lib/gcc/pic32mx/8.3.1/../../../../pic32mx/lib/fpu64/libc-musl.a(__fmt_o.o)
 .mdebug.abi32  0x0000000000000000        0x0 /opt/microchip/xc32/v4.20/bin/bin/../../lib/gcc/pic32mx/8.3.1/../../../../pic32mx/lib/fpu64/libc-musl.a(__fmt_s.o)
 .mdebug.abi32  0x0000000000000000        0x0 /opt/microchip/xc32/v4.20/bin/bin/../../lib/gcc/pic32mx/8.3.1/../../../../pic32mx/lib/fpu64/libc-musl.a(__fmt_u.o)
 .mdebug.abi32  0x0000000000000000        0x0 /opt/microchip/xc32/v4.20/bin/bin/../../lib/gcc/pic32mx/8.3.1/../../../../pic32mx/lib/fpu64/libc-musl.a(__fmt_x.o)
 .mdebug.abi32  0x0000000000000000        0x0 /opt/microchip/xc32/v4.20/bin/bin/../../lib/gcc/pic32mx/8.3.1/../../../../pic32mx/lib/fpu64/libc-musl.a(__pop_float.o)
 .mdebug.abi32  0x0000000000000000        0x0 /opt/microchip/xc32/v4.20/bin/bin/../../lib/gcc/pic32mx/8.3.1/../../../../pic32mx/lib/fpu64/libc-musl.a(__pop_int.o)
 .mdebug.abi32  0x0000000000000000        0x0 /opt/microchip/xc32/v4.20/bin/bin/../../lib/gcc/pic32mx/8.3.1/../../../../pic32mx/lib/fpu64/libc-musl.a(__pop_ptr.o)
 .mdebug.abi32  0x0000000000000000        0x0 /opt/microchip/xc32/v4.20/bin/bin/../../lib/gcc/pic32mx/8.3.1/../../../../pic32mx/lib/fpu64/libc-musl.a(__printf_core.o)
 .mdebug.abi32  0x0000000000000000        0x0 /opt/microchip/xc32/v4.20/bin/bin/../../lib/gcc/pic32mx/8.3.1/../../../../pic32mx/lib/fpu64/libc-musl.a(stdin.o)
 .mdebug.abi32  0x0000000000000000        0x0 /opt/microchip/xc32/v4.20/bin/bin/../../lib/gcc/pic32mx/8.3.1/../../../../pic32mx/lib/fpu64/libc-musl.a(stdout.o)
 .mdebug.abi32  0x0000000000000000        0x0 /opt/microchip/xc32/v4.20/bin/bin/../../lib/gcc/pic32mx/8.3.1/../../../../pic32mx/lib/fpu64/libc-musl.a(setbuf.o)
 .mdebug.abi32  0x0000000000000000        0x0 /opt/microchip/xc32/v4.20/bin/bin/../../lib/gcc/pic32mx/8.3.1/../../../../pic32mx/lib/fpu64/libc-musl.a(vprintf.o)
 .mdebug.abi32  0x0000000000000000        0x0 /opt/microchip/xc32/v4.20/bin/bin/../../lib/gcc/pic32mx/8.3.1/../../../../pic32mx/lib/fpu64/libc-musl.a(atoi.o)
 .mdebug.abi32  0x0000000000000000        0x0 /opt/microchip/xc32/v4.20/bin/bin/../../lib/gcc/pic32mx/8.3.1/../../../../pic32mx/lib/fpu64/libc-musl.a(memcpy.o)
 .mdebug.abi32  0x0000000000000000        0x0 /opt/microchip/xc32/v4.20/bin/bin/../../lib/gcc/pic32mx/8.3.1/../../../../pic32mx/lib/fpu64/libc-musl.a(strcpy.o)
 .mdebug.abi32  0x0000000000000000        0x0 /opt/microchip/xc32/v4.20/bin/bin/../../lib/gcc/pic32mx/8.3.1/../../../../pic32mx/lib/fpu64/libc-musl.a(tolower.o)
 .mdebug.abi32  0x0000000000000000        0x0 /opt/microchip/xc32/v4.20/bin/bin/../../lib/gcc/pic32mx/8.3.1/../../../../pic32mx/lib/fpu64/libc-musl.a(toupper.o)
 .mdebug.abi32  0x0000000000000000        0x0 /opt/microchip/xc32/v4.20/bin/bin/../../lib/gcc/pic32mx/8.3.1/../../../../pic32mx/lib/fpu64/libc-musl.a(__int_vsprintf.o)
 .mdebug.abi32  0x0000000000000000        0x0 /opt/microchip/xc32/v4.20/bin/bin/../../lib/gcc/pic32mx/8.3.1/../../../../pic32mx/lib/fpu64/libc-musl.a(__fopen.o)
 .mdebug.abi32  0x0000000000000000        0x0 /opt/microchip/xc32/v4.20/bin/bin/../../lib/gcc/pic32mx/8.3.1/../../../../pic32mx/lib/fpu64/libc-musl.a(__io_init_needed.o)
 .mdebug.abi32  0x0000000000000000        0x0 /opt/microchip/xc32/v4.20/bin/bin/../../lib/gcc/pic32mx/8.3.1/../../../../pic32mx/lib/fpu64/libc-musl.a(__io_rw_needed.o)
 .mdebug.abi32  0x0000000000000000        0x0 /opt/microchip/xc32/v4.20/bin/bin/../../lib/gcc/pic32mx/8.3.1/../../../../pic32mx/lib/fpu64/libc-musl.a(__out.o)
 .mdebug.abi32  0x0000000000000000        0x0 /opt/microchip/xc32/v4.20/bin/bin/../../lib/gcc/pic32mx/8.3.1/../../../../pic32mx/lib/fpu64/libc-musl.a(__stdio_close.o)
 .mdebug.abi32  0x0000000000000000        0x0 /opt/microchip/xc32/v4.20/bin/bin/../../lib/gcc/pic32mx/8.3.1/../../../../pic32mx/lib/fpu64/libc-musl.a(__stdio_read.o)
 .mdebug.abi32  0x0000000000000000        0x0 /opt/microchip/xc32/v4.20/bin/bin/../../lib/gcc/pic32mx/8.3.1/../../../../pic32mx/lib/fpu64/libc-musl.a(__towrite_rw.o)
 .mdebug.abi32  0x0000000000000000        0x0 /opt/microchip/xc32/v4.20/bin/bin/../../lib/gcc/pic32mx/8.3.1/../../../../pic32mx/lib/fpu64/libc-musl.a(setvbuf.o)
 .mdebug.abi32  0x0000000000000000        0x0 /opt/microchip/xc32/v4.20/bin/bin/../../lib/gcc/pic32mx/8.3.1/../../../../pic32mx/lib/fpu64/libc-musl.a(vfprintf.o)
 .mdebug.abi32  0x0000000000000000        0x0 /opt/microchip/xc32/v4.20/bin/bin/../../lib/gcc/pic32mx/8.3.1/../../../../pic32mx/lib/fpu64/libc-musl.a(stpcpy.o)
 .mdebug.abi32  0x0000000000000000        0x0 /opt/microchip/xc32/v4.20/bin/bin/../../lib/gcc/pic32mx/8.3.1/../../../../pic32mx/lib/fpu64/libc-musl.a(readv.o)
 .mdebug.abi32  0x0000000000000000        0x0 /opt/microchip/xc32/v4.20/bin/bin/../../lib/gcc/pic32mx/8.3.1/../../../../pic32mx/lib/fpu64/libc-musl.a(malloc.o)
 .mdebug.abi32  0x0000000000000000        0x0 /opt/microchip/xc32/v4.20/bin/bin/../../lib/gcc/pic32mx/8.3.1/../../../../pic32mx/lib/fpu64/libc-musl.a(expand_heap.o)
 .mdebug.abi32  0x0000000000000000        0x0 /opt/microchip/xc32/v4.20/bin/bin/../../lib/gcc/pic32mx/8.3.1/../../../../pic32mx/lib/fpu64/libc-musl.a(__int_vsnprintf.o)
 .mdebug.abi32  0x0000000000000000        0x0 /opt/microchip/xc32/v4.20/bin/bin/../../lib/gcc/pic32mx/8.3.1/../../../../pic32mx/lib/fpu64/libc-musl.a(__fopen_rw.o)
 .mdebug.abi32  0x0000000000000000        0x0 /opt/microchip/xc32/v4.20/bin/bin/../../lib/gcc/pic32mx/8.3.1/../../../../pic32mx/lib/fpu64/libc-musl.a(__ftello_rw.o)
 .mdebug.abi32  0x0000000000000000        0x0 /opt/microchip/xc32/v4.20/bin/bin/../../lib/gcc/pic32mx/8.3.1/../../../../pic32mx/lib/fpu64/libc-musl.a(__init_stdio.o)
 .mdebug.abi32  0x0000000000000000        0x0 /opt/microchip/xc32/v4.20/bin/bin/../../lib/gcc/pic32mx/8.3.1/../../../../pic32mx/lib/fpu64/libc-musl.a(__io_buf_needed.o)
 .mdebug.abi32  0x0000000000000000        0x0 /opt/microchip/xc32/v4.20/bin/bin/../../lib/gcc/pic32mx/8.3.1/../../../../pic32mx/lib/fpu64/libc-musl.a(__io_file_needed.o)
 .mdebug.abi32  0x0000000000000000        0x0 /opt/microchip/xc32/v4.20/bin/bin/../../lib/gcc/pic32mx/8.3.1/../../../../pic32mx/lib/fpu64/libc-musl.a(__io_fmt_needed.o)
 .mdebug.abi32  0x0000000000000000        0x0 /opt/microchip/xc32/v4.20/bin/bin/../../lib/gcc/pic32mx/8.3.1/../../../../pic32mx/lib/fpu64/libc-musl.a(__io_std_needed.o)
 .mdebug.abi32  0x0000000000000000        0x0 /opt/microchip/xc32/v4.20/bin/bin/../../lib/gcc/pic32mx/8.3.1/../../../../pic32mx/lib/fpu64/libc-musl.a(__putc.o)
 .mdebug.abi32  0x0000000000000000        0x0 /opt/microchip/xc32/v4.20/bin/bin/../../lib/gcc/pic32mx/8.3.1/../../../../pic32mx/lib/fpu64/libc-musl.a(__stderr.o)
 .mdebug.abi32  0x0000000000000000        0x0 /opt/microchip/xc32/v4.20/bin/bin/../../lib/gcc/pic32mx/8.3.1/../../../../pic32mx/lib/fpu64/libc-musl.a(__stdio_exit.o)
 .mdebug.abi32  0x0000000000000000        0x0 /opt/microchip/xc32/v4.20/bin/bin/../../lib/gcc/pic32mx/8.3.1/../../../../pic32mx/lib/fpu64/libc-musl.a(__stdio_write.o)
 .mdebug.abi32  0x0000000000000000        0x0 /opt/microchip/xc32/v4.20/bin/bin/../../lib/gcc/pic32mx/8.3.1/../../../../pic32mx/lib/fpu64/libc-musl.a(__stdout.o)
 .mdebug.abi32  0x0000000000000000        0x0 /opt/microchip/xc32/v4.20/bin/bin/../../lib/gcc/pic32mx/8.3.1/../../../../pic32mx/lib/fpu64/libc-musl.a(__towrite.o)
 .mdebug.abi32  0x0000000000000000        0x0 /opt/microchip/xc32/v4.20/bin/bin/../../lib/gcc/pic32mx/8.3.1/../../../../pic32mx/lib/fpu64/libc-musl.a(putc.o)
 .mdebug.abi32  0x0000000000000000        0x0 /opt/microchip/xc32/v4.20/bin/bin/../../lib/gcc/pic32mx/8.3.1/../../../../pic32mx/lib/fpu64/libc-musl.a(writev.o)
 .mdebug.abi32  0x0000000000000000        0x0 /opt/microchip/xc32/v4.20/bin/bin/../../lib/gcc/pic32mx/8.3.1/../../../../pic32mx/lib/fpu64/libc-musl.a(libc.o)
 .mdebug.abi32  0x0000000000000000        0x0 /opt/microchip/xc32/v4.20/bin/bin/../../lib/gcc/pic32mx/8.3.1/../../../../pic32mx/lib/fpu64/libc-musl.a(__int_vfprintf.o)
 .mdebug.abi32  0x0000000000000000        0x0 /opt/microchip/xc32/v4.20/bin/bin/../../lib/gcc/pic32mx/8.3.1/../../../../pic32mx/lib/fpu64/libc-musl.a(__overflow.o)
 .mdebug.abi32  0x0000000000000000        0x0 /opt/microchip/xc32/v4.20/bin/bin/../../lib/gcc/pic32mx/8.3.1/../../../../pic32mx/lib/fpu64/libc-musl.a(__fclose.o)
 .mdebug.abi32  0x0000000000000000        0x0 /opt/microchip/xc32/v4.20/bin/bin/../../lib/gcc/pic32mx/8.3.1/../../../../pic32mx/lib/fpu64/libc-musl.a(__fmt_a.o)
 .mdebug.abi32  0x0000000000000000        0x0 /opt/microchip/xc32/v4.20/bin/bin/../../lib/gcc/pic32mx/8.3.1/../../../../pic32mx/lib/fpu64/libc-musl.a(__fseeko.o)
 .mdebug.abi32  0x0000000000000000        0x0 /opt/microchip/xc32/v4.20/bin/bin/../../lib/gcc/pic32mx/8.3.1/../../../../pic32mx/lib/fpu64/libc-musl.a(__ftello.o)
 .mdebug.abi32  0x0000000000000000        0x0 /opt/microchip/xc32/v4.20/bin/bin/../../lib/gcc/pic32mx/8.3.1/../../../../pic32mx/lib/fpu64/libc-musl.a(__fwrite.o)
 .mdebug.abi32  0x0000000000000000        0x0 /opt/microchip/xc32/v4.20/bin/bin/../../lib/gcc/pic32mx/8.3.1/../../../../pic32mx/lib/fpu64/libm-musl.a(floor.o)
 .mdebug.abi32  0x0000000000000000        0x0 /opt/microchip/xc32/v4.20/bin/bin/../../lib/gcc/pic32mx/8.3.1/../../../../pic32mx/lib/fpu64/libm-musl.a(fma.o)
 .mdebug.abi32  0x0000000000000000        0x0 /opt/microchip/xc32/v4.20/bin/bin/../../lib/gcc/pic32mx/8.3.1/../../../../pic32mx/lib/fpu64/libm-musl.a(scalbn.o)
 .mdebug.abi32  0x0000000000000000        0x0 /opt/microchip/xc32/v4.20/bin/bin/../../lib/gcc/pic32mx/8.3.1/fpu64/libgcc.a(_lshrdi3.o)
 .mdebug.abi32  0x0000000000000000        0x0 /opt/microchip/xc32/v4.20/bin/bin/../../lib/gcc/pic32mx/8.3.1/fpu64/libgcc.a(_ashldi3.o)
 .mdebug.abi32  0x0000000000000000        0x0 /opt/microchip/xc32/v4.20/bin/bin/../../lib/gcc/pic32mx/8.3.1/fpu64/libgcc.a(_udivdi3.o)
 .mdebug.abi32  0x0000000000000000        0x0 /opt/microchip/xc32/v4.20/bin/bin/../../lib/gcc/pic32mx/8.3.1/fpu64/libgcc.a(_umoddi3.o)
 .mdebug.abi32  0x0000000000000000        0x0 /opt/microchip/xc32/v4.20/bin/bin/../../lib/gcc/pic32mx/8.3.1/../../../../pic32mx/lib/fpu64/libpic32.a(sbrk.o)
 .mdebug.abi32  0x0000000000000000        0x0 /opt/microchip/xc32/v4.20/bin/bin/../../lib/gcc/pic32mx/8.3.1/../../../../pic32mx/lib/fpu64/libpic32.a(lseek.o)
 .mdebug.abi32  0x0000000000000000        0x0 /opt/microchip/xc32/v4.20/bin/bin/../../lib/gcc/pic32mx/8.3.1/../../../../pic32mx/lib/fpu64/libpic32.a(close.o)
 .mdebug.abi32  0x0000000000000000        0x0 /opt/microchip/xc32/v4.20/bin/bin/../../lib/gcc/pic32mx/8.3.1/../../../../pic32mx/lib/fpu64/libpic32.a(errno.o)

.mdebug.abiN32
 *(.mdebug.abiN32)

.mdebug.abi64
 *(.mdebug.abi64)

.mdebug.abiO64
 *(.mdebug.abiO64)

.mdebug.eabi32
 *(.mdebug.eabi32)

.mdebug.eabi64
 *(.mdebug.eabi64)

.gcc_compiled_long32
 *(.gcc_compiled_long32)

.gcc_compiled_long64
 *(.gcc_compiled_long64)

.stab
 *(.stab)

.stabstr
 *(.stabstr)

.stab.excl
 *(.stab.excl)

.stab.exclstr
 *(.stab.exclstr)

.stab.index
 *(.stab.index)

.stab.indexstr
 *(.stab.indexstr)

.comment        0x0000000000000000       0xa7
 *(.comment)
 .comment       0x0000000000000000       0x2b build/pic32mk_mcj_curiosity_pro/production/_ext/1333799919/plib_canfd1.o
                                         0x2c (size before relaxing)
 .comment       0x000000000000002b       0x2c build/pic32mk_mcj_curiosity_pro/production/_ext/899710619/plib_clk.o
 .comment       0x000000000000002b       0x2c build/pic32mk_mcj_curiosity_pro/production/_ext/2121194872/plib_dmac.o
 .comment       0x000000000000002b       0x2c build/pic32mk_mcj_curiosity_pro/production/_ext/2121156184/plib_evic.o
 .comment       0x000000000000002b       0x2c build/pic32mk_mcj_curiosity_pro/production/_ext/2121102356/plib_gpio.o
 .comment       0x000000000000002b       0x2c build/pic32mk_mcj_curiosity_pro/production/_ext/1753921419/plib_spi2_master.o
 .comment       0x000000000000002b       0x2c build/pic32mk_mcj_curiosity_pro/production/_ext/2120699413/plib_uart1.o
 .comment       0x000000000000002b       0x2c build/pic32mk_mcj_curiosity_pro/production/_ext/529947251/xc32_monitor.o
 .comment       0x000000000000002b       0x2c build/pic32mk_mcj_curiosity_pro/production/_ext/1661106823/initialization.o
 .comment       0x000000000000002b       0x2c build/pic32mk_mcj_curiosity_pro/production/_ext/1661106823/interrupts.o
 .comment       0x000000000000002b       0x2c build/pic32mk_mcj_curiosity_pro/production/_ext/1661106823/exceptions.o
 .comment       0x000000000000002b       0x2c build/pic32mk_mcj_curiosity_pro/production/_ext/1360937237/main_pic32mk_mcj.o
 .comment       0x000000000000002b       0x18 /opt/microchip/xc32/v4.20/bin/bin/../../lib/gcc/pic32mx/8.3.1/../../../../pic32mx/lib/fpu64/libpic32.a(memset.o)
                                         0x19 (size before relaxing)
 .comment       0x0000000000000043       0x19 /opt/microchip/xc32/v4.20/bin/bin/../../lib/gcc/pic32mx/8.3.1/../../../../pic32mx/lib/fpu64/libpic32.a(strlen.o)
                                         0x1a (size before relaxing)
 .comment       0x000000000000005c       0x2c /opt/microchip/xc32/v4.20/bin/bin/../../lib/gcc/pic32mx/8.3.1/../../../../pic32mx/lib/fpu64/libpic32.a(default-on-reset.o)
 .comment       0x000000000000005c       0x2c /opt/microchip/xc32/v4.20/bin/bin/../../lib/gcc/pic32mx/8.3.1/../../../../pic32mx/lib/fpu64/libpic32.a(default-on-bootstrap.o)
 .comment       0x000000000000005c       0x2c /opt/microchip/xc32/v4.20/bin/bin/../../lib/gcc/pic32mx/8.3.1/../../../../pic32mx/lib/fpu64/libpic32.a(defaultinterrupt.o)
 .comment       0x000000000000005c       0x2c /opt/microchip/xc32/v4.20/bin/bin/../../lib/gcc/pic32mx/8.3.1/../../../../pic32mx/lib/fpu64/libc-musl.a(__sio_sprintf_dfoux.o)
 .comment       0x000000000000005c       0x2c /opt/microchip/xc32/v4.20/bin/bin/../../lib/gcc/pic32mx/8.3.1/../../../../pic32mx/lib/fpu64/libc-musl.a(__fmt_d.o)
 .comment       0x000000000000005c       0x2c /opt/microchip/xc32/v4.20/bin/bin/../../lib/gcc/pic32mx/8.3.1/../../../../pic32mx/lib/fpu64/libc-musl.a(__fmt_fp.o)
 .comment       0x000000000000005c       0x2c /opt/microchip/xc32/v4.20/bin/bin/../../lib/gcc/pic32mx/8.3.1/../../../../pic32mx/lib/fpu64/libc-musl.a(__fmt_o.o)
 .comment       0x000000000000005c       0x2c /opt/microchip/xc32/v4.20/bin/bin/../../lib/gcc/pic32mx/8.3.1/../../../../pic32mx/lib/fpu64/libc-musl.a(__fmt_s.o)
 .comment       0x000000000000005c       0x2c /opt/microchip/xc32/v4.20/bin/bin/../../lib/gcc/pic32mx/8.3.1/../../../../pic32mx/lib/fpu64/libc-musl.a(__fmt_u.o)
 .comment       0x000000000000005c       0x2c /opt/microchip/xc32/v4.20/bin/bin/../../lib/gcc/pic32mx/8.3.1/../../../../pic32mx/lib/fpu64/libc-musl.a(__fmt_x.o)
 .comment       0x000000000000005c       0x2c /opt/microchip/xc32/v4.20/bin/bin/../../lib/gcc/pic32mx/8.3.1/../../../../pic32mx/lib/fpu64/libc-musl.a(__pop_float.o)
 .comment       0x000000000000005c       0x2c /opt/microchip/xc32/v4.20/bin/bin/../../lib/gcc/pic32mx/8.3.1/../../../../pic32mx/lib/fpu64/libc-musl.a(__pop_int.o)
 .comment       0x000000000000005c       0x2c /opt/microchip/xc32/v4.20/bin/bin/../../lib/gcc/pic32mx/8.3.1/../../../../pic32mx/lib/fpu64/libc-musl.a(__pop_ptr.o)
 .comment       0x000000000000005c       0x2c /opt/microchip/xc32/v4.20/bin/bin/../../lib/gcc/pic32mx/8.3.1/../../../../pic32mx/lib/fpu64/libc-musl.a(__printf_core.o)
 .comment       0x000000000000005c       0x2c /opt/microchip/xc32/v4.20/bin/bin/../../lib/gcc/pic32mx/8.3.1/../../../../pic32mx/lib/fpu64/libc-musl.a(stdin.o)
 .comment       0x000000000000005c       0x2c /opt/microchip/xc32/v4.20/bin/bin/../../lib/gcc/pic32mx/8.3.1/../../../../pic32mx/lib/fpu64/libc-musl.a(stdout.o)
 .comment       0x000000000000005c       0x2c /opt/microchip/xc32/v4.20/bin/bin/../../lib/gcc/pic32mx/8.3.1/../../../../pic32mx/lib/fpu64/libc-musl.a(setbuf.o)
 .comment       0x000000000000005c       0x2c /opt/microchip/xc32/v4.20/bin/bin/../../lib/gcc/pic32mx/8.3.1/../../../../pic32mx/lib/fpu64/libc-musl.a(vprintf.o)
 .comment       0x000000000000005c       0x2c /opt/microchip/xc32/v4.20/bin/bin/../../lib/gcc/pic32mx/8.3.1/../../../../pic32mx/lib/fpu64/libc-musl.a(atoi.o)
 .comment       0x000000000000005c       0x2c /opt/microchip/xc32/v4.20/bin/bin/../../lib/gcc/pic32mx/8.3.1/../../../../pic32mx/lib/fpu64/libc-musl.a(memcpy.o)
 .comment       0x000000000000005c       0x2c /opt/microchip/xc32/v4.20/bin/bin/../../lib/gcc/pic32mx/8.3.1/../../../../pic32mx/lib/fpu64/libc-musl.a(strcpy.o)
 .comment       0x000000000000005c       0x2c /opt/microchip/xc32/v4.20/bin/bin/../../lib/gcc/pic32mx/8.3.1/../../../../pic32mx/lib/fpu64/libc-musl.a(tolower.o)
 .comment       0x000000000000005c       0x2c /opt/microchip/xc32/v4.20/bin/bin/../../lib/gcc/pic32mx/8.3.1/../../../../pic32mx/lib/fpu64/libc-musl.a(toupper.o)
 .comment       0x000000000000005c       0x2c /opt/microchip/xc32/v4.20/bin/bin/../../lib/gcc/pic32mx/8.3.1/../../../../pic32mx/lib/fpu64/libc-musl.a(__int_vsprintf.o)
 .comment       0x000000000000005c       0x2c /opt/microchip/xc32/v4.20/bin/bin/../../lib/gcc/pic32mx/8.3.1/../../../../pic32mx/lib/fpu64/libc-musl.a(__fopen.o)
 .comment       0x000000000000005c       0x2c /opt/microchip/xc32/v4.20/bin/bin/../../lib/gcc/pic32mx/8.3.1/../../../../pic32mx/lib/fpu64/libc-musl.a(__io_init_needed.o)
 .comment       0x000000000000005c       0x2c /opt/microchip/xc32/v4.20/bin/bin/../../lib/gcc/pic32mx/8.3.1/../../../../pic32mx/lib/fpu64/libc-musl.a(__io_rw_needed.o)
 .comment       0x000000000000005c       0x2c /opt/microchip/xc32/v4.20/bin/bin/../../lib/gcc/pic32mx/8.3.1/../../../../pic32mx/lib/fpu64/libc-musl.a(__out.o)
 .comment       0x000000000000005c       0x2c /opt/microchip/xc32/v4.20/bin/bin/../../lib/gcc/pic32mx/8.3.1/../../../../pic32mx/lib/fpu64/libc-musl.a(__stdio_close.o)
 .comment       0x000000000000005c       0x2c /opt/microchip/xc32/v4.20/bin/bin/../../lib/gcc/pic32mx/8.3.1/../../../../pic32mx/lib/fpu64/libc-musl.a(__stdio_read.o)
 .comment       0x000000000000005c       0x2c /opt/microchip/xc32/v4.20/bin/bin/../../lib/gcc/pic32mx/8.3.1/../../../../pic32mx/lib/fpu64/libc-musl.a(__towrite_rw.o)
 .comment       0x000000000000005c       0x2c /opt/microchip/xc32/v4.20/bin/bin/../../lib/gcc/pic32mx/8.3.1/../../../../pic32mx/lib/fpu64/libc-musl.a(setvbuf.o)
 .comment       0x000000000000005c       0x2c /opt/microchip/xc32/v4.20/bin/bin/../../lib/gcc/pic32mx/8.3.1/../../../../pic32mx/lib/fpu64/libc-musl.a(vfprintf.o)
 .comment       0x000000000000005c       0x2c /opt/microchip/xc32/v4.20/bin/bin/../../lib/gcc/pic32mx/8.3.1/../../../../pic32mx/lib/fpu64/libc-musl.a(stpcpy.o)
 .comment       0x000000000000005c       0x2c /opt/microchip/xc32/v4.20/bin/bin/../../lib/gcc/pic32mx/8.3.1/../../../../pic32mx/lib/fpu64/libc-musl.a(readv.o)
 .comment       0x000000000000005c       0x2c /opt/microchip/xc32/v4.20/bin/bin/../../lib/gcc/pic32mx/8.3.1/../../../../pic32mx/lib/fpu64/libc-musl.a(malloc.o)
 .comment       0x000000000000005c       0x2c /opt/microchip/xc32/v4.20/bin/bin/../../lib/gcc/pic32mx/8.3.1/../../../../pic32mx/lib/fpu64/libc-musl.a(expand_heap.o)
 .comment       0x000000000000005c       0x2c /opt/microchip/xc32/v4.20/bin/bin/../../lib/gcc/pic32mx/8.3.1/../../../../pic32mx/lib/fpu64/libc-musl.a(__int_vsnprintf.o)
 .comment       0x000000000000005c       0x2c /opt/microchip/xc32/v4.20/bin/bin/../../lib/gcc/pic32mx/8.3.1/../../../../pic32mx/lib/fpu64/libc-musl.a(__fopen_rw.o)
 .comment       0x000000000000005c       0x2c /opt/microchip/xc32/v4.20/bin/bin/../../lib/gcc/pic32mx/8.3.1/../../../../pic32mx/lib/fpu64/libc-musl.a(__ftello_rw.o)
 .comment       0x000000000000005c       0x2c /opt/microchip/xc32/v4.20/bin/bin/../../lib/gcc/pic32mx/8.3.1/../../../../pic32mx/lib/fpu64/libc-musl.a(__init_stdio.o)
 .comment       0x000000000000005c       0x2c /opt/microchip/xc32/v4.20/bin/bin/../../lib/gcc/pic32mx/8.3.1/../../../../pic32mx/lib/fpu64/libc-musl.a(__io_buf_needed.o)
 .comment       0x000000000000005c       0x2c /opt/microchip/xc32/v4.20/bin/bin/../../lib/gcc/pic32mx/8.3.1/../../../../pic32mx/lib/fpu64/libc-musl.a(__io_file_needed.o)
 .comment       0x000000000000005c       0x2c /opt/microchip/xc32/v4.20/bin/bin/../../lib/gcc/pic32mx/8.3.1/../../../../pic32mx/lib/fpu64/libc-musl.a(__io_fmt_needed.o)
 .comment       0x000000000000005c       0x2c /opt/microchip/xc32/v4.20/bin/bin/../../lib/gcc/pic32mx/8.3.1/../../../../pic32mx/lib/fpu64/libc-musl.a(__io_std_needed.o)
 .comment       0x000000000000005c       0x2c /opt/microchip/xc32/v4.20/bin/bin/../../lib/gcc/pic32mx/8.3.1/../../../../pic32mx/lib/fpu64/libc-musl.a(__putc.o)
 .comment       0x000000000000005c       0x2c /opt/microchip/xc32/v4.20/bin/bin/../../lib/gcc/pic32mx/8.3.1/../../../../pic32mx/lib/fpu64/libc-musl.a(__stderr.o)
 .comment       0x000000000000005c       0x2c /opt/microchip/xc32/v4.20/bin/bin/../../lib/gcc/pic32mx/8.3.1/../../../../pic32mx/lib/fpu64/libc-musl.a(__stdio_exit.o)
 .comment       0x000000000000005c       0x2c /opt/microchip/xc32/v4.20/bin/bin/../../lib/gcc/pic32mx/8.3.1/../../../../pic32mx/lib/fpu64/libc-musl.a(__stdio_write.o)
 .comment       0x000000000000005c       0x2c /opt/microchip/xc32/v4.20/bin/bin/../../lib/gcc/pic32mx/8.3.1/../../../../pic32mx/lib/fpu64/libc-musl.a(__stdout.o)
 .comment       0x000000000000005c       0x2c /opt/microchip/xc32/v4.20/bin/bin/../../lib/gcc/pic32mx/8.3.1/../../../../pic32mx/lib/fpu64/libc-musl.a(__towrite.o)
 .comment       0x000000000000005c       0x2c /opt/microchip/xc32/v4.20/bin/bin/../../lib/gcc/pic32mx/8.3.1/../../../../pic32mx/lib/fpu64/libc-musl.a(putc.o)
 .comment       0x000000000000005c       0x2c /opt/microchip/xc32/v4.20/bin/bin/../../lib/gcc/pic32mx/8.3.1/../../../../pic32mx/lib/fpu64/libc-musl.a(writev.o)
 .comment       0x000000000000005c       0x2c /opt/microchip/xc32/v4.20/bin/bin/../../lib/gcc/pic32mx/8.3.1/../../../../pic32mx/lib/fpu64/libc-musl.a(libc.o)
 .comment       0x000000000000005c       0x2c /opt/microchip/xc32/v4.20/bin/bin/../../lib/gcc/pic32mx/8.3.1/../../../../pic32mx/lib/fpu64/libc-musl.a(__int_vfprintf.o)
 .comment       0x000000000000005c       0x2c /opt/microchip/xc32/v4.20/bin/bin/../../lib/gcc/pic32mx/8.3.1/../../../../pic32mx/lib/fpu64/libc-musl.a(__overflow.o)
 .comment       0x000000000000005c       0x2c /opt/microchip/xc32/v4.20/bin/bin/../../lib/gcc/pic32mx/8.3.1/../../../../pic32mx/lib/fpu64/libc-musl.a(__fclose.o)
 .comment       0x000000000000005c       0x2c /opt/microchip/xc32/v4.20/bin/bin/../../lib/gcc/pic32mx/8.3.1/../../../../pic32mx/lib/fpu64/libc-musl.a(__fmt_a.o)
 .comment       0x000000000000005c       0x2c /opt/microchip/xc32/v4.20/bin/bin/../../lib/gcc/pic32mx/8.3.1/../../../../pic32mx/lib/fpu64/libc-musl.a(__fseeko.o)
 .comment       0x000000000000005c       0x2c /opt/microchip/xc32/v4.20/bin/bin/../../lib/gcc/pic32mx/8.3.1/../../../../pic32mx/lib/fpu64/libc-musl.a(__ftello.o)
 .comment       0x000000000000005c       0x2c /opt/microchip/xc32/v4.20/bin/bin/../../lib/gcc/pic32mx/8.3.1/../../../../pic32mx/lib/fpu64/libc-musl.a(__fwrite.o)
 .comment       0x000000000000005c       0x2c /opt/microchip/xc32/v4.20/bin/bin/../../lib/gcc/pic32mx/8.3.1/../../../../pic32mx/lib/fpu64/libm-musl.a(floor.o)
 .comment       0x000000000000005c       0x2c /opt/microchip/xc32/v4.20/bin/bin/../../lib/gcc/pic32mx/8.3.1/../../../../pic32mx/lib/fpu64/libm-musl.a(fma.o)
 .comment       0x000000000000005c       0x2c /opt/microchip/xc32/v4.20/bin/bin/../../lib/gcc/pic32mx/8.3.1/../../../../pic32mx/lib/fpu64/libm-musl.a(scalbn.o)
 .comment       0x000000000000005c       0x2c /opt/microchip/xc32/v4.20/bin/bin/../../lib/gcc/pic32mx/8.3.1/fpu64/libgcc.a(_lshrdi3.o)
 .comment       0x000000000000005c       0x2c /opt/microchip/xc32/v4.20/bin/bin/../../lib/gcc/pic32mx/8.3.1/fpu64/libgcc.a(_ashldi3.o)
 .comment       0x000000000000005c       0x2c /opt/microchip/xc32/v4.20/bin/bin/../../lib/gcc/pic32mx/8.3.1/fpu64/libgcc.a(_udivdi3.o)
 .comment       0x000000000000005c       0x2c /opt/microchip/xc32/v4.20/bin/bin/../../lib/gcc/pic32mx/8.3.1/fpu64/libgcc.a(_umoddi3.o)
 .comment       0x000000000000005c       0x4b /opt/microchip/xc32/v4.20/bin/bin/../../lib/gcc/pic32mx/8.3.1/../../../../pic32mx/lib/fpu64/libpic32.a(sbrk.o)
                                         0x77 (size before relaxing)
 .comment       0x00000000000000a7       0x2c /opt/microchip/xc32/v4.20/bin/bin/../../lib/gcc/pic32mx/8.3.1/../../../../pic32mx/lib/fpu64/libpic32.a(lseek.o)
 .comment       0x00000000000000a7       0x2c /opt/microchip/xc32/v4.20/bin/bin/../../lib/gcc/pic32mx/8.3.1/../../../../pic32mx/lib/fpu64/libpic32.a(close.o)
 .comment       0x00000000000000a7       0x2c /opt/microchip/xc32/v4.20/bin/bin/../../lib/gcc/pic32mx/8.3.1/../../../../pic32mx/lib/fpu64/libpic32.a(errno.o)

.debug
 *.elf(.debug)
 *(.debug)

.line
 *.elf(.line)
 *(.line)

.debug_srcinfo
 *.elf(.debug_srcinfo)
 *(.debug_srcinfo)

.debug_sfnames
 *.elf(.debug_sfnames)
 *(.debug_sfnames)

.debug_aranges  0x0000000000000000      0xe20
 *.elf(.debug_aranges)
 *(.debug_aranges)
 .debug_aranges
                0x0000000000000000       0xa0 build/pic32mk_mcj_curiosity_pro/production/_ext/1333799919/plib_canfd1.o
 .debug_aranges
                0x00000000000000a0       0x20 build/pic32mk_mcj_curiosity_pro/production/_ext/899710619/plib_clk.o
 .debug_aranges
                0x00000000000000c0       0x88 build/pic32mk_mcj_curiosity_pro/production/_ext/2121194872/plib_dmac.o
 .debug_aranges
                0x0000000000000148       0x68 build/pic32mk_mcj_curiosity_pro/production/_ext/2121156184/plib_evic.o
 .debug_aranges
                0x00000000000001b0       0x60 build/pic32mk_mcj_curiosity_pro/production/_ext/2121102356/plib_gpio.o
 .debug_aranges
                0x0000000000000210       0x50 build/pic32mk_mcj_curiosity_pro/production/_ext/1753921419/plib_spi2_master.o
 .debug_aranges
                0x0000000000000260       0x80 build/pic32mk_mcj_curiosity_pro/production/_ext/2120699413/plib_uart1.o
 .debug_aranges
                0x00000000000002e0       0x28 build/pic32mk_mcj_curiosity_pro/production/_ext/529947251/xc32_monitor.o
 .debug_aranges
                0x0000000000000308       0x20 build/pic32mk_mcj_curiosity_pro/production/_ext/1661106823/initialization.o
 .debug_aranges
                0x0000000000000328       0x28 build/pic32mk_mcj_curiosity_pro/production/_ext/1661106823/interrupts.o
 .debug_aranges
                0x0000000000000350       0x20 build/pic32mk_mcj_curiosity_pro/production/_ext/1661106823/exceptions.o
 .debug_aranges
                0x0000000000000370       0x58 build/pic32mk_mcj_curiosity_pro/production/_ext/1360937237/main_pic32mk_mcj.o
 .debug_aranges
                0x00000000000003c8       0x20 /opt/microchip/xc32/v4.20/bin/bin/../../lib/gcc/pic32mx/8.3.1/../../../../pic32mx/lib/fpu64/libpic32.a(default-on-reset.o)
 .debug_aranges
                0x00000000000003e8       0x20 /opt/microchip/xc32/v4.20/bin/bin/../../lib/gcc/pic32mx/8.3.1/../../../../pic32mx/lib/fpu64/libpic32.a(default-on-bootstrap.o)
 .debug_aranges
                0x0000000000000408       0x20 /opt/microchip/xc32/v4.20/bin/bin/../../lib/gcc/pic32mx/8.3.1/../../../../pic32mx/lib/fpu64/libpic32.a(defaultinterrupt.o)
 .debug_aranges
                0x0000000000000428       0x28 /opt/microchip/xc32/v4.20/bin/bin/../../lib/gcc/pic32mx/8.3.1/../../../../pic32mx/lib/fpu64/libc-musl.a(__sio_sprintf_dfoux.o)
 .debug_aranges
                0x0000000000000450       0x20 /opt/microchip/xc32/v4.20/bin/bin/../../lib/gcc/pic32mx/8.3.1/../../../../pic32mx/lib/fpu64/libc-musl.a(__fmt_d.o)
 .debug_aranges
                0x0000000000000470       0x20 /opt/microchip/xc32/v4.20/bin/bin/../../lib/gcc/pic32mx/8.3.1/../../../../pic32mx/lib/fpu64/libc-musl.a(__fmt_fp.o)
 .debug_aranges
                0x0000000000000490       0x20 /opt/microchip/xc32/v4.20/bin/bin/../../lib/gcc/pic32mx/8.3.1/../../../../pic32mx/lib/fpu64/libc-musl.a(__fmt_o.o)
 .debug_aranges
                0x00000000000004b0       0x20 /opt/microchip/xc32/v4.20/bin/bin/../../lib/gcc/pic32mx/8.3.1/../../../../pic32mx/lib/fpu64/libc-musl.a(__fmt_s.o)
 .debug_aranges
                0x00000000000004d0       0x28 /opt/microchip/xc32/v4.20/bin/bin/../../lib/gcc/pic32mx/8.3.1/../../../../pic32mx/lib/fpu64/libc-musl.a(__fmt_u.o)
 .debug_aranges
                0x00000000000004f8       0x20 /opt/microchip/xc32/v4.20/bin/bin/../../lib/gcc/pic32mx/8.3.1/../../../../pic32mx/lib/fpu64/libc-musl.a(__fmt_x.o)
 .debug_aranges
                0x0000000000000518       0x20 /opt/microchip/xc32/v4.20/bin/bin/../../lib/gcc/pic32mx/8.3.1/../../../../pic32mx/lib/fpu64/libc-musl.a(__pop_float.o)
 .debug_aranges
                0x0000000000000538       0x20 /opt/microchip/xc32/v4.20/bin/bin/../../lib/gcc/pic32mx/8.3.1/../../../../pic32mx/lib/fpu64/libc-musl.a(__pop_int.o)
 .debug_aranges
                0x0000000000000558       0x20 /opt/microchip/xc32/v4.20/bin/bin/../../lib/gcc/pic32mx/8.3.1/../../../../pic32mx/lib/fpu64/libc-musl.a(__pop_ptr.o)
 .debug_aranges
                0x0000000000000578       0x50 /opt/microchip/xc32/v4.20/bin/bin/../../lib/gcc/pic32mx/8.3.1/../../../../pic32mx/lib/fpu64/libc-musl.a(__printf_core.o)
 .debug_aranges
                0x00000000000005c8       0x28 /opt/microchip/xc32/v4.20/bin/bin/../../lib/gcc/pic32mx/8.3.1/../../../../pic32mx/lib/fpu64/libc-musl.a(stdin.o)
 .debug_aranges
                0x00000000000005f0       0x28 /opt/microchip/xc32/v4.20/bin/bin/../../lib/gcc/pic32mx/8.3.1/../../../../pic32mx/lib/fpu64/libc-musl.a(stdout.o)
 .debug_aranges
                0x0000000000000618       0x20 /opt/microchip/xc32/v4.20/bin/bin/../../lib/gcc/pic32mx/8.3.1/../../../../pic32mx/lib/fpu64/libc-musl.a(setbuf.o)
 .debug_aranges
                0x0000000000000638       0x20 /opt/microchip/xc32/v4.20/bin/bin/../../lib/gcc/pic32mx/8.3.1/../../../../pic32mx/lib/fpu64/libc-musl.a(vprintf.o)
 .debug_aranges
                0x0000000000000658       0x20 /opt/microchip/xc32/v4.20/bin/bin/../../lib/gcc/pic32mx/8.3.1/../../../../pic32mx/lib/fpu64/libc-musl.a(atoi.o)
 .debug_aranges
                0x0000000000000678       0x20 /opt/microchip/xc32/v4.20/bin/bin/../../lib/gcc/pic32mx/8.3.1/../../../../pic32mx/lib/fpu64/libc-musl.a(memcpy.o)
 .debug_aranges
                0x0000000000000698       0x20 /opt/microchip/xc32/v4.20/bin/bin/../../lib/gcc/pic32mx/8.3.1/../../../../pic32mx/lib/fpu64/libc-musl.a(strcpy.o)
 .debug_aranges
                0x00000000000006b8       0x28 /opt/microchip/xc32/v4.20/bin/bin/../../lib/gcc/pic32mx/8.3.1/../../../../pic32mx/lib/fpu64/libc-musl.a(tolower.o)
 .debug_aranges
                0x00000000000006e0       0x28 /opt/microchip/xc32/v4.20/bin/bin/../../lib/gcc/pic32mx/8.3.1/../../../../pic32mx/lib/fpu64/libc-musl.a(toupper.o)
 .debug_aranges
                0x0000000000000708       0x20 /opt/microchip/xc32/v4.20/bin/bin/../../lib/gcc/pic32mx/8.3.1/../../../../pic32mx/lib/fpu64/libc-musl.a(__int_vsprintf.o)
 .debug_aranges
                0x0000000000000728       0x30 /opt/microchip/xc32/v4.20/bin/bin/../../lib/gcc/pic32mx/8.3.1/../../../../pic32mx/lib/fpu64/libc-musl.a(__fopen.o)
 .debug_aranges
                0x0000000000000758       0x28 /opt/microchip/xc32/v4.20/bin/bin/../../lib/gcc/pic32mx/8.3.1/../../../../pic32mx/lib/fpu64/libc-musl.a(__io_init_needed.o)
 .debug_aranges
                0x0000000000000780       0x20 /opt/microchip/xc32/v4.20/bin/bin/../../lib/gcc/pic32mx/8.3.1/../../../../pic32mx/lib/fpu64/libc-musl.a(__io_rw_needed.o)
 .debug_aranges
                0x00000000000007a0       0x28 /opt/microchip/xc32/v4.20/bin/bin/../../lib/gcc/pic32mx/8.3.1/../../../../pic32mx/lib/fpu64/libc-musl.a(__out.o)
 .debug_aranges
                0x00000000000007c8       0x28 /opt/microchip/xc32/v4.20/bin/bin/../../lib/gcc/pic32mx/8.3.1/../../../../pic32mx/lib/fpu64/libc-musl.a(__stdio_close.o)
 .debug_aranges
                0x00000000000007f0       0x20 /opt/microchip/xc32/v4.20/bin/bin/../../lib/gcc/pic32mx/8.3.1/../../../../pic32mx/lib/fpu64/libc-musl.a(__stdio_read.o)
 .debug_aranges
                0x0000000000000810       0x20 /opt/microchip/xc32/v4.20/bin/bin/../../lib/gcc/pic32mx/8.3.1/../../../../pic32mx/lib/fpu64/libc-musl.a(__towrite_rw.o)
 .debug_aranges
                0x0000000000000830       0x28 /opt/microchip/xc32/v4.20/bin/bin/../../lib/gcc/pic32mx/8.3.1/../../../../pic32mx/lib/fpu64/libc-musl.a(setvbuf.o)
 .debug_aranges
                0x0000000000000858       0x28 /opt/microchip/xc32/v4.20/bin/bin/../../lib/gcc/pic32mx/8.3.1/../../../../pic32mx/lib/fpu64/libc-musl.a(vfprintf.o)
 .debug_aranges
                0x0000000000000880       0x20 /opt/microchip/xc32/v4.20/bin/bin/../../lib/gcc/pic32mx/8.3.1/../../../../pic32mx/lib/fpu64/libc-musl.a(stpcpy.o)
 .debug_aranges
                0x00000000000008a0       0x20 /opt/microchip/xc32/v4.20/bin/bin/../../lib/gcc/pic32mx/8.3.1/../../../../pic32mx/lib/fpu64/libc-musl.a(readv.o)
 .debug_aranges
                0x00000000000008c0       0x70 /opt/microchip/xc32/v4.20/bin/bin/../../lib/gcc/pic32mx/8.3.1/../../../../pic32mx/lib/fpu64/libc-musl.a(malloc.o)
 .debug_aranges
                0x0000000000000930       0x20 /opt/microchip/xc32/v4.20/bin/bin/../../lib/gcc/pic32mx/8.3.1/../../../../pic32mx/lib/fpu64/libc-musl.a(expand_heap.o)
 .debug_aranges
                0x0000000000000950       0x20 /opt/microchip/xc32/v4.20/bin/bin/../../lib/gcc/pic32mx/8.3.1/../../../../pic32mx/lib/fpu64/libc-musl.a(__int_vsnprintf.o)
 .debug_aranges
                0x0000000000000970       0x20 /opt/microchip/xc32/v4.20/bin/bin/../../lib/gcc/pic32mx/8.3.1/../../../../pic32mx/lib/fpu64/libc-musl.a(__fopen_rw.o)
 .debug_aranges
                0x0000000000000990       0x20 /opt/microchip/xc32/v4.20/bin/bin/../../lib/gcc/pic32mx/8.3.1/../../../../pic32mx/lib/fpu64/libc-musl.a(__ftello_rw.o)
 .debug_aranges
                0x00000000000009b0       0x28 /opt/microchip/xc32/v4.20/bin/bin/../../lib/gcc/pic32mx/8.3.1/../../../../pic32mx/lib/fpu64/libc-musl.a(__init_stdio.o)
 .debug_aranges
                0x00000000000009d8       0x20 /opt/microchip/xc32/v4.20/bin/bin/../../lib/gcc/pic32mx/8.3.1/../../../../pic32mx/lib/fpu64/libc-musl.a(__io_buf_needed.o)
 .debug_aranges
                0x00000000000009f8       0x20 /opt/microchip/xc32/v4.20/bin/bin/../../lib/gcc/pic32mx/8.3.1/../../../../pic32mx/lib/fpu64/libc-musl.a(__io_file_needed.o)
 .debug_aranges
                0x0000000000000a18       0x20 /opt/microchip/xc32/v4.20/bin/bin/../../lib/gcc/pic32mx/8.3.1/../../../../pic32mx/lib/fpu64/libc-musl.a(__io_fmt_needed.o)
 .debug_aranges
                0x0000000000000a38       0x20 /opt/microchip/xc32/v4.20/bin/bin/../../lib/gcc/pic32mx/8.3.1/../../../../pic32mx/lib/fpu64/libc-musl.a(__io_std_needed.o)
 .debug_aranges
                0x0000000000000a58       0x20 /opt/microchip/xc32/v4.20/bin/bin/../../lib/gcc/pic32mx/8.3.1/../../../../pic32mx/lib/fpu64/libc-musl.a(__putc.o)
 .debug_aranges
                0x0000000000000a78       0x30 /opt/microchip/xc32/v4.20/bin/bin/../../lib/gcc/pic32mx/8.3.1/../../../../pic32mx/lib/fpu64/libc-musl.a(__stderr.o)
 .debug_aranges
                0x0000000000000aa8       0x30 /opt/microchip/xc32/v4.20/bin/bin/../../lib/gcc/pic32mx/8.3.1/../../../../pic32mx/lib/fpu64/libc-musl.a(__stdio_exit.o)
 .debug_aranges
                0x0000000000000ad8       0x28 /opt/microchip/xc32/v4.20/bin/bin/../../lib/gcc/pic32mx/8.3.1/../../../../pic32mx/lib/fpu64/libc-musl.a(__stdio_write.o)
 .debug_aranges
                0x0000000000000b00       0x30 /opt/microchip/xc32/v4.20/bin/bin/../../lib/gcc/pic32mx/8.3.1/../../../../pic32mx/lib/fpu64/libc-musl.a(__stdout.o)
 .debug_aranges
                0x0000000000000b30       0x28 /opt/microchip/xc32/v4.20/bin/bin/../../lib/gcc/pic32mx/8.3.1/../../../../pic32mx/lib/fpu64/libc-musl.a(__towrite.o)
 .debug_aranges
                0x0000000000000b58       0x30 /opt/microchip/xc32/v4.20/bin/bin/../../lib/gcc/pic32mx/8.3.1/../../../../pic32mx/lib/fpu64/libc-musl.a(putc.o)
 .debug_aranges
                0x0000000000000b88       0x20 /opt/microchip/xc32/v4.20/bin/bin/../../lib/gcc/pic32mx/8.3.1/../../../../pic32mx/lib/fpu64/libc-musl.a(writev.o)
 .debug_aranges
                0x0000000000000ba8       0x18 /opt/microchip/xc32/v4.20/bin/bin/../../lib/gcc/pic32mx/8.3.1/../../../../pic32mx/lib/fpu64/libc-musl.a(libc.o)
 .debug_aranges
                0x0000000000000bc0       0x20 /opt/microchip/xc32/v4.20/bin/bin/../../lib/gcc/pic32mx/8.3.1/../../../../pic32mx/lib/fpu64/libc-musl.a(__int_vfprintf.o)
 .debug_aranges
                0x0000000000000be0       0x20 /opt/microchip/xc32/v4.20/bin/bin/../../lib/gcc/pic32mx/8.3.1/../../../../pic32mx/lib/fpu64/libc-musl.a(__overflow.o)
 .debug_aranges
                0x0000000000000c00       0x20 /opt/microchip/xc32/v4.20/bin/bin/../../lib/gcc/pic32mx/8.3.1/../../../../pic32mx/lib/fpu64/libc-musl.a(__fclose.o)
 .debug_aranges
                0x0000000000000c20       0x20 /opt/microchip/xc32/v4.20/bin/bin/../../lib/gcc/pic32mx/8.3.1/../../../../pic32mx/lib/fpu64/libc-musl.a(__fmt_a.o)
 .debug_aranges
                0x0000000000000c40       0x20 /opt/microchip/xc32/v4.20/bin/bin/../../lib/gcc/pic32mx/8.3.1/../../../../pic32mx/lib/fpu64/libc-musl.a(__fseeko.o)
 .debug_aranges
                0x0000000000000c60       0x28 /opt/microchip/xc32/v4.20/bin/bin/../../lib/gcc/pic32mx/8.3.1/../../../../pic32mx/lib/fpu64/libc-musl.a(__ftello.o)
 .debug_aranges
                0x0000000000000c88       0x28 /opt/microchip/xc32/v4.20/bin/bin/../../lib/gcc/pic32mx/8.3.1/../../../../pic32mx/lib/fpu64/libc-musl.a(__fwrite.o)
 .debug_aranges
                0x0000000000000cb0       0x20 /opt/microchip/xc32/v4.20/bin/bin/../../lib/gcc/pic32mx/8.3.1/../../../../pic32mx/lib/fpu64/libm-musl.a(floor.o)
 .debug_aranges
                0x0000000000000cd0       0x30 /opt/microchip/xc32/v4.20/bin/bin/../../lib/gcc/pic32mx/8.3.1/../../../../pic32mx/lib/fpu64/libm-musl.a(fma.o)
 .debug_aranges
                0x0000000000000d00       0x20 /opt/microchip/xc32/v4.20/bin/bin/../../lib/gcc/pic32mx/8.3.1/../../../../pic32mx/lib/fpu64/libm-musl.a(scalbn.o)
 .debug_aranges
                0x0000000000000d20       0x20 /opt/microchip/xc32/v4.20/bin/bin/../../lib/gcc/pic32mx/8.3.1/fpu64/libgcc.a(_lshrdi3.o)
 .debug_aranges
                0x0000000000000d40       0x20 /opt/microchip/xc32/v4.20/bin/bin/../../lib/gcc/pic32mx/8.3.1/fpu64/libgcc.a(_ashldi3.o)
 .debug_aranges
                0x0000000000000d60       0x20 /opt/microchip/xc32/v4.20/bin/bin/../../lib/gcc/pic32mx/8.3.1/fpu64/libgcc.a(_udivdi3.o)
 .debug_aranges
                0x0000000000000d80       0x20 /opt/microchip/xc32/v4.20/bin/bin/../../lib/gcc/pic32mx/8.3.1/fpu64/libgcc.a(_umoddi3.o)
 .debug_aranges
                0x0000000000000da0       0x40 /opt/microchip/xc32/v4.20/bin/bin/../../lib/gcc/pic32mx/8.3.1/../../../../pic32mx/lib/fpu64/libpic32.a(sbrk.o)
 .debug_aranges
                0x0000000000000de0       0x20 /opt/microchip/xc32/v4.20/bin/bin/../../lib/gcc/pic32mx/8.3.1/../../../../pic32mx/lib/fpu64/libpic32.a(lseek.o)
 .debug_aranges
                0x0000000000000e00       0x20 /opt/microchip/xc32/v4.20/bin/bin/../../lib/gcc/pic32mx/8.3.1/../../../../pic32mx/lib/fpu64/libpic32.a(close.o)

.debug_pubnames
 *.elf(.debug_pubnames)
 *(.debug_pubnames)

.debug_info     0x0000000000000000    0x1058d
 *.elf(.debug_info .gnu.linkonce.wi.*)
 *(.debug_info .gnu.linkonce.wi.*)
 .debug_info    0x0000000000000000      0xd7a build/pic32mk_mcj_curiosity_pro/production/_ext/1333799919/plib_canfd1.o
 .debug_info    0x0000000000000d7a      0x2a8 build/pic32mk_mcj_curiosity_pro/production/_ext/899710619/plib_clk.o
 .debug_info    0x0000000000001022      0xc1a build/pic32mk_mcj_curiosity_pro/production/_ext/2121194872/plib_dmac.o
 .debug_info    0x0000000000001c3c      0x70c build/pic32mk_mcj_curiosity_pro/production/_ext/2121156184/plib_evic.o
 .debug_info    0x0000000000002348      0x564 build/pic32mk_mcj_curiosity_pro/production/_ext/2121102356/plib_gpio.o
 .debug_info    0x00000000000028ac      0x665 build/pic32mk_mcj_curiosity_pro/production/_ext/1753921419/plib_spi2_master.o
 .debug_info    0x0000000000002f11      0x659 build/pic32mk_mcj_curiosity_pro/production/_ext/2120699413/plib_uart1.o
 .debug_info    0x000000000000356a      0x1ca build/pic32mk_mcj_curiosity_pro/production/_ext/529947251/xc32_monitor.o
 .debug_info    0x0000000000003734      0x33a build/pic32mk_mcj_curiosity_pro/production/_ext/1661106823/initialization.o
 .debug_info    0x0000000000003a6e       0xee build/pic32mk_mcj_curiosity_pro/production/_ext/1661106823/interrupts.o
 .debug_info    0x0000000000003b5c      0x134 build/pic32mk_mcj_curiosity_pro/production/_ext/1661106823/exceptions.o
 .debug_info    0x0000000000003c90     0x110f build/pic32mk_mcj_curiosity_pro/production/_ext/1360937237/main_pic32mk_mcj.o
 .debug_info    0x0000000000004d9f       0x3f /opt/microchip/xc32/v4.20/bin/bin/../../lib/gcc/pic32mx/8.3.1/../../../../pic32mx/lib/fpu64/libpic32.a(default-on-reset.o)
 .debug_info    0x0000000000004dde       0x3f /opt/microchip/xc32/v4.20/bin/bin/../../lib/gcc/pic32mx/8.3.1/../../../../pic32mx/lib/fpu64/libpic32.a(default-on-bootstrap.o)
 .debug_info    0x0000000000004e1d       0x40 /opt/microchip/xc32/v4.20/bin/bin/../../lib/gcc/pic32mx/8.3.1/../../../../pic32mx/lib/fpu64/libpic32.a(defaultinterrupt.o)
 .debug_info    0x0000000000004e5d      0x215 /opt/microchip/xc32/v4.20/bin/bin/../../lib/gcc/pic32mx/8.3.1/../../../../pic32mx/lib/fpu64/libc-musl.a(__sio_sprintf_dfoux.o)
 .debug_info    0x0000000000005072      0x327 /opt/microchip/xc32/v4.20/bin/bin/../../lib/gcc/pic32mx/8.3.1/../../../../pic32mx/lib/fpu64/libc-musl.a(__fmt_d.o)
 .debug_info    0x0000000000005399      0x648 /opt/microchip/xc32/v4.20/bin/bin/../../lib/gcc/pic32mx/8.3.1/../../../../pic32mx/lib/fpu64/libc-musl.a(__fmt_fp.o)
 .debug_info    0x00000000000059e1      0x2f8 /opt/microchip/xc32/v4.20/bin/bin/../../lib/gcc/pic32mx/8.3.1/../../../../pic32mx/lib/fpu64/libc-musl.a(__fmt_o.o)
 .debug_info    0x0000000000005cd9      0x2a9 /opt/microchip/xc32/v4.20/bin/bin/../../lib/gcc/pic32mx/8.3.1/../../../../pic32mx/lib/fpu64/libc-musl.a(__fmt_s.o)
 .debug_info    0x0000000000005f82      0x3cb /opt/microchip/xc32/v4.20/bin/bin/../../lib/gcc/pic32mx/8.3.1/../../../../pic32mx/lib/fpu64/libc-musl.a(__fmt_u.o)
 .debug_info    0x000000000000634d      0x322 /opt/microchip/xc32/v4.20/bin/bin/../../lib/gcc/pic32mx/8.3.1/../../../../pic32mx/lib/fpu64/libc-musl.a(__fmt_x.o)
 .debug_info    0x000000000000666f      0x134 /opt/microchip/xc32/v4.20/bin/bin/../../lib/gcc/pic32mx/8.3.1/../../../../pic32mx/lib/fpu64/libc-musl.a(__pop_float.o)
 .debug_info    0x00000000000067a3      0x14e /opt/microchip/xc32/v4.20/bin/bin/../../lib/gcc/pic32mx/8.3.1/../../../../pic32mx/lib/fpu64/libc-musl.a(__pop_int.o)
 .debug_info    0x00000000000068f1      0x15e /opt/microchip/xc32/v4.20/bin/bin/../../lib/gcc/pic32mx/8.3.1/../../../../pic32mx/lib/fpu64/libc-musl.a(__pop_ptr.o)
 .debug_info    0x0000000000006a4f      0x9ee /opt/microchip/xc32/v4.20/bin/bin/../../lib/gcc/pic32mx/8.3.1/../../../../pic32mx/lib/fpu64/libc-musl.a(__printf_core.o)
 .debug_info    0x000000000000743d      0x3f4 /opt/microchip/xc32/v4.20/bin/bin/../../lib/gcc/pic32mx/8.3.1/../../../../pic32mx/lib/fpu64/libc-musl.a(stdin.o)
 .debug_info    0x0000000000007831      0x3c9 /opt/microchip/xc32/v4.20/bin/bin/../../lib/gcc/pic32mx/8.3.1/../../../../pic32mx/lib/fpu64/libc-musl.a(stdout.o)
 .debug_info    0x0000000000007bfa       0xe4 /opt/microchip/xc32/v4.20/bin/bin/../../lib/gcc/pic32mx/8.3.1/../../../../pic32mx/lib/fpu64/libc-musl.a(setbuf.o)
 .debug_info    0x0000000000007cde      0x107 /opt/microchip/xc32/v4.20/bin/bin/../../lib/gcc/pic32mx/8.3.1/../../../../pic32mx/lib/fpu64/libc-musl.a(vprintf.o)
 .debug_info    0x0000000000007de5       0xee /opt/microchip/xc32/v4.20/bin/bin/../../lib/gcc/pic32mx/8.3.1/../../../../pic32mx/lib/fpu64/libc-musl.a(atoi.o)
 .debug_info    0x0000000000007ed3       0xf1 /opt/microchip/xc32/v4.20/bin/bin/../../lib/gcc/pic32mx/8.3.1/../../../../pic32mx/lib/fpu64/libc-musl.a(memcpy.o)
 .debug_info    0x0000000000007fc4       0xbb /opt/microchip/xc32/v4.20/bin/bin/../../lib/gcc/pic32mx/8.3.1/../../../../pic32mx/lib/fpu64/libc-musl.a(strcpy.o)
 .debug_info    0x000000000000807f      0x11b /opt/microchip/xc32/v4.20/bin/bin/../../lib/gcc/pic32mx/8.3.1/../../../../pic32mx/lib/fpu64/libc-musl.a(tolower.o)
 .debug_info    0x000000000000819a      0x11b /opt/microchip/xc32/v4.20/bin/bin/../../lib/gcc/pic32mx/8.3.1/../../../../pic32mx/lib/fpu64/libc-musl.a(toupper.o)
 .debug_info    0x00000000000082b5      0x127 /opt/microchip/xc32/v4.20/bin/bin/../../lib/gcc/pic32mx/8.3.1/../../../../pic32mx/lib/fpu64/libc-musl.a(__int_vsprintf.o)
 .debug_info    0x00000000000083dc      0x2d0 /opt/microchip/xc32/v4.20/bin/bin/../../lib/gcc/pic32mx/8.3.1/../../../../pic32mx/lib/fpu64/libc-musl.a(__fopen.o)
 .debug_info    0x00000000000086ac       0xdf /opt/microchip/xc32/v4.20/bin/bin/../../lib/gcc/pic32mx/8.3.1/../../../../pic32mx/lib/fpu64/libc-musl.a(__io_init_needed.o)
 .debug_info    0x000000000000878b       0xf4 /opt/microchip/xc32/v4.20/bin/bin/../../lib/gcc/pic32mx/8.3.1/../../../../pic32mx/lib/fpu64/libc-musl.a(__io_rw_needed.o)
 .debug_info    0x000000000000887f      0x29f /opt/microchip/xc32/v4.20/bin/bin/../../lib/gcc/pic32mx/8.3.1/../../../../pic32mx/lib/fpu64/libc-musl.a(__out.o)
 .debug_info    0x0000000000008b1e      0x3f6 /opt/microchip/xc32/v4.20/bin/bin/../../lib/gcc/pic32mx/8.3.1/../../../../pic32mx/lib/fpu64/libc-musl.a(__stdio_close.o)
 .debug_info    0x0000000000008f14      0x3e6 /opt/microchip/xc32/v4.20/bin/bin/../../lib/gcc/pic32mx/8.3.1/../../../../pic32mx/lib/fpu64/libc-musl.a(__stdio_read.o)
 .debug_info    0x00000000000092fa      0x323 /opt/microchip/xc32/v4.20/bin/bin/../../lib/gcc/pic32mx/8.3.1/../../../../pic32mx/lib/fpu64/libc-musl.a(__towrite_rw.o)
 .debug_info    0x000000000000961d      0x2b2 /opt/microchip/xc32/v4.20/bin/bin/../../lib/gcc/pic32mx/8.3.1/../../../../pic32mx/lib/fpu64/libc-musl.a(setvbuf.o)
 .debug_info    0x00000000000098cf      0x3ef /opt/microchip/xc32/v4.20/bin/bin/../../lib/gcc/pic32mx/8.3.1/../../../../pic32mx/lib/fpu64/libc-musl.a(vfprintf.o)
 .debug_info    0x0000000000009cbe       0xab /opt/microchip/xc32/v4.20/bin/bin/../../lib/gcc/pic32mx/8.3.1/../../../../pic32mx/lib/fpu64/libc-musl.a(stpcpy.o)
 .debug_info    0x0000000000009d69      0x144 /opt/microchip/xc32/v4.20/bin/bin/../../lib/gcc/pic32mx/8.3.1/../../../../pic32mx/lib/fpu64/libc-musl.a(readv.o)
 .debug_info    0x0000000000009ead      0xfed /opt/microchip/xc32/v4.20/bin/bin/../../lib/gcc/pic32mx/8.3.1/../../../../pic32mx/lib/fpu64/libc-musl.a(malloc.o)
 .debug_info    0x000000000000ae9a      0x105 /opt/microchip/xc32/v4.20/bin/bin/../../lib/gcc/pic32mx/8.3.1/../../../../pic32mx/lib/fpu64/libc-musl.a(expand_heap.o)
 .debug_info    0x000000000000af9f      0x1f5 /opt/microchip/xc32/v4.20/bin/bin/../../lib/gcc/pic32mx/8.3.1/../../../../pic32mx/lib/fpu64/libc-musl.a(__int_vsnprintf.o)
 .debug_info    0x000000000000b194      0x3d3 /opt/microchip/xc32/v4.20/bin/bin/../../lib/gcc/pic32mx/8.3.1/../../../../pic32mx/lib/fpu64/libc-musl.a(__fopen_rw.o)
 .debug_info    0x000000000000b567      0x341 /opt/microchip/xc32/v4.20/bin/bin/../../lib/gcc/pic32mx/8.3.1/../../../../pic32mx/lib/fpu64/libc-musl.a(__ftello_rw.o)
 .debug_info    0x000000000000b8a8       0xb9 /opt/microchip/xc32/v4.20/bin/bin/../../lib/gcc/pic32mx/8.3.1/../../../../pic32mx/lib/fpu64/libc-musl.a(__init_stdio.o)
 .debug_info    0x000000000000b961      0x139 /opt/microchip/xc32/v4.20/bin/bin/../../lib/gcc/pic32mx/8.3.1/../../../../pic32mx/lib/fpu64/libc-musl.a(__io_buf_needed.o)
 .debug_info    0x000000000000ba9a       0xaf /opt/microchip/xc32/v4.20/bin/bin/../../lib/gcc/pic32mx/8.3.1/../../../../pic32mx/lib/fpu64/libc-musl.a(__io_file_needed.o)
 .debug_info    0x000000000000bb49      0x17e /opt/microchip/xc32/v4.20/bin/bin/../../lib/gcc/pic32mx/8.3.1/../../../../pic32mx/lib/fpu64/libc-musl.a(__io_fmt_needed.o)
 .debug_info    0x000000000000bcc7      0x122 /opt/microchip/xc32/v4.20/bin/bin/../../lib/gcc/pic32mx/8.3.1/../../../../pic32mx/lib/fpu64/libc-musl.a(__io_std_needed.o)
 .debug_info    0x000000000000bde9      0x284 /opt/microchip/xc32/v4.20/bin/bin/../../lib/gcc/pic32mx/8.3.1/../../../../pic32mx/lib/fpu64/libc-musl.a(__putc.o)
 .debug_info    0x000000000000c06d      0x398 /opt/microchip/xc32/v4.20/bin/bin/../../lib/gcc/pic32mx/8.3.1/../../../../pic32mx/lib/fpu64/libc-musl.a(__stderr.o)
 .debug_info    0x000000000000c405      0x2cc /opt/microchip/xc32/v4.20/bin/bin/../../lib/gcc/pic32mx/8.3.1/../../../../pic32mx/lib/fpu64/libc-musl.a(__stdio_exit.o)
 .debug_info    0x000000000000c6d1      0x42f /opt/microchip/xc32/v4.20/bin/bin/../../lib/gcc/pic32mx/8.3.1/../../../../pic32mx/lib/fpu64/libc-musl.a(__stdio_write.o)
 .debug_info    0x000000000000cb00      0x398 /opt/microchip/xc32/v4.20/bin/bin/../../lib/gcc/pic32mx/8.3.1/../../../../pic32mx/lib/fpu64/libc-musl.a(__stdout.o)
 .debug_info    0x000000000000ce98      0x265 /opt/microchip/xc32/v4.20/bin/bin/../../lib/gcc/pic32mx/8.3.1/../../../../pic32mx/lib/fpu64/libc-musl.a(__towrite.o)
 .debug_info    0x000000000000d0fd      0x217 /opt/microchip/xc32/v4.20/bin/bin/../../lib/gcc/pic32mx/8.3.1/../../../../pic32mx/lib/fpu64/libc-musl.a(putc.o)
 .debug_info    0x000000000000d314      0x144 /opt/microchip/xc32/v4.20/bin/bin/../../lib/gcc/pic32mx/8.3.1/../../../../pic32mx/lib/fpu64/libc-musl.a(writev.o)
 .debug_info    0x000000000000d458      0x276 /opt/microchip/xc32/v4.20/bin/bin/../../lib/gcc/pic32mx/8.3.1/../../../../pic32mx/lib/fpu64/libc-musl.a(libc.o)
 .debug_info    0x000000000000d6ce      0x1e0 /opt/microchip/xc32/v4.20/bin/bin/../../lib/gcc/pic32mx/8.3.1/../../../../pic32mx/lib/fpu64/libc-musl.a(__int_vfprintf.o)
 .debug_info    0x000000000000d8ae      0x37f /opt/microchip/xc32/v4.20/bin/bin/../../lib/gcc/pic32mx/8.3.1/../../../../pic32mx/lib/fpu64/libc-musl.a(__overflow.o)
 .debug_info    0x000000000000dc2d      0x1b1 /opt/microchip/xc32/v4.20/bin/bin/../../lib/gcc/pic32mx/8.3.1/../../../../pic32mx/lib/fpu64/libc-musl.a(__fclose.o)
 .debug_info    0x000000000000ddde      0x604 /opt/microchip/xc32/v4.20/bin/bin/../../lib/gcc/pic32mx/8.3.1/../../../../pic32mx/lib/fpu64/libc-musl.a(__fmt_a.o)
 .debug_info    0x000000000000e3e2      0x261 /opt/microchip/xc32/v4.20/bin/bin/../../lib/gcc/pic32mx/8.3.1/../../../../pic32mx/lib/fpu64/libc-musl.a(__fseeko.o)
 .debug_info    0x000000000000e643      0x283 /opt/microchip/xc32/v4.20/bin/bin/../../lib/gcc/pic32mx/8.3.1/../../../../pic32mx/lib/fpu64/libc-musl.a(__ftello.o)
 .debug_info    0x000000000000e8c6      0x2ac /opt/microchip/xc32/v4.20/bin/bin/../../lib/gcc/pic32mx/8.3.1/../../../../pic32mx/lib/fpu64/libc-musl.a(__fwrite.o)
 .debug_info    0x000000000000eb72      0x16d /opt/microchip/xc32/v4.20/bin/bin/../../lib/gcc/pic32mx/8.3.1/../../../../pic32mx/lib/fpu64/libm-musl.a(floor.o)
 .debug_info    0x000000000000ecdf      0x534 /opt/microchip/xc32/v4.20/bin/bin/../../lib/gcc/pic32mx/8.3.1/../../../../pic32mx/lib/fpu64/libm-musl.a(fma.o)
 .debug_info    0x000000000000f213      0x109 /opt/microchip/xc32/v4.20/bin/bin/../../lib/gcc/pic32mx/8.3.1/../../../../pic32mx/lib/fpu64/libm-musl.a(scalbn.o)
 .debug_info    0x000000000000f31c      0x1aa /opt/microchip/xc32/v4.20/bin/bin/../../lib/gcc/pic32mx/8.3.1/fpu64/libgcc.a(_lshrdi3.o)
 .debug_info    0x000000000000f4c6      0x1aa /opt/microchip/xc32/v4.20/bin/bin/../../lib/gcc/pic32mx/8.3.1/fpu64/libgcc.a(_ashldi3.o)
 .debug_info    0x000000000000f670      0x6ca /opt/microchip/xc32/v4.20/bin/bin/../../lib/gcc/pic32mx/8.3.1/fpu64/libgcc.a(_udivdi3.o)
 .debug_info    0x000000000000fd3a      0x73e /opt/microchip/xc32/v4.20/bin/bin/../../lib/gcc/pic32mx/8.3.1/fpu64/libgcc.a(_umoddi3.o)
 .debug_info    0x0000000000010478       0x97 /opt/microchip/xc32/v4.20/bin/bin/../../lib/gcc/pic32mx/8.3.1/../../../../pic32mx/lib/fpu64/libpic32.a(sbrk.o)
 .debug_info    0x000000000001050f       0x3f /opt/microchip/xc32/v4.20/bin/bin/../../lib/gcc/pic32mx/8.3.1/../../../../pic32mx/lib/fpu64/libpic32.a(lseek.o)
 .debug_info    0x000000000001054e       0x3f /opt/microchip/xc32/v4.20/bin/bin/../../lib/gcc/pic32mx/8.3.1/../../../../pic32mx/lib/fpu64/libpic32.a(close.o)

.debug_abbrev   0x0000000000000000     0x616f
 *.elf(.debug_abbrev)
 *(.debug_abbrev)
 .debug_abbrev  0x0000000000000000      0x3c5 build/pic32mk_mcj_curiosity_pro/production/_ext/1333799919/plib_canfd1.o
 .debug_abbrev  0x00000000000003c5       0xcd build/pic32mk_mcj_curiosity_pro/production/_ext/899710619/plib_clk.o
 .debug_abbrev  0x0000000000000492      0x2db build/pic32mk_mcj_curiosity_pro/production/_ext/2121194872/plib_dmac.o
 .debug_abbrev  0x000000000000076d       0xf3 build/pic32mk_mcj_curiosity_pro/production/_ext/2121156184/plib_evic.o
 .debug_abbrev  0x0000000000000860      0x12c build/pic32mk_mcj_curiosity_pro/production/_ext/2121102356/plib_gpio.o
 .debug_abbrev  0x000000000000098c      0x220 build/pic32mk_mcj_curiosity_pro/production/_ext/1753921419/plib_spi2_master.o
 .debug_abbrev  0x0000000000000bac      0x23c build/pic32mk_mcj_curiosity_pro/production/_ext/2120699413/plib_uart1.o
 .debug_abbrev  0x0000000000000de8       0xd8 build/pic32mk_mcj_curiosity_pro/production/_ext/529947251/xc32_monitor.o
 .debug_abbrev  0x0000000000000ec0      0x161 build/pic32mk_mcj_curiosity_pro/production/_ext/1661106823/initialization.o
 .debug_abbrev  0x0000000000001021       0x67 build/pic32mk_mcj_curiosity_pro/production/_ext/1661106823/interrupts.o
 .debug_abbrev  0x0000000000001088       0x97 build/pic32mk_mcj_curiosity_pro/production/_ext/1661106823/exceptions.o
 .debug_abbrev  0x000000000000111f      0x3c7 build/pic32mk_mcj_curiosity_pro/production/_ext/1360937237/main_pic32mk_mcj.o
 .debug_abbrev  0x00000000000014e6       0x2e /opt/microchip/xc32/v4.20/bin/bin/../../lib/gcc/pic32mx/8.3.1/../../../../pic32mx/lib/fpu64/libpic32.a(default-on-reset.o)
 .debug_abbrev  0x0000000000001514       0x2e /opt/microchip/xc32/v4.20/bin/bin/../../lib/gcc/pic32mx/8.3.1/../../../../pic32mx/lib/fpu64/libpic32.a(default-on-bootstrap.o)
 .debug_abbrev  0x0000000000001542       0x31 /opt/microchip/xc32/v4.20/bin/bin/../../lib/gcc/pic32mx/8.3.1/../../../../pic32mx/lib/fpu64/libpic32.a(defaultinterrupt.o)
 .debug_abbrev  0x0000000000001573      0x100 /opt/microchip/xc32/v4.20/bin/bin/../../lib/gcc/pic32mx/8.3.1/../../../../pic32mx/lib/fpu64/libc-musl.a(__sio_sprintf_dfoux.o)
 .debug_abbrev  0x0000000000001673      0x161 /opt/microchip/xc32/v4.20/bin/bin/../../lib/gcc/pic32mx/8.3.1/../../../../pic32mx/lib/fpu64/libc-musl.a(__fmt_d.o)
 .debug_abbrev  0x00000000000017d4      0x1e3 /opt/microchip/xc32/v4.20/bin/bin/../../lib/gcc/pic32mx/8.3.1/../../../../pic32mx/lib/fpu64/libc-musl.a(__fmt_fp.o)
 .debug_abbrev  0x00000000000019b7      0x161 /opt/microchip/xc32/v4.20/bin/bin/../../lib/gcc/pic32mx/8.3.1/../../../../pic32mx/lib/fpu64/libc-musl.a(__fmt_o.o)
 .debug_abbrev  0x0000000000001b18      0x14c /opt/microchip/xc32/v4.20/bin/bin/../../lib/gcc/pic32mx/8.3.1/../../../../pic32mx/lib/fpu64/libc-musl.a(__fmt_s.o)
 .debug_abbrev  0x0000000000001c64      0x193 /opt/microchip/xc32/v4.20/bin/bin/../../lib/gcc/pic32mx/8.3.1/../../../../pic32mx/lib/fpu64/libc-musl.a(__fmt_u.o)
 .debug_abbrev  0x0000000000001df7      0x150 /opt/microchip/xc32/v4.20/bin/bin/../../lib/gcc/pic32mx/8.3.1/../../../../pic32mx/lib/fpu64/libc-musl.a(__fmt_x.o)
 .debug_abbrev  0x0000000000001f47       0xc3 /opt/microchip/xc32/v4.20/bin/bin/../../lib/gcc/pic32mx/8.3.1/../../../../pic32mx/lib/fpu64/libc-musl.a(__pop_float.o)
 .debug_abbrev  0x000000000000200a       0xc3 /opt/microchip/xc32/v4.20/bin/bin/../../lib/gcc/pic32mx/8.3.1/../../../../pic32mx/lib/fpu64/libc-musl.a(__pop_int.o)
 .debug_abbrev  0x00000000000020cd       0xd7 /opt/microchip/xc32/v4.20/bin/bin/../../lib/gcc/pic32mx/8.3.1/../../../../pic32mx/lib/fpu64/libc-musl.a(__pop_ptr.o)
 .debug_abbrev  0x00000000000021a4      0x318 /opt/microchip/xc32/v4.20/bin/bin/../../lib/gcc/pic32mx/8.3.1/../../../../pic32mx/lib/fpu64/libc-musl.a(__printf_core.o)
 .debug_abbrev  0x00000000000024bc      0x19f /opt/microchip/xc32/v4.20/bin/bin/../../lib/gcc/pic32mx/8.3.1/../../../../pic32mx/lib/fpu64/libc-musl.a(stdin.o)
 .debug_abbrev  0x000000000000265b      0x17f /opt/microchip/xc32/v4.20/bin/bin/../../lib/gcc/pic32mx/8.3.1/../../../../pic32mx/lib/fpu64/libc-musl.a(stdout.o)
 .debug_abbrev  0x00000000000027da       0xa8 /opt/microchip/xc32/v4.20/bin/bin/../../lib/gcc/pic32mx/8.3.1/../../../../pic32mx/lib/fpu64/libc-musl.a(setbuf.o)
 .debug_abbrev  0x0000000000002882       0xdc /opt/microchip/xc32/v4.20/bin/bin/../../lib/gcc/pic32mx/8.3.1/../../../../pic32mx/lib/fpu64/libc-musl.a(vprintf.o)
 .debug_abbrev  0x000000000000295e       0xc4 /opt/microchip/xc32/v4.20/bin/bin/../../lib/gcc/pic32mx/8.3.1/../../../../pic32mx/lib/fpu64/libc-musl.a(atoi.o)
 .debug_abbrev  0x0000000000002a22       0xbb /opt/microchip/xc32/v4.20/bin/bin/../../lib/gcc/pic32mx/8.3.1/../../../../pic32mx/lib/fpu64/libc-musl.a(memcpy.o)
 .debug_abbrev  0x0000000000002add       0xa2 /opt/microchip/xc32/v4.20/bin/bin/../../lib/gcc/pic32mx/8.3.1/../../../../pic32mx/lib/fpu64/libc-musl.a(strcpy.o)
 .debug_abbrev  0x0000000000002b7f       0xf1 /opt/microchip/xc32/v4.20/bin/bin/../../lib/gcc/pic32mx/8.3.1/../../../../pic32mx/lib/fpu64/libc-musl.a(tolower.o)
 .debug_abbrev  0x0000000000002c70       0xf1 /opt/microchip/xc32/v4.20/bin/bin/../../lib/gcc/pic32mx/8.3.1/../../../../pic32mx/lib/fpu64/libc-musl.a(toupper.o)
 .debug_abbrev  0x0000000000002d61       0xb1 /opt/microchip/xc32/v4.20/bin/bin/../../lib/gcc/pic32mx/8.3.1/../../../../pic32mx/lib/fpu64/libc-musl.a(__int_vsprintf.o)
 .debug_abbrev  0x0000000000002e12      0x168 /opt/microchip/xc32/v4.20/bin/bin/../../lib/gcc/pic32mx/8.3.1/../../../../pic32mx/lib/fpu64/libc-musl.a(__fopen.o)
 .debug_abbrev  0x0000000000002f7a       0x81 /opt/microchip/xc32/v4.20/bin/bin/../../lib/gcc/pic32mx/8.3.1/../../../../pic32mx/lib/fpu64/libc-musl.a(__io_init_needed.o)
 .debug_abbrev  0x0000000000002ffb       0x67 /opt/microchip/xc32/v4.20/bin/bin/../../lib/gcc/pic32mx/8.3.1/../../../../pic32mx/lib/fpu64/libc-musl.a(__io_rw_needed.o)
 .debug_abbrev  0x0000000000003062      0x17a /opt/microchip/xc32/v4.20/bin/bin/../../lib/gcc/pic32mx/8.3.1/../../../../pic32mx/lib/fpu64/libc-musl.a(__out.o)
 .debug_abbrev  0x00000000000031dc      0x15a /opt/microchip/xc32/v4.20/bin/bin/../../lib/gcc/pic32mx/8.3.1/../../../../pic32mx/lib/fpu64/libc-musl.a(__stdio_close.o)
 .debug_abbrev  0x0000000000003336      0x16c /opt/microchip/xc32/v4.20/bin/bin/../../lib/gcc/pic32mx/8.3.1/../../../../pic32mx/lib/fpu64/libc-musl.a(__stdio_read.o)
 .debug_abbrev  0x00000000000034a2       0xf5 /opt/microchip/xc32/v4.20/bin/bin/../../lib/gcc/pic32mx/8.3.1/../../../../pic32mx/lib/fpu64/libc-musl.a(__towrite_rw.o)
 .debug_abbrev  0x0000000000003597      0x135 /opt/microchip/xc32/v4.20/bin/bin/../../lib/gcc/pic32mx/8.3.1/../../../../pic32mx/lib/fpu64/libc-musl.a(setvbuf.o)
 .debug_abbrev  0x00000000000036cc      0x178 /opt/microchip/xc32/v4.20/bin/bin/../../lib/gcc/pic32mx/8.3.1/../../../../pic32mx/lib/fpu64/libc-musl.a(vfprintf.o)
 .debug_abbrev  0x0000000000003844       0x6e /opt/microchip/xc32/v4.20/bin/bin/../../lib/gcc/pic32mx/8.3.1/../../../../pic32mx/lib/fpu64/libc-musl.a(stpcpy.o)
 .debug_abbrev  0x00000000000038b2       0xf7 /opt/microchip/xc32/v4.20/bin/bin/../../lib/gcc/pic32mx/8.3.1/../../../../pic32mx/lib/fpu64/libc-musl.a(readv.o)
 .debug_abbrev  0x00000000000039a9      0x43a /opt/microchip/xc32/v4.20/bin/bin/../../lib/gcc/pic32mx/8.3.1/../../../../pic32mx/lib/fpu64/libc-musl.a(malloc.o)
 .debug_abbrev  0x0000000000003de3       0xc4 /opt/microchip/xc32/v4.20/bin/bin/../../lib/gcc/pic32mx/8.3.1/../../../../pic32mx/lib/fpu64/libc-musl.a(expand_heap.o)
 .debug_abbrev  0x0000000000003ea7      0x13a /opt/microchip/xc32/v4.20/bin/bin/../../lib/gcc/pic32mx/8.3.1/../../../../pic32mx/lib/fpu64/libc-musl.a(__int_vsnprintf.o)
 .debug_abbrev  0x0000000000003fe1      0x12c /opt/microchip/xc32/v4.20/bin/bin/../../lib/gcc/pic32mx/8.3.1/../../../../pic32mx/lib/fpu64/libc-musl.a(__fopen_rw.o)
 .debug_abbrev  0x000000000000410d      0x10b /opt/microchip/xc32/v4.20/bin/bin/../../lib/gcc/pic32mx/8.3.1/../../../../pic32mx/lib/fpu64/libc-musl.a(__ftello_rw.o)
 .debug_abbrev  0x0000000000004218       0x65 /opt/microchip/xc32/v4.20/bin/bin/../../lib/gcc/pic32mx/8.3.1/../../../../pic32mx/lib/fpu64/libc-musl.a(__init_stdio.o)
 .debug_abbrev  0x000000000000427d       0x67 /opt/microchip/xc32/v4.20/bin/bin/../../lib/gcc/pic32mx/8.3.1/../../../../pic32mx/lib/fpu64/libc-musl.a(__io_buf_needed.o)
 .debug_abbrev  0x00000000000042e4       0x67 /opt/microchip/xc32/v4.20/bin/bin/../../lib/gcc/pic32mx/8.3.1/../../../../pic32mx/lib/fpu64/libc-musl.a(__io_file_needed.o)
 .debug_abbrev  0x000000000000434b       0x67 /opt/microchip/xc32/v4.20/bin/bin/../../lib/gcc/pic32mx/8.3.1/../../../../pic32mx/lib/fpu64/libc-musl.a(__io_fmt_needed.o)
 .debug_abbrev  0x00000000000043b2       0x67 /opt/microchip/xc32/v4.20/bin/bin/../../lib/gcc/pic32mx/8.3.1/../../../../pic32mx/lib/fpu64/libc-musl.a(__io_std_needed.o)
 .debug_abbrev  0x0000000000004419      0x109 /opt/microchip/xc32/v4.20/bin/bin/../../lib/gcc/pic32mx/8.3.1/../../../../pic32mx/lib/fpu64/libc-musl.a(__putc.o)
 .debug_abbrev  0x0000000000004522      0x16a /opt/microchip/xc32/v4.20/bin/bin/../../lib/gcc/pic32mx/8.3.1/../../../../pic32mx/lib/fpu64/libc-musl.a(__stderr.o)
 .debug_abbrev  0x000000000000468c      0x170 /opt/microchip/xc32/v4.20/bin/bin/../../lib/gcc/pic32mx/8.3.1/../../../../pic32mx/lib/fpu64/libc-musl.a(__stdio_exit.o)
 .debug_abbrev  0x00000000000047fc      0x1ce /opt/microchip/xc32/v4.20/bin/bin/../../lib/gcc/pic32mx/8.3.1/../../../../pic32mx/lib/fpu64/libc-musl.a(__stdio_write.o)
 .debug_abbrev  0x00000000000049ca      0x16a /opt/microchip/xc32/v4.20/bin/bin/../../lib/gcc/pic32mx/8.3.1/../../../../pic32mx/lib/fpu64/libc-musl.a(__stdout.o)
 .debug_abbrev  0x0000000000004b34      0x125 /opt/microchip/xc32/v4.20/bin/bin/../../lib/gcc/pic32mx/8.3.1/../../../../pic32mx/lib/fpu64/libc-musl.a(__towrite.o)
 .debug_abbrev  0x0000000000004c59      0x122 /opt/microchip/xc32/v4.20/bin/bin/../../lib/gcc/pic32mx/8.3.1/../../../../pic32mx/lib/fpu64/libc-musl.a(putc.o)
 .debug_abbrev  0x0000000000004d7b       0xf7 /opt/microchip/xc32/v4.20/bin/bin/../../lib/gcc/pic32mx/8.3.1/../../../../pic32mx/lib/fpu64/libc-musl.a(writev.o)
 .debug_abbrev  0x0000000000004e72       0xd4 /opt/microchip/xc32/v4.20/bin/bin/../../lib/gcc/pic32mx/8.3.1/../../../../pic32mx/lib/fpu64/libc-musl.a(libc.o)
 .debug_abbrev  0x0000000000004f46      0x118 /opt/microchip/xc32/v4.20/bin/bin/../../lib/gcc/pic32mx/8.3.1/../../../../pic32mx/lib/fpu64/libc-musl.a(__int_vfprintf.o)
 .debug_abbrev  0x000000000000505e      0x141 /opt/microchip/xc32/v4.20/bin/bin/../../lib/gcc/pic32mx/8.3.1/../../../../pic32mx/lib/fpu64/libc-musl.a(__overflow.o)
 .debug_abbrev  0x000000000000519f       0xdd /opt/microchip/xc32/v4.20/bin/bin/../../lib/gcc/pic32mx/8.3.1/../../../../pic32mx/lib/fpu64/libc-musl.a(__fclose.o)
 .debug_abbrev  0x000000000000527c      0x1d5 /opt/microchip/xc32/v4.20/bin/bin/../../lib/gcc/pic32mx/8.3.1/../../../../pic32mx/lib/fpu64/libc-musl.a(__fmt_a.o)
 .debug_abbrev  0x0000000000005451       0xf8 /opt/microchip/xc32/v4.20/bin/bin/../../lib/gcc/pic32mx/8.3.1/../../../../pic32mx/lib/fpu64/libc-musl.a(__fseeko.o)
 .debug_abbrev  0x0000000000005549      0x111 /opt/microchip/xc32/v4.20/bin/bin/../../lib/gcc/pic32mx/8.3.1/../../../../pic32mx/lib/fpu64/libc-musl.a(__ftello.o)
 .debug_abbrev  0x000000000000565a      0x121 /opt/microchip/xc32/v4.20/bin/bin/../../lib/gcc/pic32mx/8.3.1/../../../../pic32mx/lib/fpu64/libc-musl.a(__fwrite.o)
 .debug_abbrev  0x000000000000577b      0x101 /opt/microchip/xc32/v4.20/bin/bin/../../lib/gcc/pic32mx/8.3.1/../../../../pic32mx/lib/fpu64/libm-musl.a(floor.o)
 .debug_abbrev  0x000000000000587c      0x22d /opt/microchip/xc32/v4.20/bin/bin/../../lib/gcc/pic32mx/8.3.1/../../../../pic32mx/lib/fpu64/libm-musl.a(fma.o)
 .debug_abbrev  0x0000000000005aa9       0xac /opt/microchip/xc32/v4.20/bin/bin/../../lib/gcc/pic32mx/8.3.1/../../../../pic32mx/lib/fpu64/libm-musl.a(scalbn.o)
 .debug_abbrev  0x0000000000005b55      0x121 /opt/microchip/xc32/v4.20/bin/bin/../../lib/gcc/pic32mx/8.3.1/fpu64/libgcc.a(_lshrdi3.o)
 .debug_abbrev  0x0000000000005c76      0x121 /opt/microchip/xc32/v4.20/bin/bin/../../lib/gcc/pic32mx/8.3.1/fpu64/libgcc.a(_ashldi3.o)
 .debug_abbrev  0x0000000000005d97      0x184 /opt/microchip/xc32/v4.20/bin/bin/../../lib/gcc/pic32mx/8.3.1/fpu64/libgcc.a(_udivdi3.o)
 .debug_abbrev  0x0000000000005f1b      0x19a /opt/microchip/xc32/v4.20/bin/bin/../../lib/gcc/pic32mx/8.3.1/fpu64/libgcc.a(_umoddi3.o)
 .debug_abbrev  0x00000000000060b5       0x5e /opt/microchip/xc32/v4.20/bin/bin/../../lib/gcc/pic32mx/8.3.1/../../../../pic32mx/lib/fpu64/libpic32.a(sbrk.o)
 .debug_abbrev  0x0000000000006113       0x2e /opt/microchip/xc32/v4.20/bin/bin/../../lib/gcc/pic32mx/8.3.1/../../../../pic32mx/lib/fpu64/libpic32.a(lseek.o)
 .debug_abbrev  0x0000000000006141       0x2e /opt/microchip/xc32/v4.20/bin/bin/../../lib/gcc/pic32mx/8.3.1/../../../../pic32mx/lib/fpu64/libpic32.a(close.o)

.debug_line     0x0000000000000000     0xd6e6
 *.elf(.debug_line)
 *(.debug_line)
 .debug_line    0x0000000000000000      0xbc8 build/pic32mk_mcj_curiosity_pro/production/_ext/1333799919/plib_canfd1.o
 .debug_line    0x0000000000000bc8      0x1e3 build/pic32mk_mcj_curiosity_pro/production/_ext/899710619/plib_clk.o
 .debug_line    0x0000000000000dab      0x8fb build/pic32mk_mcj_curiosity_pro/production/_ext/2121194872/plib_dmac.o
 .debug_line    0x00000000000016a6      0x340 build/pic32mk_mcj_curiosity_pro/production/_ext/2121156184/plib_evic.o
 .debug_line    0x00000000000019e6      0x366 build/pic32mk_mcj_curiosity_pro/production/_ext/2121102356/plib_gpio.o
 .debug_line    0x0000000000001d4c      0x553 build/pic32mk_mcj_curiosity_pro/production/_ext/1753921419/plib_spi2_master.o
 .debug_line    0x000000000000229f      0x5b6 build/pic32mk_mcj_curiosity_pro/production/_ext/2120699413/plib_uart1.o
 .debug_line    0x0000000000002855      0x1d7 build/pic32mk_mcj_curiosity_pro/production/_ext/529947251/xc32_monitor.o
 .debug_line    0x0000000000002a2c      0x560 build/pic32mk_mcj_curiosity_pro/production/_ext/1661106823/initialization.o
 .debug_line    0x0000000000002f8c       0xc8 build/pic32mk_mcj_curiosity_pro/production/_ext/1661106823/interrupts.o
 .debug_line    0x0000000000003054       0xb9 build/pic32mk_mcj_curiosity_pro/production/_ext/1661106823/exceptions.o
 .debug_line    0x000000000000310d      0x785 build/pic32mk_mcj_curiosity_pro/production/_ext/1360937237/main_pic32mk_mcj.o
 .debug_line    0x0000000000003892       0xa6 /opt/microchip/xc32/v4.20/bin/bin/../../lib/gcc/pic32mx/8.3.1/../../../../pic32mx/lib/fpu64/libpic32.a(default-on-reset.o)
 .debug_line    0x0000000000003938       0xaa /opt/microchip/xc32/v4.20/bin/bin/../../lib/gcc/pic32mx/8.3.1/../../../../pic32mx/lib/fpu64/libpic32.a(default-on-bootstrap.o)
 .debug_line    0x00000000000039e2       0xc9 /opt/microchip/xc32/v4.20/bin/bin/../../lib/gcc/pic32mx/8.3.1/../../../../pic32mx/lib/fpu64/libpic32.a(defaultinterrupt.o)
 .debug_line    0x0000000000003aab      0x1ff /opt/microchip/xc32/v4.20/bin/bin/../../lib/gcc/pic32mx/8.3.1/../../../../pic32mx/lib/fpu64/libc-musl.a(__sio_sprintf_dfoux.o)
 .debug_line    0x0000000000003caa      0x25e /opt/microchip/xc32/v4.20/bin/bin/../../lib/gcc/pic32mx/8.3.1/../../../../pic32mx/lib/fpu64/libc-musl.a(__fmt_d.o)
 .debug_line    0x0000000000003f08      0x6c8 /opt/microchip/xc32/v4.20/bin/bin/../../lib/gcc/pic32mx/8.3.1/../../../../pic32mx/lib/fpu64/libc-musl.a(__fmt_fp.o)
 .debug_line    0x00000000000045d0      0x20f /opt/microchip/xc32/v4.20/bin/bin/../../lib/gcc/pic32mx/8.3.1/../../../../pic32mx/lib/fpu64/libc-musl.a(__fmt_o.o)
 .debug_line    0x00000000000047df      0x25d /opt/microchip/xc32/v4.20/bin/bin/../../lib/gcc/pic32mx/8.3.1/../../../../pic32mx/lib/fpu64/libc-musl.a(__fmt_s.o)
 .debug_line    0x0000000000004a3c      0x2a3 /opt/microchip/xc32/v4.20/bin/bin/../../lib/gcc/pic32mx/8.3.1/../../../../pic32mx/lib/fpu64/libc-musl.a(__fmt_u.o)
 .debug_line    0x0000000000004cdf      0x338 /opt/microchip/xc32/v4.20/bin/bin/../../lib/gcc/pic32mx/8.3.1/../../../../pic32mx/lib/fpu64/libc-musl.a(__fmt_x.o)
 .debug_line    0x0000000000005017      0x1bb /opt/microchip/xc32/v4.20/bin/bin/../../lib/gcc/pic32mx/8.3.1/../../../../pic32mx/lib/fpu64/libc-musl.a(__pop_float.o)
 .debug_line    0x00000000000051d2      0x25a /opt/microchip/xc32/v4.20/bin/bin/../../lib/gcc/pic32mx/8.3.1/../../../../pic32mx/lib/fpu64/libc-musl.a(__pop_int.o)
 .debug_line    0x000000000000542c      0x213 /opt/microchip/xc32/v4.20/bin/bin/../../lib/gcc/pic32mx/8.3.1/../../../../pic32mx/lib/fpu64/libc-musl.a(__pop_ptr.o)
 .debug_line    0x000000000000563f      0x71a /opt/microchip/xc32/v4.20/bin/bin/../../lib/gcc/pic32mx/8.3.1/../../../../pic32mx/lib/fpu64/libc-musl.a(__printf_core.o)
 .debug_line    0x0000000000005d59      0x245 /opt/microchip/xc32/v4.20/bin/bin/../../lib/gcc/pic32mx/8.3.1/../../../../pic32mx/lib/fpu64/libc-musl.a(stdin.o)
 .debug_line    0x0000000000005f9e      0x25d /opt/microchip/xc32/v4.20/bin/bin/../../lib/gcc/pic32mx/8.3.1/../../../../pic32mx/lib/fpu64/libc-musl.a(stdout.o)
 .debug_line    0x00000000000061fb      0x1a0 /opt/microchip/xc32/v4.20/bin/bin/../../lib/gcc/pic32mx/8.3.1/../../../../pic32mx/lib/fpu64/libc-musl.a(setbuf.o)
 .debug_line    0x000000000000639b      0x19f /opt/microchip/xc32/v4.20/bin/bin/../../lib/gcc/pic32mx/8.3.1/../../../../pic32mx/lib/fpu64/libc-musl.a(vprintf.o)
 .debug_line    0x000000000000653a      0x17c /opt/microchip/xc32/v4.20/bin/bin/../../lib/gcc/pic32mx/8.3.1/../../../../pic32mx/lib/fpu64/libc-musl.a(atoi.o)
 .debug_line    0x00000000000066b6      0x140 /opt/microchip/xc32/v4.20/bin/bin/../../lib/gcc/pic32mx/8.3.1/../../../../pic32mx/lib/fpu64/libc-musl.a(memcpy.o)
 .debug_line    0x00000000000067f6       0xb4 /opt/microchip/xc32/v4.20/bin/bin/../../lib/gcc/pic32mx/8.3.1/../../../../pic32mx/lib/fpu64/libc-musl.a(strcpy.o)
 .debug_line    0x00000000000068aa      0x1c1 /opt/microchip/xc32/v4.20/bin/bin/../../lib/gcc/pic32mx/8.3.1/../../../../pic32mx/lib/fpu64/libc-musl.a(tolower.o)
 .debug_line    0x0000000000006a6b      0x1c1 /opt/microchip/xc32/v4.20/bin/bin/../../lib/gcc/pic32mx/8.3.1/../../../../pic32mx/lib/fpu64/libc-musl.a(toupper.o)
 .debug_line    0x0000000000006c2c      0x1ab /opt/microchip/xc32/v4.20/bin/bin/../../lib/gcc/pic32mx/8.3.1/../../../../pic32mx/lib/fpu64/libc-musl.a(__int_vsprintf.o)
 .debug_line    0x0000000000006dd7      0x284 /opt/microchip/xc32/v4.20/bin/bin/../../lib/gcc/pic32mx/8.3.1/../../../../pic32mx/lib/fpu64/libc-musl.a(__fopen.o)
 .debug_line    0x000000000000705b      0x155 /opt/microchip/xc32/v4.20/bin/bin/../../lib/gcc/pic32mx/8.3.1/../../../../pic32mx/lib/fpu64/libc-musl.a(__io_init_needed.o)
 .debug_line    0x00000000000071b0      0x145 /opt/microchip/xc32/v4.20/bin/bin/../../lib/gcc/pic32mx/8.3.1/../../../../pic32mx/lib/fpu64/libc-musl.a(__io_rw_needed.o)
 .debug_line    0x00000000000072f5      0x2ac /opt/microchip/xc32/v4.20/bin/bin/../../lib/gcc/pic32mx/8.3.1/../../../../pic32mx/lib/fpu64/libc-musl.a(__out.o)
 .debug_line    0x00000000000075a1      0x2f8 /opt/microchip/xc32/v4.20/bin/bin/../../lib/gcc/pic32mx/8.3.1/../../../../pic32mx/lib/fpu64/libc-musl.a(__stdio_close.o)
 .debug_line    0x0000000000007899      0x2a2 /opt/microchip/xc32/v4.20/bin/bin/../../lib/gcc/pic32mx/8.3.1/../../../../pic32mx/lib/fpu64/libc-musl.a(__stdio_read.o)
 .debug_line    0x0000000000007b3b      0x24f /opt/microchip/xc32/v4.20/bin/bin/../../lib/gcc/pic32mx/8.3.1/../../../../pic32mx/lib/fpu64/libc-musl.a(__towrite_rw.o)
 .debug_line    0x0000000000007d8a      0x2a6 /opt/microchip/xc32/v4.20/bin/bin/../../lib/gcc/pic32mx/8.3.1/../../../../pic32mx/lib/fpu64/libc-musl.a(setvbuf.o)
 .debug_line    0x0000000000008030      0x25f /opt/microchip/xc32/v4.20/bin/bin/../../lib/gcc/pic32mx/8.3.1/../../../../pic32mx/lib/fpu64/libc-musl.a(vfprintf.o)
 .debug_line    0x000000000000828f       0xbf /opt/microchip/xc32/v4.20/bin/bin/../../lib/gcc/pic32mx/8.3.1/../../../../pic32mx/lib/fpu64/libc-musl.a(stpcpy.o)
 .debug_line    0x000000000000834e      0x1be /opt/microchip/xc32/v4.20/bin/bin/../../lib/gcc/pic32mx/8.3.1/../../../../pic32mx/lib/fpu64/libc-musl.a(readv.o)
 .debug_line    0x000000000000850c      0xb49 /opt/microchip/xc32/v4.20/bin/bin/../../lib/gcc/pic32mx/8.3.1/../../../../pic32mx/lib/fpu64/libc-musl.a(malloc.o)
 .debug_line    0x0000000000009055      0x14b /opt/microchip/xc32/v4.20/bin/bin/../../lib/gcc/pic32mx/8.3.1/../../../../pic32mx/lib/fpu64/libc-musl.a(expand_heap.o)
 .debug_line    0x00000000000091a0      0x272 /opt/microchip/xc32/v4.20/bin/bin/../../lib/gcc/pic32mx/8.3.1/../../../../pic32mx/lib/fpu64/libc-musl.a(__int_vsnprintf.o)
 .debug_line    0x0000000000009412      0x2fc /opt/microchip/xc32/v4.20/bin/bin/../../lib/gcc/pic32mx/8.3.1/../../../../pic32mx/lib/fpu64/libc-musl.a(__fopen_rw.o)
 .debug_line    0x000000000000970e      0x240 /opt/microchip/xc32/v4.20/bin/bin/../../lib/gcc/pic32mx/8.3.1/../../../../pic32mx/lib/fpu64/libc-musl.a(__ftello_rw.o)
 .debug_line    0x000000000000994e       0xd0 /opt/microchip/xc32/v4.20/bin/bin/../../lib/gcc/pic32mx/8.3.1/../../../../pic32mx/lib/fpu64/libc-musl.a(__init_stdio.o)
 .debug_line    0x0000000000009a1e      0x149 /opt/microchip/xc32/v4.20/bin/bin/../../lib/gcc/pic32mx/8.3.1/../../../../pic32mx/lib/fpu64/libc-musl.a(__io_buf_needed.o)
 .debug_line    0x0000000000009b67       0xc4 /opt/microchip/xc32/v4.20/bin/bin/../../lib/gcc/pic32mx/8.3.1/../../../../pic32mx/lib/fpu64/libc-musl.a(__io_file_needed.o)
 .debug_line    0x0000000000009c2b       0xd0 /opt/microchip/xc32/v4.20/bin/bin/../../lib/gcc/pic32mx/8.3.1/../../../../pic32mx/lib/fpu64/libc-musl.a(__io_fmt_needed.o)
 .debug_line    0x0000000000009cfb      0x148 /opt/microchip/xc32/v4.20/bin/bin/../../lib/gcc/pic32mx/8.3.1/../../../../pic32mx/lib/fpu64/libc-musl.a(__io_std_needed.o)
 .debug_line    0x0000000000009e43      0x1c6 /opt/microchip/xc32/v4.20/bin/bin/../../lib/gcc/pic32mx/8.3.1/../../../../pic32mx/lib/fpu64/libc-musl.a(__putc.o)
 .debug_line    0x000000000000a009      0x24d /opt/microchip/xc32/v4.20/bin/bin/../../lib/gcc/pic32mx/8.3.1/../../../../pic32mx/lib/fpu64/libc-musl.a(__stderr.o)
 .debug_line    0x000000000000a256      0x1de /opt/microchip/xc32/v4.20/bin/bin/../../lib/gcc/pic32mx/8.3.1/../../../../pic32mx/lib/fpu64/libc-musl.a(__stdio_exit.o)
 .debug_line    0x000000000000a434      0x381 /opt/microchip/xc32/v4.20/bin/bin/../../lib/gcc/pic32mx/8.3.1/../../../../pic32mx/lib/fpu64/libc-musl.a(__stdio_write.o)
 .debug_line    0x000000000000a7b5      0x24d /opt/microchip/xc32/v4.20/bin/bin/../../lib/gcc/pic32mx/8.3.1/../../../../pic32mx/lib/fpu64/libc-musl.a(__stdout.o)
 .debug_line    0x000000000000aa02      0x1e5 /opt/microchip/xc32/v4.20/bin/bin/../../lib/gcc/pic32mx/8.3.1/../../../../pic32mx/lib/fpu64/libc-musl.a(__towrite.o)
 .debug_line    0x000000000000abe7      0x210 /opt/microchip/xc32/v4.20/bin/bin/../../lib/gcc/pic32mx/8.3.1/../../../../pic32mx/lib/fpu64/libc-musl.a(putc.o)
 .debug_line    0x000000000000adf7      0x1bf /opt/microchip/xc32/v4.20/bin/bin/../../lib/gcc/pic32mx/8.3.1/../../../../pic32mx/lib/fpu64/libc-musl.a(writev.o)
 .debug_line    0x000000000000afb6      0x112 /opt/microchip/xc32/v4.20/bin/bin/../../lib/gcc/pic32mx/8.3.1/../../../../pic32mx/lib/fpu64/libc-musl.a(libc.o)
 .debug_line    0x000000000000b0c8      0x1c9 /opt/microchip/xc32/v4.20/bin/bin/../../lib/gcc/pic32mx/8.3.1/../../../../pic32mx/lib/fpu64/libc-musl.a(__int_vfprintf.o)
 .debug_line    0x000000000000b291      0x25d /opt/microchip/xc32/v4.20/bin/bin/../../lib/gcc/pic32mx/8.3.1/../../../../pic32mx/lib/fpu64/libc-musl.a(__overflow.o)
 .debug_line    0x000000000000b4ee      0x1b5 /opt/microchip/xc32/v4.20/bin/bin/../../lib/gcc/pic32mx/8.3.1/../../../../pic32mx/lib/fpu64/libc-musl.a(__fclose.o)
 .debug_line    0x000000000000b6a3      0x67d /opt/microchip/xc32/v4.20/bin/bin/../../lib/gcc/pic32mx/8.3.1/../../../../pic32mx/lib/fpu64/libc-musl.a(__fmt_a.o)
 .debug_line    0x000000000000bd20      0x1a9 /opt/microchip/xc32/v4.20/bin/bin/../../lib/gcc/pic32mx/8.3.1/../../../../pic32mx/lib/fpu64/libc-musl.a(__fseeko.o)
 .debug_line    0x000000000000bec9      0x1da /opt/microchip/xc32/v4.20/bin/bin/../../lib/gcc/pic32mx/8.3.1/../../../../pic32mx/lib/fpu64/libc-musl.a(__ftello.o)
 .debug_line    0x000000000000c0a3      0x1ec /opt/microchip/xc32/v4.20/bin/bin/../../lib/gcc/pic32mx/8.3.1/../../../../pic32mx/lib/fpu64/libc-musl.a(__fwrite.o)
 .debug_line    0x000000000000c28f      0x18d /opt/microchip/xc32/v4.20/bin/bin/../../lib/gcc/pic32mx/8.3.1/../../../../pic32mx/lib/fpu64/libm-musl.a(floor.o)
 .debug_line    0x000000000000c41c      0x697 /opt/microchip/xc32/v4.20/bin/bin/../../lib/gcc/pic32mx/8.3.1/../../../../pic32mx/lib/fpu64/libm-musl.a(fma.o)
 .debug_line    0x000000000000cab3      0x18d /opt/microchip/xc32/v4.20/bin/bin/../../lib/gcc/pic32mx/8.3.1/../../../../pic32mx/lib/fpu64/libm-musl.a(scalbn.o)
 .debug_line    0x000000000000cc40       0xe4 /opt/microchip/xc32/v4.20/bin/bin/../../lib/gcc/pic32mx/8.3.1/fpu64/libgcc.a(_lshrdi3.o)
 .debug_line    0x000000000000cd24       0xe5 /opt/microchip/xc32/v4.20/bin/bin/../../lib/gcc/pic32mx/8.3.1/fpu64/libgcc.a(_ashldi3.o)
 .debug_line    0x000000000000ce09      0x2e0 /opt/microchip/xc32/v4.20/bin/bin/../../lib/gcc/pic32mx/8.3.1/fpu64/libgcc.a(_udivdi3.o)
 .debug_line    0x000000000000d0e9      0x317 /opt/microchip/xc32/v4.20/bin/bin/../../lib/gcc/pic32mx/8.3.1/fpu64/libgcc.a(_umoddi3.o)
 .debug_line    0x000000000000d400      0x1b0 /opt/microchip/xc32/v4.20/bin/bin/../../lib/gcc/pic32mx/8.3.1/../../../../pic32mx/lib/fpu64/libpic32.a(sbrk.o)
 .debug_line    0x000000000000d5b0       0x9b /opt/microchip/xc32/v4.20/bin/bin/../../lib/gcc/pic32mx/8.3.1/../../../../pic32mx/lib/fpu64/libpic32.a(lseek.o)
 .debug_line    0x000000000000d64b       0x9b /opt/microchip/xc32/v4.20/bin/bin/../../lib/gcc/pic32mx/8.3.1/../../../../pic32mx/lib/fpu64/libpic32.a(close.o)
 .debug_line    0x000000000000d6e6        0x0 /opt/microchip/xc32/v4.20/bin/bin/../../lib/gcc/pic32mx/8.3.1/../../../../pic32mx/lib/fpu64/libpic32.a(errno.o)

.debug_frame    0x0000000000000000     0x1924
 *.elf(.debug_frame)
 *(.debug_frame)
 .debug_frame   0x0000000000000000      0x148 build/pic32mk_mcj_curiosity_pro/production/_ext/1333799919/plib_canfd1.o
 .debug_frame   0x0000000000000148       0x20 build/pic32mk_mcj_curiosity_pro/production/_ext/899710619/plib_clk.o
 .debug_frame   0x0000000000000168      0x108 build/pic32mk_mcj_curiosity_pro/production/_ext/2121194872/plib_dmac.o
 .debug_frame   0x0000000000000270       0xd4 build/pic32mk_mcj_curiosity_pro/production/_ext/2121156184/plib_evic.o
 .debug_frame   0x0000000000000344       0xa0 build/pic32mk_mcj_curiosity_pro/production/_ext/2121102356/plib_gpio.o
 .debug_frame   0x00000000000003e4       0x80 build/pic32mk_mcj_curiosity_pro/production/_ext/1753921419/plib_spi2_master.o
 .debug_frame   0x0000000000000464      0x110 build/pic32mk_mcj_curiosity_pro/production/_ext/2120699413/plib_uart1.o
 .debug_frame   0x0000000000000574       0x54 build/pic32mk_mcj_curiosity_pro/production/_ext/529947251/xc32_monitor.o
 .debug_frame   0x00000000000005c8       0x2c build/pic32mk_mcj_curiosity_pro/production/_ext/1661106823/initialization.o
 .debug_frame   0x00000000000005f4      0x138 build/pic32mk_mcj_curiosity_pro/production/_ext/1661106823/interrupts.o
 .debug_frame   0x000000000000072c       0x40 build/pic32mk_mcj_curiosity_pro/production/_ext/1661106823/exceptions.o
 .debug_frame   0x000000000000076c       0xe8 build/pic32mk_mcj_curiosity_pro/production/_ext/1360937237/main_pic32mk_mcj.o
 .debug_frame   0x0000000000000854       0x20 /opt/microchip/xc32/v4.20/bin/bin/../../lib/gcc/pic32mx/8.3.1/../../../../pic32mx/lib/fpu64/libpic32.a(default-on-reset.o)
 .debug_frame   0x0000000000000874       0x20 /opt/microchip/xc32/v4.20/bin/bin/../../lib/gcc/pic32mx/8.3.1/../../../../pic32mx/lib/fpu64/libpic32.a(default-on-bootstrap.o)
 .debug_frame   0x0000000000000894       0x20 /opt/microchip/xc32/v4.20/bin/bin/../../lib/gcc/pic32mx/8.3.1/../../../../pic32mx/lib/fpu64/libpic32.a(defaultinterrupt.o)
 .debug_frame   0x00000000000008b4       0x48 /opt/microchip/xc32/v4.20/bin/bin/../../lib/gcc/pic32mx/8.3.1/../../../../pic32mx/lib/fpu64/libc-musl.a(__sio_sprintf_dfoux.o)
 .debug_frame   0x00000000000008fc       0x38 /opt/microchip/xc32/v4.20/bin/bin/../../lib/gcc/pic32mx/8.3.1/../../../../pic32mx/lib/fpu64/libc-musl.a(__fmt_d.o)
 .debug_frame   0x0000000000000934       0x50 /opt/microchip/xc32/v4.20/bin/bin/../../lib/gcc/pic32mx/8.3.1/../../../../pic32mx/lib/fpu64/libc-musl.a(__fmt_fp.o)
 .debug_frame   0x0000000000000984       0x34 /opt/microchip/xc32/v4.20/bin/bin/../../lib/gcc/pic32mx/8.3.1/../../../../pic32mx/lib/fpu64/libc-musl.a(__fmt_o.o)
 .debug_frame   0x00000000000009b8       0x34 /opt/microchip/xc32/v4.20/bin/bin/../../lib/gcc/pic32mx/8.3.1/../../../../pic32mx/lib/fpu64/libc-musl.a(__fmt_s.o)
 .debug_frame   0x00000000000009ec       0x64 /opt/microchip/xc32/v4.20/bin/bin/../../lib/gcc/pic32mx/8.3.1/../../../../pic32mx/lib/fpu64/libc-musl.a(__fmt_u.o)
 .debug_frame   0x0000000000000a50       0x40 /opt/microchip/xc32/v4.20/bin/bin/../../lib/gcc/pic32mx/8.3.1/../../../../pic32mx/lib/fpu64/libc-musl.a(__fmt_x.o)
 .debug_frame   0x0000000000000a90       0x20 /opt/microchip/xc32/v4.20/bin/bin/../../lib/gcc/pic32mx/8.3.1/../../../../pic32mx/lib/fpu64/libc-musl.a(__pop_float.o)
 .debug_frame   0x0000000000000ab0       0x20 /opt/microchip/xc32/v4.20/bin/bin/../../lib/gcc/pic32mx/8.3.1/../../../../pic32mx/lib/fpu64/libc-musl.a(__pop_int.o)
 .debug_frame   0x0000000000000ad0       0x20 /opt/microchip/xc32/v4.20/bin/bin/../../lib/gcc/pic32mx/8.3.1/../../../../pic32mx/lib/fpu64/libc-musl.a(__pop_ptr.o)
 .debug_frame   0x0000000000000af0       0xcc /opt/microchip/xc32/v4.20/bin/bin/../../lib/gcc/pic32mx/8.3.1/../../../../pic32mx/lib/fpu64/libc-musl.a(__printf_core.o)
 .debug_frame   0x0000000000000bbc       0x3c /opt/microchip/xc32/v4.20/bin/bin/../../lib/gcc/pic32mx/8.3.1/../../../../pic32mx/lib/fpu64/libc-musl.a(stdin.o)
 .debug_frame   0x0000000000000bf8       0x3c /opt/microchip/xc32/v4.20/bin/bin/../../lib/gcc/pic32mx/8.3.1/../../../../pic32mx/lib/fpu64/libc-musl.a(stdout.o)
 .debug_frame   0x0000000000000c34       0x2c /opt/microchip/xc32/v4.20/bin/bin/../../lib/gcc/pic32mx/8.3.1/../../../../pic32mx/lib/fpu64/libc-musl.a(setbuf.o)
 .debug_frame   0x0000000000000c60       0x2c /opt/microchip/xc32/v4.20/bin/bin/../../lib/gcc/pic32mx/8.3.1/../../../../pic32mx/lib/fpu64/libc-musl.a(vprintf.o)
 .debug_frame   0x0000000000000c8c       0x20 /opt/microchip/xc32/v4.20/bin/bin/../../lib/gcc/pic32mx/8.3.1/../../../../pic32mx/lib/fpu64/libc-musl.a(atoi.o)
 .debug_frame   0x0000000000000cac       0x20 /opt/microchip/xc32/v4.20/bin/bin/../../lib/gcc/pic32mx/8.3.1/../../../../pic32mx/lib/fpu64/libc-musl.a(memcpy.o)
 .debug_frame   0x0000000000000ccc       0x2c /opt/microchip/xc32/v4.20/bin/bin/../../lib/gcc/pic32mx/8.3.1/../../../../pic32mx/lib/fpu64/libc-musl.a(strcpy.o)
 .debug_frame   0x0000000000000cf8       0x3c /opt/microchip/xc32/v4.20/bin/bin/../../lib/gcc/pic32mx/8.3.1/../../../../pic32mx/lib/fpu64/libc-musl.a(tolower.o)
 .debug_frame   0x0000000000000d34       0x3c /opt/microchip/xc32/v4.20/bin/bin/../../lib/gcc/pic32mx/8.3.1/../../../../pic32mx/lib/fpu64/libc-musl.a(toupper.o)
 .debug_frame   0x0000000000000d70       0x2c /opt/microchip/xc32/v4.20/bin/bin/../../lib/gcc/pic32mx/8.3.1/../../../../pic32mx/lib/fpu64/libc-musl.a(__int_vsprintf.o)
 .debug_frame   0x0000000000000d9c       0x58 /opt/microchip/xc32/v4.20/bin/bin/../../lib/gcc/pic32mx/8.3.1/../../../../pic32mx/lib/fpu64/libc-musl.a(__fopen.o)
 .debug_frame   0x0000000000000df4       0x48 /opt/microchip/xc32/v4.20/bin/bin/../../lib/gcc/pic32mx/8.3.1/../../../../pic32mx/lib/fpu64/libc-musl.a(__io_init_needed.o)
 .debug_frame   0x0000000000000e3c       0x2c /opt/microchip/xc32/v4.20/bin/bin/../../lib/gcc/pic32mx/8.3.1/../../../../pic32mx/lib/fpu64/libc-musl.a(__io_rw_needed.o)
 .debug_frame   0x0000000000000e68       0x50 /opt/microchip/xc32/v4.20/bin/bin/../../lib/gcc/pic32mx/8.3.1/../../../../pic32mx/lib/fpu64/libc-musl.a(__out.o)
 .debug_frame   0x0000000000000eb8       0x50 /opt/microchip/xc32/v4.20/bin/bin/../../lib/gcc/pic32mx/8.3.1/../../../../pic32mx/lib/fpu64/libc-musl.a(__stdio_close.o)
 .debug_frame   0x0000000000000f08       0x34 /opt/microchip/xc32/v4.20/bin/bin/../../lib/gcc/pic32mx/8.3.1/../../../../pic32mx/lib/fpu64/libc-musl.a(__stdio_read.o)
 .debug_frame   0x0000000000000f3c       0x20 /opt/microchip/xc32/v4.20/bin/bin/../../lib/gcc/pic32mx/8.3.1/../../../../pic32mx/lib/fpu64/libc-musl.a(__towrite_rw.o)
 .debug_frame   0x0000000000000f5c       0x50 /opt/microchip/xc32/v4.20/bin/bin/../../lib/gcc/pic32mx/8.3.1/../../../../pic32mx/lib/fpu64/libc-musl.a(setvbuf.o)
 .debug_frame   0x0000000000000fac       0x48 /opt/microchip/xc32/v4.20/bin/bin/../../lib/gcc/pic32mx/8.3.1/../../../../pic32mx/lib/fpu64/libc-musl.a(vfprintf.o)
 .debug_frame   0x0000000000000ff4       0x20 /opt/microchip/xc32/v4.20/bin/bin/../../lib/gcc/pic32mx/8.3.1/../../../../pic32mx/lib/fpu64/libc-musl.a(stpcpy.o)
 .debug_frame   0x0000000000001014       0x38 /opt/microchip/xc32/v4.20/bin/bin/../../lib/gcc/pic32mx/8.3.1/../../../../pic32mx/lib/fpu64/libc-musl.a(readv.o)
 .debug_frame   0x000000000000104c      0x168 /opt/microchip/xc32/v4.20/bin/bin/../../lib/gcc/pic32mx/8.3.1/../../../../pic32mx/lib/fpu64/libc-musl.a(malloc.o)
 .debug_frame   0x00000000000011b4       0x2c /opt/microchip/xc32/v4.20/bin/bin/../../lib/gcc/pic32mx/8.3.1/../../../../pic32mx/lib/fpu64/libc-musl.a(expand_heap.o)
 .debug_frame   0x00000000000011e0       0x2c /opt/microchip/xc32/v4.20/bin/bin/../../lib/gcc/pic32mx/8.3.1/../../../../pic32mx/lib/fpu64/libc-musl.a(__int_vsnprintf.o)
 .debug_frame   0x000000000000120c       0x2c /opt/microchip/xc32/v4.20/bin/bin/../../lib/gcc/pic32mx/8.3.1/../../../../pic32mx/lib/fpu64/libc-musl.a(__fopen_rw.o)
 .debug_frame   0x0000000000001238       0x20 /opt/microchip/xc32/v4.20/bin/bin/../../lib/gcc/pic32mx/8.3.1/../../../../pic32mx/lib/fpu64/libc-musl.a(__ftello_rw.o)
 .debug_frame   0x0000000000001258       0x3c /opt/microchip/xc32/v4.20/bin/bin/../../lib/gcc/pic32mx/8.3.1/../../../../pic32mx/lib/fpu64/libc-musl.a(__init_stdio.o)
 .debug_frame   0x0000000000001294       0x2c /opt/microchip/xc32/v4.20/bin/bin/../../lib/gcc/pic32mx/8.3.1/../../../../pic32mx/lib/fpu64/libc-musl.a(__io_buf_needed.o)
 .debug_frame   0x00000000000012c0       0x2c /opt/microchip/xc32/v4.20/bin/bin/../../lib/gcc/pic32mx/8.3.1/../../../../pic32mx/lib/fpu64/libc-musl.a(__io_file_needed.o)
 .debug_frame   0x00000000000012ec       0x2c /opt/microchip/xc32/v4.20/bin/bin/../../lib/gcc/pic32mx/8.3.1/../../../../pic32mx/lib/fpu64/libc-musl.a(__io_fmt_needed.o)
 .debug_frame   0x0000000000001318       0x2c /opt/microchip/xc32/v4.20/bin/bin/../../lib/gcc/pic32mx/8.3.1/../../../../pic32mx/lib/fpu64/libc-musl.a(__io_std_needed.o)
 .debug_frame   0x0000000000001344       0x2c /opt/microchip/xc32/v4.20/bin/bin/../../lib/gcc/pic32mx/8.3.1/../../../../pic32mx/lib/fpu64/libc-musl.a(__putc.o)
 .debug_frame   0x0000000000001370       0x4c /opt/microchip/xc32/v4.20/bin/bin/../../lib/gcc/pic32mx/8.3.1/../../../../pic32mx/lib/fpu64/libc-musl.a(__stderr.o)
 .debug_frame   0x00000000000013bc       0x4c /opt/microchip/xc32/v4.20/bin/bin/../../lib/gcc/pic32mx/8.3.1/../../../../pic32mx/lib/fpu64/libc-musl.a(__stdio_exit.o)
 .debug_frame   0x0000000000001408       0x5c /opt/microchip/xc32/v4.20/bin/bin/../../lib/gcc/pic32mx/8.3.1/../../../../pic32mx/lib/fpu64/libc-musl.a(__stdio_write.o)
 .debug_frame   0x0000000000001464       0x4c /opt/microchip/xc32/v4.20/bin/bin/../../lib/gcc/pic32mx/8.3.1/../../../../pic32mx/lib/fpu64/libc-musl.a(__stdout.o)
 .debug_frame   0x00000000000014b0       0x3c /opt/microchip/xc32/v4.20/bin/bin/../../lib/gcc/pic32mx/8.3.1/../../../../pic32mx/lib/fpu64/libc-musl.a(__towrite.o)
 .debug_frame   0x00000000000014ec       0x64 /opt/microchip/xc32/v4.20/bin/bin/../../lib/gcc/pic32mx/8.3.1/../../../../pic32mx/lib/fpu64/libc-musl.a(putc.o)
 .debug_frame   0x0000000000001550       0x38 /opt/microchip/xc32/v4.20/bin/bin/../../lib/gcc/pic32mx/8.3.1/../../../../pic32mx/lib/fpu64/libc-musl.a(writev.o)
 .debug_frame   0x0000000000001588       0x2c /opt/microchip/xc32/v4.20/bin/bin/../../lib/gcc/pic32mx/8.3.1/../../../../pic32mx/lib/fpu64/libc-musl.a(__int_vfprintf.o)
 .debug_frame   0x00000000000015b4       0x30 /opt/microchip/xc32/v4.20/bin/bin/../../lib/gcc/pic32mx/8.3.1/../../../../pic32mx/lib/fpu64/libc-musl.a(__overflow.o)
 .debug_frame   0x00000000000015e4       0x2c /opt/microchip/xc32/v4.20/bin/bin/../../lib/gcc/pic32mx/8.3.1/../../../../pic32mx/lib/fpu64/libc-musl.a(__fclose.o)
 .debug_frame   0x0000000000001610       0x58 /opt/microchip/xc32/v4.20/bin/bin/../../lib/gcc/pic32mx/8.3.1/../../../../pic32mx/lib/fpu64/libc-musl.a(__fmt_a.o)
 .debug_frame   0x0000000000001668       0x2c /opt/microchip/xc32/v4.20/bin/bin/../../lib/gcc/pic32mx/8.3.1/../../../../pic32mx/lib/fpu64/libc-musl.a(__fseeko.o)
 .debug_frame   0x0000000000001694       0x3c /opt/microchip/xc32/v4.20/bin/bin/../../lib/gcc/pic32mx/8.3.1/../../../../pic32mx/lib/fpu64/libc-musl.a(__ftello.o)
 .debug_frame   0x00000000000016d0       0x48 /opt/microchip/xc32/v4.20/bin/bin/../../lib/gcc/pic32mx/8.3.1/../../../../pic32mx/lib/fpu64/libc-musl.a(__fwrite.o)
 .debug_frame   0x0000000000001718       0x2c /opt/microchip/xc32/v4.20/bin/bin/../../lib/gcc/pic32mx/8.3.1/../../../../pic32mx/lib/fpu64/libm-musl.a(floor.o)
 .debug_frame   0x0000000000001744       0x64 /opt/microchip/xc32/v4.20/bin/bin/../../lib/gcc/pic32mx/8.3.1/../../../../pic32mx/lib/fpu64/libm-musl.a(fma.o)
 .debug_frame   0x00000000000017a8       0x20 /opt/microchip/xc32/v4.20/bin/bin/../../lib/gcc/pic32mx/8.3.1/../../../../pic32mx/lib/fpu64/libm-musl.a(scalbn.o)
 .debug_frame   0x00000000000017c8       0x20 /opt/microchip/xc32/v4.20/bin/bin/../../lib/gcc/pic32mx/8.3.1/fpu64/libgcc.a(_lshrdi3.o)
 .debug_frame   0x00000000000017e8       0x20 /opt/microchip/xc32/v4.20/bin/bin/../../lib/gcc/pic32mx/8.3.1/fpu64/libgcc.a(_ashldi3.o)
 .debug_frame   0x0000000000001808       0x20 /opt/microchip/xc32/v4.20/bin/bin/../../lib/gcc/pic32mx/8.3.1/fpu64/libgcc.a(_udivdi3.o)
 .debug_frame   0x0000000000001828       0x20 /opt/microchip/xc32/v4.20/bin/bin/../../lib/gcc/pic32mx/8.3.1/fpu64/libgcc.a(_umoddi3.o)
 .debug_frame   0x0000000000001848       0x9c /opt/microchip/xc32/v4.20/bin/bin/../../lib/gcc/pic32mx/8.3.1/../../../../pic32mx/lib/fpu64/libpic32.a(sbrk.o)
 .debug_frame   0x00000000000018e4       0x20 /opt/microchip/xc32/v4.20/bin/bin/../../lib/gcc/pic32mx/8.3.1/../../../../pic32mx/lib/fpu64/libpic32.a(lseek.o)
 .debug_frame   0x0000000000001904       0x20 /opt/microchip/xc32/v4.20/bin/bin/../../lib/gcc/pic32mx/8.3.1/../../../../pic32mx/lib/fpu64/libpic32.a(close.o)

.debug_str      0x0000000000000000    0x16d81
 *.elf(.debug_str)
 *(.debug_str)
 .debug_str     0x0000000000000000      0xad8 build/pic32mk_mcj_curiosity_pro/production/_ext/1333799919/plib_canfd1.o
 .debug_str     0x0000000000000ad8      0x41c build/pic32mk_mcj_curiosity_pro/production/_ext/899710619/plib_clk.o
 .debug_str     0x0000000000000ef4      0x971 build/pic32mk_mcj_curiosity_pro/production/_ext/2121194872/plib_dmac.o
 .debug_str     0x0000000000001865     0x11eb build/pic32mk_mcj_curiosity_pro/production/_ext/2121156184/plib_evic.o
 .debug_str     0x0000000000002a50      0x52e build/pic32mk_mcj_curiosity_pro/production/_ext/2121102356/plib_gpio.o
 .debug_str     0x0000000000002f7e      0x606 build/pic32mk_mcj_curiosity_pro/production/_ext/1753921419/plib_spi2_master.o
 .debug_str     0x0000000000003584      0x659 build/pic32mk_mcj_curiosity_pro/production/_ext/2120699413/plib_uart1.o
 .debug_str     0x0000000000003bdd      0x364 build/pic32mk_mcj_curiosity_pro/production/_ext/529947251/xc32_monitor.o
 .debug_str     0x0000000000003f41      0x46e build/pic32mk_mcj_curiosity_pro/production/_ext/1661106823/initialization.o
 .debug_str     0x00000000000043af      0x356 build/pic32mk_mcj_curiosity_pro/production/_ext/1661106823/interrupts.o
 .debug_str     0x0000000000004705      0x3fd build/pic32mk_mcj_curiosity_pro/production/_ext/1661106823/exceptions.o
 .debug_str     0x0000000000004b02      0xbd1 build/pic32mk_mcj_curiosity_pro/production/_ext/1360937237/main_pic32mk_mcj.o
 .debug_str     0x00000000000056d3      0x35a /opt/microchip/xc32/v4.20/bin/bin/../../lib/gcc/pic32mx/8.3.1/../../../../pic32mx/lib/fpu64/libpic32.a(default-on-reset.o)
 .debug_str     0x0000000000005a2d      0x362 /opt/microchip/xc32/v4.20/bin/bin/../../lib/gcc/pic32mx/8.3.1/../../../../pic32mx/lib/fpu64/libpic32.a(default-on-bootstrap.o)
 .debug_str     0x0000000000005d8f      0x374 /opt/microchip/xc32/v4.20/bin/bin/../../lib/gcc/pic32mx/8.3.1/../../../../pic32mx/lib/fpu64/libpic32.a(defaultinterrupt.o)
 .debug_str     0x0000000000006103      0x44d /opt/microchip/xc32/v4.20/bin/bin/../../lib/gcc/pic32mx/8.3.1/../../../../pic32mx/lib/fpu64/libc-musl.a(__sio_sprintf_dfoux.o)
 .debug_str     0x0000000000006550      0x3ee /opt/microchip/xc32/v4.20/bin/bin/../../lib/gcc/pic32mx/8.3.1/../../../../pic32mx/lib/fpu64/libc-musl.a(__fmt_d.o)
 .debug_str     0x000000000000693e      0x44d /opt/microchip/xc32/v4.20/bin/bin/../../lib/gcc/pic32mx/8.3.1/../../../../pic32mx/lib/fpu64/libc-musl.a(__fmt_fp.o)
 .debug_str     0x0000000000006d8b      0x3ee /opt/microchip/xc32/v4.20/bin/bin/../../lib/gcc/pic32mx/8.3.1/../../../../pic32mx/lib/fpu64/libc-musl.a(__fmt_o.o)
 .debug_str     0x0000000000007179      0x3da /opt/microchip/xc32/v4.20/bin/bin/../../lib/gcc/pic32mx/8.3.1/../../../../pic32mx/lib/fpu64/libc-musl.a(__fmt_s.o)
 .debug_str     0x0000000000007553      0x3f3 /opt/microchip/xc32/v4.20/bin/bin/../../lib/gcc/pic32mx/8.3.1/../../../../pic32mx/lib/fpu64/libc-musl.a(__fmt_u.o)
 .debug_str     0x0000000000007946      0x3ee /opt/microchip/xc32/v4.20/bin/bin/../../lib/gcc/pic32mx/8.3.1/../../../../pic32mx/lib/fpu64/libc-musl.a(__fmt_x.o)
 .debug_str     0x0000000000007d34      0x3bc /opt/microchip/xc32/v4.20/bin/bin/../../lib/gcc/pic32mx/8.3.1/../../../../pic32mx/lib/fpu64/libc-musl.a(__pop_float.o)
 .debug_str     0x00000000000080f0      0x3c7 /opt/microchip/xc32/v4.20/bin/bin/../../lib/gcc/pic32mx/8.3.1/../../../../pic32mx/lib/fpu64/libc-musl.a(__pop_int.o)
 .debug_str     0x00000000000084b7      0x3c9 /opt/microchip/xc32/v4.20/bin/bin/../../lib/gcc/pic32mx/8.3.1/../../../../pic32mx/lib/fpu64/libc-musl.a(__pop_ptr.o)
 .debug_str     0x0000000000008880      0x4d6 /opt/microchip/xc32/v4.20/bin/bin/../../lib/gcc/pic32mx/8.3.1/../../../../pic32mx/lib/fpu64/libc-musl.a(__printf_core.o)
 .debug_str     0x0000000000008d56      0x46f /opt/microchip/xc32/v4.20/bin/bin/../../lib/gcc/pic32mx/8.3.1/../../../../pic32mx/lib/fpu64/libc-musl.a(stdin.o)
 .debug_str     0x00000000000091c5      0x484 /opt/microchip/xc32/v4.20/bin/bin/../../lib/gcc/pic32mx/8.3.1/../../../../pic32mx/lib/fpu64/libc-musl.a(stdout.o)
 .debug_str     0x0000000000009649      0x328 /opt/microchip/xc32/v4.20/bin/bin/../../lib/gcc/pic32mx/8.3.1/../../../../pic32mx/lib/fpu64/libc-musl.a(setbuf.o)
 .debug_str     0x0000000000009971      0x34d /opt/microchip/xc32/v4.20/bin/bin/../../lib/gcc/pic32mx/8.3.1/../../../../pic32mx/lib/fpu64/libc-musl.a(vprintf.o)
 .debug_str     0x0000000000009cbe      0x327 /opt/microchip/xc32/v4.20/bin/bin/../../lib/gcc/pic32mx/8.3.1/../../../../pic32mx/lib/fpu64/libc-musl.a(atoi.o)
 .debug_str     0x0000000000009fe5      0x32c /opt/microchip/xc32/v4.20/bin/bin/../../lib/gcc/pic32mx/8.3.1/../../../../pic32mx/lib/fpu64/libc-musl.a(memcpy.o)
 .debug_str     0x000000000000a311      0x318 /opt/microchip/xc32/v4.20/bin/bin/../../lib/gcc/pic32mx/8.3.1/../../../../pic32mx/lib/fpu64/libc-musl.a(strcpy.o)
 .debug_str     0x000000000000a629      0x354 /opt/microchip/xc32/v4.20/bin/bin/../../lib/gcc/pic32mx/8.3.1/../../../../pic32mx/lib/fpu64/libc-musl.a(tolower.o)
 .debug_str     0x000000000000a97d      0x354 /opt/microchip/xc32/v4.20/bin/bin/../../lib/gcc/pic32mx/8.3.1/../../../../pic32mx/lib/fpu64/libc-musl.a(toupper.o)
 .debug_str     0x000000000000acd1      0x3a2 /opt/microchip/xc32/v4.20/bin/bin/../../lib/gcc/pic32mx/8.3.1/../../../../pic32mx/lib/fpu64/libc-musl.a(__int_vsprintf.o)
 .debug_str     0x000000000000b073      0x3ff /opt/microchip/xc32/v4.20/bin/bin/../../lib/gcc/pic32mx/8.3.1/../../../../pic32mx/lib/fpu64/libc-musl.a(__fopen.o)
 .debug_str     0x000000000000b472      0x3cd /opt/microchip/xc32/v4.20/bin/bin/../../lib/gcc/pic32mx/8.3.1/../../../../pic32mx/lib/fpu64/libc-musl.a(__io_init_needed.o)
 .debug_str     0x000000000000b83f      0x3dc /opt/microchip/xc32/v4.20/bin/bin/../../lib/gcc/pic32mx/8.3.1/../../../../pic32mx/lib/fpu64/libc-musl.a(__io_rw_needed.o)
 .debug_str     0x000000000000bc1b      0x3d3 /opt/microchip/xc32/v4.20/bin/bin/../../lib/gcc/pic32mx/8.3.1/../../../../pic32mx/lib/fpu64/libc-musl.a(__out.o)
 .debug_str     0x000000000000bfee      0x456 /opt/microchip/xc32/v4.20/bin/bin/../../lib/gcc/pic32mx/8.3.1/../../../../pic32mx/lib/fpu64/libc-musl.a(__stdio_close.o)
 .debug_str     0x000000000000c444      0x45b /opt/microchip/xc32/v4.20/bin/bin/../../lib/gcc/pic32mx/8.3.1/../../../../pic32mx/lib/fpu64/libc-musl.a(__stdio_read.o)
 .debug_str     0x000000000000c89f      0x436 /opt/microchip/xc32/v4.20/bin/bin/../../lib/gcc/pic32mx/8.3.1/../../../../pic32mx/lib/fpu64/libc-musl.a(__towrite_rw.o)
 .debug_str     0x000000000000ccd5      0x40b /opt/microchip/xc32/v4.20/bin/bin/../../lib/gcc/pic32mx/8.3.1/../../../../pic32mx/lib/fpu64/libc-musl.a(setvbuf.o)
 .debug_str     0x000000000000d0e0      0x47b /opt/microchip/xc32/v4.20/bin/bin/../../lib/gcc/pic32mx/8.3.1/../../../../pic32mx/lib/fpu64/libc-musl.a(vfprintf.o)
 .debug_str     0x000000000000d55b      0x328 /opt/microchip/xc32/v4.20/bin/bin/../../lib/gcc/pic32mx/8.3.1/../../../../pic32mx/lib/fpu64/libc-musl.a(stpcpy.o)
 .debug_str     0x000000000000d883      0x357 /opt/microchip/xc32/v4.20/bin/bin/../../lib/gcc/pic32mx/8.3.1/../../../../pic32mx/lib/fpu64/libc-musl.a(readv.o)
 .debug_str     0x000000000000dbda      0x59f /opt/microchip/xc32/v4.20/bin/bin/../../lib/gcc/pic32mx/8.3.1/../../../../pic32mx/lib/fpu64/libc-musl.a(malloc.o)
 .debug_str     0x000000000000e179      0x39e /opt/microchip/xc32/v4.20/bin/bin/../../lib/gcc/pic32mx/8.3.1/../../../../pic32mx/lib/fpu64/libc-musl.a(expand_heap.o)
 .debug_str     0x000000000000e517      0x3ea /opt/microchip/xc32/v4.20/bin/bin/../../lib/gcc/pic32mx/8.3.1/../../../../pic32mx/lib/fpu64/libc-musl.a(__int_vsnprintf.o)
 .debug_str     0x000000000000e901      0x44e /opt/microchip/xc32/v4.20/bin/bin/../../lib/gcc/pic32mx/8.3.1/../../../../pic32mx/lib/fpu64/libc-musl.a(__fopen_rw.o)
 .debug_str     0x000000000000ed4f      0x438 /opt/microchip/xc32/v4.20/bin/bin/../../lib/gcc/pic32mx/8.3.1/../../../../pic32mx/lib/fpu64/libc-musl.a(__ftello_rw.o)
 .debug_str     0x000000000000f187      0x393 /opt/microchip/xc32/v4.20/bin/bin/../../lib/gcc/pic32mx/8.3.1/../../../../pic32mx/lib/fpu64/libc-musl.a(__init_stdio.o)
 .debug_str     0x000000000000f51a      0x408 /opt/microchip/xc32/v4.20/bin/bin/../../lib/gcc/pic32mx/8.3.1/../../../../pic32mx/lib/fpu64/libc-musl.a(__io_buf_needed.o)
 .debug_str     0x000000000000f922      0x3a0 /opt/microchip/xc32/v4.20/bin/bin/../../lib/gcc/pic32mx/8.3.1/../../../../pic32mx/lib/fpu64/libc-musl.a(__io_file_needed.o)
 .debug_str     0x000000000000fcc2      0x42f /opt/microchip/xc32/v4.20/bin/bin/../../lib/gcc/pic32mx/8.3.1/../../../../pic32mx/lib/fpu64/libc-musl.a(__io_fmt_needed.o)
 .debug_str     0x00000000000100f1      0x3fc /opt/microchip/xc32/v4.20/bin/bin/../../lib/gcc/pic32mx/8.3.1/../../../../pic32mx/lib/fpu64/libc-musl.a(__io_std_needed.o)
 .debug_str     0x00000000000104ed      0x3f1 /opt/microchip/xc32/v4.20/bin/bin/../../lib/gcc/pic32mx/8.3.1/../../../../pic32mx/lib/fpu64/libc-musl.a(__putc.o)
 .debug_str     0x00000000000108de      0x466 /opt/microchip/xc32/v4.20/bin/bin/../../lib/gcc/pic32mx/8.3.1/../../../../pic32mx/lib/fpu64/libc-musl.a(__stderr.o)
 .debug_str     0x0000000000010d44      0x425 /opt/microchip/xc32/v4.20/bin/bin/../../lib/gcc/pic32mx/8.3.1/../../../../pic32mx/lib/fpu64/libc-musl.a(__stdio_exit.o)
 .debug_str     0x0000000000011169      0x43f /opt/microchip/xc32/v4.20/bin/bin/../../lib/gcc/pic32mx/8.3.1/../../../../pic32mx/lib/fpu64/libc-musl.a(__stdio_write.o)
 .debug_str     0x00000000000115a8      0x466 /opt/microchip/xc32/v4.20/bin/bin/../../lib/gcc/pic32mx/8.3.1/../../../../pic32mx/lib/fpu64/libc-musl.a(__stdout.o)
 .debug_str     0x0000000000011a0e      0x3e2 /opt/microchip/xc32/v4.20/bin/bin/../../lib/gcc/pic32mx/8.3.1/../../../../pic32mx/lib/fpu64/libc-musl.a(__towrite.o)
 .debug_str     0x0000000000011df0      0x3e3 /opt/microchip/xc32/v4.20/bin/bin/../../lib/gcc/pic32mx/8.3.1/../../../../pic32mx/lib/fpu64/libc-musl.a(putc.o)
 .debug_str     0x00000000000121d3      0x35a /opt/microchip/xc32/v4.20/bin/bin/../../lib/gcc/pic32mx/8.3.1/../../../../pic32mx/lib/fpu64/libc-musl.a(writev.o)
 .debug_str     0x000000000001252d      0x440 /opt/microchip/xc32/v4.20/bin/bin/../../lib/gcc/pic32mx/8.3.1/../../../../pic32mx/lib/fpu64/libc-musl.a(libc.o)
 .debug_str     0x000000000001296d      0x3e5 /opt/microchip/xc32/v4.20/bin/bin/../../lib/gcc/pic32mx/8.3.1/../../../../pic32mx/lib/fpu64/libc-musl.a(__int_vfprintf.o)
 .debug_str     0x0000000000012d52      0x437 /opt/microchip/xc32/v4.20/bin/bin/../../lib/gcc/pic32mx/8.3.1/../../../../pic32mx/lib/fpu64/libc-musl.a(__overflow.o)
 .debug_str     0x0000000000013189      0x3c2 /opt/microchip/xc32/v4.20/bin/bin/../../lib/gcc/pic32mx/8.3.1/../../../../pic32mx/lib/fpu64/libc-musl.a(__fclose.o)
 .debug_str     0x000000000001354b      0x42c /opt/microchip/xc32/v4.20/bin/bin/../../lib/gcc/pic32mx/8.3.1/../../../../pic32mx/lib/fpu64/libc-musl.a(__fmt_a.o)
 .debug_str     0x0000000000013977      0x3df /opt/microchip/xc32/v4.20/bin/bin/../../lib/gcc/pic32mx/8.3.1/../../../../pic32mx/lib/fpu64/libc-musl.a(__fseeko.o)
 .debug_str     0x0000000000013d56      0x3e4 /opt/microchip/xc32/v4.20/bin/bin/../../lib/gcc/pic32mx/8.3.1/../../../../pic32mx/lib/fpu64/libc-musl.a(__ftello.o)
 .debug_str     0x000000000001413a      0x3fb /opt/microchip/xc32/v4.20/bin/bin/../../lib/gcc/pic32mx/8.3.1/../../../../pic32mx/lib/fpu64/libc-musl.a(__fwrite.o)
 .debug_str     0x0000000000014535      0x387 /opt/microchip/xc32/v4.20/bin/bin/../../lib/gcc/pic32mx/8.3.1/../../../../pic32mx/lib/fpu64/libm-musl.a(floor.o)
 .debug_str     0x00000000000148bc      0x3bf /opt/microchip/xc32/v4.20/bin/bin/../../lib/gcc/pic32mx/8.3.1/../../../../pic32mx/lib/fpu64/libm-musl.a(fma.o)
 .debug_str     0x0000000000014c7b      0x377 /opt/microchip/xc32/v4.20/bin/bin/../../lib/gcc/pic32mx/8.3.1/../../../../pic32mx/lib/fpu64/libm-musl.a(scalbn.o)
 .debug_str     0x0000000000014ff2      0x3f0 /opt/microchip/xc32/v4.20/bin/bin/../../lib/gcc/pic32mx/8.3.1/fpu64/libgcc.a(_lshrdi3.o)
 .debug_str     0x00000000000153e2      0x3f0 /opt/microchip/xc32/v4.20/bin/bin/../../lib/gcc/pic32mx/8.3.1/fpu64/libgcc.a(_ashldi3.o)
 .debug_str     0x00000000000157d2      0x42d /opt/microchip/xc32/v4.20/bin/bin/../../lib/gcc/pic32mx/8.3.1/fpu64/libgcc.a(_udivdi3.o)
 .debug_str     0x0000000000015bff      0x42d /opt/microchip/xc32/v4.20/bin/bin/../../lib/gcc/pic32mx/8.3.1/fpu64/libgcc.a(_umoddi3.o)
 .debug_str     0x000000000001602c      0x37a /opt/microchip/xc32/v4.20/bin/bin/../../lib/gcc/pic32mx/8.3.1/../../../../pic32mx/lib/fpu64/libpic32.a(sbrk.o)
 .debug_str     0x00000000000163a6      0x34b /opt/microchip/xc32/v4.20/bin/bin/../../lib/gcc/pic32mx/8.3.1/../../../../pic32mx/lib/fpu64/libpic32.a(lseek.o)
 .debug_str     0x00000000000166f1      0x34b /opt/microchip/xc32/v4.20/bin/bin/../../lib/gcc/pic32mx/8.3.1/../../../../pic32mx/lib/fpu64/libpic32.a(close.o)
 .debug_str     0x0000000000016a3c      0x345 /opt/microchip/xc32/v4.20/bin/bin/../../lib/gcc/pic32mx/8.3.1/../../../../pic32mx/lib/fpu64/libpic32.a(errno.o)

.debug_loc      0x0000000000000000     0x92e7
 *.elf(.debug_loc)
 *(.debug_loc)
 .debug_loc     0x0000000000000000      0x8b4 build/pic32mk_mcj_curiosity_pro/production/_ext/1333799919/plib_canfd1.o
 .debug_loc     0x00000000000008b4      0xa67 build/pic32mk_mcj_curiosity_pro/production/_ext/2121194872/plib_dmac.o
 .debug_loc     0x000000000000131b       0xf9 build/pic32mk_mcj_curiosity_pro/production/_ext/2121156184/plib_evic.o
 .debug_loc     0x0000000000001414      0x172 build/pic32mk_mcj_curiosity_pro/production/_ext/2121102356/plib_gpio.o
 .debug_loc     0x0000000000001586      0x53b build/pic32mk_mcj_curiosity_pro/production/_ext/1753921419/plib_spi2_master.o
 .debug_loc     0x0000000000001ac1      0x5e2 build/pic32mk_mcj_curiosity_pro/production/_ext/2120699413/plib_uart1.o
 .debug_loc     0x00000000000020a3      0x17d build/pic32mk_mcj_curiosity_pro/production/_ext/529947251/xc32_monitor.o
 .debug_loc     0x0000000000002220       0x25 build/pic32mk_mcj_curiosity_pro/production/_ext/1661106823/initialization.o
 .debug_loc     0x0000000000002245      0x386 build/pic32mk_mcj_curiosity_pro/production/_ext/1360937237/main_pic32mk_mcj.o
 .debug_loc     0x00000000000025cb       0x5f /opt/microchip/xc32/v4.20/bin/bin/../../lib/gcc/pic32mx/8.3.1/../../../../pic32mx/lib/fpu64/libc-musl.a(__sio_sprintf_dfoux.o)
 .debug_loc     0x000000000000262a      0x241 /opt/microchip/xc32/v4.20/bin/bin/../../lib/gcc/pic32mx/8.3.1/../../../../pic32mx/lib/fpu64/libc-musl.a(__fmt_d.o)
 .debug_loc     0x000000000000286b      0xc99 /opt/microchip/xc32/v4.20/bin/bin/../../lib/gcc/pic32mx/8.3.1/../../../../pic32mx/lib/fpu64/libc-musl.a(__fmt_fp.o)
 .debug_loc     0x0000000000003504       0xf2 /opt/microchip/xc32/v4.20/bin/bin/../../lib/gcc/pic32mx/8.3.1/../../../../pic32mx/lib/fpu64/libc-musl.a(__fmt_o.o)
 .debug_loc     0x00000000000035f6      0x11f /opt/microchip/xc32/v4.20/bin/bin/../../lib/gcc/pic32mx/8.3.1/../../../../pic32mx/lib/fpu64/libc-musl.a(__fmt_s.o)
 .debug_loc     0x0000000000003715      0x2f0 /opt/microchip/xc32/v4.20/bin/bin/../../lib/gcc/pic32mx/8.3.1/../../../../pic32mx/lib/fpu64/libc-musl.a(__fmt_u.o)
 .debug_loc     0x0000000000003a05      0x2b8 /opt/microchip/xc32/v4.20/bin/bin/../../lib/gcc/pic32mx/8.3.1/../../../../pic32mx/lib/fpu64/libc-musl.a(__fmt_x.o)
 .debug_loc     0x0000000000003cbd       0x40 /opt/microchip/xc32/v4.20/bin/bin/../../lib/gcc/pic32mx/8.3.1/../../../../pic32mx/lib/fpu64/libc-musl.a(__pop_ptr.o)
 .debug_loc     0x0000000000003cfd      0x51f /opt/microchip/xc32/v4.20/bin/bin/../../lib/gcc/pic32mx/8.3.1/../../../../pic32mx/lib/fpu64/libc-musl.a(__printf_core.o)
 .debug_loc     0x000000000000421c       0x4a /opt/microchip/xc32/v4.20/bin/bin/../../lib/gcc/pic32mx/8.3.1/../../../../pic32mx/lib/fpu64/libc-musl.a(setbuf.o)
 .debug_loc     0x0000000000004266       0x64 /opt/microchip/xc32/v4.20/bin/bin/../../lib/gcc/pic32mx/8.3.1/../../../../pic32mx/lib/fpu64/libc-musl.a(vprintf.o)
 .debug_loc     0x00000000000042ca       0xbe /opt/microchip/xc32/v4.20/bin/bin/../../lib/gcc/pic32mx/8.3.1/../../../../pic32mx/lib/fpu64/libc-musl.a(atoi.o)
 .debug_loc     0x0000000000004388      0x118 /opt/microchip/xc32/v4.20/bin/bin/../../lib/gcc/pic32mx/8.3.1/../../../../pic32mx/lib/fpu64/libc-musl.a(memcpy.o)
 .debug_loc     0x00000000000044a0       0x54 /opt/microchip/xc32/v4.20/bin/bin/../../lib/gcc/pic32mx/8.3.1/../../../../pic32mx/lib/fpu64/libc-musl.a(strcpy.o)
 .debug_loc     0x00000000000044f4       0x89 /opt/microchip/xc32/v4.20/bin/bin/../../lib/gcc/pic32mx/8.3.1/../../../../pic32mx/lib/fpu64/libc-musl.a(__int_vsprintf.o)
 .debug_loc     0x000000000000457d       0x2f /opt/microchip/xc32/v4.20/bin/bin/../../lib/gcc/pic32mx/8.3.1/../../../../pic32mx/lib/fpu64/libc-musl.a(__fopen.o)
 .debug_loc     0x00000000000045ac      0x1ab /opt/microchip/xc32/v4.20/bin/bin/../../lib/gcc/pic32mx/8.3.1/../../../../pic32mx/lib/fpu64/libc-musl.a(__out.o)
 .debug_loc     0x0000000000004757      0x130 /opt/microchip/xc32/v4.20/bin/bin/../../lib/gcc/pic32mx/8.3.1/../../../../pic32mx/lib/fpu64/libc-musl.a(__stdio_close.o)
 .debug_loc     0x0000000000004887       0xe7 /opt/microchip/xc32/v4.20/bin/bin/../../lib/gcc/pic32mx/8.3.1/../../../../pic32mx/lib/fpu64/libc-musl.a(__stdio_read.o)
 .debug_loc     0x000000000000496e      0x15f /opt/microchip/xc32/v4.20/bin/bin/../../lib/gcc/pic32mx/8.3.1/../../../../pic32mx/lib/fpu64/libc-musl.a(setvbuf.o)
 .debug_loc     0x0000000000004acd       0x9f /opt/microchip/xc32/v4.20/bin/bin/../../lib/gcc/pic32mx/8.3.1/../../../../pic32mx/lib/fpu64/libc-musl.a(vfprintf.o)
 .debug_loc     0x0000000000004b6c       0x51 /opt/microchip/xc32/v4.20/bin/bin/../../lib/gcc/pic32mx/8.3.1/../../../../pic32mx/lib/fpu64/libc-musl.a(stpcpy.o)
 .debug_loc     0x0000000000004bbd      0x12c /opt/microchip/xc32/v4.20/bin/bin/../../lib/gcc/pic32mx/8.3.1/../../../../pic32mx/lib/fpu64/libc-musl.a(readv.o)
 .debug_loc     0x0000000000004ce9      0xbd3 /opt/microchip/xc32/v4.20/bin/bin/../../lib/gcc/pic32mx/8.3.1/../../../../pic32mx/lib/fpu64/libc-musl.a(malloc.o)
 .debug_loc     0x00000000000058bc       0x4f /opt/microchip/xc32/v4.20/bin/bin/../../lib/gcc/pic32mx/8.3.1/../../../../pic32mx/lib/fpu64/libc-musl.a(expand_heap.o)
 .debug_loc     0x000000000000590b      0x113 /opt/microchip/xc32/v4.20/bin/bin/../../lib/gcc/pic32mx/8.3.1/../../../../pic32mx/lib/fpu64/libc-musl.a(__int_vsnprintf.o)
 .debug_loc     0x0000000000005a1e       0x2f /opt/microchip/xc32/v4.20/bin/bin/../../lib/gcc/pic32mx/8.3.1/../../../../pic32mx/lib/fpu64/libc-musl.a(__fopen_rw.o)
 .debug_loc     0x0000000000005a4d       0x25 /opt/microchip/xc32/v4.20/bin/bin/../../lib/gcc/pic32mx/8.3.1/../../../../pic32mx/lib/fpu64/libc-musl.a(__ftello_rw.o)
 .debug_loc     0x0000000000005a72       0x9e /opt/microchip/xc32/v4.20/bin/bin/../../lib/gcc/pic32mx/8.3.1/../../../../pic32mx/lib/fpu64/libc-musl.a(__putc.o)
 .debug_loc     0x0000000000005b10      0x366 /opt/microchip/xc32/v4.20/bin/bin/../../lib/gcc/pic32mx/8.3.1/../../../../pic32mx/lib/fpu64/libc-musl.a(__stdio_write.o)
 .debug_loc     0x0000000000005e76       0x47 /opt/microchip/xc32/v4.20/bin/bin/../../lib/gcc/pic32mx/8.3.1/../../../../pic32mx/lib/fpu64/libc-musl.a(__towrite.o)
 .debug_loc     0x0000000000005ebd       0xdb /opt/microchip/xc32/v4.20/bin/bin/../../lib/gcc/pic32mx/8.3.1/../../../../pic32mx/lib/fpu64/libc-musl.a(putc.o)
 .debug_loc     0x0000000000005f98      0x12c /opt/microchip/xc32/v4.20/bin/bin/../../lib/gcc/pic32mx/8.3.1/../../../../pic32mx/lib/fpu64/libc-musl.a(writev.o)
 .debug_loc     0x00000000000060c4       0x9f /opt/microchip/xc32/v4.20/bin/bin/../../lib/gcc/pic32mx/8.3.1/../../../../pic32mx/lib/fpu64/libc-musl.a(__int_vfprintf.o)
 .debug_loc     0x0000000000006163       0x9b /opt/microchip/xc32/v4.20/bin/bin/../../lib/gcc/pic32mx/8.3.1/../../../../pic32mx/lib/fpu64/libc-musl.a(__overflow.o)
 .debug_loc     0x00000000000061fe       0x64 /opt/microchip/xc32/v4.20/bin/bin/../../lib/gcc/pic32mx/8.3.1/../../../../pic32mx/lib/fpu64/libc-musl.a(__fclose.o)
 .debug_loc     0x0000000000006262      0xb85 /opt/microchip/xc32/v4.20/bin/bin/../../lib/gcc/pic32mx/8.3.1/../../../../pic32mx/lib/fpu64/libc-musl.a(__fmt_a.o)
 .debug_loc     0x0000000000006de7       0x6f /opt/microchip/xc32/v4.20/bin/bin/../../lib/gcc/pic32mx/8.3.1/../../../../pic32mx/lib/fpu64/libc-musl.a(__fseeko.o)
 .debug_loc     0x0000000000006e56       0x4a /opt/microchip/xc32/v4.20/bin/bin/../../lib/gcc/pic32mx/8.3.1/../../../../pic32mx/lib/fpu64/libc-musl.a(__ftello.o)
 .debug_loc     0x0000000000006ea0       0xc6 /opt/microchip/xc32/v4.20/bin/bin/../../lib/gcc/pic32mx/8.3.1/../../../../pic32mx/lib/fpu64/libc-musl.a(__fwrite.o)
 .debug_loc     0x0000000000006f66       0x7e /opt/microchip/xc32/v4.20/bin/bin/../../lib/gcc/pic32mx/8.3.1/../../../../pic32mx/lib/fpu64/libm-musl.a(floor.o)
 .debug_loc     0x0000000000006fe4      0xc8c /opt/microchip/xc32/v4.20/bin/bin/../../lib/gcc/pic32mx/8.3.1/../../../../pic32mx/lib/fpu64/libm-musl.a(fma.o)
 .debug_loc     0x0000000000007c70      0x16e /opt/microchip/xc32/v4.20/bin/bin/../../lib/gcc/pic32mx/8.3.1/../../../../pic32mx/lib/fpu64/libm-musl.a(scalbn.o)
 .debug_loc     0x0000000000007dde       0x99 /opt/microchip/xc32/v4.20/bin/bin/../../lib/gcc/pic32mx/8.3.1/fpu64/libgcc.a(_lshrdi3.o)
 .debug_loc     0x0000000000007e77       0x75 /opt/microchip/xc32/v4.20/bin/bin/../../lib/gcc/pic32mx/8.3.1/fpu64/libgcc.a(_ashldi3.o)
 .debug_loc     0x0000000000007eec      0x9f5 /opt/microchip/xc32/v4.20/bin/bin/../../lib/gcc/pic32mx/8.3.1/fpu64/libgcc.a(_udivdi3.o)
 .debug_loc     0x00000000000088e1      0x99a /opt/microchip/xc32/v4.20/bin/bin/../../lib/gcc/pic32mx/8.3.1/fpu64/libgcc.a(_umoddi3.o)
 .debug_loc     0x000000000000927b       0x6c /opt/microchip/xc32/v4.20/bin/bin/../../lib/gcc/pic32mx/8.3.1/../../../../pic32mx/lib/fpu64/libpic32.a(sbrk.o)

.debug_macinfo
 *.elf(.debug_macinfo)
 *(.debug_macinfo)

.debug_weaknames
 *.elf(.debug_weaknames)
 *(.debug_weaknames)

.debug_funcnames
 *.elf(.debug_funcnames)
 *(.debug_funcnames)

.debug_typenames
 *.elf(.debug_typenames)
 *(.debug_typenames)

.debug_varnames
 *.elf(.debug_varnames)
 *(.debug_varnames)

.debug_pubtypes
 *.elf(.debug_pubtypes)
 *(.debug_pubtypes)

.debug_ranges   0x0000000000000000      0xdf0
 *.elf(.debug_ranges)
 *(.debug_ranges)
 .debug_ranges  0x0000000000000000       0xf0 build/pic32mk_mcj_curiosity_pro/production/_ext/1333799919/plib_canfd1.o
 .debug_ranges  0x00000000000000f0       0x10 build/pic32mk_mcj_curiosity_pro/production/_ext/899710619/plib_clk.o
 .debug_ranges  0x0000000000000100       0x78 build/pic32mk_mcj_curiosity_pro/production/_ext/2121194872/plib_dmac.o
 .debug_ranges  0x0000000000000178       0x58 build/pic32mk_mcj_curiosity_pro/production/_ext/2121156184/plib_evic.o
 .debug_ranges  0x00000000000001d0       0x50 build/pic32mk_mcj_curiosity_pro/production/_ext/2121102356/plib_gpio.o
 .debug_ranges  0x0000000000000220       0x40 build/pic32mk_mcj_curiosity_pro/production/_ext/1753921419/plib_spi2_master.o
 .debug_ranges  0x0000000000000260       0xa8 build/pic32mk_mcj_curiosity_pro/production/_ext/2120699413/plib_uart1.o
 .debug_ranges  0x0000000000000308       0x18 build/pic32mk_mcj_curiosity_pro/production/_ext/529947251/xc32_monitor.o
 .debug_ranges  0x0000000000000320       0x10 build/pic32mk_mcj_curiosity_pro/production/_ext/1661106823/initialization.o
 .debug_ranges  0x0000000000000330       0x18 build/pic32mk_mcj_curiosity_pro/production/_ext/1661106823/interrupts.o
 .debug_ranges  0x0000000000000348       0x10 build/pic32mk_mcj_curiosity_pro/production/_ext/1661106823/exceptions.o
 .debug_ranges  0x0000000000000358       0x98 build/pic32mk_mcj_curiosity_pro/production/_ext/1360937237/main_pic32mk_mcj.o
 .debug_ranges  0x00000000000003f0       0x10 /opt/microchip/xc32/v4.20/bin/bin/../../lib/gcc/pic32mx/8.3.1/../../../../pic32mx/lib/fpu64/libpic32.a(default-on-reset.o)
 .debug_ranges  0x0000000000000400       0x10 /opt/microchip/xc32/v4.20/bin/bin/../../lib/gcc/pic32mx/8.3.1/../../../../pic32mx/lib/fpu64/libpic32.a(default-on-bootstrap.o)
 .debug_ranges  0x0000000000000410       0x10 /opt/microchip/xc32/v4.20/bin/bin/../../lib/gcc/pic32mx/8.3.1/../../../../pic32mx/lib/fpu64/libpic32.a(defaultinterrupt.o)
 .debug_ranges  0x0000000000000420       0x18 /opt/microchip/xc32/v4.20/bin/bin/../../lib/gcc/pic32mx/8.3.1/../../../../pic32mx/lib/fpu64/libc-musl.a(__sio_sprintf_dfoux.o)
 .debug_ranges  0x0000000000000438       0x10 /opt/microchip/xc32/v4.20/bin/bin/../../lib/gcc/pic32mx/8.3.1/../../../../pic32mx/lib/fpu64/libc-musl.a(__fmt_d.o)
 .debug_ranges  0x0000000000000448       0x10 /opt/microchip/xc32/v4.20/bin/bin/../../lib/gcc/pic32mx/8.3.1/../../../../pic32mx/lib/fpu64/libc-musl.a(__fmt_fp.o)
 .debug_ranges  0x0000000000000458       0x10 /opt/microchip/xc32/v4.20/bin/bin/../../lib/gcc/pic32mx/8.3.1/../../../../pic32mx/lib/fpu64/libc-musl.a(__fmt_o.o)
 .debug_ranges  0x0000000000000468       0x10 /opt/microchip/xc32/v4.20/bin/bin/../../lib/gcc/pic32mx/8.3.1/../../../../pic32mx/lib/fpu64/libc-musl.a(__fmt_s.o)
 .debug_ranges  0x0000000000000478       0x18 /opt/microchip/xc32/v4.20/bin/bin/../../lib/gcc/pic32mx/8.3.1/../../../../pic32mx/lib/fpu64/libc-musl.a(__fmt_u.o)
 .debug_ranges  0x0000000000000490       0x10 /opt/microchip/xc32/v4.20/bin/bin/../../lib/gcc/pic32mx/8.3.1/../../../../pic32mx/lib/fpu64/libc-musl.a(__fmt_x.o)
 .debug_ranges  0x00000000000004a0       0x10 /opt/microchip/xc32/v4.20/bin/bin/../../lib/gcc/pic32mx/8.3.1/../../../../pic32mx/lib/fpu64/libc-musl.a(__pop_float.o)
 .debug_ranges  0x00000000000004b0       0x10 /opt/microchip/xc32/v4.20/bin/bin/../../lib/gcc/pic32mx/8.3.1/../../../../pic32mx/lib/fpu64/libc-musl.a(__pop_int.o)
 .debug_ranges  0x00000000000004c0       0x10 /opt/microchip/xc32/v4.20/bin/bin/../../lib/gcc/pic32mx/8.3.1/../../../../pic32mx/lib/fpu64/libc-musl.a(__pop_ptr.o)
 .debug_ranges  0x00000000000004d0       0xf8 /opt/microchip/xc32/v4.20/bin/bin/../../lib/gcc/pic32mx/8.3.1/../../../../pic32mx/lib/fpu64/libc-musl.a(__printf_core.o)
 .debug_ranges  0x00000000000005c8       0x18 /opt/microchip/xc32/v4.20/bin/bin/../../lib/gcc/pic32mx/8.3.1/../../../../pic32mx/lib/fpu64/libc-musl.a(stdin.o)
 .debug_ranges  0x00000000000005e0       0x18 /opt/microchip/xc32/v4.20/bin/bin/../../lib/gcc/pic32mx/8.3.1/../../../../pic32mx/lib/fpu64/libc-musl.a(stdout.o)
 .debug_ranges  0x00000000000005f8       0x10 /opt/microchip/xc32/v4.20/bin/bin/../../lib/gcc/pic32mx/8.3.1/../../../../pic32mx/lib/fpu64/libc-musl.a(setbuf.o)
 .debug_ranges  0x0000000000000608       0x10 /opt/microchip/xc32/v4.20/bin/bin/../../lib/gcc/pic32mx/8.3.1/../../../../pic32mx/lib/fpu64/libc-musl.a(vprintf.o)
 .debug_ranges  0x0000000000000618       0x28 /opt/microchip/xc32/v4.20/bin/bin/../../lib/gcc/pic32mx/8.3.1/../../../../pic32mx/lib/fpu64/libc-musl.a(atoi.o)
 .debug_ranges  0x0000000000000640       0x10 /opt/microchip/xc32/v4.20/bin/bin/../../lib/gcc/pic32mx/8.3.1/../../../../pic32mx/lib/fpu64/libc-musl.a(memcpy.o)
 .debug_ranges  0x0000000000000650       0x10 /opt/microchip/xc32/v4.20/bin/bin/../../lib/gcc/pic32mx/8.3.1/../../../../pic32mx/lib/fpu64/libc-musl.a(strcpy.o)
 .debug_ranges  0x0000000000000660       0x18 /opt/microchip/xc32/v4.20/bin/bin/../../lib/gcc/pic32mx/8.3.1/../../../../pic32mx/lib/fpu64/libc-musl.a(tolower.o)
 .debug_ranges  0x0000000000000678       0x18 /opt/microchip/xc32/v4.20/bin/bin/../../lib/gcc/pic32mx/8.3.1/../../../../pic32mx/lib/fpu64/libc-musl.a(toupper.o)
 .debug_ranges  0x0000000000000690       0x10 /opt/microchip/xc32/v4.20/bin/bin/../../lib/gcc/pic32mx/8.3.1/../../../../pic32mx/lib/fpu64/libc-musl.a(__int_vsprintf.o)
 .debug_ranges  0x00000000000006a0       0x20 /opt/microchip/xc32/v4.20/bin/bin/../../lib/gcc/pic32mx/8.3.1/../../../../pic32mx/lib/fpu64/libc-musl.a(__fopen.o)
 .debug_ranges  0x00000000000006c0       0x18 /opt/microchip/xc32/v4.20/bin/bin/../../lib/gcc/pic32mx/8.3.1/../../../../pic32mx/lib/fpu64/libc-musl.a(__io_init_needed.o)
 .debug_ranges  0x00000000000006d8       0x10 /opt/microchip/xc32/v4.20/bin/bin/../../lib/gcc/pic32mx/8.3.1/../../../../pic32mx/lib/fpu64/libc-musl.a(__io_rw_needed.o)
 .debug_ranges  0x00000000000006e8       0x30 /opt/microchip/xc32/v4.20/bin/bin/../../lib/gcc/pic32mx/8.3.1/../../../../pic32mx/lib/fpu64/libc-musl.a(__out.o)
 .debug_ranges  0x0000000000000718       0x18 /opt/microchip/xc32/v4.20/bin/bin/../../lib/gcc/pic32mx/8.3.1/../../../../pic32mx/lib/fpu64/libc-musl.a(__stdio_close.o)
 .debug_ranges  0x0000000000000730       0x10 /opt/microchip/xc32/v4.20/bin/bin/../../lib/gcc/pic32mx/8.3.1/../../../../pic32mx/lib/fpu64/libc-musl.a(__stdio_read.o)
 .debug_ranges  0x0000000000000740       0x10 /opt/microchip/xc32/v4.20/bin/bin/../../lib/gcc/pic32mx/8.3.1/../../../../pic32mx/lib/fpu64/libc-musl.a(__towrite_rw.o)
 .debug_ranges  0x0000000000000750       0x18 /opt/microchip/xc32/v4.20/bin/bin/../../lib/gcc/pic32mx/8.3.1/../../../../pic32mx/lib/fpu64/libc-musl.a(setvbuf.o)
 .debug_ranges  0x0000000000000768       0x18 /opt/microchip/xc32/v4.20/bin/bin/../../lib/gcc/pic32mx/8.3.1/../../../../pic32mx/lib/fpu64/libc-musl.a(vfprintf.o)
 .debug_ranges  0x0000000000000780       0x10 /opt/microchip/xc32/v4.20/bin/bin/../../lib/gcc/pic32mx/8.3.1/../../../../pic32mx/lib/fpu64/libc-musl.a(stpcpy.o)
 .debug_ranges  0x0000000000000790       0x10 /opt/microchip/xc32/v4.20/bin/bin/../../lib/gcc/pic32mx/8.3.1/../../../../pic32mx/lib/fpu64/libc-musl.a(readv.o)
 .debug_ranges  0x00000000000007a0      0x1e8 /opt/microchip/xc32/v4.20/bin/bin/../../lib/gcc/pic32mx/8.3.1/../../../../pic32mx/lib/fpu64/libc-musl.a(malloc.o)
 .debug_ranges  0x0000000000000988       0x10 /opt/microchip/xc32/v4.20/bin/bin/../../lib/gcc/pic32mx/8.3.1/../../../../pic32mx/lib/fpu64/libc-musl.a(expand_heap.o)
 .debug_ranges  0x0000000000000998       0x10 /opt/microchip/xc32/v4.20/bin/bin/../../lib/gcc/pic32mx/8.3.1/../../../../pic32mx/lib/fpu64/libc-musl.a(__int_vsnprintf.o)
 .debug_ranges  0x00000000000009a8       0x10 /opt/microchip/xc32/v4.20/bin/bin/../../lib/gcc/pic32mx/8.3.1/../../../../pic32mx/lib/fpu64/libc-musl.a(__fopen_rw.o)
 .debug_ranges  0x00000000000009b8       0x10 /opt/microchip/xc32/v4.20/bin/bin/../../lib/gcc/pic32mx/8.3.1/../../../../pic32mx/lib/fpu64/libc-musl.a(__ftello_rw.o)
 .debug_ranges  0x00000000000009c8       0x18 /opt/microchip/xc32/v4.20/bin/bin/../../lib/gcc/pic32mx/8.3.1/../../../../pic32mx/lib/fpu64/libc-musl.a(__init_stdio.o)
 .debug_ranges  0x00000000000009e0       0x10 /opt/microchip/xc32/v4.20/bin/bin/../../lib/gcc/pic32mx/8.3.1/../../../../pic32mx/lib/fpu64/libc-musl.a(__io_buf_needed.o)
 .debug_ranges  0x00000000000009f0       0x10 /opt/microchip/xc32/v4.20/bin/bin/../../lib/gcc/pic32mx/8.3.1/../../../../pic32mx/lib/fpu64/libc-musl.a(__io_file_needed.o)
 .debug_ranges  0x0000000000000a00       0x10 /opt/microchip/xc32/v4.20/bin/bin/../../lib/gcc/pic32mx/8.3.1/../../../../pic32mx/lib/fpu64/libc-musl.a(__io_fmt_needed.o)
 .debug_ranges  0x0000000000000a10       0x10 /opt/microchip/xc32/v4.20/bin/bin/../../lib/gcc/pic32mx/8.3.1/../../../../pic32mx/lib/fpu64/libc-musl.a(__io_std_needed.o)
 .debug_ranges  0x0000000000000a20       0x10 /opt/microchip/xc32/v4.20/bin/bin/../../lib/gcc/pic32mx/8.3.1/../../../../pic32mx/lib/fpu64/libc-musl.a(__putc.o)
 .debug_ranges  0x0000000000000a30       0x20 /opt/microchip/xc32/v4.20/bin/bin/../../lib/gcc/pic32mx/8.3.1/../../../../pic32mx/lib/fpu64/libc-musl.a(__stderr.o)
 .debug_ranges  0x0000000000000a50       0x20 /opt/microchip/xc32/v4.20/bin/bin/../../lib/gcc/pic32mx/8.3.1/../../../../pic32mx/lib/fpu64/libc-musl.a(__stdio_exit.o)
 .debug_ranges  0x0000000000000a70       0x18 /opt/microchip/xc32/v4.20/bin/bin/../../lib/gcc/pic32mx/8.3.1/../../../../pic32mx/lib/fpu64/libc-musl.a(__stdio_write.o)
 .debug_ranges  0x0000000000000a88       0x20 /opt/microchip/xc32/v4.20/bin/bin/../../lib/gcc/pic32mx/8.3.1/../../../../pic32mx/lib/fpu64/libc-musl.a(__stdout.o)
 .debug_ranges  0x0000000000000aa8       0x18 /opt/microchip/xc32/v4.20/bin/bin/../../lib/gcc/pic32mx/8.3.1/../../../../pic32mx/lib/fpu64/libc-musl.a(__towrite.o)
 .debug_ranges  0x0000000000000ac0       0x20 /opt/microchip/xc32/v4.20/bin/bin/../../lib/gcc/pic32mx/8.3.1/../../../../pic32mx/lib/fpu64/libc-musl.a(putc.o)
 .debug_ranges  0x0000000000000ae0       0x10 /opt/microchip/xc32/v4.20/bin/bin/../../lib/gcc/pic32mx/8.3.1/../../../../pic32mx/lib/fpu64/libc-musl.a(writev.o)
 .debug_ranges  0x0000000000000af0       0x10 /opt/microchip/xc32/v4.20/bin/bin/../../lib/gcc/pic32mx/8.3.1/../../../../pic32mx/lib/fpu64/libc-musl.a(__int_vfprintf.o)
 .debug_ranges  0x0000000000000b00       0x10 /opt/microchip/xc32/v4.20/bin/bin/../../lib/gcc/pic32mx/8.3.1/../../../../pic32mx/lib/fpu64/libc-musl.a(__overflow.o)
 .debug_ranges  0x0000000000000b10       0x10 /opt/microchip/xc32/v4.20/bin/bin/../../lib/gcc/pic32mx/8.3.1/../../../../pic32mx/lib/fpu64/libc-musl.a(__fclose.o)
 .debug_ranges  0x0000000000000b20       0x10 /opt/microchip/xc32/v4.20/bin/bin/../../lib/gcc/pic32mx/8.3.1/../../../../pic32mx/lib/fpu64/libc-musl.a(__fmt_a.o)
 .debug_ranges  0x0000000000000b30       0x10 /opt/microchip/xc32/v4.20/bin/bin/../../lib/gcc/pic32mx/8.3.1/../../../../pic32mx/lib/fpu64/libc-musl.a(__fseeko.o)
 .debug_ranges  0x0000000000000b40       0x18 /opt/microchip/xc32/v4.20/bin/bin/../../lib/gcc/pic32mx/8.3.1/../../../../pic32mx/lib/fpu64/libc-musl.a(__ftello.o)
 .debug_ranges  0x0000000000000b58       0x18 /opt/microchip/xc32/v4.20/bin/bin/../../lib/gcc/pic32mx/8.3.1/../../../../pic32mx/lib/fpu64/libc-musl.a(__fwrite.o)
 .debug_ranges  0x0000000000000b70       0x10 /opt/microchip/xc32/v4.20/bin/bin/../../lib/gcc/pic32mx/8.3.1/../../../../pic32mx/lib/fpu64/libm-musl.a(floor.o)
 .debug_ranges  0x0000000000000b80       0x78 /opt/microchip/xc32/v4.20/bin/bin/../../lib/gcc/pic32mx/8.3.1/../../../../pic32mx/lib/fpu64/libm-musl.a(fma.o)
 .debug_ranges  0x0000000000000bf8       0x10 /opt/microchip/xc32/v4.20/bin/bin/../../lib/gcc/pic32mx/8.3.1/../../../../pic32mx/lib/fpu64/libm-musl.a(scalbn.o)
 .debug_ranges  0x0000000000000c08       0xd8 /opt/microchip/xc32/v4.20/bin/bin/../../lib/gcc/pic32mx/8.3.1/fpu64/libgcc.a(_udivdi3.o)
 .debug_ranges  0x0000000000000ce0       0xc0 /opt/microchip/xc32/v4.20/bin/bin/../../lib/gcc/pic32mx/8.3.1/fpu64/libgcc.a(_umoddi3.o)
 .debug_ranges  0x0000000000000da0       0x30 /opt/microchip/xc32/v4.20/bin/bin/../../lib/gcc/pic32mx/8.3.1/../../../../pic32mx/lib/fpu64/libpic32.a(sbrk.o)
 .debug_ranges  0x0000000000000dd0       0x10 /opt/microchip/xc32/v4.20/bin/bin/../../lib/gcc/pic32mx/8.3.1/../../../../pic32mx/lib/fpu64/libpic32.a(lseek.o)
 .debug_ranges  0x0000000000000de0       0x10 /opt/microchip/xc32/v4.20/bin/bin/../../lib/gcc/pic32mx/8.3.1/../../../../pic32mx/lib/fpu64/libpic32.a(close.o)

.gnu.attributes
                0x0000000000000000       0x10
 *(.gnu.attributes)
 .gnu.attributes
                0x0000000000000000       0x10 /opt/microchip/xc32/v4.20/bin/bin/../../lib/gcc/pic32mx/8.3.1/../../../../pic32mx/lib/fpu64/debug-exception-return.o
 .gnu.attributes
                0x0000000000000010       0x10 build/pic32mk_mcj_curiosity_pro/production/_ext/1333799919/plib_canfd1.o
 .gnu.attributes
                0x0000000000000020       0x10 build/pic32mk_mcj_curiosity_pro/production/_ext/899710619/plib_clk.o
 .gnu.attributes
                0x0000000000000030       0x10 build/pic32mk_mcj_curiosity_pro/production/_ext/2121194872/plib_dmac.o
 .gnu.attributes
                0x0000000000000040       0x10 build/pic32mk_mcj_curiosity_pro/production/_ext/2121156184/plib_evic.o
 .gnu.attributes
                0x0000000000000050       0x10 build/pic32mk_mcj_curiosity_pro/production/_ext/2121102356/plib_gpio.o
 .gnu.attributes
                0x0000000000000060       0x10 build/pic32mk_mcj_curiosity_pro/production/_ext/1753921419/plib_spi2_master.o
 .gnu.attributes
                0x0000000000000070       0x10 build/pic32mk_mcj_curiosity_pro/production/_ext/2120699413/plib_uart1.o
 .gnu.attributes
                0x0000000000000080       0x10 build/pic32mk_mcj_curiosity_pro/production/_ext/529947251/xc32_monitor.o
 .gnu.attributes
                0x0000000000000090       0x10 build/pic32mk_mcj_curiosity_pro/production/_ext/1661106823/initialization.o
 .gnu.attributes
                0x00000000000000a0       0x10 build/pic32mk_mcj_curiosity_pro/production/_ext/1661106823/interrupts.o
 .gnu.attributes
                0x00000000000000b0       0x10 build/pic32mk_mcj_curiosity_pro/production/_ext/1661106823/exceptions.o
 .gnu.attributes
                0x00000000000000c0       0x10 build/pic32mk_mcj_curiosity_pro/production/_ext/1360937237/main_pic32mk_mcj.o
 .gnu.attributes
                0x00000000000000d0       0x10 /tmp/ccuOZEZr.o
 .gnu.attributes
                0x00000000000000e0       0x10 /tmp/ccDeAxyF.o
 .gnu.attributes
                0x00000000000000f0       0x10 /tmp/ccR5IokX.o
 .gnu.attributes
                0x0000000000000100       0x10 /tmp/ccuumEBo.o
 .gnu.attributes
                0x0000000000000110       0x10 /opt/microchip/xc32/v4.20/bin/bin/../../lib/gcc/pic32mx/8.3.1/../../../../pic32mx/lib/fpu64/pic32_software_reset.o
 .gnu.attributes
                0x0000000000000120       0x10 /opt/microchip/xc32/v4.20/bin/bin/../../lib/gcc/pic32mx/8.3.1/../../../../pic32mx/lib/fpu64/libpic32.a(memset.o)
 .gnu.attributes
                0x0000000000000130       0x10 /opt/microchip/xc32/v4.20/bin/bin/../../lib/gcc/pic32mx/8.3.1/../../../../pic32mx/lib/fpu64/libpic32.a(strlen.o)
 .gnu.attributes
                0x0000000000000140       0x10 /opt/microchip/xc32/v4.20/bin/bin/../../lib/gcc/pic32mx/8.3.1/../../../../pic32mx/lib/fpu64/libpic32.a(default-on-reset.o)
 .gnu.attributes
                0x0000000000000150       0x10 /opt/microchip/xc32/v4.20/bin/bin/../../lib/gcc/pic32mx/8.3.1/../../../../pic32mx/lib/fpu64/libpic32.a(default-on-bootstrap.o)
 .gnu.attributes
                0x0000000000000160       0x10 /opt/microchip/xc32/v4.20/bin/bin/../../lib/gcc/pic32mx/8.3.1/../../../../pic32mx/lib/fpu64/libpic32.a(default-nmi-handler.o)
 .gnu.attributes
                0x0000000000000170       0x10 /opt/microchip/xc32/v4.20/bin/bin/../../lib/gcc/pic32mx/8.3.1/../../../../pic32mx/lib/fpu64/libpic32.a(pic32_data_init_wrapper.o)
 .gnu.attributes
                0x0000000000000180       0x10 /opt/microchip/xc32/v4.20/bin/bin/../../lib/gcc/pic32mx/8.3.1/../../../../pic32mx/lib/fpu64/libpic32.a(pic32_data_init_0_1.o)
 .gnu.attributes
                0x0000000000000190       0x10 /opt/microchip/xc32/v4.20/bin/bin/../../lib/gcc/pic32mx/8.3.1/../../../../pic32mx/lib/fpu64/libpic32.a(general-exception.o)
 .gnu.attributes
                0x00000000000001a0       0x10 /opt/microchip/xc32/v4.20/bin/bin/../../lib/gcc/pic32mx/8.3.1/../../../../pic32mx/lib/fpu64/libpic32.a(defaultinterrupt.o)
 .gnu.attributes
                0x00000000000001b0       0x10 /opt/microchip/xc32/v4.20/bin/bin/../../lib/gcc/pic32mx/8.3.1/../../../../pic32mx/lib/fpu64/libc-musl.a(__sio_sprintf_dfoux.o)
 .gnu.attributes
                0x00000000000001c0       0x10 /opt/microchip/xc32/v4.20/bin/bin/../../lib/gcc/pic32mx/8.3.1/../../../../pic32mx/lib/fpu64/libc-musl.a(__fmt_d.o)
 .gnu.attributes
                0x00000000000001d0       0x10 /opt/microchip/xc32/v4.20/bin/bin/../../lib/gcc/pic32mx/8.3.1/../../../../pic32mx/lib/fpu64/libc-musl.a(__fmt_fp.o)
 .gnu.attributes
                0x00000000000001e0       0x10 /opt/microchip/xc32/v4.20/bin/bin/../../lib/gcc/pic32mx/8.3.1/../../../../pic32mx/lib/fpu64/libc-musl.a(__fmt_o.o)
 .gnu.attributes
                0x00000000000001f0       0x10 /opt/microchip/xc32/v4.20/bin/bin/../../lib/gcc/pic32mx/8.3.1/../../../../pic32mx/lib/fpu64/libc-musl.a(__fmt_s.o)
 .gnu.attributes
                0x0000000000000200       0x10 /opt/microchip/xc32/v4.20/bin/bin/../../lib/gcc/pic32mx/8.3.1/../../../../pic32mx/lib/fpu64/libc-musl.a(__fmt_u.o)
 .gnu.attributes
                0x0000000000000210       0x10 /opt/microchip/xc32/v4.20/bin/bin/../../lib/gcc/pic32mx/8.3.1/../../../../pic32mx/lib/fpu64/libc-musl.a(__fmt_x.o)
 .gnu.attributes
                0x0000000000000220       0x10 /opt/microchip/xc32/v4.20/bin/bin/../../lib/gcc/pic32mx/8.3.1/../../../../pic32mx/lib/fpu64/libc-musl.a(__pop_float.o)
 .gnu.attributes
                0x0000000000000230       0x10 /opt/microchip/xc32/v4.20/bin/bin/../../lib/gcc/pic32mx/8.3.1/../../../../pic32mx/lib/fpu64/libc-musl.a(__pop_int.o)
 .gnu.attributes
                0x0000000000000240       0x10 /opt/microchip/xc32/v4.20/bin/bin/../../lib/gcc/pic32mx/8.3.1/../../../../pic32mx/lib/fpu64/libc-musl.a(__pop_ptr.o)
 .gnu.attributes
                0x0000000000000250       0x10 /opt/microchip/xc32/v4.20/bin/bin/../../lib/gcc/pic32mx/8.3.1/../../../../pic32mx/lib/fpu64/libc-musl.a(__printf_core.o)
 .gnu.attributes
                0x0000000000000260       0x10 /opt/microchip/xc32/v4.20/bin/bin/../../lib/gcc/pic32mx/8.3.1/../../../../pic32mx/lib/fpu64/libc-musl.a(stdin.o)
 .gnu.attributes
                0x0000000000000270       0x10 /opt/microchip/xc32/v4.20/bin/bin/../../lib/gcc/pic32mx/8.3.1/../../../../pic32mx/lib/fpu64/libc-musl.a(stdout.o)
 .gnu.attributes
                0x0000000000000280       0x10 /opt/microchip/xc32/v4.20/bin/bin/../../lib/gcc/pic32mx/8.3.1/../../../../pic32mx/lib/fpu64/libc-musl.a(setbuf.o)
 .gnu.attributes
                0x0000000000000290       0x10 /opt/microchip/xc32/v4.20/bin/bin/../../lib/gcc/pic32mx/8.3.1/../../../../pic32mx/lib/fpu64/libc-musl.a(vprintf.o)
 .gnu.attributes
                0x00000000000002a0       0x10 /opt/microchip/xc32/v4.20/bin/bin/../../lib/gcc/pic32mx/8.3.1/../../../../pic32mx/lib/fpu64/libc-musl.a(atoi.o)
 .gnu.attributes
                0x00000000000002b0       0x10 /opt/microchip/xc32/v4.20/bin/bin/../../lib/gcc/pic32mx/8.3.1/../../../../pic32mx/lib/fpu64/libc-musl.a(memcpy.o)
 .gnu.attributes
                0x00000000000002c0       0x10 /opt/microchip/xc32/v4.20/bin/bin/../../lib/gcc/pic32mx/8.3.1/../../../../pic32mx/lib/fpu64/libc-musl.a(strcpy.o)
 .gnu.attributes
                0x00000000000002d0       0x10 /opt/microchip/xc32/v4.20/bin/bin/../../lib/gcc/pic32mx/8.3.1/../../../../pic32mx/lib/fpu64/libc-musl.a(tolower.o)
 .gnu.attributes
                0x00000000000002e0       0x10 /opt/microchip/xc32/v4.20/bin/bin/../../lib/gcc/pic32mx/8.3.1/../../../../pic32mx/lib/fpu64/libc-musl.a(toupper.o)
 .gnu.attributes
                0x00000000000002f0       0x10 /opt/microchip/xc32/v4.20/bin/bin/../../lib/gcc/pic32mx/8.3.1/../../../../pic32mx/lib/fpu64/libc-musl.a(__int_vsprintf.o)
 .gnu.attributes
                0x0000000000000300       0x10 /opt/microchip/xc32/v4.20/bin/bin/../../lib/gcc/pic32mx/8.3.1/../../../../pic32mx/lib/fpu64/libc-musl.a(__fopen.o)
 .gnu.attributes
                0x0000000000000310       0x10 /opt/microchip/xc32/v4.20/bin/bin/../../lib/gcc/pic32mx/8.3.1/../../../../pic32mx/lib/fpu64/libc-musl.a(__io_init_needed.o)
 .gnu.attributes
                0x0000000000000320       0x10 /opt/microchip/xc32/v4.20/bin/bin/../../lib/gcc/pic32mx/8.3.1/../../../../pic32mx/lib/fpu64/libc-musl.a(__io_rw_needed.o)
 .gnu.attributes
                0x0000000000000330       0x10 /opt/microchip/xc32/v4.20/bin/bin/../../lib/gcc/pic32mx/8.3.1/../../../../pic32mx/lib/fpu64/libc-musl.a(__out.o)
 .gnu.attributes
                0x0000000000000340       0x10 /opt/microchip/xc32/v4.20/bin/bin/../../lib/gcc/pic32mx/8.3.1/../../../../pic32mx/lib/fpu64/libc-musl.a(__stdio_close.o)
 .gnu.attributes
                0x0000000000000350       0x10 /opt/microchip/xc32/v4.20/bin/bin/../../lib/gcc/pic32mx/8.3.1/../../../../pic32mx/lib/fpu64/libc-musl.a(__stdio_read.o)
 .gnu.attributes
                0x0000000000000360       0x10 /opt/microchip/xc32/v4.20/bin/bin/../../lib/gcc/pic32mx/8.3.1/../../../../pic32mx/lib/fpu64/libc-musl.a(__towrite_rw.o)
 .gnu.attributes
                0x0000000000000370       0x10 /opt/microchip/xc32/v4.20/bin/bin/../../lib/gcc/pic32mx/8.3.1/../../../../pic32mx/lib/fpu64/libc-musl.a(setvbuf.o)
 .gnu.attributes
                0x0000000000000380       0x10 /opt/microchip/xc32/v4.20/bin/bin/../../lib/gcc/pic32mx/8.3.1/../../../../pic32mx/lib/fpu64/libc-musl.a(vfprintf.o)
 .gnu.attributes
                0x0000000000000390       0x10 /opt/microchip/xc32/v4.20/bin/bin/../../lib/gcc/pic32mx/8.3.1/../../../../pic32mx/lib/fpu64/libc-musl.a(stpcpy.o)
 .gnu.attributes
                0x00000000000003a0       0x10 /opt/microchip/xc32/v4.20/bin/bin/../../lib/gcc/pic32mx/8.3.1/../../../../pic32mx/lib/fpu64/libc-musl.a(readv.o)
 .gnu.attributes
                0x00000000000003b0       0x10 /opt/microchip/xc32/v4.20/bin/bin/../../lib/gcc/pic32mx/8.3.1/../../../../pic32mx/lib/fpu64/libc-musl.a(malloc.o)
 .gnu.attributes
                0x00000000000003c0       0x10 /opt/microchip/xc32/v4.20/bin/bin/../../lib/gcc/pic32mx/8.3.1/../../../../pic32mx/lib/fpu64/libc-musl.a(expand_heap.o)
 .gnu.attributes
                0x00000000000003d0       0x10 /opt/microchip/xc32/v4.20/bin/bin/../../lib/gcc/pic32mx/8.3.1/../../../../pic32mx/lib/fpu64/libc-musl.a(__int_vsnprintf.o)
 .gnu.attributes
                0x00000000000003e0       0x10 /opt/microchip/xc32/v4.20/bin/bin/../../lib/gcc/pic32mx/8.3.1/../../../../pic32mx/lib/fpu64/libc-musl.a(__fopen_rw.o)
 .gnu.attributes
                0x00000000000003f0       0x10 /opt/microchip/xc32/v4.20/bin/bin/../../lib/gcc/pic32mx/8.3.1/../../../../pic32mx/lib/fpu64/libc-musl.a(__ftello_rw.o)
 .gnu.attributes
                0x0000000000000400       0x10 /opt/microchip/xc32/v4.20/bin/bin/../../lib/gcc/pic32mx/8.3.1/../../../../pic32mx/lib/fpu64/libc-musl.a(__init_stdio.o)
 .gnu.attributes
                0x0000000000000410       0x10 /opt/microchip/xc32/v4.20/bin/bin/../../lib/gcc/pic32mx/8.3.1/../../../../pic32mx/lib/fpu64/libc-musl.a(__io_buf_needed.o)
 .gnu.attributes
                0x0000000000000420       0x10 /opt/microchip/xc32/v4.20/bin/bin/../../lib/gcc/pic32mx/8.3.1/../../../../pic32mx/lib/fpu64/libc-musl.a(__io_file_needed.o)
 .gnu.attributes
                0x0000000000000430       0x10 /opt/microchip/xc32/v4.20/bin/bin/../../lib/gcc/pic32mx/8.3.1/../../../../pic32mx/lib/fpu64/libc-musl.a(__io_fmt_needed.o)
 .gnu.attributes
                0x0000000000000440       0x10 /opt/microchip/xc32/v4.20/bin/bin/../../lib/gcc/pic32mx/8.3.1/../../../../pic32mx/lib/fpu64/libc-musl.a(__io_std_needed.o)
 .gnu.attributes
                0x0000000000000450       0x10 /opt/microchip/xc32/v4.20/bin/bin/../../lib/gcc/pic32mx/8.3.1/../../../../pic32mx/lib/fpu64/libc-musl.a(__putc.o)
 .gnu.attributes
                0x0000000000000460       0x10 /opt/microchip/xc32/v4.20/bin/bin/../../lib/gcc/pic32mx/8.3.1/../../../../pic32mx/lib/fpu64/libc-musl.a(__stderr.o)
 .gnu.attributes
                0x0000000000000470       0x10 /opt/microchip/xc32/v4.20/bin/bin/../../lib/gcc/pic32mx/8.3.1/../../../../pic32mx/lib/fpu64/libc-musl.a(__stdio_exit.o)
 .gnu.attributes
                0x0000000000000480       0x10 /opt/microchip/xc32/v4.20/bin/bin/../../lib/gcc/pic32mx/8.3.1/../../../../pic32mx/lib/fpu64/libc-musl.a(__stdio_write.o)
 .gnu.attributes
                0x0000000000000490       0x10 /opt/microchip/xc32/v4.20/bin/bin/../../lib/gcc/pic32mx/8.3.1/../../../../pic32mx/lib/fpu64/libc-musl.a(__stdout.o)
 .gnu.attributes
                0x00000000000004a0       0x10 /opt/microchip/xc32/v4.20/bin/bin/../../lib/gcc/pic32mx/8.3.1/../../../../pic32mx/lib/fpu64/libc-musl.a(__towrite.o)
 .gnu.attributes
                0x00000000000004b0       0x10 /opt/microchip/xc32/v4.20/bin/bin/../../lib/gcc/pic32mx/8.3.1/../../../../pic32mx/lib/fpu64/libc-musl.a(putc.o)
 .gnu.attributes
                0x00000000000004c0       0x10 /opt/microchip/xc32/v4.20/bin/bin/../../lib/gcc/pic32mx/8.3.1/../../../../pic32mx/lib/fpu64/libc-musl.a(writev.o)
 .gnu.attributes
                0x00000000000004d0       0x10 /opt/microchip/xc32/v4.20/bin/bin/../../lib/gcc/pic32mx/8.3.1/../../../../pic32mx/lib/fpu64/libc-musl.a(libc.o)
 .gnu.attributes
                0x00000000000004e0       0x10 /opt/microchip/xc32/v4.20/bin/bin/../../lib/gcc/pic32mx/8.3.1/../../../../pic32mx/lib/fpu64/libc-musl.a(__int_vfprintf.o)
 .gnu.attributes
                0x00000000000004f0       0x10 /opt/microchip/xc32/v4.20/bin/bin/../../lib/gcc/pic32mx/8.3.1/../../../../pic32mx/lib/fpu64/libc-musl.a(__overflow.o)
 .gnu.attributes
                0x0000000000000500       0x10 /opt/microchip/xc32/v4.20/bin/bin/../../lib/gcc/pic32mx/8.3.1/../../../../pic32mx/lib/fpu64/libc-musl.a(__fclose.o)
 .gnu.attributes
                0x0000000000000510       0x10 /opt/microchip/xc32/v4.20/bin/bin/../../lib/gcc/pic32mx/8.3.1/../../../../pic32mx/lib/fpu64/libc-musl.a(__fmt_a.o)
 .gnu.attributes
                0x0000000000000520       0x10 /opt/microchip/xc32/v4.20/bin/bin/../../lib/gcc/pic32mx/8.3.1/../../../../pic32mx/lib/fpu64/libc-musl.a(__fseeko.o)
 .gnu.attributes
                0x0000000000000530       0x10 /opt/microchip/xc32/v4.20/bin/bin/../../lib/gcc/pic32mx/8.3.1/../../../../pic32mx/lib/fpu64/libc-musl.a(__ftello.o)
 .gnu.attributes
                0x0000000000000540       0x10 /opt/microchip/xc32/v4.20/bin/bin/../../lib/gcc/pic32mx/8.3.1/../../../../pic32mx/lib/fpu64/libc-musl.a(__fwrite.o)
 .gnu.attributes
                0x0000000000000550       0x10 /opt/microchip/xc32/v4.20/bin/bin/../../lib/gcc/pic32mx/8.3.1/../../../../pic32mx/lib/fpu64/libm-musl.a(floor.o)
 .gnu.attributes
                0x0000000000000560       0x10 /opt/microchip/xc32/v4.20/bin/bin/../../lib/gcc/pic32mx/8.3.1/../../../../pic32mx/lib/fpu64/libm-musl.a(fma.o)
 .gnu.attributes
                0x0000000000000570       0x10 /opt/microchip/xc32/v4.20/bin/bin/../../lib/gcc/pic32mx/8.3.1/../../../../pic32mx/lib/fpu64/libm-musl.a(scalbn.o)
 .gnu.attributes
                0x0000000000000580       0x10 /opt/microchip/xc32/v4.20/bin/bin/../../lib/gcc/pic32mx/8.3.1/fpu64/libgcc.a(_lshrdi3.o)
 .gnu.attributes
                0x0000000000000590       0x10 /opt/microchip/xc32/v4.20/bin/bin/../../lib/gcc/pic32mx/8.3.1/fpu64/libgcc.a(_ashldi3.o)
 .gnu.attributes
                0x00000000000005a0       0x10 /opt/microchip/xc32/v4.20/bin/bin/../../lib/gcc/pic32mx/8.3.1/fpu64/libgcc.a(_udivdi3.o)
 .gnu.attributes
                0x00000000000005b0       0x10 /opt/microchip/xc32/v4.20/bin/bin/../../lib/gcc/pic32mx/8.3.1/fpu64/libgcc.a(_umoddi3.o)
 .gnu.attributes
                0x00000000000005c0       0x10 /opt/microchip/xc32/v4.20/bin/bin/../../lib/gcc/pic32mx/8.3.1/../../../../pic32mx/lib/fpu64/libpic32.a(sbrk.o)
 .gnu.attributes
                0x00000000000005d0       0x10 /opt/microchip/xc32/v4.20/bin/bin/../../lib/gcc/pic32mx/8.3.1/../../../../pic32mx/lib/fpu64/libpic32.a(lseek.o)
 .gnu.attributes
                0x00000000000005e0       0x10 /opt/microchip/xc32/v4.20/bin/bin/../../lib/gcc/pic32mx/8.3.1/../../../../pic32mx/lib/fpu64/libpic32.a(close.o)
 .gnu.attributes
                0x00000000000005f0       0x10 /opt/microchip/xc32/v4.20/bin/bin/../../lib/gcc/pic32mx/8.3.1/../../../../pic32mx/lib/fpu64/libpic32.a(errno.o)
                0x0000000000000200                _min_heap_size = 0x200
LOAD /tmp/ccuOZEZr.o
LOAD /tmp/ccDeAxyF.o
LOAD /tmp/ccR5IokX.o
LOAD /tmp/ccuumEBo.o
LOAD /opt/microchip/xc32/v4.20/bin/bin/../../lib/gcc/pic32mx/8.3.1/../../../../pic32mx/lib/fpu64/pic32_software_reset.o
LOAD /opt/microchip/xc32/v4.20/bin/bin/../../lib/gcc/pic32mx/8.3.1/fpu64/libgcc.a
START GROUP
LOAD /opt/microchip/xc32/v4.20/bin/bin/../../lib/gcc/pic32mx/8.3.1/../../../../pic32mx/lib/fpu64/libpic32.a
LOAD /opt/microchip/xc32/v4.20/bin/bin/../../lib/gcc/pic32mx/8.3.1/../../../../pic32mx/lib/fpu64/libdebug.a
LOAD /opt/microchip/xc32/v4.20/bin/bin/../../lib/gcc/pic32mx/8.3.1/../../../../pic32mx/lib/fpu64/libc-musl.a
LOAD /opt/microchip/xc32/v4.20/bin/bin/../../lib/gcc/pic32mx/8.3.1/../../../../pic32mx/lib/fpu64/libm-musl.a
LOAD /opt/microchip/xc32/v4.20/bin/bin/../../lib/gcc/pic32mx/8.3.1/../../../../pic32mx/lib/fpu64/libdspr2.a
LOAD /opt/microchip/xc32/v4.20/bin/bin/../../lib/gcc/pic32mx/8.3.1/../../../../pic32mx/lib/fpu64/libdsp.a
LOAD /opt/microchip/xc32/v4.20/bin/bin/../../lib/gcc/pic32mx/8.3.1/fpu64/libgcc.a
END GROUP
LOAD /opt/microchip/xc32/v4.20/bin/bin/../../lib/gcc/pic32mx/8.3.1/fpu64/libgcc.a
OUTPUT(dist/pic32mk_mcj_curiosity_pro/production/pic32mk_mcj_curiosity_pro.X.production.elf elf32-tradlittlemips)
LOAD stack
LOAD data_init

.reginfo        0x0000000000000000       0x18
 .reginfo       0x0000000000000000       0x18 /opt/microchip/xc32/v4.20/bin/bin/../../lib/gcc/pic32mx/8.3.1/../../../../pic32mx/lib/fpu64/debug-exception-return.o

__xc_reference_data
                0x0000000000000000      0x38c
 __xc_reference_data
                0x0000000000000000       0x24 /opt/microchip/xc32/v4.20/bin/bin/../../lib/gcc/pic32mx/8.3.1/../../../../pic32mx/lib/fpu64/libc-musl.a(stdin.o)
                0x0000000000000000                __stdin_needs_rw
 __xc_reference_data
                0x0000000000000024       0x24 /opt/microchip/xc32/v4.20/bin/bin/../../lib/gcc/pic32mx/8.3.1/../../../../pic32mx/lib/fpu64/libc-musl.a(stdout.o)
                0x0000000000000024                __stdout_needs_init
 __xc_reference_data
                0x0000000000000048       0x48 /opt/microchip/xc32/v4.20/bin/bin/../../lib/gcc/pic32mx/8.3.1/../../../../pic32mx/lib/fpu64/libc-musl.a(__io_init_needed.o)
                0x0000000000000048                __io_init_needed
                0x000000000000006c                __io_init_needs_file
 __xc_reference_data
                0x0000000000000090       0x54 /opt/microchip/xc32/v4.20/bin/bin/../../lib/gcc/pic32mx/8.3.1/../../../../pic32mx/lib/fpu64/libc-musl.a(__io_rw_needed.o)
                0x0000000000000090                __io_rw_needed
 __xc_reference_data
                0x00000000000000e4       0x24 /opt/microchip/xc32/v4.20/bin/bin/../../lib/gcc/pic32mx/8.3.1/../../../../pic32mx/lib/fpu64/libc-musl.a(setvbuf.o)
                0x00000000000000e4                __setvbuf_needs_buf
 __xc_reference_data
                0x0000000000000108       0x24 /opt/microchip/xc32/v4.20/bin/bin/../../lib/gcc/pic32mx/8.3.1/../../../../pic32mx/lib/fpu64/libc-musl.a(vfprintf.o)
                0x0000000000000108                __vfprintf_needs_fmt
 __xc_reference_data
                0x000000000000012c       0x84 /opt/microchip/xc32/v4.20/bin/bin/../../lib/gcc/pic32mx/8.3.1/../../../../pic32mx/lib/fpu64/libc-musl.a(__io_buf_needed.o)
                0x000000000000012c                __io_buf_needed
 __xc_reference_data
                0x00000000000001b0       0x24 /opt/microchip/xc32/v4.20/bin/bin/../../lib/gcc/pic32mx/8.3.1/../../../../pic32mx/lib/fpu64/libc-musl.a(__io_file_needed.o)
                0x00000000000001b0                __io_file_needed
 __xc_reference_data
                0x00000000000001d4       0xb4 /opt/microchip/xc32/v4.20/bin/bin/../../lib/gcc/pic32mx/8.3.1/../../../../pic32mx/lib/fpu64/libc-musl.a(__io_fmt_needed.o)
                0x00000000000001d4                __io_fmt_needed
 __xc_reference_data
                0x0000000000000288       0x74 /opt/microchip/xc32/v4.20/bin/bin/../../lib/gcc/pic32mx/8.3.1/../../../../pic32mx/lib/fpu64/libc-musl.a(__io_std_needed.o)
                0x0000000000000288                __io_std_needed
 __xc_reference_data
                0x00000000000002fc       0x24 /opt/microchip/xc32/v4.20/bin/bin/../../lib/gcc/pic32mx/8.3.1/../../../../pic32mx/lib/fpu64/libc-musl.a(__stderr.o)
                0x00000000000002fc                __stderr_needs_file
 __xc_reference_data
                0x0000000000000320       0x24 /opt/microchip/xc32/v4.20/bin/bin/../../lib/gcc/pic32mx/8.3.1/../../../../pic32mx/lib/fpu64/libc-musl.a(__stdout.o)
                0x0000000000000320                __stdout_needs_file
 __xc_reference_data
                0x0000000000000344       0x24 /opt/microchip/xc32/v4.20/bin/bin/../../lib/gcc/pic32mx/8.3.1/../../../../pic32mx/lib/fpu64/libc-musl.a(putc.o)
                0x0000000000000344                __putc_needs_out
 __xc_reference_data
                0x0000000000000368       0x24 /opt/microchip/xc32/v4.20/bin/bin/../../lib/gcc/pic32mx/8.3.1/../../../../pic32mx/lib/fpu64/libc-musl.a(__fwrite.o)
                0x0000000000000368                __fwrite_needs_std

.stack          0x00000000800023f0      0x400
 .stack         0x00000000800023f0      0x400 stack

.__vector_offset_BF8106B8_data
                0x00000000bf8106b8       0x80
 .__vector_offset_BF8106B8_data
                0x00000000bf8106b8       0x80 /tmp/ccR5IokX.o

.__vector_offset_BF810540_data
                0x00000000bf810540       0x70
 .__vector_offset_BF810540_data
                0x00000000bf810540       0x70 /tmp/ccR5IokX.o

.__vector_offset_BF81065C_data
                0x00000000bf81065c       0x58
 .__vector_offset_BF81065C_data
                0x00000000bf81065c       0x58 /tmp/ccR5IokX.o

.__vector_offset_BF8105CC_data
                0x00000000bf8105cc       0x40
 .__vector_offset_BF8105CC_data
                0x00000000bf8105cc       0x40 /tmp/ccR5IokX.o

.__vector_offset_BF8107A0_data
                0x00000000bf8107a0       0x2c
 .__vector_offset_BF8107A0_data
                0x00000000bf8107a0       0x2c /tmp/ccR5IokX.o

.__vector_offset_BF8107E4_data
                0x00000000bf8107e4       0x28
 .__vector_offset_BF8107E4_data
                0x00000000bf8107e4       0x28 /tmp/ccR5IokX.o

.__vector_offset_BF810614_data
                0x00000000bf810614       0x24
 .__vector_offset_BF810614_data
                0x00000000bf810614       0x24 /tmp/ccR5IokX.o

.__vector_offset_BF8105B8_data
                0x00000000bf8105b8       0x10
 .__vector_offset_BF8105B8_data
                0x00000000bf8105b8       0x10 /tmp/ccR5IokX.o

.__vector_offset_BF810748_data
                0x00000000bf810748       0x10
 .__vector_offset_BF810748_data
                0x00000000bf810748       0x10 /tmp/ccR5IokX.o

.__vector_offset_BF810818_data
                0x00000000bf810818       0x10
 .__vector_offset_BF810818_data
                0x00000000bf810818       0x10 /tmp/ccR5IokX.o

.__vector_offset_BF810924_data
                0x00000000bf810924       0x10
 .__vector_offset_BF810924_data
                0x00000000bf810924       0x10 /tmp/ccR5IokX.o

.__vector_offset_BF8108F8_data
                0x00000000bf8108f8        0xc
 .__vector_offset_BF8108F8_data
                0x00000000bf8108f8        0xc /tmp/ccR5IokX.o

.__vector_offset_BF810914_data
                0x00000000bf810914        0xc
 .__vector_offset_BF810914_data
                0x00000000bf810914        0xc /tmp/ccR5IokX.o

.__vector_offset_BF810788_data
                0x00000000bf810788        0x8
 .__vector_offset_BF810788_data
                0x00000000bf810788        0x8 /tmp/ccR5IokX.o

.__vector_offset_BF810938_data
                0x00000000bf810938        0x8
 .__vector_offset_BF810938_data
                0x00000000bf810938        0x8 /tmp/ccR5IokX.o

.__vector_offset_BF8107DC_data
                0x00000000bf8107dc        0x4
 .__vector_offset_BF8107DC_data
                0x00000000bf8107dc        0x4 /tmp/ccR5IokX.o

.__vector_offset_BF810834_data
                0x00000000bf810834        0x4
 .__vector_offset_BF810834_data
                0x00000000bf810834        0x4 /tmp/ccR5IokX.o

.__vector_offset_BF8108D8_data
                0x00000000bf8108d8        0x4
 .__vector_offset_BF8108D8_data
                0x00000000bf8108d8        0x4 /tmp/ccR5IokX.o

.data           0x000000008000005c       0xd0
 .data          0x000000008000005c       0x68 /opt/microchip/xc32/v4.20/bin/bin/../../lib/gcc/pic32mx/8.3.1/../../../../pic32mx/lib/fpu64/libc-musl.a(stdin.o)
                0x000000008000005c                __stdin_used
 .data          0x00000000800000c4       0x68 /opt/microchip/xc32/v4.20/bin/bin/../../lib/gcc/pic32mx/8.3.1/../../../../pic32mx/lib/fpu64/libc-musl.a(stdout.o)
                0x00000000800000c4                __stdout_used

.data._stdin    0x000000008000012c        0x4
 .data._stdin   0x000000008000012c        0x4 /opt/microchip/xc32/v4.20/bin/bin/../../lib/gcc/pic32mx/8.3.1/../../../../pic32mx/lib/fpu64/libc-musl.a(stdin.o)
                0x000000008000012c                _stdin

.data._stdout   0x0000000080000130        0x4
 .data._stdout  0x0000000080000130        0x4 /opt/microchip/xc32/v4.20/bin/bin/../../lib/gcc/pic32mx/8.3.1/../../../../pic32mx/lib/fpu64/libc-musl.a(stdout.o)
                0x0000000080000130                _stdout

.bss.can_message_buffer
                0x00000000a0000140     0x12d4
 .bss.can_message_buffer
                0x00000000a0000140     0x12d4 build/pic32mk_mcj_curiosity_pro/production/_ext/1333799919/plib_canfd1.o

.bss            0x0000000080001414      0x920
 .bss           0x0000000080001414      0x518 build/pic32mk_mcj_curiosity_pro/production/_ext/1333799919/plib_canfd1.o
 .bss           0x000000008000192c      0x408 /opt/microchip/xc32/v4.20/bin/bin/../../lib/gcc/pic32mx/8.3.1/../../../../pic32mx/lib/fpu64/libc-musl.a(stdin.o)

.bss            0x0000000080001d38      0x390
 .bss           0x0000000080001d38      0x210 /opt/microchip/xc32/v4.20/bin/bin/../../lib/gcc/pic32mx/8.3.1/../../../../pic32mx/lib/fpu64/libc-musl.a(malloc.o)
 .bss           0x0000000080001f48      0x180 build/pic32mk_mcj_curiosity_pro/production/_ext/1360937237/main_pic32mk_mcj.o
                0x0000000080001f48                uart_buffer

.bss            0x00000000800020c8       0xe4
 .bss           0x00000000800020c8       0x94 build/pic32mk_mcj_curiosity_pro/production/_ext/2121194872/plib_dmac.o
 .bss           0x000000008000215c       0x50 /opt/microchip/xc32/v4.20/bin/bin/../../lib/gcc/pic32mx/8.3.1/../../../../pic32mx/lib/fpu64/libc-musl.a(libc.o)
                0x000000008000215c                __progname_full
                0x000000008000215c                program_invocation_name
                0x0000000080002160                __progname
                0x0000000080002160                program_invocation_short_name
                0x0000000080002164                __sysinfo
                0x0000000080002168                __hwcap
                0x000000008000216c                __libc

.bss            0x00000000800021ac       0x24
 .bss           0x00000000800021ac       0x24 /opt/microchip/xc32/v4.20/bin/bin/../../lib/gcc/pic32mx/8.3.1/../../../../pic32mx/lib/fpu64/libpic32.a(sbrk.o)
                0x00000000800021c8                _maxbrk
                0x00000000800021cc                _minbrk

.bss.errno      0x0000000080001d34        0x4
 .bss.errno     0x0000000080001d34        0x4 /opt/microchip/xc32/v4.20/bin/bin/../../lib/gcc/pic32mx/8.3.1/../../../../pic32mx/lib/fpu64/libpic32.a(errno.o)
                0x0000000080001d34                errno

._debug_exception
                0x00000000bfc00480       0x2c
 ._debug_exception
                0x00000000bfc00480       0x2c /opt/microchip/xc32/v4.20/bin/bin/../../lib/gcc/pic32mx/8.3.1/../../../../pic32mx/lib/fpu64/debug-exception-return.o
                0x00000000bfc00480                __DbgExecReturn

.text.__fmt_fp  0x000000009d000258      0x6d0
 .text.__fmt_fp
                0x000000009d000258      0x6d0 /opt/microchip/xc32/v4.20/bin/bin/../../lib/gcc/pic32mx/8.3.1/../../../../pic32mx/lib/fpu64/libc-musl.a(__fmt_fp.o)
                0x000000009d000258                __fmt_f_needed
                0x000000009d000258                __fmt_fp

.text.fma       0x000000009d000928      0x678
 .text.fma      0x000000009d000928      0x678 /opt/microchip/xc32/v4.20/bin/bin/../../lib/gcc/pic32mx/8.3.1/../../../../pic32mx/lib/fpu64/libm-musl.a(fma.o)
                0x000000009d000928                fma

.text.__fmt_a   0x000000009d000fa0      0x628
 .text.__fmt_a  0x000000009d000fa0      0x628 /opt/microchip/xc32/v4.20/bin/bin/../../lib/gcc/pic32mx/8.3.1/../../../../pic32mx/lib/fpu64/libc-musl.a(__fmt_a.o)
                0x000000009d000fa0                __fmt_a_needed
                0x000000009d000fa0                __fmt_a

.dinit          0x000000009d0015c8      0x5e0
 .dinit         0x000000009d0015c8      0x5e0 data_init

.text.main      0x000000009d001ba8      0x5a4
 .text.main     0x000000009d001ba8      0x5a4 build/pic32mk_mcj_curiosity_pro/production/_ext/1360937237/main_pic32mk_mcj.o
                0x000000009d001ba8                main

.text.__printf_core
                0x000000009d00214c      0x580
 .text.__printf_core
                0x000000009d00214c      0x580 /opt/microchip/xc32/v4.20/bin/bin/../../lib/gcc/pic32mx/8.3.1/../../../../pic32mx/lib/fpu64/libc-musl.a(__printf_core.o)
                0x000000009d00214c                __printf_core

.text           0x000000009d0026cc      0x774
 .text          0x000000009d0026cc      0x3bc /opt/microchip/xc32/v4.20/bin/bin/../../lib/gcc/pic32mx/8.3.1/fpu64/libgcc.a(_udivdi3.o)
                0x000000009d0026cc                __udivdi3
 .text          0x000000009d002a88      0x3b8 /opt/microchip/xc32/v4.20/bin/bin/../../lib/gcc/pic32mx/8.3.1/fpu64/libgcc.a(_umoddi3.o)
                0x000000009d002a88                __umoddi3

.text.CAN1_InterruptHandler
                0x000000009d002e40      0x354
 .text.CAN1_InterruptHandler
                0x000000009d002e40      0x354 build/pic32mk_mcj_curiosity_pro/production/_ext/1333799919/plib_canfd1.o
                0x000000009d002e40                CAN1_InterruptHandler

.text.malloc    0x000000009d003194      0x290
 .text.malloc   0x000000009d003194      0x290 /opt/microchip/xc32/v4.20/bin/bin/../../lib/gcc/pic32mx/8.3.1/../../../../pic32mx/lib/fpu64/libc-musl.a(malloc.o)
                0x000000009d003194                malloc

.text.CAN1_MessageTransmit
                0x000000009d003424      0x260
 .text.CAN1_MessageTransmit
                0x000000009d003424      0x260 build/pic32mk_mcj_curiosity_pro/production/_ext/1333799919/plib_canfd1.o
                0x000000009d003424                CAN1_MessageTransmit

.text.__fmt_x   0x000000009d003684      0x208
 .text.__fmt_x  0x000000009d003684      0x208 /opt/microchip/xc32/v4.20/bin/bin/../../lib/gcc/pic32mx/8.3.1/../../../../pic32mx/lib/fpu64/libc-musl.a(__fmt_x.o)
                0x000000009d003684                __fmt_x
                0x000000009d003684                __fmt_x_needed

.text.CAN1_Handler
                0x000000009d00388c      0x1d0
 .text.CAN1_Handler
                0x000000009d00388c      0x1d0 build/pic32mk_mcj_curiosity_pro/production/_ext/1661106823/interrupts.o
                0x000000009d00388c                CAN1_Handler

.text.DMA7_Handler
                0x000000009d003a5c      0x1d0
 .text.DMA7_Handler
                0x000000009d003a5c      0x1d0 build/pic32mk_mcj_curiosity_pro/production/_ext/1661106823/interrupts.o
                0x000000009d003a5c                DMA7_Handler

.text.free      0x000000009d003c2c      0x198
 .text.free     0x000000009d003c2c      0x198 /opt/microchip/xc32/v4.20/bin/bin/../../lib/gcc/pic32mx/8.3.1/../../../../pic32mx/lib/fpu64/libc-musl.a(malloc.o)
                0x000000009d003c2c                free

.text.__pop_int
                0x000000009d003dc4      0x188
 .text.__pop_int
                0x000000009d003dc4      0x188 /opt/microchip/xc32/v4.20/bin/bin/../../lib/gcc/pic32mx/8.3.1/../../../../pic32mx/lib/fpu64/libc-musl.a(__pop_int.o)
                0x000000009d003dc4                __pop_int
                0x000000009d003dc4                __pop_int_needed

.text           0x000000009d000000      0x168
 .text          0x000000009d000000      0x168 /opt/microchip/xc32/v4.20/bin/bin/../../lib/gcc/pic32mx/8.3.1/../../../../pic32mx/lib/fpu64/libpic32.a(strlen.o)
                0x000000009d000000                strlen

.text._sbrk_init
                0x000000009d003f4c      0x154
 .text._sbrk_init
                0x000000009d003f4c      0x154 /opt/microchip/xc32/v4.20/bin/bin/../../lib/gcc/pic32mx/8.3.1/../../../../pic32mx/lib/fpu64/libpic32.a(sbrk.o)
                0x000000009d003f4c                _sbrk_init

.text.__fmt_d   0x000000009d0040a0      0x150
 .text.__fmt_d  0x000000009d0040a0      0x150 /opt/microchip/xc32/v4.20/bin/bin/../../lib/gcc/pic32mx/8.3.1/../../../../pic32mx/lib/fpu64/libc-musl.a(__fmt_d.o)
                0x000000009d0040a0                __fmt_d
                0x000000009d0040a0                __fmt_d_needed

.text.__cvt_u   0x000000009d0041f0      0x13c
 .text.__cvt_u  0x000000009d0041f0      0x13c /opt/microchip/xc32/v4.20/bin/bin/../../lib/gcc/pic32mx/8.3.1/../../../../pic32mx/lib/fpu64/libc-musl.a(__fmt_u.o)
                0x000000009d0041f0                __cvt_u

.text.UART1_Read
                0x000000009d00432c      0x130
 .text.UART1_Read
                0x000000009d00432c      0x130 build/pic32mk_mcj_curiosity_pro/production/_ext/2120699413/plib_uart1.o
                0x000000009d00432c                UART1_Read

.text.DMA7_InterruptHandler
                0x000000009d00445c      0x12c
 .text.DMA7_InterruptHandler
                0x000000009d00445c      0x12c build/pic32mk_mcj_curiosity_pro/production/_ext/2121194872/plib_dmac.o
                0x000000009d00445c                DMA7_InterruptHandler

.text.DMAC_ChannelSetAddresses
                0x000000009d004588      0x128
 .text.DMAC_ChannelSetAddresses
                0x000000009d004588      0x128 build/pic32mk_mcj_curiosity_pro/production/_ext/2121194872/plib_dmac.o

.text.CAN1_Initialize
                0x000000009d0046b0      0x120
 .text.CAN1_Initialize
                0x000000009d0046b0      0x120 build/pic32mk_mcj_curiosity_pro/production/_ext/1333799919/plib_canfd1.o
                0x000000009d0046b0                CAN1_Initialize

.text.__write_buffered
                0x000000009d0047d0      0x114
 .text.__write_buffered
                0x000000009d0047d0      0x114 /opt/microchip/xc32/v4.20/bin/bin/../../lib/gcc/pic32mx/8.3.1/../../../../pic32mx/lib/fpu64/libc-musl.a(__stdio_write.o)
                0x000000009d0047d0                __do_write

.text.__stdio_write_buffered
                0x000000009d0048e4      0x104
 .text.__stdio_write_buffered
                0x000000009d0048e4      0x104 /opt/microchip/xc32/v4.20/bin/bin/../../lib/gcc/pic32mx/8.3.1/../../../../pic32mx/lib/fpu64/libc-musl.a(__stdio_write.o)
                0x000000009d0048e4                __stdio_write_buffered

.text.__pad     0x000000009d0049e8      0x100
 .text.__pad    0x000000009d0049e8      0x100 /opt/microchip/xc32/v4.20/bin/bin/../../lib/gcc/pic32mx/8.3.1/../../../../pic32mx/lib/fpu64/libc-musl.a(__printf_core.o)
                0x000000009d0049e8                __pad

.text.__fmt_o   0x000000009d004ae8       0xf4
 .text.__fmt_o  0x000000009d004ae8       0xf4 /opt/microchip/xc32/v4.20/bin/bin/../../lib/gcc/pic32mx/8.3.1/../../../../pic32mx/lib/fpu64/libc-musl.a(__fmt_o.o)
                0x000000009d004ae8                __fmt_o
                0x000000009d004ae8                __fmt_o_needed

.text.CAN1_MessageReceive
                0x000000009d004bdc       0xec
 .text.CAN1_MessageReceive
                0x000000009d004bdc       0xec build/pic32mk_mcj_curiosity_pro/production/_ext/1333799919/plib_canfd1.o
                0x000000009d004bdc                CAN1_MessageReceive

.text.__pop_ptr
                0x000000009d004cc8       0xe4
 .text.__pop_ptr
                0x000000009d004cc8       0xe4 /opt/microchip/xc32/v4.20/bin/bin/../../lib/gcc/pic32mx/8.3.1/../../../../pic32mx/lib/fpu64/libc-musl.a(__pop_ptr.o)
                0x000000009d004cc8                __pop_ptr
                0x000000009d004cc8                __pop_ptr_needed

.text.DMAC_ChannelTransfer
                0x000000009d004dac       0xdc
 .text.DMAC_ChannelTransfer
                0x000000009d004dac       0xdc build/pic32mk_mcj_curiosity_pro/production/_ext/2121194872/plib_dmac.o
                0x000000009d004dac                DMAC_ChannelTransfer

.text.general_exception
                0x000000009d004e88       0xdc
 .text.general_exception
                0x000000009d004e88       0xdc /opt/microchip/xc32/v4.20/bin/bin/../../lib/gcc/pic32mx/8.3.1/../../../../pic32mx/lib/fpu64/libpic32.a(general-exception.o)
                0x000000009d004e88                _general_exception_context

.text.__stdio_read
                0x000000009d004f64       0xcc
 .text.__stdio_read
                0x000000009d004f64       0xcc /opt/microchip/xc32/v4.20/bin/bin/../../lib/gcc/pic32mx/8.3.1/../../../../pic32mx/lib/fpu64/libc-musl.a(__stdio_read.o)
                0x000000009d004f64                __stdio_read

.text.GPIO_Initialize
                0x000000009d005030       0xc8
 .text.GPIO_Initialize
                0x000000009d005030       0xc8 build/pic32mk_mcj_curiosity_pro/production/_ext/2121102356/plib_gpio.o
                0x000000009d005030                GPIO_Initialize

.rodata.str1.4  0x000000009d0050f8       0xc8
 .rodata.str1.4
                0x000000009d0050f8       0xc8 build/pic32mk_mcj_curiosity_pro/production/_ext/1360937237/main_pic32mk_mcj.o

.text.__stdio_close_rw
                0x000000009d0051c0       0xc0
 .text.__stdio_close_rw
                0x000000009d0051c0       0xc0 /opt/microchip/xc32/v4.20/bin/bin/../../lib/gcc/pic32mx/8.3.1/../../../../pic32mx/lib/fpu64/libc-musl.a(__stdio_close.o)
                0x000000009d0051c0                __stdio_close_rw

.text.__fmt_u   0x000000009d005280       0xbc
 .text.__fmt_u  0x000000009d005280       0xbc /opt/microchip/xc32/v4.20/bin/bin/../../lib/gcc/pic32mx/8.3.1/../../../../pic32mx/lib/fpu64/libc-musl.a(__fmt_u.o)
                0x000000009d005280                __fmt_u
                0x000000009d005280                __fmt_u_needed

.text.floor     0x000000009d00533c       0xb4
 .text.floor    0x000000009d00533c       0xb4 /opt/microchip/xc32/v4.20/bin/bin/../../lib/gcc/pic32mx/8.3.1/../../../../pic32mx/lib/fpu64/libm-musl.a(floor.o)
                0x000000009d00533c                floor

.text.SYS_Initialize
                0x000000009d0053f0       0xb0
 .text.SYS_Initialize
                0x000000009d0053f0       0xb0 build/pic32mk_mcj_curiosity_pro/production/_ext/1661106823/initialization.o
                0x000000009d0053f0                SYS_Initialize

.text._sbrk     0x000000009d0054a0       0xb0
 .text._sbrk    0x000000009d0054a0       0xb0 /opt/microchip/xc32/v4.20/bin/bin/../../lib/gcc/pic32mx/8.3.1/../../../../pic32mx/lib/fpu64/libpic32.a(sbrk.o)
                0x000000009d0054a0                _sbrk

.text.setvbuf   0x000000009d005550       0xac
 .text.setvbuf  0x000000009d005550       0xac /opt/microchip/xc32/v4.20/bin/bin/../../lib/gcc/pic32mx/8.3.1/../../../../pic32mx/lib/fpu64/libc-musl.a(setvbuf.o)
                0x000000009d005550                setvbuf

.text.unbin     0x000000009d0055fc       0xac
 .text.unbin    0x000000009d0055fc       0xac /opt/microchip/xc32/v4.20/bin/bin/../../lib/gcc/pic32mx/8.3.1/../../../../pic32mx/lib/fpu64/libc-musl.a(malloc.o)

.text.CLK_Initialize
                0x000000009d0056a8       0xa8
 .text.CLK_Initialize
                0x000000009d0056a8       0xa8 build/pic32mk_mcj_curiosity_pro/production/_ext/899710619/plib_clk.o
                0x000000009d0056a8                CLK_Initialize

.text           0x000000009d005750       0xa8
 .text          0x000000009d005750       0xa8 /opt/microchip/xc32/v4.20/bin/bin/../../lib/gcc/pic32mx/8.3.1/../../../../pic32mx/lib/fpu64/libpic32.a(memset.o)
                0x000000009d005750                memset

.text.__fmt_s   0x000000009d0057f8       0xa4
 .text.__fmt_s  0x000000009d0057f8       0xa4 /opt/microchip/xc32/v4.20/bin/bin/../../lib/gcc/pic32mx/8.3.1/../../../../pic32mx/lib/fpu64/libc-musl.a(__fmt_s.o)
                0x000000009d0057f8                __fmt_s
                0x000000009d0057f8                __fmt_0_needed
                0x000000009d0057f8                __fmt_s_needed

.text.__out     0x000000009d00589c       0x8c
 .text.__out    0x000000009d00589c       0x8c /opt/microchip/xc32/v4.20/bin/bin/../../lib/gcc/pic32mx/8.3.1/../../../../pic32mx/lib/fpu64/libc-musl.a(__out.o)
                0x000000009d00589c                __out
                0x000000009d00589c                __out_needed

.text.normalize
                0x000000009d005928       0x8c
 .text.normalize
                0x000000009d005928       0x8c /opt/microchip/xc32/v4.20/bin/bin/../../lib/gcc/pic32mx/8.3.1/../../../../pic32mx/lib/fpu64/libm-musl.a(fma.o)

.text.scalbn    0x000000009d0059b4       0x8c
 .text.scalbn   0x000000009d0059b4       0x8c /opt/microchip/xc32/v4.20/bin/bin/../../lib/gcc/pic32mx/8.3.1/../../../../pic32mx/lib/fpu64/libm-musl.a(scalbn.o)
                0x000000009d0059b4                scalbn

.text.dinit.startup
                0x000000009d005a40       0x80
 .text.dinit.startup
                0x000000009d005a40       0x80 /opt/microchip/xc32/v4.20/bin/bin/../../lib/gcc/pic32mx/8.3.1/../../../../pic32mx/lib/fpu64/libpic32.a(pic32_data_init_0_1.o)
                0x000000009d005a40                __copy_needed
                0x000000009d005a40                __pic32_data_init_impl

.text.__vsnprintf
                0x000000009d005ac0       0x80
 .text.__vsnprintf
                0x000000009d005ac0       0x80 /opt/microchip/xc32/v4.20/bin/bin/../../lib/gcc/pic32mx/8.3.1/../../../../pic32mx/lib/fpu64/libc-musl.a(__int_vsnprintf.o)
                0x000000009d005ac0                __vsnprintf

.text.atoi      0x000000009d005b40       0x7c
 .text.atoi     0x000000009d005b40       0x7c /opt/microchip/xc32/v4.20/bin/bin/../../lib/gcc/pic32mx/8.3.1/../../../../pic32mx/lib/fpu64/libc-musl.a(atoi.o)
                0x000000009d005b40                atoi

.text.__readv   0x000000009d005bbc       0x7c
 .text.__readv  0x000000009d005bbc       0x7c /opt/microchip/xc32/v4.20/bin/bin/../../lib/gcc/pic32mx/8.3.1/../../../../pic32mx/lib/fpu64/libc-musl.a(readv.o)
                0x000000009d005bbc                readv

.text.__writev  0x000000009d005c38       0x7c
 .text.__writev
                0x000000009d005c38       0x7c /opt/microchip/xc32/v4.20/bin/bin/../../lib/gcc/pic32mx/8.3.1/../../../../pic32mx/lib/fpu64/libc-musl.a(writev.o)
                0x000000009d005c38                writev

.text.alloc_rev
                0x000000009d005cb4       0x74
 .text.alloc_rev
                0x000000009d005cb4       0x74 /opt/microchip/xc32/v4.20/bin/bin/../../lib/gcc/pic32mx/8.3.1/../../../../pic32mx/lib/fpu64/libc-musl.a(malloc.o)

.text.UART1_Write
                0x000000009d000190       0x70
 .text.UART1_Write
                0x000000009d000190       0x70 build/pic32mk_mcj_curiosity_pro/production/_ext/2120699413/plib_uart1.o
                0x000000009d000190                UART1_Write

.text.alloc_fwd
                0x000000009d005d28       0x70
 .text.alloc_fwd
                0x000000009d005d28       0x70 /opt/microchip/xc32/v4.20/bin/bin/../../lib/gcc/pic32mx/8.3.1/../../../../pic32mx/lib/fpu64/libc-musl.a(malloc.o)

.text.APP_CAN_Callback
                0x000000009d005d98       0x6c
 .text.APP_CAN_Callback
                0x000000009d005d98       0x6c build/pic32mk_mcj_curiosity_pro/production/_ext/1360937237/main_pic32mk_mcj.o
                0x000000009d005d98                APP_CAN_Callback

.text.a_clz_64  0x000000009d005e04       0x6c
 .text.a_clz_64
                0x000000009d005e04       0x6c /opt/microchip/xc32/v4.20/bin/bin/../../lib/gcc/pic32mx/8.3.1/../../../../pic32mx/lib/fpu64/libm-musl.a(fma.o)

.text.DMAC_Initialize
                0x000000009d005e70       0x68
 .text.DMAC_Initialize
                0x000000009d005e70       0x68 build/pic32mk_mcj_curiosity_pro/production/_ext/2121194872/plib_dmac.o
                0x000000009d005e70                DMAC_Initialize

.text.SPI2_Initialize
                0x000000009d005ed8       0x68
 .text.SPI2_Initialize
                0x000000009d005ed8       0x68 build/pic32mk_mcj_curiosity_pro/production/_ext/1753921419/plib_spi2_master.o
                0x000000009d005ed8                SPI2_Initialize

.text.write     0x000000009d005f40       0x64
 .text.write    0x000000009d005f40       0x64 build/pic32mk_mcj_curiosity_pro/production/_ext/529947251/xc32_monitor.o
                0x000000009d005f40                write

.text.bin_index
                0x000000009d005fa4       0x60
 .text.bin_index
                0x000000009d005fa4       0x60 /opt/microchip/xc32/v4.20/bin/bin/../../lib/gcc/pic32mx/8.3.1/../../../../pic32mx/lib/fpu64/libc-musl.a(malloc.o)

.text.UART1DmaWrite
                0x000000009d006004       0x5c
 .text.UART1DmaWrite
                0x000000009d006004       0x5c build/pic32mk_mcj_curiosity_pro/production/_ext/1360937237/main_pic32mk_mcj.o
                0x000000009d006004                UART1DmaWrite

.rodata         0x000000009d006060       0x5c
 .rodata        0x000000009d006060       0x5c /opt/microchip/xc32/v4.20/bin/bin/../../lib/gcc/pic32mx/8.3.1/../../../../pic32mx/lib/fpu64/libc-musl.a(malloc.o)

.text.__fmt_state
                0x000000009d0060bc       0x58
 .text.__fmt_state
                0x000000009d0060bc       0x58 /opt/microchip/xc32/v4.20/bin/bin/../../lib/gcc/pic32mx/8.3.1/../../../../pic32mx/lib/fpu64/libc-musl.a(__printf_core.o)
                0x000000009d0060bc                __fmt_state

.text.adjust_size
                0x000000009d006114       0x58
 .text.adjust_size
                0x000000009d006114       0x58 /opt/microchip/xc32/v4.20/bin/bin/../../lib/gcc/pic32mx/8.3.1/../../../../pic32mx/lib/fpu64/libc-musl.a(malloc.o)

.text.trim      0x000000009d00616c       0x58
 .text.trim     0x000000009d00616c       0x58 /opt/microchip/xc32/v4.20/bin/bin/../../lib/gcc/pic32mx/8.3.1/../../../../pic32mx/lib/fpu64/libc-musl.a(malloc.o)

.text.main_entry
                0x000000009d0061c4       0x54
 .text.main_entry
                0x000000009d0061c4       0x54 /tmp/ccuOZEZr.o
                0x000000009d0061f8                __crt0_exit

.text.read      0x000000009d006218       0x4c
 .text.read     0x000000009d006218       0x4c build/pic32mk_mcj_curiosity_pro/production/_ext/529947251/xc32_monitor.o
                0x000000009d006218                read

.text.__pop_float
                0x000000009d006264       0x48
 .text.__pop_float
                0x000000009d006264       0x48 /opt/microchip/xc32/v4.20/bin/bin/../../lib/gcc/pic32mx/8.3.1/../../../../pic32mx/lib/fpu64/libc-musl.a(__pop_float.o)
                0x000000009d006264                __pop_float
                0x000000009d006264                __pop_float_needed

.text.UART1_ErrorClear.part.0
                0x000000009d0062ac       0x44
 .text.UART1_ErrorClear.part.0
                0x000000009d0062ac       0x44 build/pic32mk_mcj_curiosity_pro/production/_ext/2120699413/plib_uart1.o

.text           0x000000009d0062f0       0x44
 .text          0x000000009d0062f0       0x44 /opt/microchip/xc32/v4.20/bin/bin/../../lib/gcc/pic32mx/8.3.1/../../../../pic32mx/lib/fpu64/pic32_software_reset.o
                0x000000009d0062f0                __pic32_software_reset

.text.__towrite
                0x000000009d006334       0x44
 .text.__towrite
                0x000000009d006334       0x44 /opt/microchip/xc32/v4.20/bin/bin/../../lib/gcc/pic32mx/8.3.1/../../../../pic32mx/lib/fpu64/libc-musl.a(__towrite.o)
                0x000000009d006334                __towrite

.text.CAN1_InterruptGet
                0x000000009d006378       0x40
 .text.CAN1_InterruptGet
                0x000000009d006378       0x40 build/pic32mk_mcj_curiosity_pro/production/_ext/1333799919/plib_canfd1.o
                0x000000009d006378                CAN1_InterruptGet

.text.EVIC_Initialize
                0x000000009d0063b8       0x40
 .text.EVIC_Initialize
                0x000000009d0063b8       0x40 build/pic32mk_mcj_curiosity_pro/production/_ext/2121156184/plib_evic.o
                0x000000009d0063b8                EVIC_Initialize

.text.__towrite_rw
                0x000000009d0063f8       0x3c
 .text.__towrite_rw
                0x000000009d0063f8       0x3c /opt/microchip/xc32/v4.20/bin/bin/../../lib/gcc/pic32mx/8.3.1/../../../../pic32mx/lib/fpu64/libc-musl.a(__towrite_rw.o)
                0x000000009d0063f8                __towrite_rw_needed
                0x000000009d0063f8                __towrite_rw

.text.__expand_heap
                0x000000009d006434       0x3c
 .text.__expand_heap
                0x000000009d006434       0x3c /opt/microchip/xc32/v4.20/bin/bin/../../lib/gcc/pic32mx/8.3.1/../../../../pic32mx/lib/fpu64/libc-musl.a(expand_heap.o)
                0x000000009d006434                __expand_heap

.text.__vfprintf
                0x000000009d006470       0x3c
 .text.__vfprintf
                0x000000009d006470       0x3c /opt/microchip/xc32/v4.20/bin/bin/../../lib/gcc/pic32mx/8.3.1/../../../../pic32mx/lib/fpu64/libc-musl.a(__int_vfprintf.o)
                0x000000009d006470                __vfprintf

.text           0x000000009d0064ac       0x78
 .text          0x000000009d0064ac       0x3c /opt/microchip/xc32/v4.20/bin/bin/../../lib/gcc/pic32mx/8.3.1/fpu64/libgcc.a(_lshrdi3.o)
                0x000000009d0064ac                __lshrdi3
 .text          0x000000009d0064e8       0x3c /opt/microchip/xc32/v4.20/bin/bin/../../lib/gcc/pic32mx/8.3.1/fpu64/libgcc.a(_ashldi3.o)
                0x000000009d0064e8                __ashldi3

.text.lock_bin  0x000000009d006524       0x34
 .text.lock_bin
                0x000000009d006524       0x34 /opt/microchip/xc32/v4.20/bin/bin/../../lib/gcc/pic32mx/8.3.1/../../../../pic32mx/lib/fpu64/libc-musl.a(malloc.o)

.text.__fwrite  0x000000009d006558       0x34
 .text.__fwrite
                0x000000009d006558       0x34 /opt/microchip/xc32/v4.20/bin/bin/../../lib/gcc/pic32mx/8.3.1/../../../../pic32mx/lib/fpu64/libc-musl.a(__fwrite.o)
                0x000000009d006558                __fwrite_needed
                0x000000009d006558                __fwrite

.text.APP_CAN_Error_Callback
                0x000000009d00658c       0x30
 .text.APP_CAN_Error_Callback
                0x000000009d00658c       0x30 build/pic32mk_mcj_curiosity_pro/production/_ext/1360937237/main_pic32mk_mcj.o
                0x000000009d00658c                APP_CAN_Error_Callback

.text.UART1_Initialize
                0x000000009d0065bc       0x2c
 .text.UART1_Initialize
                0x000000009d0065bc       0x2c build/pic32mk_mcj_curiosity_pro/production/_ext/2120699413/plib_uart1.o
                0x000000009d0065bc                UART1_Initialize

.text.memcpy    0x000000009d0065e8       0x2c
 .text.memcpy   0x000000009d0065e8       0x2c /opt/microchip/xc32/v4.20/bin/bin/../../lib/gcc/pic32mx/8.3.1/../../../../pic32mx/lib/fpu64/libc-musl.a(memcpy.o)
                0x000000009d0065e8                memcpy

.text._stub_sbd_memlayout
                0x000000009d006614       0x2c
 .text._stub_sbd_memlayout
                0x000000009d006614       0x2c /opt/microchip/xc32/v4.20/bin/bin/../../lib/gcc/pic32mx/8.3.1/../../../../pic32mx/lib/fpu64/libpic32.a(sbrk.o)
                0x000000009d006614                _stub_sbd_memlayout
                0x000000009d006614                _sbd_memlayout

.text.__wrap_sprintf
                0x000000009d006640       0x28
 .text.__wrap_sprintf
                0x000000009d006640       0x28 /opt/microchip/xc32/v4.20/bin/bin/../../lib/gcc/pic32mx/8.3.1/../../../../pic32mx/lib/fpu64/libc-musl.a(__sio_sprintf_dfoux.o)
                0x000000009d006640                _sprintf_cdeEnopuxX
                0x000000009d006640                _dsprintf_cdfFgGnopuxX
                0x000000009d006640                _sprintf_cdeEfFgGnopuxX
                0x000000009d006640                _dsprintf_cdeEfFgGnopuxX
                0x000000009d006640                _sprintf_cdfFnopuxX
                0x000000009d006640                _dsprintf_cdeEnopuxX
                0x000000009d006640                _sprintf_cdeEgGnopuxX
                0x000000009d006640                _sprintf_cdeEfFnopuxX
                0x000000009d006640                _sprintf_cdfFgGnopuxX
                0x000000009d006640                _dsprintf_cdeEgGnopuxX
                0x000000009d006640                _dsprintf_cdeEfFnopuxX
                0x000000009d006640                _sprintf_cdgGnopuxX
                0x000000009d006640                _dsprintf_cdgGnopuxX
                0x000000009d006640                _dsprintf_cdfFnopuxX

.text.strcpy    0x000000009d006668       0x28
 .text.strcpy   0x000000009d006668       0x28 /opt/microchip/xc32/v4.20/bin/bin/../../lib/gcc/pic32mx/8.3.1/../../../../pic32mx/lib/fpu64/libc-musl.a(strcpy.o)
                0x000000009d006668                strcpy

.text.__vsprintf
                0x000000009d006690       0x28
 .text.__vsprintf
                0x000000009d006690       0x28 /opt/microchip/xc32/v4.20/bin/bin/../../lib/gcc/pic32mx/8.3.1/../../../../pic32mx/lib/fpu64/libc-musl.a(__int_vsprintf.o)
                0x000000009d006690                __vsprintf

.rodata.cst8    0x000000009d0066b8       0x28
 .rodata.cst8   0x000000009d0066b8       0x28 /opt/microchip/xc32/v4.20/bin/bin/../../lib/gcc/pic32mx/8.3.1/../../../../pic32mx/lib/fpu64/libc-musl.a(__fmt_a.o)

.text.CAN1_CallbackRegister
                0x000000009d0066e0       0x24
 .text.CAN1_CallbackRegister
                0x000000009d0066e0       0x24 build/pic32mk_mcj_curiosity_pro/production/_ext/1333799919/plib_canfd1.o
                0x000000009d0066e0                CAN1_CallbackRegister

.text.setbuf    0x000000009d006704       0x24
 .text.setbuf   0x000000009d006704       0x24 /opt/microchip/xc32/v4.20/bin/bin/../../lib/gcc/pic32mx/8.3.1/../../../../pic32mx/lib/fpu64/libc-musl.a(setbuf.o)
                0x000000009d006704                setbuf

.text.dinit.startup
                0x000000009d006728       0x20
 .text.dinit.startup
                0x000000009d006728       0x20 /opt/microchip/xc32/v4.20/bin/bin/../../lib/gcc/pic32mx/8.3.1/../../../../pic32mx/lib/fpu64/libpic32.a(pic32_data_init_wrapper.o)
                0x000000009d006728                __pic32_data_init

.rodata.cst8    0x000000009d006748       0x20
 .rodata.cst8   0x000000009d006748       0x20 /opt/microchip/xc32/v4.20/bin/bin/../../lib/gcc/pic32mx/8.3.1/../../../../pic32mx/lib/fpu64/libc-musl.a(__fmt_fp.o)

.text.__fwrite_min
                0x000000009d006768       0x20
 .text.__fwrite_min
                0x000000009d006768       0x20 /opt/microchip/xc32/v4.20/bin/bin/../../lib/gcc/pic32mx/8.3.1/../../../../pic32mx/lib/fpu64/libc-musl.a(__out.o)
                0x000000009d006768                __stdio_write
                0x000000009d006768                __stdio_write_unbuffered

.text.stpcpy    0x000000009d006788       0x20
 .text.stpcpy   0x000000009d006788       0x20 /opt/microchip/xc32/v4.20/bin/bin/../../lib/gcc/pic32mx/8.3.1/../../../../pic32mx/lib/fpu64/libc-musl.a(stpcpy.o)
                0x000000009d006788                stpcpy
                0x000000009d006788                __stpcpy

.rodata.cst8    0x000000009d0067a8       0x20
 .rodata.cst8   0x000000009d0067a8       0x20 /opt/microchip/xc32/v4.20/bin/bin/../../lib/gcc/pic32mx/8.3.1/../../../../pic32mx/lib/fpu64/libm-musl.a(fma.o)

.text.DMAC_ChannelCallbackRegister
                0x000000009d0067c8       0x1c
 .text.DMAC_ChannelCallbackRegister
                0x000000009d0067c8       0x1c build/pic32mk_mcj_curiosity_pro/production/_ext/2121194872/plib_dmac.o
                0x000000009d0067c8                DMAC_ChannelCallbackRegister

.text.tolower   0x000000009d0067e4       0x1c
 .text.tolower  0x000000009d0067e4       0x1c /opt/microchip/xc32/v4.20/bin/bin/../../lib/gcc/pic32mx/8.3.1/../../../../pic32mx/lib/fpu64/libc-musl.a(tolower.o)
                0x000000009d0067e4                tolower

.text.toupper   0x000000009d006800       0x1c
 .text.toupper  0x000000009d006800       0x1c /opt/microchip/xc32/v4.20/bin/bin/../../lib/gcc/pic32mx/8.3.1/../../../../pic32mx/lib/fpu64/libc-musl.a(toupper.o)
                0x000000009d006800                toupper

.MIPS.abiflags  0x000000009d000168       0x18
 .MIPS.abiflags
                0x000000009d000168       0x18 /opt/microchip/xc32/v4.20/bin/bin/../../lib/gcc/pic32mx/8.3.1/../../../../pic32mx/lib/fpu64/debug-exception-return.o

.text.CAN1_ErrorCallbackRegister
                0x000000009d00681c       0x18
 .text.CAN1_ErrorCallbackRegister
                0x000000009d00681c       0x18 build/pic32mk_mcj_curiosity_pro/production/_ext/1333799919/plib_canfd1.o
                0x000000009d00681c                CAN1_ErrorCallbackRegister

.text._general_exception_handler
                0x000000009d006834       0x18
 .text._general_exception_handler
                0x000000009d006834       0x18 build/pic32mk_mcj_curiosity_pro/production/_ext/1661106823/exceptions.o
                0x000000009d006834                _general_exception_handler

.text.UART1DmaChannelHandler_State
                0x000000009d00684c       0x18
 .text.UART1DmaChannelHandler_State
                0x000000009d00684c       0x18 build/pic32mk_mcj_curiosity_pro/production/_ext/1360937237/main_pic32mk_mcj.o
                0x000000009d00684c                UART1DmaChannelHandler_State

.text           0x000000009d006864       0x18
 .text          0x000000009d006864       0x18 /opt/microchip/xc32/v4.20/bin/bin/../../lib/gcc/pic32mx/8.3.1/../../../../pic32mx/lib/fpu64/libpic32.a(default-nmi-handler.o)
                0x000000009d006864                _nmi_handler

.rodata         0x000000009d00687c       0x18
 .rodata        0x000000009d00687c       0x18 /opt/microchip/xc32/v4.20/bin/bin/../../lib/gcc/pic32mx/8.3.1/../../../../pic32mx/lib/fpu64/libc-musl.a(__printf_core.o)

.rodata.cst8    0x000000009d006898       0x18
 .rodata.cst8   0x000000009d006898       0x18 /opt/microchip/xc32/v4.20/bin/bin/../../lib/gcc/pic32mx/8.3.1/../../../../pic32mx/lib/fpu64/libm-musl.a(floor.o)

.rodata         0x000000009d0068b0       0x10
 .rodata        0x000000009d0068b0       0x10 build/pic32mk_mcj_curiosity_pro/production/_ext/1333799919/plib_canfd1.o

.text.UART1_ReceiverIsReady
                0x000000009d0068c0       0x10
 .text.UART1_ReceiverIsReady
                0x000000009d0068c0       0x10 build/pic32mk_mcj_curiosity_pro/production/_ext/2120699413/plib_uart1.o
                0x000000009d0068c0                UART1_ReceiverIsReady

.text._bootstrap_exception_handler
                0x000000009d0068d0       0x10
 .text._bootstrap_exception_handler
                0x000000009d0068d0       0x10 build/pic32mk_mcj_curiosity_pro/production/_ext/1661106823/exceptions.o
                0x000000009d0068d0                _bootstrap_exception_handler

.rodata.str1.4  0x000000009d0068e0       0x20
 .rodata.str1.4
                0x000000009d0068e0       0x10 /opt/microchip/xc32/v4.20/bin/bin/../../lib/gcc/pic32mx/8.3.1/../../../../pic32mx/lib/fpu64/libc-musl.a(__fmt_fp.o)
 .rodata.str1.4
                0x000000009d0068f0       0x10 /opt/microchip/xc32/v4.20/bin/bin/../../lib/gcc/pic32mx/8.3.1/../../../../pic32mx/lib/fpu64/libc-musl.a(__fmt_a.o)

.rodata.cst8    0x000000009d006900       0x10
 .rodata.cst8   0x000000009d006900       0x10 /opt/microchip/xc32/v4.20/bin/bin/../../lib/gcc/pic32mx/8.3.1/../../../../pic32mx/lib/fpu64/libm-musl.a(scalbn.o)

.text.CAN1_ErrorGet
                0x000000009d006910        0x8
 .text.CAN1_ErrorGet
                0x000000009d006910        0x8 build/pic32mk_mcj_curiosity_pro/production/_ext/1333799919/plib_canfd1.o
                0x000000009d006910                CAN1_ErrorGet

.text._on_reset
                0x000000009d006918        0x8
 .text._on_reset
                0x000000009d006918        0x8 /opt/microchip/xc32/v4.20/bin/bin/../../lib/gcc/pic32mx/8.3.1/../../../../pic32mx/lib/fpu64/libpic32.a(default-on-reset.o)
                0x000000009d006918                _on_reset

.text._on_bootstrap
                0x000000009d006920        0x8
 .text._on_bootstrap
                0x000000009d006920        0x8 /opt/microchip/xc32/v4.20/bin/bin/../../lib/gcc/pic32mx/8.3.1/../../../../pic32mx/lib/fpu64/libpic32.a(default-on-bootstrap.o)
                0x000000009d006920                _on_bootstrap

.rodata.str1.4  0x000000009d006928        0x8
 .rodata.str1.4
                0x000000009d006928        0x8 /opt/microchip/xc32/v4.20/bin/bin/../../lib/gcc/pic32mx/8.3.1/../../../../pic32mx/lib/fpu64/libc-musl.a(__printf_core.o)

.text.__dummy   0x000000009d006930       0x10
 .text.__dummy  0x000000009d006930        0x8 /opt/microchip/xc32/v4.20/bin/bin/../../lib/gcc/pic32mx/8.3.1/../../../../pic32mx/lib/fpu64/libc-musl.a(stdin.o)
                0x000000009d006930                __stdio_seek_rw
 .text.__dummy  0x000000009d006938        0x8 /opt/microchip/xc32/v4.20/bin/bin/../../lib/gcc/pic32mx/8.3.1/../../../../pic32mx/lib/fpu64/libc-musl.a(__fopen.o)
                0x000000009d006938                __stdio_seek

.text.lseek     0x000000009d006940        0x8
 .text.lseek    0x000000009d006940        0x8 /opt/microchip/xc32/v4.20/bin/bin/../../lib/gcc/pic32mx/8.3.1/../../../../pic32mx/lib/fpu64/libpic32.a(lseek.o)
                0x000000009d006940                lseek

.text.close     0x000000009d006948        0x8
 .text.close    0x000000009d006948        0x8 /opt/microchip/xc32/v4.20/bin/bin/../../lib/gcc/pic32mx/8.3.1/../../../../pic32mx/lib/fpu64/libpic32.a(close.o)
                0x000000009d006948                close
